

Microchip MPLAB XC8 Assembler V2.41 build 20230208172133 
                                                                                               Sun Jun 25 14:26:44 2023

Microchip MPLAB XC8 C Compiler v2.41 (Free license) build 20230208172133 Og1 
     1                           	processor	16F877A
     2                           	pagewidth 120
     3                           	opt	flic
     4                           	psect	idataBANK1,global,class=CODE,delta=2,noexec
     5                           	psect	idataBANK3,global,class=CODE,delta=2,noexec
     6                           	psect	strings,global,class=STRING,delta=2,noexec
     7                           	psect	cinit,global,class=CODE,merge=1,delta=2
     8                           	psect	bssCOMMON,global,class=COMMON,space=1,delta=1,noexec
     9                           	psect	dataBANK1,global,class=BANK1,space=1,delta=1,noexec
    10                           	psect	bssBANK3,global,class=BANK3,space=1,delta=1,noexec
    11                           	psect	dataBANK3,global,class=BANK3,space=1,delta=1,noexec
    12                           	psect	cstackBANK3,global,class=BANK3,space=1,delta=1,noexec
    13                           	psect	cstackBANK1,global,class=BANK1,space=1,delta=1,noexec
    14                           	psect	cstackCOMMON,global,class=COMMON,space=1,delta=1,noexec
    15                           	psect	cstackBANK0,global,class=BANK0,space=1,delta=1,noexec
    16                           	psect	maintext,global,class=CODE,split=1,delta=2
    17                           	psect	text1,local,class=CODE,merge=1,delta=2
    18                           	psect	text2,local,class=CODE,merge=1,delta=2,group=1
    19                           	psect	text3,local,class=CODE,merge=1,delta=2
    20                           	psect	text4,local,class=CODE,merge=1,delta=2
    21                           	psect	text5,local,class=CODE,merge=1,delta=2
    22                           	psect	text6,local,class=CODE,merge=1,delta=2
    23                           	psect	text7,local,class=CODE,merge=1,delta=2
    24                           	psect	text8,local,class=CODE,merge=1,delta=2
    25                           	psect	text9,local,class=CODE,merge=1,delta=2
    26                           	psect	text10,local,class=CODE,merge=1,delta=2
    27                           	psect	text11,local,class=CODE,merge=1,delta=2
    28                           	psect	text12,local,class=CODE,merge=1,delta=2
    29                           	psect	text13,local,class=CODE,merge=1,delta=2,group=2
    30                           	psect	text14,local,class=CODE,merge=1,delta=2,group=2
    31                           	psect	text15,local,class=CODE,merge=1,delta=2,group=2
    32                           	psect	text16,local,class=CODE,merge=1,delta=2,group=2
    33                           	psect	text17,local,class=CODE,merge=1,delta=2,group=1
    34                           	psect	text18,local,class=CODE,merge=1,delta=2,group=1
    35                           	psect	text19,local,class=CODE,merge=1,delta=2,group=1
    36                           	psect	text20,local,class=CODE,merge=1,delta=2,group=1
    37                           	psect	text21,local,class=CODE,merge=1,delta=2,group=2
    38                           	psect	text22,local,class=CODE,merge=1,delta=2,group=2
    39                           	psect	text23,local,class=CODE,merge=1,delta=2,group=2
    40                           	psect	text24,local,class=CODE,merge=1,delta=2,group=1
    41                           	psect	text25,local,class=CODE,merge=1,delta=2,group=2
    42                           	psect	text26,local,class=CODE,merge=1,delta=2,group=1
    43                           	psect	text27,local,class=CODE,merge=1,delta=2,group=1
    44                           	psect	text28,local,class=CODE,merge=1,delta=2,group=1
    45                           	psect	text29,local,class=CODE,merge=1,delta=2,group=1
    46                           	psect	text30,local,class=CODE,merge=1,delta=2
    47                           	psect	text31,local,class=CODE,merge=1,delta=2,group=1
    48                           	psect	text32,local,class=CODE,merge=1,delta=2,group=1
    49                           	psect	text33,local,class=CODE,merge=1,delta=2,group=1
    50                           	psect	text34,local,class=CODE,merge=1,delta=2
    51                           	psect	text35,local,class=CODE,merge=1,delta=2
    52                           	psect	text36,local,class=CODE,merge=1,delta=2
    53                           	psect	text37,local,class=CODE,merge=1,delta=2
    54                           	psect	text38,local,class=CODE,merge=1,delta=2
    55                           	psect	text39,local,class=CODE,merge=1,delta=2
    56                           	psect	text40,local,class=CODE,merge=1,delta=2
    57                           	psect	intentry,global,class=CODE,delta=2
    58                           	dabs	1,0x7E,2
    59     0000                     
    60                           ; Version 2.20
    61                           ; Generated 12/02/2020 GMT
    62                           ; 
    63                           ; Copyright © 2020, Microchip Technology Inc. and its subsidiaries ("Microchip")
    64                           ; All rights reserved.
    65                           ; 
    66                           ; This software is developed by Microchip Technology Inc. and its subsidiaries ("Microch
      +                          ip").
    67                           ; 
    68                           ; Redistribution and use in source and binary forms, with or without modification, are
    69                           ; permitted provided that the following conditions are met:
    70                           ; 
    71                           ;     1. Redistributions of source code must retain the above copyright notice, this lis
      +                          t of
    72                           ;        conditions and the following disclaimer.
    73                           ; 
    74                           ;     2. Redistributions in binary form must reproduce the above copyright notice, this 
      +                          list
    75                           ;        of conditions and the following disclaimer in the documentation and/or other
    76                           ;        materials provided with the distribution.
    77                           ; 
    78                           ;     3. Microchip's name may not be used to endorse or promote products derived from th
      +                          is
    79                           ;        software without specific prior written permission.
    80                           ; 
    81                           ; THIS SOFTWARE IS PROVIDED BY MICROCHIP "AS IS" AND ANY EXPRESS OR IMPLIED WARRANTIES,
    82                           ; INCLUDING, BUT NOT LIMITED TO, THE IMPLIED WARRANTIES OF MERCHANTABILITY AND FITNESS F
      +                          OR
    83                           ; PURPOSE ARE DISCLAIMED.  IN NO EVENT SHALL MICROCHIP BE LIABLE FOR ANY DIRECT, INDIREC
      +                          T,
    84                           ; INCIDENTAL, SPECIAL, EXEMPLARY, OR CONSEQUENTIAL DAMAGES (INCLUDING BUT NOT LIMITED TO
    85                           ; PROCUREMENT OF SUBSTITUTE GOODS OR SERVICES; LOSS OF USE, DATA OR PROFITS; OR BUSINESS
    86                           ; INTERRUPTION) HOWSOEVER CAUSED AND ON ANY THEORY OF LIABILITY, WHETHER IN CONTRACT, ST
      +                          RICT
    87                           ; LIABILITY, OR TORT (INCLUDING NEGLIGENCE OR OTHERWISE) ARISING IN ANY WAY OUT OF THE U
      +                          SE OF
    88                           ; THIS SOFTWARE, EVEN IF ADVISED OF THE POSSIBILITY OF SUCH DAMAGE.
    89                           ; 
    90                           ; 
    91                           ; Code-generator required, PIC16F877A Definitions
    92                           ; 
    93                           ; SFR Addresses
    94     0000                     	;# 
    95     0001                     	;# 
    96     0002                     	;# 
    97     0003                     	;# 
    98     0004                     	;# 
    99     0005                     	;# 
   100     0006                     	;# 
   101     0007                     	;# 
   102     0008                     	;# 
   103     0009                     	;# 
   104     000A                     	;# 
   105     000B                     	;# 
   106     000C                     	;# 
   107     000D                     	;# 
   108     000E                     	;# 
   109     000E                     	;# 
   110     000F                     	;# 
   111     0010                     	;# 
   112     0011                     	;# 
   113     0012                     	;# 
   114     0013                     	;# 
   115     0014                     	;# 
   116     0015                     	;# 
   117     0015                     	;# 
   118     0016                     	;# 
   119     0017                     	;# 
   120     0018                     	;# 
   121     0019                     	;# 
   122     001A                     	;# 
   123     001B                     	;# 
   124     001B                     	;# 
   125     001C                     	;# 
   126     001D                     	;# 
   127     001E                     	;# 
   128     001F                     	;# 
   129     0081                     	;# 
   130     0085                     	;# 
   131     0086                     	;# 
   132     0087                     	;# 
   133     0088                     	;# 
   134     0089                     	;# 
   135     008C                     	;# 
   136     008D                     	;# 
   137     008E                     	;# 
   138     0091                     	;# 
   139     0092                     	;# 
   140     0093                     	;# 
   141     0094                     	;# 
   142     0098                     	;# 
   143     0099                     	;# 
   144     009C                     	;# 
   145     009D                     	;# 
   146     009E                     	;# 
   147     009F                     	;# 
   148     010C                     	;# 
   149     010D                     	;# 
   150     010E                     	;# 
   151     010F                     	;# 
   152     018C                     	;# 
   153     018D                     	;# 
   154     0000                     	;# 
   155     0001                     	;# 
   156     0002                     	;# 
   157     0003                     	;# 
   158     0004                     	;# 
   159     0005                     	;# 
   160     0006                     	;# 
   161     0007                     	;# 
   162     0008                     	;# 
   163     0009                     	;# 
   164     000A                     	;# 
   165     000B                     	;# 
   166     000C                     	;# 
   167     000D                     	;# 
   168     000E                     	;# 
   169     000E                     	;# 
   170     000F                     	;# 
   171     0010                     	;# 
   172     0011                     	;# 
   173     0012                     	;# 
   174     0013                     	;# 
   175     0014                     	;# 
   176     0015                     	;# 
   177     0015                     	;# 
   178     0016                     	;# 
   179     0017                     	;# 
   180     0018                     	;# 
   181     0019                     	;# 
   182     001A                     	;# 
   183     001B                     	;# 
   184     001B                     	;# 
   185     001C                     	;# 
   186     001D                     	;# 
   187     001E                     	;# 
   188     001F                     	;# 
   189     0081                     	;# 
   190     0085                     	;# 
   191     0086                     	;# 
   192     0087                     	;# 
   193     0088                     	;# 
   194     0089                     	;# 
   195     008C                     	;# 
   196     008D                     	;# 
   197     008E                     	;# 
   198     0091                     	;# 
   199     0092                     	;# 
   200     0093                     	;# 
   201     0094                     	;# 
   202     0098                     	;# 
   203     0099                     	;# 
   204     009C                     	;# 
   205     009D                     	;# 
   206     009E                     	;# 
   207     009F                     	;# 
   208     010C                     	;# 
   209     010D                     	;# 
   210     010E                     	;# 
   211     010F                     	;# 
   212     018C                     	;# 
   213     018D                     	;# 
   214                           
   215                           	psect	idataBANK1
   216     0803                     __pidataBANK1:
   217                           
   218                           ;initializer for _luminosidade_desejada
   219     0803  3490               	retlw	144
   220     0804  3401               	retlw	1
   221                           
   222                           	psect	idataBANK3
   223     0801                     __pidataBANK3:
   224                           
   225                           ;initializer for _porcentagem_PWM
   226     0801  3432               	retlw	50
   227     0802  3400               	retlw	0
   228                           
   229                           	psect	strings
   230     1000                     __pstrings:
   231     1000                     stringtab:
   232     1000                     __stringtab:
   233                           
   234                           ;	String table - string pointers are 1 byte each
   235     1000  1BFF               	btfsc	btemp+1,7
   236     1001  280A               	ljmp	stringcode
   237     1002  1383               	bcf	3,7
   238     1003  187F               	btfsc	btemp+1,0
   239     1004  1783               	bsf	3,7
   240     1005  0800               	movf	0,w
   241     1006  0A84               	incf	4,f
   242     1007  1903               	skipnz
   243     1008  0AFF               	incf	btemp+1,f
   244     1009  0008               	return
   245     100A                     stringcode:
   246     100A                     stringdir:
   247     100A  3010               	movlw	high stringdir
   248     100B  008A               	movwf	10
   249     100C  0804               	movf	4,w
   250     100D  0A84               	incf	4,f
   251     100E  0782               	addwf	2,f
   252     100F                     __stringbase:
   253     100F  3400               	retlw	0
   254     1010                     __end_of__stringtab:
   255     1010                     exp@coeff:
   256     1010  3400               	retlw	0
   257     1011  3400               	retlw	0
   258     1012  3480               	retlw	128
   259     1013  343F               	retlw	63
   260     1014  3418               	retlw	24
   261     1015  3472               	retlw	114
   262     1016  3431               	retlw	49
   263     1017  343F               	retlw	63
   264     1018  34F0               	retlw	240
   265     1019  34FD               	retlw	253
   266     101A  3475               	retlw	117
   267     101B  343E               	retlw	62
   268     101C  3447               	retlw	71
   269     101D  3458               	retlw	88
   270     101E  3463               	retlw	99
   271     101F  343D               	retlw	61
   272     1020  3458               	retlw	88
   273     1021  3495               	retlw	149
   274     1022  341D               	retlw	29
   275     1023  343C               	retlw	60
   276     1024  3482               	retlw	130
   277     1025  34C4               	retlw	196
   278     1026  34AE               	retlw	174
   279     1027  343A               	retlw	58
   280     1028  34A8               	retlw	168
   281     1029  3478               	retlw	120
   282     102A  3421               	retlw	33
   283     102B  3439               	retlw	57
   284     102C  34EF               	retlw	239
   285     102D  3493               	retlw	147
   286     102E  3480               	retlw	128
   287     102F  3437               	retlw	55
   288     1030  34A0               	retlw	160
   289     1031  3492               	retlw	146
   290     1032  34A7               	retlw	167
   291     1033  3435               	retlw	53
   292     1034  3446               	retlw	70
   293     1035  3456               	retlw	86
   294     1036  3415               	retlw	21
   295     1037  3434               	retlw	52
   296     1038                     __end_ofexp@coeff:
   297     1038                     log@coeff:
   298     1038  3400               	retlw	0
   299     1039  3400               	retlw	0
   300     103A  3400               	retlw	0
   301     103B  3400               	retlw	0
   302     103C  34C4               	retlw	196
   303     103D  34FF               	retlw	255
   304     103E  347F               	retlw	127
   305     103F  343F               	retlw	63
   306     1040  3480               	retlw	128
   307     1041  34EF               	retlw	239
   308     1042  34FF               	retlw	255
   309     1043  34BE               	retlw	190
   310     1044  3490               	retlw	144
   311     1045  34E1               	retlw	225
   312     1046  34A9               	retlw	169
   313     1047  343E               	retlw	62
   314     1048  34EC               	retlw	236
   315     1049  3482               	retlw	130
   316     104A  3476               	retlw	118
   317     104B  34BE               	retlw	190
   318     104C  3482               	retlw	130
   319     104D  34AD               	retlw	173
   320     104E  342B               	retlw	43
   321     104F  343E               	retlw	62
   322     1050  340E               	retlw	14
   323     1051  343C               	retlw	60
   324     1052  34C3               	retlw	195
   325     1053  34BD               	retlw	189
   326     1054  3487               	retlw	135
   327     1055  34D1               	retlw	209
   328     1056  3413               	retlw	19
   329     1057  343D               	retlw	61
   330     1058  3441               	retlw	65
   331     1059  3478               	retlw	120
   332     105A  34D3               	retlw	211
   333     105B  34BB               	retlw	187
   334     105C                     __end_oflog@coeff:
   335     000B                     _INTCONbits	set	11
   336     0006                     _PORTBbits	set	6
   337     0015                     _CCPR1L	set	21
   338     0017                     _CCP1CON	set	23
   339     001E                     _ADRESH	set	30
   340     001F                     _ADCON0bits	set	31
   341     0008                     _PORTDbits	set	8
   342     0059                     _INTF	set	89
   343     0092                     _TMR2ON	set	146
   344     0088                     _TRISD	set	136
   345     0086                     _TRISB	set	134
   346     0087                     _TRISC	set	135
   347     0081                     _OPTION_REGbits	set	129
   348     0092                     _PR2	set	146
   349     009E                     _ADRESL	set	158
   350     009F                     _ADCON1bits	set	159
   351     105C                     STR_1:
   352     105C  344D               	retlw	77	;'M'
   353     105D  3445               	retlw	69	;'E'
   354     105E  344E               	retlw	78	;'N'
   355     105F  3455               	retlw	85	;'U'
   356     1060  3420               	retlw	32	;' '
   357     1061  342D               	retlw	45	;'-'
   358     1062  3420               	retlw	32	;' '
   359     1063  344F               	retlw	79	;'O'
   360     1064  3442               	retlw	66	;'B'
   361     1065  344A               	retlw	74	;'J'
   362     1066  3445               	retlw	69	;'E'
   363     1067  3454               	retlw	84	;'T'
   364     1068  3449               	retlw	73	;'I'
   365     1069  3456               	retlw	86	;'V'
   366     106A  344F               	retlw	79	;'O'
   367     106B  3400               	retlw	0
   368     106C                     STR_3:
   369     106C  344C               	retlw	76	;'L'
   370     106D  3441               	retlw	65	;'A'
   371     106E  344D               	retlw	77	;'M'
   372     106F  3450               	retlw	80	;'P'
   373     1070  3441               	retlw	65	;'A'
   374     1071  3444               	retlw	68	;'D'
   375     1072  3441               	retlw	65	;'A'
   376     1073  3420               	retlw	32	;' '
   377     1074  3445               	retlw	69	;'E'
   378     1075  344D               	retlw	77	;'M'
   379     1076  3420               	retlw	32	;' '
   380     1077  343A               	retlw	58	;':'
   381     1078  3400               	retlw	0
   382     1079                     STR_2:
   383     1079  3435               	retlw	53	;'5'
   384     107A  3430               	retlw	48	;'0'
   385     107B  3430               	retlw	48	;'0'
   386     107C  3420               	retlw	32	;' '
   387     107D  344C               	retlw	76	;'L'
   388     107E  3455               	retlw	85	;'U'
   389     107F  3458               	retlw	88	;'X'
   390     1080  3400               	retlw	0
   391                           
   392                           	psect	cinit
   393     000F                     start_initialization:	
   394                           ; #config settings
   395                           
   396     000F                     __initialization:
   397                           
   398                           ; Initialize objects allocated to BANK3
   399     000F  1683               	bsf	3,5	;RP0=1, select bank3
   400     0010  1703               	bsf	3,6	;RP1=1, select bank3
   401     0011  120A  158A  2001  120A  118A  	fcall	__pidataBANK3	;fetch initializer
   402     0016  00E7               	movwf	__pdataBANK3& (0+127)
   403     0017  120A  158A  2002  120A  118A  	fcall	__pidataBANK3+1	;fetch initializer
   404     001C  00E8               	movwf	(__pdataBANK3+1)& (0+127)
   405                           
   406                           ; Initialize objects allocated to BANK1
   407     001D  1683               	bsf	3,5	;RP0=1, select bank1
   408     001E  1303               	bcf	3,6	;RP1=0, select bank1
   409     001F  120A  158A  2003  120A  118A  	fcall	__pidataBANK1	;fetch initializer
   410     0024  00EC               	movwf	__pdataBANK1& (0+127)
   411     0025  120A  158A  2004  120A  118A  	fcall	__pidataBANK1+1	;fetch initializer
   412     002A  00ED               	movwf	(__pdataBANK1+1)& (0+127)
   413                           
   414                           ; Clear objects allocated to BANK3
   415     002B  1683               	bsf	3,5	;RP0=1, select bank3
   416     002C  1703               	bsf	3,6	;RP1=1, select bank3
   417     002D  01E1               	clrf	__pbssBANK3& (0+127)
   418     002E  01E2               	clrf	(__pbssBANK3+1)& (0+127)
   419     002F  01E3               	clrf	(__pbssBANK3+2)& (0+127)
   420     0030  01E4               	clrf	(__pbssBANK3+3)& (0+127)
   421     0031  01E5               	clrf	(__pbssBANK3+4)& (0+127)
   422     0032  01E6               	clrf	(__pbssBANK3+5)& (0+127)
   423                           
   424                           ; Clear objects allocated to COMMON
   425     0033  01FA               	clrf	__pbssCOMMON& (0+127)
   426     0034  01FB               	clrf	(__pbssCOMMON+1)& (0+127)
   427     0035                     end_of_initialization:	
   428                           ;End of C runtime variable initialization code
   429                           
   430     0035                     __end_of__initialization:
   431     0035  0183               	clrf	3
   432     0036  160A  118A  29DD   	ljmp	_main	;jump to C main() function
   433                           
   434                           	psect	bssCOMMON
   435     007A                     __pbssCOMMON:
   436     007A                     _menu_ativo:
   437     007A                     	ds	2
   438                           
   439                           	psect	dataBANK1
   440     00EC                     __pdataBANK1:
   441     00EC                     _luminosidade_desejada:
   442     00EC                     	ds	2
   443                           
   444                           	psect	bssBANK3
   445     01E1                     __pbssBANK3:
   446     01E1                     _errno:
   447     01E1                     	ds	2
   448     01E3                     _btn_menos_aux:
   449     01E3                     	ds	2
   450     01E5                     _btn_mais_aux:
   451     01E5                     	ds	2
   452                           
   453                           	psect	dataBANK3
   454     01E7                     __pdataBANK3:
   455     01E7                     _porcentagem_PWM:
   456     01E7                     	ds	2
   457                           
   458                           	psect	cstackBANK3
   459     0190                     __pcstackBANK3:
   460     0190                     _exp$1076:
   461                           
   462                           ; 4 bytes @ 0x0
   463     0190                     	ds	4
   464     0194                     exp@exponent:
   465                           
   466                           ; 2 bytes @ 0x4
   467     0194                     	ds	2
   468     0196                     exp@sign:
   469                           
   470                           ; 1 bytes @ 0x6
   471     0196                     	ds	1
   472     0197                     ?_pow:
   473     0197                     pow@x:	
   474                           ; 4 bytes @ 0x7
   475                           
   476                           
   477                           ; 4 bytes @ 0x7
   478     0197                     	ds	4
   479     019B                     pow@y:
   480                           
   481                           ; 4 bytes @ 0xB
   482     019B                     	ds	4
   483     019F                     _pow$1074:
   484                           
   485                           ; 4 bytes @ 0xF
   486     019F                     	ds	4
   487     01A3                     _pow$1075:
   488                           
   489                           ; 4 bytes @ 0x13
   490     01A3                     	ds	4
   491     01A7                     pow@sign:
   492                           
   493                           ; 1 bytes @ 0x17
   494     01A7                     	ds	1
   495     01A8                     pow@yi:
   496                           
   497                           ; 4 bytes @ 0x18
   498     01A8                     	ds	4
   499     01AC                     ?_converteVoltsParaLux:
   500     01AC                     converteVoltsParaLux@v_ldr:	
   501                           ; 2 bytes @ 0x1C
   502                           
   503                           
   504                           ; 4 bytes @ 0x1C
   505     01AC                     	ds	4
   506     01B0                     converteVoltsParaLux@r_ldr:
   507                           
   508                           ; 4 bytes @ 0x20
   509     01B0                     	ds	4
   510     01B4                     converteVoltsParaLux@l_ldr:
   511                           
   512                           ; 4 bytes @ 0x24
   513     01B4                     	ds	4
   514     01B8                     _converteVoltsParaLux$1071:
   515                           
   516                           ; 4 bytes @ 0x28
   517     01B8                     	ds	4
   518     01BC                     _converteVoltsParaLux$1072:
   519                           
   520                           ; 4 bytes @ 0x2C
   521     01BC                     	ds	4
   522     01C0                     converteVoltsParaLux@b:
   523                           
   524                           ; 4 bytes @ 0x30
   525     01C0                     	ds	4
   526     01C4                     _converteVoltsParaLux$1070:
   527                           
   528                           ; 4 bytes @ 0x34
   529     01C4                     	ds	4
   530     01C8                     main@texto_luminosidade:
   531                           
   532                           ; 16 bytes @ 0x38
   533     01C8                     	ds	16
   534     01D8                     main@v_ldr:
   535                           
   536                           ; 4 bytes @ 0x48
   537     01D8                     	ds	4
   538     01DC                     main@leitura:
   539                           
   540                           ; 2 bytes @ 0x4C
   541     01DC                     	ds	2
   542     01DE                     main@luminosidade_atual:
   543                           
   544                           ; 2 bytes @ 0x4E
   545     01DE                     	ds	2
   546     01E0                     main@texto_menu:
   547                           
   548                           ; 1 bytes @ 0x50
   549     01E0                     	ds	1
   550                           
   551                           	psect	cstackBANK1
   552     00A0                     __pcstackBANK1:
   553     00A0                     ??___fladd:
   554                           
   555                           ; 1 bytes @ 0x0
   556     00A0                     	ds	8
   557     00A8                     ?_eval_poly:
   558     00A8                     ?_floor:	
   559                           ; 4 bytes @ 0x8
   560                           
   561     00A8                     eval_poly@x:	
   562                           ; 4 bytes @ 0x8
   563                           
   564     00A8                     floor@x:	
   565                           ; 4 bytes @ 0x8
   566                           
   567                           
   568                           ; 4 bytes @ 0x8
   569     00A8                     	ds	4
   570     00AC                     eval_poly@d:
   571     00AC                     floor@i:	
   572                           ; 1 bytes @ 0xC
   573                           
   574                           
   575                           ; 4 bytes @ 0xC
   576     00AC                     	ds	1
   577     00AD                     eval_poly@n:
   578                           
   579                           ; 2 bytes @ 0xD
   580     00AD                     	ds	2
   581     00AF                     ??_eval_poly:
   582                           
   583                           ; 1 bytes @ 0xF
   584     00AF                     	ds	1
   585     00B0                     floor@expon:
   586                           
   587                           ; 2 bytes @ 0x10
   588     00B0                     	ds	4
   589     00B4                     eval_poly@res:
   590                           
   591                           ; 4 bytes @ 0x14
   592     00B4                     	ds	4
   593     00B8                     ?_log:
   594     00B8                     ?_ldexp:	
   595                           ; 4 bytes @ 0x18
   596                           
   597     00B8                     log@x:	
   598                           ; 4 bytes @ 0x18
   599                           
   600     00B8                     ldexp@value:	
   601                           ; 4 bytes @ 0x18
   602                           
   603                           
   604                           ; 4 bytes @ 0x18
   605     00B8                     	ds	4
   606     00BC                     log@exponent:
   607     00BC                     ldexp@newexp:	
   608                           ; 2 bytes @ 0x1C
   609                           
   610                           
   611                           ; 2 bytes @ 0x1C
   612     00BC                     	ds	2
   613     00BE                     ??_ldexp:
   614     00BE                     ?_log10:	
   615                           ; 1 bytes @ 0x1E
   616                           
   617     00BE                     log10@x:	
   618                           ; 4 bytes @ 0x1E
   619                           
   620                           
   621                           ; 4 bytes @ 0x1E
   622     00BE                     	ds	4
   623     00C2                     _log10$1073:
   624                           
   625                           ; 4 bytes @ 0x22
   626     00C2                     	ds	4
   627     00C6                     ?___flsub:
   628     00C6                     ___flsub@a:	
   629                           ; 4 bytes @ 0x26
   630                           
   631                           
   632                           ; 4 bytes @ 0x26
   633     00C6                     	ds	4
   634     00CA                     ___flsub@b:
   635                           
   636                           ; 4 bytes @ 0x2A
   637     00CA                     	ds	4
   638     00CE                     ?___fldiv:
   639     00CE                     ___fldiv@a:	
   640                           ; 4 bytes @ 0x2E
   641                           
   642                           
   643                           ; 4 bytes @ 0x2E
   644     00CE                     	ds	4
   645     00D2                     ___fldiv@b:
   646                           
   647                           ; 4 bytes @ 0x32
   648     00D2                     	ds	4
   649     00D6                     ??___fldiv:
   650                           
   651                           ; 1 bytes @ 0x36
   652     00D6                     	ds	5
   653     00DB                     ___fldiv@rem:
   654                           
   655                           ; 4 bytes @ 0x3B
   656     00DB                     	ds	4
   657     00DF                     ___fldiv@sign:
   658                           
   659                           ; 1 bytes @ 0x3F
   660     00DF                     	ds	1
   661     00E0                     ___fldiv@new_exp:
   662                           
   663                           ; 2 bytes @ 0x40
   664     00E0                     	ds	2
   665     00E2                     ___fldiv@grs:
   666                           
   667                           ; 4 bytes @ 0x42
   668     00E2                     	ds	4
   669     00E6                     ___fldiv@bexp:
   670                           
   671                           ; 1 bytes @ 0x46
   672     00E6                     	ds	1
   673     00E7                     ___fldiv@aexp:
   674                           
   675                           ; 1 bytes @ 0x47
   676     00E7                     	ds	1
   677     00E8                     ?_exp:
   678     00E8                     exp@x:	
   679                           ; 4 bytes @ 0x48
   680                           
   681                           
   682                           ; 4 bytes @ 0x48
   683     00E8                     	ds	4
   684                           
   685                           	psect	cstackCOMMON
   686     0070                     __pcstackCOMMON:
   687     0070                     ?_Lcd_Port:
   688     0070                     ?_Lcd_Cmd:	
   689                           ; 1 bytes @ 0x0
   690                           
   691     0070                     ?_Lcd_Clear:	
   692                           ; 1 bytes @ 0x0
   693                           
   694     0070                     ?_Lcd_Init:	
   695                           ; 1 bytes @ 0x0
   696                           
   697     0070                     ?_Lcd_Write_Char:	
   698                           ; 1 bytes @ 0x0
   699                           
   700     0070                     ?_configADC:	
   701                           ; 1 bytes @ 0x0
   702                           
   703     0070                     ?_configPWMRegs:	
   704                           ; 1 bytes @ 0x0
   705                           
   706     0070                     ?_verificaBtnMais:	
   707                           ; 1 bytes @ 0x0
   708                           
   709     0070                     ?_verificaBtnMenos:	
   710                           ; 1 bytes @ 0x0
   711                           
   712     0070                     ?_interrupcao:	
   713                           ; 1 bytes @ 0x0
   714                           
   715     0070                     ??_interrupcao:	
   716                           ; 1 bytes @ 0x0
   717                           
   718     0070                     ?_handleSetupMenu:	
   719                           ; 1 bytes @ 0x0
   720                           
   721     0070                     ?_configIntExterns:	
   722                           ; 1 bytes @ 0x0
   723                           
   724     0070                     ?_main:	
   725                           ; 1 bytes @ 0x0
   726                           
   727                           
   728                           ; 1 bytes @ 0x0
   729     0070                     	ds	2
   730     0072                     ?___flge:
   731     0072                     ??_Lcd_Port:	
   732                           ; 1 bit 
   733                           
   734     0072                     ??_configADC:	
   735                           ; 1 bytes @ 0x2
   736                           
   737     0072                     ??_configPWMRegs:	
   738                           ; 1 bytes @ 0x2
   739                           
   740     0072                     ??_verificaBtnMais:	
   741                           ; 1 bytes @ 0x2
   742                           
   743     0072                     ??_verificaBtnMenos:	
   744                           ; 1 bytes @ 0x2
   745                           
   746     0072                     ??_configIntExterns:	
   747                           ; 1 bytes @ 0x2
   748                           
   749     0072                     ?__Umul8_16:	
   750                           ; 1 bytes @ 0x2
   751                           
   752     0072                     ?_getValorADC:	
   753                           ; 2 bytes @ 0x2
   754                           
   755     0072                     ?___wmul:	
   756                           ; 2 bytes @ 0x2
   757                           
   758     0072                     ?___awmod:	
   759                           ; 2 bytes @ 0x2
   760                           
   761     0072                     ?___flneg:	
   762                           ; 2 bytes @ 0x2
   763                           
   764     0072                     ?___fltol:	
   765                           ; 4 bytes @ 0x2
   766                           
   767     0072                     Lcd_Port@a:	
   768                           ; 4 bytes @ 0x2
   769                           
   770     0072                     __Umul8_16@multiplicand:	
   771                           ; 1 bytes @ 0x2
   772                           
   773     0072                     ___wmul@multiplier:	
   774                           ; 1 bytes @ 0x2
   775                           
   776     0072                     ___awmod@divisor:	
   777                           ; 2 bytes @ 0x2
   778                           
   779     0072                     ___flge@ff1:	
   780                           ; 2 bytes @ 0x2
   781                           
   782     0072                     ___flneg@f1:	
   783                           ; 4 bytes @ 0x2
   784                           
   785     0072                     ___fltol@f1:	
   786                           ; 4 bytes @ 0x2
   787                           
   788                           
   789                           ; 4 bytes @ 0x2
   790     0072                     	ds	1
   791     0073                     ??_Lcd_Cmd:
   792     0073                     ??_Lcd_Write_Char:	
   793                           ; 1 bytes @ 0x3
   794                           
   795                           
   796                           ; 1 bytes @ 0x3
   797     0073                     	ds	1
   798     0074                     ??__Umul8_16:
   799     0074                     ??_getValorADC:	
   800                           ; 1 bytes @ 0x4
   801                           
   802     0074                     Lcd_Write_Char@temp:	
   803                           ; 1 bytes @ 0x4
   804                           
   805     0074                     ___wmul@multiplicand:	
   806                           ; 1 bytes @ 0x4
   807                           
   808     0074                     ___awmod@dividend:	
   809                           ; 2 bytes @ 0x4
   810                           
   811                           
   812                           ; 2 bytes @ 0x4
   813     0074                     	ds	1
   814     0075                     Lcd_Cmd@a:
   815     0075                     Lcd_Write_Char@y:	
   816                           ; 1 bytes @ 0x5
   817                           
   818                           
   819                           ; 1 bytes @ 0x5
   820     0075                     	ds	1
   821     0076                     ??_Lcd_Clear:
   822     0076                     ?_Lcd_Set_Cursor:	
   823                           ; 1 bytes @ 0x6
   824                           
   825     0076                     ??_Lcd_Init:	
   826                           ; 1 bytes @ 0x6
   827                           
   828     0076                     ??___wmul:	
   829                           ; 1 bytes @ 0x6
   830                           
   831     0076                     ??___awmod:	
   832                           ; 1 bytes @ 0x6
   833                           
   834     0076                     ??___flneg:	
   835                           ; 1 bytes @ 0x6
   836                           
   837     0076                     ??___fltol:	
   838                           ; 1 bytes @ 0x6
   839                           
   840     0076                     Lcd_Set_Cursor@b:	
   841                           ; 1 bytes @ 0x6
   842                           
   843     0076                     Lcd_Write_Char@a:	
   844                           ; 1 bytes @ 0x6
   845                           
   846     0076                     ___awmod@counter:	
   847                           ; 1 bytes @ 0x6
   848                           
   849     0076                     getValorADC@valor:	
   850                           ; 1 bytes @ 0x6
   851                           
   852     0076                     ___wmul@product:	
   853                           ; 2 bytes @ 0x6
   854                           
   855     0076                     ___flge@ff2:	
   856                           ; 2 bytes @ 0x6
   857                           
   858                           
   859                           ; 4 bytes @ 0x6
   860     0076                     	ds	1
   861     0077                     ??_Lcd_Set_Cursor:
   862     0077                     ?_Lcd_Write_String:	
   863                           ; 1 bytes @ 0x7
   864                           
   865     0077                     ___awmod@sign:	
   866                           ; 1 bytes @ 0x7
   867                           
   868     0077                     Lcd_Write_String@a:	
   869                           ; 1 bytes @ 0x7
   870                           
   871                           
   872                           ; 2 bytes @ 0x7
   873     0077                     	ds	1
   874     0078                     ??_intToASCIIinCustomBase:
   875     0078                     ??___awdiv:	
   876                           ; 1 bytes @ 0x8
   877                           
   878                           
   879                           ; 1 bytes @ 0x8
   880     0078                     	ds	1
   881     0079                     escreveLCD@linha1:
   882                           
   883                           ; 1 bytes @ 0x9
   884     0079                     	ds	1
   885     007A                     ??_log10:
   886     007A                     ??_pow:	
   887                           ; 1 bytes @ 0xA
   888                           
   889     007A                     ??_exp:	
   890                           ; 1 bytes @ 0xA
   891                           
   892     007A                     ??_floor:	
   893                           ; 1 bytes @ 0xA
   894                           
   895     007A                     ??_handleSetupMenu:	
   896                           ; 1 bytes @ 0xA
   897                           
   898     007A                     ??_converteLeituraAnParaVolts:	
   899                           ; 1 bytes @ 0xA
   900                           
   901     007A                     ??_converteVoltsParaLux:	
   902                           ; 1 bytes @ 0xA
   903                           
   904     007A                     ??_main:	
   905                           ; 1 bytes @ 0xA
   906                           
   907     007A                     ??___flsub:	
   908                           ; 1 bytes @ 0xA
   909                           
   910     007A                     ??_log:	
   911                           ; 1 bytes @ 0xA
   912                           
   913                           
   914                           	psect	cstackBANK0
   915     0020                     __pcstackBANK0:	
   916                           ; 1 bytes @ 0xA
   917                           
   918     0020                     ??_Lcd_Write_String:
   919     0020                     ??___flge:	
   920                           ; 1 bytes @ 0x0
   921                           
   922     0020                     ?___awdiv:	
   923                           ; 1 bytes @ 0x0
   924                           
   925     0020                     Lcd_Set_Cursor@a:	
   926                           ; 2 bytes @ 0x0
   927                           
   928     0020                     ___fltol@sign1:	
   929                           ; 1 bytes @ 0x0
   930                           
   931     0020                     ___awdiv@divisor:	
   932                           ; 1 bytes @ 0x0
   933                           
   934     0020                     __Umul8_16@product:	
   935                           ; 2 bytes @ 0x0
   936                           
   937                           
   938                           ; 2 bytes @ 0x0
   939     0020                     	ds	1
   940     0021                     Lcd_Set_Cursor@z:
   941     0021                     ___fltol@exp1:	
   942                           ; 1 bytes @ 0x1
   943                           
   944                           
   945                           ; 1 bytes @ 0x1
   946     0021                     	ds	1
   947     0022                     Lcd_Set_Cursor@y:
   948     0022                     ___awdiv@dividend:	
   949                           ; 1 bytes @ 0x2
   950                           
   951     0022                     __Umul8_16@word_mpld:	
   952                           ; 2 bytes @ 0x2
   953                           
   954                           
   955                           ; 2 bytes @ 0x2
   956     0022                     	ds	1
   957     0023                     Lcd_Set_Cursor@temp:
   958     0023                     Lcd_Write_String@i:	
   959                           ; 1 bytes @ 0x3
   960                           
   961                           
   962                           ; 2 bytes @ 0x3
   963     0023                     	ds	1
   964     0024                     ___awdiv@counter:
   965     0024                     __Umul8_16@multiplier:	
   966                           ; 1 bytes @ 0x4
   967                           
   968                           
   969                           ; 1 bytes @ 0x4
   970     0024                     	ds	1
   971     0025                     ?_escreveLCD:
   972     0025                     ___awdiv@sign:	
   973                           ; 1 bytes @ 0x5
   974                           
   975     0025                     escreveLCD@linha2:	
   976                           ; 1 bytes @ 0x5
   977                           
   978                           
   979                           ; 2 bytes @ 0x5
   980     0025                     	ds	1
   981     0026                     ___awdiv@quotient:
   982                           
   983                           ; 2 bytes @ 0x6
   984     0026                     	ds	1
   985     0027                     ??_escreveLCD:
   986                           
   987                           ; 1 bytes @ 0x7
   988     0027                     	ds	1
   989     0028                     ?_intToASCIIinCustomBase:
   990     0028                     ?___xxtofl:	
   991                           ; 1 bytes @ 0x8
   992                           
   993     0028                     intToASCIIinCustomBase@numero:	
   994                           ; 4 bytes @ 0x8
   995                           
   996     0028                     ___xxtofl@val:	
   997                           ; 2 bytes @ 0x8
   998                           
   999                           
  1000                           ; 4 bytes @ 0x8
  1001     0028                     	ds	2
  1002     002A                     intToASCIIinCustomBase@resultado:
  1003                           
  1004                           ; 1 bytes @ 0xA
  1005     002A                     	ds	1
  1006     002B                     intToASCIIinCustomBase@base:
  1007                           
  1008                           ; 2 bytes @ 0xB
  1009     002B                     	ds	1
  1010     002C                     ??___xxtofl:
  1011                           
  1012                           ; 1 bytes @ 0xC
  1013     002C                     	ds	1
  1014     002D                     intToASCIIinCustomBase@temp:
  1015                           
  1016                           ; 1 bytes @ 0xD
  1017     002D                     	ds	1
  1018     002E                     _intToASCIIinCustomBase$285:
  1019                           
  1020                           ; 2 bytes @ 0xE
  1021     002E                     	ds	2
  1022     0030                     ___xxtofl@sign:
  1023     0030                     intToASCIIinCustomBase@resto:	
  1024                           ; 1 bytes @ 0x10
  1025                           
  1026                           
  1027                           ; 2 bytes @ 0x10
  1028     0030                     	ds	1
  1029     0031                     ___xxtofl@exp:
  1030                           
  1031                           ; 1 bytes @ 0x11
  1032     0031                     	ds	1
  1033     0032                     intToASCIIinCustomBase@i:
  1034     0032                     ___xxtofl@arg:	
  1035                           ; 2 bytes @ 0x12
  1036                           
  1037                           
  1038                           ; 4 bytes @ 0x12
  1039     0032                     	ds	2
  1040     0034                     intToASCIIinCustomBase@j:
  1041                           
  1042                           ; 2 bytes @ 0x14
  1043     0034                     	ds	2
  1044     0036                     ?___fleq:
  1045     0036                     ?_converteLeituraAnParaVolts:	
  1046                           ; 1 bit 
  1047                           
  1048     0036                     intToASCIIinCustomBase@indice:	
  1049                           ; 4 bytes @ 0x16
  1050                           
  1051     0036                     converteLeituraAnParaVolts@leitura:	
  1052                           ; 2 bytes @ 0x16
  1053                           
  1054     0036                     ___fleq@ff1:	
  1055                           ; 2 bytes @ 0x16
  1056                           
  1057                           
  1058                           ; 4 bytes @ 0x16
  1059     0036                     	ds	4
  1060     003A                     ___fleq@ff2:
  1061                           
  1062                           ; 4 bytes @ 0x1A
  1063     003A                     	ds	4
  1064     003E                     ??___fleq:
  1065                           
  1066                           ; 1 bytes @ 0x1E
  1067     003E                     	ds	4
  1068     0042                     ?_frexp:
  1069     0042                     frexp@value:	
  1070                           ; 4 bytes @ 0x22
  1071                           
  1072                           
  1073                           ; 4 bytes @ 0x22
  1074     0042                     	ds	4
  1075     0046                     frexp@eptr:
  1076                           
  1077                           ; 1 bytes @ 0x26
  1078     0046                     	ds	1
  1079     0047                     ??_frexp:
  1080                           
  1081                           ; 1 bytes @ 0x27
  1082     0047                     	ds	2
  1083     0049                     ?___flmul:
  1084     0049                     ___flmul@b:	
  1085                           ; 4 bytes @ 0x29
  1086                           
  1087                           
  1088                           ; 4 bytes @ 0x29
  1089     0049                     	ds	4
  1090     004D                     ___flmul@a:
  1091                           
  1092                           ; 4 bytes @ 0x2D
  1093     004D                     	ds	4
  1094     0051                     ??___flmul:
  1095                           
  1096                           ; 1 bytes @ 0x31
  1097     0051                     	ds	5
  1098     0056                     ___flmul@sign:
  1099                           
  1100                           ; 1 bytes @ 0x36
  1101     0056                     	ds	1
  1102     0057                     ___flmul@aexp:
  1103                           
  1104                           ; 1 bytes @ 0x37
  1105     0057                     	ds	1
  1106     0058                     ___flmul@grs:
  1107                           
  1108                           ; 4 bytes @ 0x38
  1109     0058                     	ds	4
  1110     005C                     ___flmul@bexp:
  1111                           
  1112                           ; 1 bytes @ 0x3C
  1113     005C                     	ds	1
  1114     005D                     ___flmul@prod:
  1115                           
  1116                           ; 4 bytes @ 0x3D
  1117     005D                     	ds	4
  1118     0061                     ___flmul@temp:
  1119                           
  1120                           ; 2 bytes @ 0x41
  1121     0061                     	ds	2
  1122     0063                     ?___fladd:
  1123     0063                     ___fladd@b:	
  1124                           ; 4 bytes @ 0x43
  1125                           
  1126                           
  1127                           ; 4 bytes @ 0x43
  1128     0063                     	ds	4
  1129     0067                     ___fladd@a:
  1130                           
  1131                           ; 4 bytes @ 0x47
  1132     0067                     	ds	4
  1133     006B                     ___fladd@signs:
  1134                           
  1135                           ; 1 bytes @ 0x4B
  1136     006B                     	ds	1
  1137     006C                     ___fladd@aexp:
  1138                           
  1139                           ; 1 bytes @ 0x4C
  1140     006C                     	ds	1
  1141     006D                     ___fladd@bexp:
  1142                           
  1143                           ; 1 bytes @ 0x4D
  1144     006D                     	ds	1
  1145     006E                     ___fladd@grs:
  1146                           
  1147                           ; 1 bytes @ 0x4E
  1148     006E                     	ds	1
  1149                           
  1150                           	psect	maintext
  1151     11DD                     __pmaintext:	
  1152 ;;
  1153 ;;Main: autosize = 0, tempsize = 0, incstack = 0, save=0
  1154 ;;
  1155 ;; *************** function _main *****************
  1156 ;; Defined at:
  1157 ;;		line 235 in file "newmain.c"
  1158 ;; Parameters:    Size  Location     Type
  1159 ;;		None
  1160 ;; Auto vars:     Size  Location     Type
  1161 ;;  texto_lumino   16   56[BANK3 ] unsigned char [16]
  1162 ;;  v_ldr           4   72[BANK3 ] float 
  1163 ;;  luminosidade    2   78[BANK3 ] int 
  1164 ;;  leitura         2   76[BANK3 ] int 
  1165 ;;  texto_menu      1   80[BANK3 ] PTR unsigned char 
  1166 ;;		 -> STR_3(13), 
  1167 ;; Return value:  Size  Location     Type
  1168 ;;                  1    wreg      void 
  1169 ;; Registers used:
  1170 ;;		wreg, fsr0l, fsr0h, status,2, status,0, btemp+1, pclath, cstack
  1171 ;; Tracked objects:
  1172 ;;		On entry : B00/0
  1173 ;;		On exit  : 0/0
  1174 ;;		Unchanged: 0/0
  1175 ;; Data sizes:     COMMON   BANK0   BANK1   BANK3   BANK2
  1176 ;;      Params:         0       0       0       0       0
  1177 ;;      Locals:         0       0       0      25       0
  1178 ;;      Temps:          0       0       0       0       0
  1179 ;;      Totals:         0       0       0      25       0
  1180 ;;Total ram usage:       25 bytes
  1181 ;; Hardware stack levels required when called: 7
  1182 ;; This function calls:
  1183 ;;		_Lcd_Init
  1184 ;;		_configADC
  1185 ;;		_configIntExterns
  1186 ;;		_configPWMRegs
  1187 ;;		_converteLeituraAnParaVolts
  1188 ;;		_converteVoltsParaLux
  1189 ;;		_escreveLCD
  1190 ;;		_getValorADC
  1191 ;;		_handleSetupMenu
  1192 ;;		_intToASCIIinCustomBase
  1193 ;; This function is called by:
  1194 ;;		Startup code after reset
  1195 ;; This function uses a non-reentrant model
  1196 ;;
  1197                           
  1198     11DD                     _main:	
  1199                           ;psect for function _main
  1200                           
  1201     11DD                     l4031:	
  1202                           ;incstack = 0
  1203                           ; Regs used in _main: [wreg-fsr0h+status,2+status,0+btemp+1+pclath+cstack]
  1204                           
  1205                           
  1206                           ;newmain.c: 237:     TRISC = 0x00;
  1207     11DD  1683               	bsf	3,5	;RP0=1, select bank1
  1208     11DE  1303               	bcf	3,6	;RP1=0, select bank1
  1209     11DF  0187               	clrf	7	;volatile
  1210     11E0                     l4033:
  1211                           
  1212                           ;newmain.c: 239:     OPTION_REGbits.INTEDG = 1;
  1213     11E0  1701               	bsf	1,6	;volatile
  1214     11E1                     l4035:
  1215                           
  1216                           ;newmain.c: 240:     TRISB = 1;
  1217     11E1  3001               	movlw	1
  1218     11E2  0086               	movwf	6	;volatile
  1219     11E3                     l4037:
  1220                           
  1221                           ;newmain.c: 242:     configADC();
  1222     11E3  160A  158A  2499  160A  118A  	fcall	_configADC
  1223     11E8                     l4039:
  1224                           
  1225                           ;newmain.c: 243:     configPWMRegs();
  1226     11E8  160A  158A  2476  160A  118A  	fcall	_configPWMRegs
  1227                           
  1228                           ;newmain.c: 246:     TRISD = 0;
  1229     11ED  1683               	bsf	3,5	;RP0=1, select bank1
  1230     11EE  1303               	bcf	3,6	;RP1=0, select bank1
  1231     11EF  0188               	clrf	8	;volatile
  1232     11F0                     l4041:
  1233                           
  1234                           ;newmain.c: 247:     Lcd_Init();
  1235     11F0  160A  118A  2108  160A  118A  	fcall	_Lcd_Init
  1236     11F5                     l4043:
  1237                           
  1238                           ;newmain.c: 249:     char* texto_menu;;newmain.c: 251:     texto_menu = "LAMPADA EM :";
  1239     11F5  305D               	movlw	(low ((STR_3-__stringbase)| (0+32768)))& (0+255)
  1240     11F6  1683               	bsf	3,5	;RP0=1, select bank3
  1241     11F7  1703               	bsf	3,6	;RP1=1, select bank3
  1242     11F8  00E0               	movwf	main@texto_menu^(0+384)
  1243     11F9                     l4045:
  1244                           
  1245                           ;newmain.c: 254:     configIntExterns();
  1246     11F9  160A  158A  2457  160A  118A  	fcall	_configIntExterns
  1247     11FE                     l4047:
  1248                           
  1249                           ;newmain.c: 256:     {;newmain.c: 257:         int leitura = getValorADC();
  1250     11FE  160A  158A  2484  160A  118A  	fcall	_getValorADC
  1251     1203  0873               	movf	?_getValorADC+1,w
  1252     1204  1683               	bsf	3,5	;RP0=1, select bank3
  1253     1205  1703               	bsf	3,6	;RP1=1, select bank3
  1254     1206  00DD               	movwf	(main@leitura+1)^(0+384)
  1255     1207  0872               	movf	?_getValorADC,w
  1256     1208  00DC               	movwf	main@leitura^(0+384)
  1257     1209                     l4049:
  1258                           
  1259                           ;newmain.c: 258:         float v_ldr = converteLeituraAnParaVolts(leitura);
  1260     1209  085D               	movf	(main@leitura+1)^(0+384),w
  1261     120A  1283               	bcf	3,5	;RP0=0, select bank0
  1262     120B  1303               	bcf	3,6	;RP1=0, select bank0
  1263     120C  00B7               	movwf	converteLeituraAnParaVolts@leitura+1
  1264     120D  1683               	bsf	3,5	;RP0=1, select bank3
  1265     120E  1703               	bsf	3,6	;RP1=1, select bank3
  1266     120F  085C               	movf	main@leitura^(0+384),w
  1267     1210  1283               	bcf	3,5	;RP0=0, select bank0
  1268     1211  1303               	bcf	3,6	;RP1=0, select bank0
  1269     1212  00B6               	movwf	converteLeituraAnParaVolts@leitura
  1270     1213  160A  158A  25B2  160A  118A  	fcall	_converteLeituraAnParaVolts
  1271     1218  1283               	bcf	3,5	;RP0=0, select bank0
  1272     1219  1303               	bcf	3,6	;RP1=0, select bank0
  1273     121A  0839               	movf	?_converteLeituraAnParaVolts+3,w
  1274     121B  1683               	bsf	3,5	;RP0=1, select bank3
  1275     121C  1703               	bsf	3,6	;RP1=1, select bank3
  1276     121D  00DB               	movwf	(main@v_ldr+3)^(0+384)
  1277     121E  1283               	bcf	3,5	;RP0=0, select bank0
  1278     121F  1303               	bcf	3,6	;RP1=0, select bank0
  1279     1220  0838               	movf	?_converteLeituraAnParaVolts+2,w
  1280     1221  1683               	bsf	3,5	;RP0=1, select bank3
  1281     1222  1703               	bsf	3,6	;RP1=1, select bank3
  1282     1223  00DA               	movwf	(main@v_ldr+2)^(0+384)
  1283     1224  1283               	bcf	3,5	;RP0=0, select bank0
  1284     1225  1303               	bcf	3,6	;RP1=0, select bank0
  1285     1226  0837               	movf	?_converteLeituraAnParaVolts+1,w
  1286     1227  1683               	bsf	3,5	;RP0=1, select bank3
  1287     1228  1703               	bsf	3,6	;RP1=1, select bank3
  1288     1229  00D9               	movwf	(main@v_ldr+1)^(0+384)
  1289     122A  1283               	bcf	3,5	;RP0=0, select bank0
  1290     122B  1303               	bcf	3,6	;RP1=0, select bank0
  1291     122C  0836               	movf	?_converteLeituraAnParaVolts,w
  1292     122D  1683               	bsf	3,5	;RP0=1, select bank3
  1293     122E  1703               	bsf	3,6	;RP1=1, select bank3
  1294     122F  00D8               	movwf	main@v_ldr^(0+384)
  1295     1230                     l4051:
  1296                           
  1297                           ;newmain.c: 259:         int luminosidade_atual = converteVoltsParaLux(v_ldr);
  1298     1230  085B               	movf	(main@v_ldr+3)^(0+384),w
  1299     1231  00AF               	movwf	(converteVoltsParaLux@v_ldr+3)^(0+384)
  1300     1232  085A               	movf	(main@v_ldr+2)^(0+384),w
  1301     1233  00AE               	movwf	(converteVoltsParaLux@v_ldr+2)^(0+384)
  1302     1234  0859               	movf	(main@v_ldr+1)^(0+384),w
  1303     1235  00AD               	movwf	(converteVoltsParaLux@v_ldr+1)^(0+384)
  1304     1236  0858               	movf	main@v_ldr^(0+384),w
  1305     1237  00AC               	movwf	converteVoltsParaLux@v_ldr^(0+384)
  1306     1238  120A  158A  2581  160A  118A  	fcall	_converteVoltsParaLux
  1307     123D  1683               	bsf	3,5	;RP0=1, select bank3
  1308     123E  1703               	bsf	3,6	;RP1=1, select bank3
  1309     123F  082D               	movf	(?_converteVoltsParaLux+1)^(0+384),w
  1310     1240  00DF               	movwf	(main@luminosidade_atual+1)^(0+384)
  1311     1241  082C               	movf	?_converteVoltsParaLux^(0+384),w
  1312     1242  00DE               	movwf	main@luminosidade_atual^(0+384)
  1313     1243                     l4053:
  1314                           
  1315                           ;newmain.c: 260:         handleSetupMenu();
  1316     1243  160A  158A  24E3  160A  118A  	fcall	_handleSetupMenu
  1317     1248                     l4055:
  1318                           
  1319                           ;newmain.c: 261:         CCPR1L = porcentagem_PWM;
  1320     1248  3032               	movlw	50
  1321     1249  1283               	bcf	3,5	;RP0=0, select bank0
  1322     124A  1303               	bcf	3,6	;RP1=0, select bank0
  1323     124B  0095               	movwf	21	;volatile
  1324     124C                     l4057:
  1325                           
  1326                           ;newmain.c: 262:         char texto_luminosidade [16];;newmain.c: 263:         intToASCI
      +                          IinCustomBase (luminosidade_atual , texto_luminosidade, 10);
  1327     124C  1683               	bsf	3,5	;RP0=1, select bank3
  1328     124D  1703               	bsf	3,6	;RP1=1, select bank3
  1329     124E  085F               	movf	(main@luminosidade_atual+1)^(0+384),w
  1330     124F  1283               	bcf	3,5	;RP0=0, select bank0
  1331     1250  1303               	bcf	3,6	;RP1=0, select bank0
  1332     1251  00A9               	movwf	intToASCIIinCustomBase@numero+1
  1333     1252  1683               	bsf	3,5	;RP0=1, select bank3
  1334     1253  1703               	bsf	3,6	;RP1=1, select bank3
  1335     1254  085E               	movf	main@luminosidade_atual^(0+384),w
  1336     1255  1283               	bcf	3,5	;RP0=0, select bank0
  1337     1256  1303               	bcf	3,6	;RP1=0, select bank0
  1338     1257  00A8               	movwf	intToASCIIinCustomBase@numero
  1339     1258  30C8               	movlw	(low (main@texto_luminosidade| (0+256)))& (0+255)
  1340     1259  00AA               	movwf	intToASCIIinCustomBase@resultado
  1341     125A  300A               	movlw	10
  1342     125B  00AB               	movwf	intToASCIIinCustomBase@base
  1343     125C  3000               	movlw	0
  1344     125D  00AC               	movwf	intToASCIIinCustomBase@base+1
  1345     125E  160A  118A  2493  160A  118A  	fcall	_intToASCIIinCustomBase
  1346     1263                     l4059:
  1347                           
  1348                           ;newmain.c: 265:         escreveLCD(texto_menu, texto_luminosidade);
  1349     1263  30C8               	movlw	(low (main@texto_luminosidade| (0+256)))& (0+255)
  1350     1264  1283               	bcf	3,5	;RP0=0, select bank0
  1351     1265  1303               	bcf	3,6	;RP1=0, select bank0
  1352     1266  00A5               	movwf	escreveLCD@linha2
  1353     1267  3001               	movlw	1
  1354     1268  00A6               	movwf	escreveLCD@linha2+1
  1355     1269  1683               	bsf	3,5	;RP0=1, select bank3
  1356     126A  1703               	bsf	3,6	;RP1=1, select bank3
  1357     126B  0860               	movf	main@texto_menu^(0+384),w
  1358     126C  160A  158A  257B  160A  118A  	fcall	_escreveLCD
  1359     1271  29FE               	goto	l4047
  1360     1272  120A  118A  280C   	ljmp	start
  1361     1275                     __end_of_main:
  1362                           
  1363                           	psect	text1
  1364     1493                     __ptext1:	
  1365 ;; *************** function _intToASCIIinCustomBase *****************
  1366 ;; Defined at:
  1367 ;;		line 86 in file "newmain.c"
  1368 ;; Parameters:    Size  Location     Type
  1369 ;;  numero          2    8[BANK0 ] int 
  1370 ;;  resultado       1   10[BANK0 ] PTR unsigned char 
  1371 ;;		 -> main@texto_luminosidade(16), 
  1372 ;;  base            2   11[BANK0 ] int 
  1373 ;; Auto vars:     Size  Location     Type
  1374 ;;  temp            1   13[BANK0 ] unsigned char 
  1375 ;;  indice          2   22[BANK0 ] int 
  1376 ;;  j               2   20[BANK0 ] int 
  1377 ;;  i               2   18[BANK0 ] int 
  1378 ;;  resto           2   16[BANK0 ] int 
  1379 ;; Return value:  Size  Location     Type
  1380 ;;                  1    wreg      void 
  1381 ;; Registers used:
  1382 ;;		wreg, fsr0l, fsr0h, status,2, status,0, btemp+1, pclath, cstack
  1383 ;; Tracked objects:
  1384 ;;		On entry : 0/0
  1385 ;;		On exit  : 0/0
  1386 ;;		Unchanged: 0/0
  1387 ;; Data sizes:     COMMON   BANK0   BANK1   BANK3   BANK2
  1388 ;;      Params:         0       5       0       0       0
  1389 ;;      Locals:         0      11       0       0       0
  1390 ;;      Temps:          2       0       0       0       0
  1391 ;;      Totals:         2      16       0       0       0
  1392 ;;Total ram usage:       18 bytes
  1393 ;; Hardware stack levels used: 1
  1394 ;; Hardware stack levels required when called: 2
  1395 ;; This function calls:
  1396 ;;		___awdiv
  1397 ;;		___awmod
  1398 ;; This function is called by:
  1399 ;;		_main
  1400 ;; This function uses a non-reentrant model
  1401 ;;
  1402                           
  1403     1493                     _intToASCIIinCustomBase:	
  1404                           ;psect for function _intToASCIIinCustomBase
  1405                           
  1406     1493                     l3955:	
  1407                           ;incstack = 0
  1408                           ; Regs used in _intToASCIIinCustomBase: [wreg-fsr0h+status,2+status,0+btemp+1+pclath+cst
      +                          ack]
  1409                           
  1410                           
  1411                           ;newmain.c: 87:     int indice = 0;
  1412     1493  1283               	bcf	3,5	;RP0=0, select bank0
  1413     1494  1303               	bcf	3,6	;RP1=0, select bank0
  1414     1495  01B6               	clrf	intToASCIIinCustomBase@indice
  1415     1496  01B7               	clrf	intToASCIIinCustomBase@indice+1
  1416     1497                     l3957:
  1417                           
  1418                           ;newmain.c: 88:     int resto;;newmain.c: 89:     if (numero == 0) {
  1419     1497  0828               	movf	intToASCIIinCustomBase@numero,w
  1420     1498  0429               	iorwf	intToASCIIinCustomBase@numero+1,w
  1421     1499  1D03               	btfss	3,2
  1422     149A  2C9C               	goto	u5961
  1423     149B  2C9D               	goto	u5960
  1424     149C                     u5961:
  1425     149C  2D05               	goto	l3981
  1426     149D                     u5960:
  1427     149D                     l3959:
  1428                           
  1429                           ;newmain.c: 90:         resultado[indice++] = '0';
  1430     149D  082A               	movf	intToASCIIinCustomBase@resultado,w
  1431     149E  0084               	movwf	4
  1432     149F  3030               	movlw	48
  1433     14A0  1783               	bsf	3,7	;select IRP bank2
  1434     14A1  0080               	movwf	0
  1435     14A2                     l3961:
  1436     14A2  3001               	movlw	1
  1437     14A3  07B6               	addwf	intToASCIIinCustomBase@indice,f
  1438     14A4  1803               	skipnc
  1439     14A5  0AB7               	incf	intToASCIIinCustomBase@indice+1,f
  1440     14A6  3000               	movlw	0
  1441     14A7  07B7               	addwf	intToASCIIinCustomBase@indice+1,f
  1442     14A8                     l3963:
  1443                           
  1444                           ;newmain.c: 91:         resultado[indice] = '\0';
  1445     14A8  0836               	movf	intToASCIIinCustomBase@indice,w
  1446     14A9  072A               	addwf	intToASCIIinCustomBase@resultado,w
  1447     14AA  00F8               	movwf	??_intToASCIIinCustomBase
  1448     14AB  0878               	movf	??_intToASCIIinCustomBase,w
  1449     14AC  0084               	movwf	4
  1450     14AD  0180               	clrf	0
  1451     14AE  2D56               	goto	l99
  1452     14AF                     l3967:
  1453                           
  1454                           ;newmain.c: 95:         resto = numero % base;
  1455     14AF  082C               	movf	intToASCIIinCustomBase@base+1,w
  1456     14B0  00F3               	movwf	___awmod@divisor+1
  1457     14B1  082B               	movf	intToASCIIinCustomBase@base,w
  1458     14B2  00F2               	movwf	___awmod@divisor
  1459     14B3  0829               	movf	intToASCIIinCustomBase@numero+1,w
  1460     14B4  00F5               	movwf	___awmod@dividend+1
  1461     14B5  0828               	movf	intToASCIIinCustomBase@numero,w
  1462     14B6  00F4               	movwf	___awmod@dividend
  1463     14B7  160A  158A  27A7  160A  118A  	fcall	___awmod
  1464     14BC  0873               	movf	?___awmod+1,w
  1465     14BD  1283               	bcf	3,5	;RP0=0, select bank0
  1466     14BE  1303               	bcf	3,6	;RP1=0, select bank0
  1467     14BF  00B1               	movwf	intToASCIIinCustomBase@resto+1
  1468     14C0  0872               	movf	?___awmod,w
  1469     14C1  00B0               	movwf	intToASCIIinCustomBase@resto
  1470     14C2                     l3969:
  1471                           
  1472                           ;newmain.c: 96:         resultado[indice++] = (resto > 9) ? (resto - 10) + 'A' : resto +
      +                           '0';
  1473     14C2  0831               	movf	intToASCIIinCustomBase@resto+1,w
  1474     14C3  3A80               	xorlw	128
  1475     14C4  00FF               	movwf	btemp+1
  1476     14C5  3080               	movlw	128
  1477     14C6  027F               	subwf	btemp+1,w
  1478     14C7  1D03               	skipz
  1479     14C8  2CCB               	goto	u5975
  1480     14C9  300A               	movlw	10
  1481     14CA  0230               	subwf	intToASCIIinCustomBase@resto,w
  1482     14CB                     u5975:
  1483     14CB  1803               	skipnc
  1484     14CC  2CCE               	goto	u5971
  1485     14CD  2CCF               	goto	u5970
  1486     14CE                     u5971:
  1487     14CE  2CDA               	goto	l3973
  1488     14CF                     u5970:
  1489     14CF                     l3971:
  1490     14CF  1283               	bcf	3,5	;RP0=0, select bank0
  1491     14D0  1303               	bcf	3,6	;RP1=0, select bank0
  1492     14D1  0830               	movf	intToASCIIinCustomBase@resto,w
  1493     14D2  3E30               	addlw	48
  1494     14D3  00AE               	movwf	_intToASCIIinCustomBase$285
  1495     14D4  0831               	movf	intToASCIIinCustomBase@resto+1,w
  1496     14D5  1803               	skipnc
  1497     14D6  3E01               	addlw	1
  1498     14D7  3E00               	addlw	0
  1499     14D8  00AF               	movwf	_intToASCIIinCustomBase$285+1
  1500     14D9  2CE4               	goto	l3975
  1501     14DA                     l3973:
  1502     14DA  1283               	bcf	3,5	;RP0=0, select bank0
  1503     14DB  1303               	bcf	3,6	;RP1=0, select bank0
  1504     14DC  0830               	movf	intToASCIIinCustomBase@resto,w
  1505     14DD  3E37               	addlw	55
  1506     14DE  00AE               	movwf	_intToASCIIinCustomBase$285
  1507     14DF  0831               	movf	intToASCIIinCustomBase@resto+1,w
  1508     14E0  1803               	skipnc
  1509     14E1  3E01               	addlw	1
  1510     14E2  3E00               	addlw	0
  1511     14E3  00AF               	movwf	_intToASCIIinCustomBase$285+1
  1512     14E4                     l3975:
  1513     14E4  0836               	movf	intToASCIIinCustomBase@indice,w
  1514     14E5  072A               	addwf	intToASCIIinCustomBase@resultado,w
  1515     14E6  00F8               	movwf	??_intToASCIIinCustomBase
  1516     14E7  0878               	movf	??_intToASCIIinCustomBase,w
  1517     14E8  0084               	movwf	4
  1518     14E9  082E               	movf	_intToASCIIinCustomBase$285,w
  1519     14EA  1783               	bsf	3,7	;select IRP bank2
  1520     14EB  0080               	movwf	0
  1521     14EC                     l3977:
  1522     14EC  3001               	movlw	1
  1523     14ED  07B6               	addwf	intToASCIIinCustomBase@indice,f
  1524     14EE  1803               	skipnc
  1525     14EF  0AB7               	incf	intToASCIIinCustomBase@indice+1,f
  1526     14F0  3000               	movlw	0
  1527     14F1  07B7               	addwf	intToASCIIinCustomBase@indice+1,f
  1528     14F2                     l3979:
  1529                           
  1530                           ;newmain.c: 97:         numero /= base;
  1531     14F2  082C               	movf	intToASCIIinCustomBase@base+1,w
  1532     14F3  00A1               	movwf	___awdiv@divisor+1
  1533     14F4  082B               	movf	intToASCIIinCustomBase@base,w
  1534     14F5  00A0               	movwf	___awdiv@divisor
  1535     14F6  0829               	movf	intToASCIIinCustomBase@numero+1,w
  1536     14F7  00A3               	movwf	___awdiv@dividend+1
  1537     14F8  0828               	movf	intToASCIIinCustomBase@numero,w
  1538     14F9  00A2               	movwf	___awdiv@dividend
  1539     14FA  120A  158A  2005  160A  118A  	fcall	___awdiv
  1540     14FF  1283               	bcf	3,5	;RP0=0, select bank0
  1541     1500  1303               	bcf	3,6	;RP1=0, select bank0
  1542     1501  0821               	movf	?___awdiv+1,w
  1543     1502  00A9               	movwf	intToASCIIinCustomBase@numero+1
  1544     1503  0820               	movf	?___awdiv,w
  1545     1504  00A8               	movwf	intToASCIIinCustomBase@numero
  1546     1505                     l3981:
  1547                           
  1548                           ;newmain.c: 94:     while (numero != 0) {
  1549     1505  0828               	movf	intToASCIIinCustomBase@numero,w
  1550     1506  0429               	iorwf	intToASCIIinCustomBase@numero+1,w
  1551     1507  1D03               	btfss	3,2
  1552     1508  2D0A               	goto	u5981
  1553     1509  2D0B               	goto	u5980
  1554     150A                     u5981:
  1555     150A  2CAF               	goto	l3967
  1556     150B                     u5980:
  1557     150B                     l3983:
  1558                           
  1559                           ;newmain.c: 99:     resultado[indice] = '\0';
  1560     150B  0836               	movf	intToASCIIinCustomBase@indice,w
  1561     150C  072A               	addwf	intToASCIIinCustomBase@resultado,w
  1562     150D  00F8               	movwf	??_intToASCIIinCustomBase
  1563     150E  0878               	movf	??_intToASCIIinCustomBase,w
  1564     150F  0084               	movwf	4
  1565     1510  1783               	bsf	3,7	;select IRP bank2
  1566     1511  0180               	clrf	0
  1567     1512                     l3985:
  1568                           
  1569                           ;newmain.c: 102:     int i, j;;newmain.c: 103:     for (i = 0, j = indice - 1; i < j; i+
      +                          +, j--) {
  1570     1512  01B2               	clrf	intToASCIIinCustomBase@i
  1571     1513  01B3               	clrf	intToASCIIinCustomBase@i+1
  1572     1514                     l3987:
  1573     1514  0836               	movf	intToASCIIinCustomBase@indice,w
  1574     1515  3EFF               	addlw	255
  1575     1516  00B4               	movwf	intToASCIIinCustomBase@j
  1576     1517  0837               	movf	intToASCIIinCustomBase@indice+1,w
  1577     1518  1803               	skipnc
  1578     1519  3E01               	addlw	1
  1579     151A  3EFF               	addlw	255
  1580     151B  00B5               	movwf	intToASCIIinCustomBase@j+1
  1581     151C  2D48               	goto	l3999
  1582     151D                     l3989:
  1583                           
  1584                           ;newmain.c: 104:         char temp = resultado[i];
  1585     151D  1283               	bcf	3,5	;RP0=0, select bank0
  1586     151E  1303               	bcf	3,6	;RP1=0, select bank0
  1587     151F  0832               	movf	intToASCIIinCustomBase@i,w
  1588     1520  072A               	addwf	intToASCIIinCustomBase@resultado,w
  1589     1521  00F8               	movwf	??_intToASCIIinCustomBase
  1590     1522  0878               	movf	??_intToASCIIinCustomBase,w
  1591     1523  0084               	movwf	4
  1592     1524  1783               	bsf	3,7	;select IRP bank2
  1593     1525  0800               	movf	0,w
  1594     1526  00AD               	movwf	intToASCIIinCustomBase@temp
  1595     1527                     l3991:
  1596                           
  1597                           ;newmain.c: 105:         resultado[i] = resultado[j];
  1598     1527  0834               	movf	intToASCIIinCustomBase@j,w
  1599     1528  072A               	addwf	intToASCIIinCustomBase@resultado,w
  1600     1529  00F8               	movwf	??_intToASCIIinCustomBase
  1601     152A  0878               	movf	??_intToASCIIinCustomBase,w
  1602     152B  0084               	movwf	4
  1603     152C  0800               	movf	0,w
  1604     152D  00FF               	movwf	btemp+1
  1605     152E  0832               	movf	intToASCIIinCustomBase@i,w
  1606     152F  072A               	addwf	intToASCIIinCustomBase@resultado,w
  1607     1530  00F9               	movwf	??_intToASCIIinCustomBase+1
  1608     1531  0879               	movf	??_intToASCIIinCustomBase+1,w
  1609     1532  0084               	movwf	4
  1610     1533  087F               	movf	btemp+1,w
  1611     1534  0080               	movwf	0
  1612     1535                     l3993:
  1613                           
  1614                           ;newmain.c: 106:         resultado[j] = temp;
  1615     1535  0834               	movf	intToASCIIinCustomBase@j,w
  1616     1536  072A               	addwf	intToASCIIinCustomBase@resultado,w
  1617     1537  00F8               	movwf	??_intToASCIIinCustomBase
  1618     1538  0878               	movf	??_intToASCIIinCustomBase,w
  1619     1539  0084               	movwf	4
  1620     153A  082D               	movf	intToASCIIinCustomBase@temp,w
  1621     153B  0080               	movwf	0
  1622     153C                     l3995:
  1623                           
  1624                           ;newmain.c: 107:     }
  1625     153C  3001               	movlw	1
  1626     153D  07B2               	addwf	intToASCIIinCustomBase@i,f
  1627     153E  1803               	skipnc
  1628     153F  0AB3               	incf	intToASCIIinCustomBase@i+1,f
  1629     1540  3000               	movlw	0
  1630     1541  07B3               	addwf	intToASCIIinCustomBase@i+1,f
  1631     1542                     l3997:
  1632     1542  30FF               	movlw	255
  1633     1543  07B4               	addwf	intToASCIIinCustomBase@j,f
  1634     1544  1803               	skipnc
  1635     1545  0AB5               	incf	intToASCIIinCustomBase@j+1,f
  1636     1546  30FF               	movlw	255
  1637     1547  07B5               	addwf	intToASCIIinCustomBase@j+1,f
  1638     1548                     l3999:
  1639     1548  0833               	movf	intToASCIIinCustomBase@i+1,w
  1640     1549  3A80               	xorlw	128
  1641     154A  00F8               	movwf	??_intToASCIIinCustomBase
  1642     154B  0835               	movf	intToASCIIinCustomBase@j+1,w
  1643     154C  3A80               	xorlw	128
  1644     154D  0278               	subwf	??_intToASCIIinCustomBase,w
  1645     154E  1D03               	skipz
  1646     154F  2D52               	goto	u5995
  1647     1550  0834               	movf	intToASCIIinCustomBase@j,w
  1648     1551  0232               	subwf	intToASCIIinCustomBase@i,w
  1649     1552                     u5995:
  1650     1552  1C03               	skipc
  1651     1553  2D55               	goto	u5991
  1652     1554  2D56               	goto	u5990
  1653     1555                     u5991:
  1654     1555  2D1D               	goto	l3989
  1655     1556                     u5990:
  1656     1556                     l99:
  1657     1556  0008               	return
  1658     1557                     __end_of_intToASCIIinCustomBase:
  1659                           
  1660                           	psect	text2
  1661     1FA7                     __ptext2:	
  1662 ;; *************** function ___awmod *****************
  1663 ;; Defined at:
  1664 ;;		line 5 in file "C:\Program Files\Microchip\xc8\v2.41\pic\sources\c90\common\awmod.c"
  1665 ;; Parameters:    Size  Location     Type
  1666 ;;  divisor         2    2[COMMON] int 
  1667 ;;  dividend        2    4[COMMON] int 
  1668 ;; Auto vars:     Size  Location     Type
  1669 ;;  sign            1    7[COMMON] unsigned char 
  1670 ;;  counter         1    6[COMMON] unsigned char 
  1671 ;; Return value:  Size  Location     Type
  1672 ;;                  2    2[COMMON] int 
  1673 ;; Registers used:
  1674 ;;		wreg, status,2, status,0, btemp+1
  1675 ;; Tracked objects:
  1676 ;;		On entry : 0/0
  1677 ;;		On exit  : 0/0
  1678 ;;		Unchanged: 0/0
  1679 ;; Data sizes:     COMMON   BANK0   BANK1   BANK3   BANK2
  1680 ;;      Params:         4       0       0       0       0
  1681 ;;      Locals:         2       0       0       0       0
  1682 ;;      Temps:          0       0       0       0       0
  1683 ;;      Totals:         6       0       0       0       0
  1684 ;;Total ram usage:        6 bytes
  1685 ;; Hardware stack levels used: 1
  1686 ;; Hardware stack levels required when called: 1
  1687 ;; This function calls:
  1688 ;;		Nothing
  1689 ;; This function is called by:
  1690 ;;		_intToASCIIinCustomBase
  1691 ;; This function uses a non-reentrant model
  1692 ;;
  1693                           
  1694     1FA7                     ___awmod:	
  1695                           ;psect for function ___awmod
  1696                           
  1697     1FA7                     l3091:	
  1698                           ;incstack = 0
  1699                           ; Regs used in ___awmod: [wreg+status,2+status,0+btemp+1]
  1700                           
  1701     1FA7  01F7               	clrf	___awmod@sign
  1702     1FA8                     l3093:
  1703     1FA8  1FF5               	btfss	___awmod@dividend+1,7
  1704     1FA9  2FAB               	goto	u4411
  1705     1FAA  2FAC               	goto	u4410
  1706     1FAB                     u4411:
  1707     1FAB  2FB3               	goto	l3099
  1708     1FAC                     u4410:
  1709     1FAC                     l3095:
  1710     1FAC  09F4               	comf	___awmod@dividend,f
  1711     1FAD  09F5               	comf	___awmod@dividend+1,f
  1712     1FAE  0AF4               	incf	___awmod@dividend,f
  1713     1FAF  1903               	skipnz
  1714     1FB0  0AF5               	incf	___awmod@dividend+1,f
  1715     1FB1                     l3097:
  1716     1FB1  01F7               	clrf	___awmod@sign
  1717     1FB2  0AF7               	incf	___awmod@sign,f
  1718     1FB3                     l3099:
  1719     1FB3  1FF3               	btfss	___awmod@divisor+1,7
  1720     1FB4  2FB6               	goto	u4421
  1721     1FB5  2FB7               	goto	u4420
  1722     1FB6                     u4421:
  1723     1FB6  2FBC               	goto	l3103
  1724     1FB7                     u4420:
  1725     1FB7                     l3101:
  1726     1FB7  09F2               	comf	___awmod@divisor,f
  1727     1FB8  09F3               	comf	___awmod@divisor+1,f
  1728     1FB9  0AF2               	incf	___awmod@divisor,f
  1729     1FBA  1903               	skipnz
  1730     1FBB  0AF3               	incf	___awmod@divisor+1,f
  1731     1FBC                     l3103:
  1732     1FBC  0872               	movf	___awmod@divisor,w
  1733     1FBD  0473               	iorwf	___awmod@divisor+1,w
  1734     1FBE  1903               	btfsc	3,2
  1735     1FBF  2FC1               	goto	u4431
  1736     1FC0  2FC2               	goto	u4430
  1737     1FC1                     u4431:
  1738     1FC1  2FF1               	goto	l3121
  1739     1FC2                     u4430:
  1740     1FC2                     l3105:
  1741     1FC2  01F6               	clrf	___awmod@counter
  1742     1FC3  0AF6               	incf	___awmod@counter,f
  1743     1FC4  2FD0               	goto	l3111
  1744     1FC5                     l3107:
  1745     1FC5  3001               	movlw	1
  1746     1FC6                     u4445:
  1747     1FC6  1003               	clrc
  1748     1FC7  0DF2               	rlf	___awmod@divisor,f
  1749     1FC8  0DF3               	rlf	___awmod@divisor+1,f
  1750     1FC9  3EFF               	addlw	-1
  1751     1FCA  1D03               	skipz
  1752     1FCB  2FC6               	goto	u4445
  1753     1FCC                     l3109:
  1754     1FCC  3001               	movlw	1
  1755     1FCD  00FF               	movwf	btemp+1
  1756     1FCE  087F               	movf	btemp+1,w
  1757     1FCF  07F6               	addwf	___awmod@counter,f
  1758     1FD0                     l3111:
  1759     1FD0  1FF3               	btfss	___awmod@divisor+1,7
  1760     1FD1  2FD3               	goto	u4451
  1761     1FD2  2FD4               	goto	u4450
  1762     1FD3                     u4451:
  1763     1FD3  2FC5               	goto	l3107
  1764     1FD4                     u4450:
  1765     1FD4                     l3113:
  1766     1FD4  0873               	movf	___awmod@divisor+1,w
  1767     1FD5  0275               	subwf	___awmod@dividend+1,w
  1768     1FD6  1D03               	skipz
  1769     1FD7  2FDA               	goto	u4465
  1770     1FD8  0872               	movf	___awmod@divisor,w
  1771     1FD9  0274               	subwf	___awmod@dividend,w
  1772     1FDA                     u4465:
  1773     1FDA  1C03               	skipc
  1774     1FDB  2FDD               	goto	u4461
  1775     1FDC  2FDE               	goto	u4460
  1776     1FDD                     u4461:
  1777     1FDD  2FE4               	goto	l3117
  1778     1FDE                     u4460:
  1779     1FDE                     l3115:
  1780     1FDE  0872               	movf	___awmod@divisor,w
  1781     1FDF  02F4               	subwf	___awmod@dividend,f
  1782     1FE0  0873               	movf	___awmod@divisor+1,w
  1783     1FE1  1C03               	skipc
  1784     1FE2  03F5               	decf	___awmod@dividend+1,f
  1785     1FE3  02F5               	subwf	___awmod@dividend+1,f
  1786     1FE4                     l3117:
  1787     1FE4  3001               	movlw	1
  1788     1FE5                     u4475:
  1789     1FE5  1003               	clrc
  1790     1FE6  0CF3               	rrf	___awmod@divisor+1,f
  1791     1FE7  0CF2               	rrf	___awmod@divisor,f
  1792     1FE8  3EFF               	addlw	-1
  1793     1FE9  1D03               	skipz
  1794     1FEA  2FE5               	goto	u4475
  1795     1FEB                     l3119:
  1796     1FEB  3001               	movlw	1
  1797     1FEC  02F6               	subwf	___awmod@counter,f
  1798     1FED  1D03               	btfss	3,2
  1799     1FEE  2FF0               	goto	u4481
  1800     1FEF  2FF1               	goto	u4480
  1801     1FF0                     u4481:
  1802     1FF0  2FD4               	goto	l3113
  1803     1FF1                     u4480:
  1804     1FF1                     l3121:
  1805     1FF1  0877               	movf	___awmod@sign,w
  1806     1FF2  1903               	btfsc	3,2
  1807     1FF3  2FF5               	goto	u4491
  1808     1FF4  2FF6               	goto	u4490
  1809     1FF5                     u4491:
  1810     1FF5  2FFB               	goto	l3125
  1811     1FF6                     u4490:
  1812     1FF6                     l3123:
  1813     1FF6  09F4               	comf	___awmod@dividend,f
  1814     1FF7  09F5               	comf	___awmod@dividend+1,f
  1815     1FF8  0AF4               	incf	___awmod@dividend,f
  1816     1FF9  1903               	skipnz
  1817     1FFA  0AF5               	incf	___awmod@dividend+1,f
  1818     1FFB                     l3125:
  1819     1FFB  0875               	movf	___awmod@dividend+1,w
  1820     1FFC  00F3               	movwf	?___awmod+1
  1821     1FFD  0874               	movf	___awmod@dividend,w
  1822     1FFE  00F2               	movwf	?___awmod
  1823     1FFF                     l414:
  1824     1FFF  0008               	return
  1825     2000                     __end_of___awmod:
  1826                           
  1827                           	psect	text3
  1828     1CE3                     __ptext3:	
  1829 ;; *************** function _handleSetupMenu *****************
  1830 ;; Defined at:
  1831 ;;		line 190 in file "newmain.c"
  1832 ;; Parameters:    Size  Location     Type
  1833 ;;		None
  1834 ;; Auto vars:     Size  Location     Type
  1835 ;;		None
  1836 ;; Return value:  Size  Location     Type
  1837 ;;                  1    wreg      void 
  1838 ;; Registers used:
  1839 ;;		wreg, fsr0l, fsr0h, status,2, status,0, btemp+1, pclath, cstack
  1840 ;; Tracked objects:
  1841 ;;		On entry : 0/0
  1842 ;;		On exit  : 0/0
  1843 ;;		Unchanged: 0/0
  1844 ;; Data sizes:     COMMON   BANK0   BANK1   BANK3   BANK2
  1845 ;;      Params:         0       0       0       0       0
  1846 ;;      Locals:         0       0       0       0       0
  1847 ;;      Temps:          0       0       0       0       0
  1848 ;;      Totals:         0       0       0       0       0
  1849 ;;Total ram usage:        0 bytes
  1850 ;; Hardware stack levels used: 1
  1851 ;; Hardware stack levels required when called: 5
  1852 ;; This function calls:
  1853 ;;		_escreveLCD
  1854 ;;		_verificaBtnMais
  1855 ;;		_verificaBtnMenos
  1856 ;; This function is called by:
  1857 ;;		_main
  1858 ;; This function uses a non-reentrant model
  1859 ;;
  1860                           
  1861     1CE3                     _handleSetupMenu:	
  1862                           ;psect for function _handleSetupMenu
  1863                           
  1864     1CE3                     l4001:	
  1865                           ;incstack = 0
  1866                           ; Regs used in _handleSetupMenu: [wreg-fsr0h+status,2+status,0+btemp+1+pclath+cstack]
  1867                           
  1868                           
  1869                           ;newmain.c: 192:     while (menu_ativo)
  1870     1CE3  2CFA               	goto	l4007
  1871     1CE4                     l4003:
  1872                           
  1873                           ;newmain.c: 193:     {;newmain.c: 196:         verificaBtnMais();
  1874     1CE4  160A  158A  25EC  160A  158A  	fcall	_verificaBtnMais
  1875                           
  1876                           ;newmain.c: 197:         verificaBtnMenos();
  1877     1CE9  160A  158A  262A  160A  158A  	fcall	_verificaBtnMenos
  1878     1CEE                     l4005:
  1879                           
  1880                           ;newmain.c: 198:         escreveLCD("MENU - OBJETIVO", "500 LUX");
  1881     1CEE  306A               	movlw	(low ((STR_2-__stringbase)| (0+32768)))& (0+255)
  1882     1CEF  1283               	bcf	3,5	;RP0=0, select bank0
  1883     1CF0  1303               	bcf	3,6	;RP1=0, select bank0
  1884     1CF1  00A5               	movwf	escreveLCD@linha2
  1885     1CF2  3080               	movlw	128
  1886     1CF3  00A6               	movwf	escreveLCD@linha2+1
  1887     1CF4  304D               	movlw	(low ((STR_1-__stringbase)| (0+32768)))& (0+255)
  1888     1CF5  160A  158A  257B  160A  158A  	fcall	_escreveLCD
  1889     1CFA                     l4007:
  1890                           
  1891                           ;newmain.c: 192:     while (menu_ativo)
  1892     1CFA  087A               	movf	_menu_ativo,w
  1893     1CFB  047B               	iorwf	_menu_ativo+1,w
  1894     1CFC  1D03               	btfss	3,2
  1895     1CFD  2CFF               	goto	u6001
  1896     1CFE  2D00               	goto	u6000
  1897     1CFF                     u6001:
  1898     1CFF  2CE4               	goto	l4003
  1899     1D00                     u6000:
  1900     1D00                     l145:
  1901     1D00  0008               	return
  1902     1D01                     __end_of_handleSetupMenu:
  1903                           
  1904                           	psect	text4
  1905     1E2A                     __ptext4:	
  1906 ;; *************** function _verificaBtnMenos *****************
  1907 ;; Defined at:
  1908 ;;		line 139 in file "newmain.c"
  1909 ;; Parameters:    Size  Location     Type
  1910 ;;		None
  1911 ;; Auto vars:     Size  Location     Type
  1912 ;;		None
  1913 ;; Return value:  Size  Location     Type
  1914 ;;                  1    wreg      void 
  1915 ;; Registers used:
  1916 ;;		wreg, status,2, status,0, btemp+1
  1917 ;; Tracked objects:
  1918 ;;		On entry : 0/0
  1919 ;;		On exit  : 0/0
  1920 ;;		Unchanged: 0/0
  1921 ;; Data sizes:     COMMON   BANK0   BANK1   BANK3   BANK2
  1922 ;;      Params:         0       0       0       0       0
  1923 ;;      Locals:         0       0       0       0       0
  1924 ;;      Temps:          0       0       0       0       0
  1925 ;;      Totals:         0       0       0       0       0
  1926 ;;Total ram usage:        0 bytes
  1927 ;; Hardware stack levels used: 1
  1928 ;; Hardware stack levels required when called: 1
  1929 ;; This function calls:
  1930 ;;		Nothing
  1931 ;; This function is called by:
  1932 ;;		_handleSetupMenu
  1933 ;; This function uses a non-reentrant model
  1934 ;;
  1935                           
  1936     1E2A                     _verificaBtnMenos:	
  1937                           ;psect for function _verificaBtnMenos
  1938                           
  1939     1E2A                     l2965:	
  1940                           ;incstack = 0
  1941                           ; Regs used in _verificaBtnMenos: [wreg+status,2+status,0+btemp+1]
  1942                           
  1943                           
  1944                           ;newmain.c: 141:     if(!btn_menos_aux && !PORTBbits.RB3){
  1945     1E2A  1683               	bsf	3,5	;RP0=1, select bank3
  1946     1E2B  1703               	bsf	3,6	;RP1=1, select bank3
  1947     1E2C  0863               	movf	_btn_menos_aux^(0+384),w
  1948     1E2D  0464               	iorwf	(_btn_menos_aux+1)^(0+384),w
  1949     1E2E  1D03               	btfss	3,2
  1950     1E2F  2E31               	goto	u4171
  1951     1E30  2E32               	goto	u4170
  1952     1E31                     u4171:
  1953     1E31  2E5D               	goto	l123
  1954     1E32                     u4170:
  1955     1E32                     l2967:
  1956     1E32  1283               	bcf	3,5	;RP0=0, select bank0
  1957     1E33  1303               	bcf	3,6	;RP1=0, select bank0
  1958     1E34  1986               	btfsc	6,3	;volatile
  1959     1E35  2E37               	goto	u4181
  1960     1E36  2E38               	goto	u4180
  1961     1E37                     u4181:
  1962     1E37  2E5D               	goto	l123
  1963     1E38                     u4180:
  1964     1E38                     l2969:
  1965                           
  1966                           ;newmain.c: 142:         btn_menos_aux = 1;
  1967     1E38  3001               	movlw	1
  1968     1E39  1683               	bsf	3,5	;RP0=1, select bank3
  1969     1E3A  1703               	bsf	3,6	;RP1=1, select bank3
  1970     1E3B  00E3               	movwf	_btn_menos_aux^(0+384)
  1971     1E3C  3000               	movlw	0
  1972     1E3D  00E4               	movwf	(_btn_menos_aux^(0+384)+1)
  1973     1E3E                     l2971:
  1974                           
  1975                           ;newmain.c: 143:         if(luminosidade_desejada>10){
  1976     1E3E  1683               	bsf	3,5	;RP0=1, select bank1
  1977     1E3F  1303               	bcf	3,6	;RP1=0, select bank1
  1978     1E40  086D               	movf	(_luminosidade_desejada+1)^(0+128),w
  1979     1E41  3A80               	xorlw	128
  1980     1E42  00FF               	movwf	btemp+1
  1981     1E43  3080               	movlw	128
  1982     1E44  027F               	subwf	btemp+1,w
  1983     1E45  1D03               	skipz
  1984     1E46  2E49               	goto	u4195
  1985     1E47  300B               	movlw	11
  1986     1E48  026C               	subwf	_luminosidade_desejada^(0+128),w
  1987     1E49                     u4195:
  1988     1E49  1C03               	skipc
  1989     1E4A  2E4C               	goto	u4191
  1990     1E4B  2E4D               	goto	u4190
  1991     1E4C                     u4191:
  1992     1E4C  2E56               	goto	l2975
  1993     1E4D                     u4190:
  1994     1E4D                     l2973:
  1995                           
  1996                           ;newmain.c: 144:             luminosidade_desejada-=10;
  1997     1E4D  30F6               	movlw	246
  1998     1E4E  1683               	bsf	3,5	;RP0=1, select bank1
  1999     1E4F  1303               	bcf	3,6	;RP1=0, select bank1
  2000     1E50  07EC               	addwf	_luminosidade_desejada^(0+128),f
  2001     1E51  1803               	skipnc
  2002     1E52  0AED               	incf	(_luminosidade_desejada+1)^(0+128),f
  2003     1E53  30FF               	movlw	255
  2004     1E54  07ED               	addwf	(_luminosidade_desejada+1)^(0+128),f
  2005                           
  2006                           ;newmain.c: 145:         }
  2007     1E55  2E67               	goto	l128
  2008     1E56                     l2975:
  2009                           
  2010                           ;newmain.c: 147:             luminosidade_desejada = 10;
  2011     1E56  300A               	movlw	10
  2012     1E57  1683               	bsf	3,5	;RP0=1, select bank1
  2013     1E58  1303               	bcf	3,6	;RP1=0, select bank1
  2014     1E59  00EC               	movwf	_luminosidade_desejada^(0+128)
  2015     1E5A  3000               	movlw	0
  2016     1E5B  00ED               	movwf	(_luminosidade_desejada^(0+128)+1)
  2017     1E5C  2E67               	goto	l128
  2018     1E5D                     l123:	
  2019                           ;newmain.c: 150:     else{
  2020                           
  2021                           
  2022                           ;newmain.c: 151:         if(PORTBbits.RB3){
  2023     1E5D  1283               	bcf	3,5	;RP0=0, select bank0
  2024     1E5E  1303               	bcf	3,6	;RP1=0, select bank0
  2025     1E5F  1D86               	btfss	6,3	;volatile
  2026     1E60  2E62               	goto	u4201
  2027     1E61  2E63               	goto	u4200
  2028     1E62                     u4201:
  2029     1E62  2E67               	goto	l128
  2030     1E63                     u4200:
  2031     1E63                     l2977:
  2032                           
  2033                           ;newmain.c: 152:             btn_menos_aux = 0;
  2034     1E63  1683               	bsf	3,5	;RP0=1, select bank3
  2035     1E64  1703               	bsf	3,6	;RP1=1, select bank3
  2036     1E65  01E3               	clrf	_btn_menos_aux^(0+384)
  2037     1E66  01E4               	clrf	(_btn_menos_aux+1)^(0+384)
  2038     1E67                     l128:
  2039     1E67  0008               	return
  2040     1E68                     __end_of_verificaBtnMenos:
  2041                           
  2042                           	psect	text5
  2043     1DEC                     __ptext5:	
  2044 ;; *************** function _verificaBtnMais *****************
  2045 ;; Defined at:
  2046 ;;		line 119 in file "newmain.c"
  2047 ;; Parameters:    Size  Location     Type
  2048 ;;		None
  2049 ;; Auto vars:     Size  Location     Type
  2050 ;;		None
  2051 ;; Return value:  Size  Location     Type
  2052 ;;                  1    wreg      void 
  2053 ;; Registers used:
  2054 ;;		wreg, status,2, status,0, btemp+1
  2055 ;; Tracked objects:
  2056 ;;		On entry : 0/0
  2057 ;;		On exit  : 0/0
  2058 ;;		Unchanged: 0/0
  2059 ;; Data sizes:     COMMON   BANK0   BANK1   BANK3   BANK2
  2060 ;;      Params:         0       0       0       0       0
  2061 ;;      Locals:         0       0       0       0       0
  2062 ;;      Temps:          0       0       0       0       0
  2063 ;;      Totals:         0       0       0       0       0
  2064 ;;Total ram usage:        0 bytes
  2065 ;; Hardware stack levels used: 1
  2066 ;; Hardware stack levels required when called: 1
  2067 ;; This function calls:
  2068 ;;		Nothing
  2069 ;; This function is called by:
  2070 ;;		_handleSetupMenu
  2071 ;; This function uses a non-reentrant model
  2072 ;;
  2073                           
  2074     1DEC                     _verificaBtnMais:	
  2075                           ;psect for function _verificaBtnMais
  2076                           
  2077     1DEC                     l2951:	
  2078                           ;incstack = 0
  2079                           ; Regs used in _verificaBtnMais: [wreg+status,2+status,0+btemp+1]
  2080                           
  2081                           
  2082                           ;newmain.c: 122:     if(!btn_mais_aux && !PORTBbits.RB2){
  2083     1DEC  1683               	bsf	3,5	;RP0=1, select bank3
  2084     1DED  1703               	bsf	3,6	;RP1=1, select bank3
  2085     1DEE  0865               	movf	_btn_mais_aux^(0+384),w
  2086     1DEF  0466               	iorwf	(_btn_mais_aux+1)^(0+384),w
  2087     1DF0  1D03               	btfss	3,2
  2088     1DF1  2DF3               	goto	u4131
  2089     1DF2  2DF4               	goto	u4130
  2090     1DF3                     u4131:
  2091     1DF3  2E1F               	goto	l115
  2092     1DF4                     u4130:
  2093     1DF4                     l2953:
  2094     1DF4  1283               	bcf	3,5	;RP0=0, select bank0
  2095     1DF5  1303               	bcf	3,6	;RP1=0, select bank0
  2096     1DF6  1906               	btfsc	6,2	;volatile
  2097     1DF7  2DF9               	goto	u4141
  2098     1DF8  2DFA               	goto	u4140
  2099     1DF9                     u4141:
  2100     1DF9  2E1F               	goto	l115
  2101     1DFA                     u4140:
  2102     1DFA                     l2955:
  2103                           
  2104                           ;newmain.c: 123:         btn_mais_aux = 1;
  2105     1DFA  3001               	movlw	1
  2106     1DFB  1683               	bsf	3,5	;RP0=1, select bank3
  2107     1DFC  1703               	bsf	3,6	;RP1=1, select bank3
  2108     1DFD  00E5               	movwf	_btn_mais_aux^(0+384)
  2109     1DFE  3000               	movlw	0
  2110     1DFF  00E6               	movwf	(_btn_mais_aux^(0+384)+1)
  2111     1E00                     l2957:
  2112                           
  2113                           ;newmain.c: 124:         if(luminosidade_desejada<1000){
  2114     1E00  1683               	bsf	3,5	;RP0=1, select bank1
  2115     1E01  1303               	bcf	3,6	;RP1=0, select bank1
  2116     1E02  086D               	movf	(_luminosidade_desejada+1)^(0+128),w
  2117     1E03  3A80               	xorlw	128
  2118     1E04  00FF               	movwf	btemp+1
  2119     1E05  3083               	movlw	131
  2120     1E06  027F               	subwf	btemp+1,w
  2121     1E07  1D03               	skipz
  2122     1E08  2E0B               	goto	u4155
  2123     1E09  30E8               	movlw	232
  2124     1E0A  026C               	subwf	_luminosidade_desejada^(0+128),w
  2125     1E0B                     u4155:
  2126     1E0B  1803               	skipnc
  2127     1E0C  2E0E               	goto	u4151
  2128     1E0D  2E0F               	goto	u4150
  2129     1E0E                     u4151:
  2130     1E0E  2E18               	goto	l2961
  2131     1E0F                     u4150:
  2132     1E0F                     l2959:
  2133                           
  2134                           ;newmain.c: 125:             luminosidade_desejada+=10;
  2135     1E0F  300A               	movlw	10
  2136     1E10  1683               	bsf	3,5	;RP0=1, select bank1
  2137     1E11  1303               	bcf	3,6	;RP1=0, select bank1
  2138     1E12  07EC               	addwf	_luminosidade_desejada^(0+128),f
  2139     1E13  1803               	skipnc
  2140     1E14  0AED               	incf	(_luminosidade_desejada+1)^(0+128),f
  2141     1E15  3000               	movlw	0
  2142     1E16  07ED               	addwf	(_luminosidade_desejada+1)^(0+128),f
  2143                           
  2144                           ;newmain.c: 126:         }
  2145     1E17  2E29               	goto	l120
  2146     1E18                     l2961:
  2147                           
  2148                           ;newmain.c: 128:             luminosidade_desejada = 1000;
  2149     1E18  30E8               	movlw	232
  2150     1E19  1683               	bsf	3,5	;RP0=1, select bank1
  2151     1E1A  1303               	bcf	3,6	;RP1=0, select bank1
  2152     1E1B  00EC               	movwf	_luminosidade_desejada^(0+128)
  2153     1E1C  3003               	movlw	3
  2154     1E1D  00ED               	movwf	(_luminosidade_desejada^(0+128)+1)
  2155     1E1E  2E29               	goto	l120
  2156     1E1F                     l115:	
  2157                           ;newmain.c: 131:     else{
  2158                           
  2159                           
  2160                           ;newmain.c: 132:         if(PORTBbits.RB2){
  2161     1E1F  1283               	bcf	3,5	;RP0=0, select bank0
  2162     1E20  1303               	bcf	3,6	;RP1=0, select bank0
  2163     1E21  1D06               	btfss	6,2	;volatile
  2164     1E22  2E24               	goto	u4161
  2165     1E23  2E25               	goto	u4160
  2166     1E24                     u4161:
  2167     1E24  2E29               	goto	l120
  2168     1E25                     u4160:
  2169     1E25                     l2963:
  2170                           
  2171                           ;newmain.c: 133:             btn_mais_aux = 0;
  2172     1E25  1683               	bsf	3,5	;RP0=1, select bank3
  2173     1E26  1703               	bsf	3,6	;RP1=1, select bank3
  2174     1E27  01E5               	clrf	_btn_mais_aux^(0+384)
  2175     1E28  01E6               	clrf	(_btn_mais_aux+1)^(0+384)
  2176     1E29                     l120:
  2177     1E29  0008               	return
  2178     1E2A                     __end_of_verificaBtnMais:
  2179                           
  2180                           	psect	text6
  2181     1D7B                     __ptext6:	
  2182 ;; *************** function _escreveLCD *****************
  2183 ;; Defined at:
  2184 ;;		line 175 in file "newmain.c"
  2185 ;; Parameters:    Size  Location     Type
  2186 ;;  linha1          1    wreg     PTR unsigned char 
  2187 ;;		 -> STR_3(13), STR_1(16), 
  2188 ;;  linha2          2    5[BANK0 ] PTR unsigned char 
  2189 ;;		 -> main@texto_luminosidade(16), STR_2(8), 
  2190 ;; Auto vars:     Size  Location     Type
  2191 ;;  linha1          1    9[COMMON] PTR unsigned char 
  2192 ;;		 -> STR_3(13), STR_1(16), 
  2193 ;; Return value:  Size  Location     Type
  2194 ;;                  1    wreg      void 
  2195 ;; Registers used:
  2196 ;;		wreg, fsr0l, fsr0h, status,2, status,0, btemp+1, pclath, cstack
  2197 ;; Tracked objects:
  2198 ;;		On entry : 0/0
  2199 ;;		On exit  : 0/0
  2200 ;;		Unchanged: 0/0
  2201 ;; Data sizes:     COMMON   BANK0   BANK1   BANK3   BANK2
  2202 ;;      Params:         0       2       0       0       0
  2203 ;;      Locals:         1       0       0       0       0
  2204 ;;      Temps:          0       2       0       0       0
  2205 ;;      Totals:         1       4       0       0       0
  2206 ;;Total ram usage:        5 bytes
  2207 ;; Hardware stack levels used: 1
  2208 ;; Hardware stack levels required when called: 4
  2209 ;; This function calls:
  2210 ;;		_Lcd_Clear
  2211 ;;		_Lcd_Set_Cursor
  2212 ;;		_Lcd_Write_String
  2213 ;; This function is called by:
  2214 ;;		_handleSetupMenu
  2215 ;;		_main
  2216 ;; This function uses a non-reentrant model
  2217 ;;
  2218                           
  2219     1D7B                     _escreveLCD:	
  2220                           ;psect for function _escreveLCD
  2221                           
  2222                           
  2223                           ;incstack = 0
  2224                           ; Regs used in _escreveLCD: [wreg-fsr0h+status,2+status,0+btemp+1+pclath+cstack]
  2225                           ;escreveLCD@linha1 stored from wreg
  2226     1D7B  00F9               	movwf	escreveLCD@linha1
  2227     1D7C                     l3847:
  2228                           
  2229                           ;newmain.c: 175: void escreveLCD(char* linha1, char* linha2);newmain.c: 176: {;newmain.c
      +                          : 178:     Lcd_Clear();
  2230     1D7C  160A  158A  2469  160A  158A  	fcall	_Lcd_Clear
  2231                           
  2232                           ;newmain.c: 179:     Lcd_Set_Cursor(1,1);
  2233     1D81  01F6               	clrf	Lcd_Set_Cursor@b
  2234     1D82  0AF6               	incf	Lcd_Set_Cursor@b,f
  2235     1D83  3001               	movlw	1
  2236     1D84  120A  118A  27B4  160A  158A  	fcall	_Lcd_Set_Cursor
  2237     1D89                     l3849:
  2238                           
  2239                           ;newmain.c: 180:     Lcd_Write_String(linha1);
  2240     1D89  0879               	movf	escreveLCD@linha1,w
  2241     1D8A  00F7               	movwf	Lcd_Write_String@a
  2242     1D8B  3000               	movlw	0
  2243     1D8C  1D03               	btfss	3,2
  2244     1D8D  3080               	movlw	128
  2245     1D8E  00F8               	movwf	Lcd_Write_String@a+1
  2246     1D8F  160A  158A  2668  160A  158A  	fcall	_Lcd_Write_String
  2247     1D94                     l3851:
  2248                           
  2249                           ;newmain.c: 182:     Lcd_Set_Cursor(2,1);
  2250     1D94  01F6               	clrf	Lcd_Set_Cursor@b
  2251     1D95  0AF6               	incf	Lcd_Set_Cursor@b,f
  2252     1D96  3002               	movlw	2
  2253     1D97  120A  118A  27B4  160A  158A  	fcall	_Lcd_Set_Cursor
  2254                           
  2255                           ;newmain.c: 183:     Lcd_Write_String(linha2);
  2256     1D9C  1283               	bcf	3,5	;RP0=0, select bank0
  2257     1D9D  1303               	bcf	3,6	;RP1=0, select bank0
  2258     1D9E  0825               	movf	escreveLCD@linha2,w
  2259     1D9F  00F7               	movwf	Lcd_Write_String@a
  2260     1DA0  0826               	movf	escreveLCD@linha2+1,w
  2261     1DA1  00F8               	movwf	Lcd_Write_String@a+1
  2262     1DA2  160A  158A  2668  160A  158A  	fcall	_Lcd_Write_String
  2263     1DA7                     l3853:
  2264                           
  2265                           ;newmain.c: 185:     _delay((unsigned long)((100)*(4000000/4000.0)));
  2266     1DA7  3082               	movlw	130
  2267     1DA8  1283               	bcf	3,5	;RP0=0, select bank0
  2268     1DA9  1303               	bcf	3,6	;RP1=0, select bank0
  2269     1DAA  00A8               	movwf	??_escreveLCD+1
  2270     1DAB  30DD               	movlw	221
  2271     1DAC  00A7               	movwf	??_escreveLCD
  2272     1DAD                     u6017:
  2273     1DAD  0BA7               	decfsz	??_escreveLCD,f
  2274     1DAE  2DAD               	goto	u6017
  2275     1DAF  0BA8               	decfsz	??_escreveLCD+1,f
  2276     1DB0  2DAD               	goto	u6017
  2277     1DB1                     l139:
  2278     1DB1  0008               	return
  2279     1DB2                     __end_of_escreveLCD:
  2280                           
  2281                           	psect	text7
  2282     1E68                     __ptext7:	
  2283 ;; *************** function _Lcd_Write_String *****************
  2284 ;; Defined at:
  2285 ;;		line 97 in file "./lcd.h"
  2286 ;; Parameters:    Size  Location     Type
  2287 ;;  a               2    7[COMMON] PTR unsigned char 
  2288 ;;		 -> main@texto_luminosidade(16), STR_3(13), STR_2(8), STR_1(16), 
  2289 ;; Auto vars:     Size  Location     Type
  2290 ;;  i               2    3[BANK0 ] int 
  2291 ;; Return value:  Size  Location     Type
  2292 ;;                  1    wreg      void 
  2293 ;; Registers used:
  2294 ;;		wreg, fsr0l, fsr0h, status,2, status,0, btemp+1, pclath, cstack
  2295 ;; Tracked objects:
  2296 ;;		On entry : 0/0
  2297 ;;		On exit  : 0/0
  2298 ;;		Unchanged: 0/0
  2299 ;; Data sizes:     COMMON   BANK0   BANK1   BANK3   BANK2
  2300 ;;      Params:         2       0       0       0       0
  2301 ;;      Locals:         0       2       0       0       0
  2302 ;;      Temps:          0       3       0       0       0
  2303 ;;      Totals:         2       5       0       0       0
  2304 ;;Total ram usage:        7 bytes
  2305 ;; Hardware stack levels used: 1
  2306 ;; Hardware stack levels required when called: 3
  2307 ;; This function calls:
  2308 ;;		_Lcd_Write_Char
  2309 ;; This function is called by:
  2310 ;;		_escreveLCD
  2311 ;; This function uses a non-reentrant model
  2312 ;;
  2313                           
  2314     1E68                     _Lcd_Write_String:	
  2315                           ;psect for function _Lcd_Write_String
  2316                           
  2317     1E68                     l3771:	
  2318                           ;incstack = 0
  2319                           ; Regs used in _Lcd_Write_String: [wreg-fsr0h+status,2+status,0+btemp+1+pclath+cstack]
  2320                           
  2321                           
  2322                           ;./lcd.h: 97: void Lcd_Write_String(char *a);./lcd.h: 98: {;./lcd.h: 99:  int i;;./lcd.h
      +                          : 100:  for(i=0;a[i]!='\0';i++)
  2323     1E68  1283               	bcf	3,5	;RP0=0, select bank0
  2324     1E69  1303               	bcf	3,6	;RP1=0, select bank0
  2325     1E6A  01A3               	clrf	Lcd_Write_String@i
  2326     1E6B  01A4               	clrf	Lcd_Write_String@i+1
  2327     1E6C  2E91               	goto	l3777
  2328     1E6D                     l3773:
  2329                           
  2330                           ;./lcd.h: 101:     Lcd_Write_Char(a[i]);
  2331     1E6D  0823               	movf	Lcd_Write_String@i,w
  2332     1E6E  0777               	addwf	Lcd_Write_String@a,w
  2333     1E6F  00A1               	movwf	??_Lcd_Write_String+1
  2334     1E70  0878               	movf	Lcd_Write_String@a+1,w
  2335     1E71  00A0               	movwf	??_Lcd_Write_String
  2336     1E72  1803               	skipnc
  2337     1E73  0AA0               	incf	??_Lcd_Write_String,f
  2338     1E74  1FA3               	btfss	Lcd_Write_String@i,7
  2339     1E75  2E77               	goto	u5670
  2340     1E76  03A0               	decf	??_Lcd_Write_String,f
  2341     1E77                     u5670:
  2342     1E77  1283               	bcf	3,5	;RP0=0, select bank0
  2343     1E78  1303               	bcf	3,6	;RP1=0, select bank0
  2344     1E79  0820               	movf	??_Lcd_Write_String,w
  2345     1E7A  00A2               	movwf	??_Lcd_Write_String+2
  2346     1E7B  0822               	movf	??_Lcd_Write_String+2,w
  2347     1E7C  00FF               	movwf	btemp+1
  2348     1E7D  0821               	movf	??_Lcd_Write_String+1,w
  2349     1E7E  0084               	movwf	4
  2350     1E7F  160A  118A  2000  160A  158A  	fcall	stringtab
  2351     1E84  160A  158A  2548  160A  158A  	fcall	_Lcd_Write_Char
  2352     1E89                     l3775:
  2353     1E89  3001               	movlw	1
  2354     1E8A  1283               	bcf	3,5	;RP0=0, select bank0
  2355     1E8B  1303               	bcf	3,6	;RP1=0, select bank0
  2356     1E8C  07A3               	addwf	Lcd_Write_String@i,f
  2357     1E8D  1803               	skipnc
  2358     1E8E  0AA4               	incf	Lcd_Write_String@i+1,f
  2359     1E8F  3000               	movlw	0
  2360     1E90  07A4               	addwf	Lcd_Write_String@i+1,f
  2361     1E91                     l3777:
  2362     1E91  0823               	movf	Lcd_Write_String@i,w
  2363     1E92  0777               	addwf	Lcd_Write_String@a,w
  2364     1E93  00A1               	movwf	??_Lcd_Write_String+1
  2365     1E94  0878               	movf	Lcd_Write_String@a+1,w
  2366     1E95  00A0               	movwf	??_Lcd_Write_String
  2367     1E96  1803               	skipnc
  2368     1E97  0AA0               	incf	??_Lcd_Write_String,f
  2369     1E98  1FA3               	btfss	Lcd_Write_String@i,7
  2370     1E99  2E9B               	goto	u5680
  2371     1E9A  03A0               	decf	??_Lcd_Write_String,f
  2372     1E9B                     u5680:
  2373     1E9B  1283               	bcf	3,5	;RP0=0, select bank0
  2374     1E9C  1303               	bcf	3,6	;RP1=0, select bank0
  2375     1E9D  0820               	movf	??_Lcd_Write_String,w
  2376     1E9E  00A2               	movwf	??_Lcd_Write_String+2
  2377     1E9F  0822               	movf	??_Lcd_Write_String+2,w
  2378     1EA0  00FF               	movwf	btemp+1
  2379     1EA1  0821               	movf	??_Lcd_Write_String+1,w
  2380     1EA2  0084               	movwf	4
  2381     1EA3  160A  118A  2000  160A  158A  	fcall	stringtab
  2382     1EA8  3A00               	xorlw	0
  2383     1EA9  1D03               	skipz
  2384     1EAA  2EAC               	goto	u5691
  2385     1EAB  2EAD               	goto	u5690
  2386     1EAC                     u5691:
  2387     1EAC  2E6D               	goto	l3773
  2388     1EAD                     u5690:
  2389     1EAD                     l73:
  2390     1EAD  0008               	return
  2391     1EAE                     __end_of_Lcd_Write_String:
  2392                           
  2393                           	psect	text8
  2394     1D48                     __ptext8:	
  2395 ;; *************** function _Lcd_Write_Char *****************
  2396 ;; Defined at:
  2397 ;;		line 81 in file "./lcd.h"
  2398 ;; Parameters:    Size  Location     Type
  2399 ;;  a               1    wreg     unsigned char 
  2400 ;; Auto vars:     Size  Location     Type
  2401 ;;  a               1    6[COMMON] unsigned char 
  2402 ;;  y               1    5[COMMON] unsigned char 
  2403 ;;  temp            1    4[COMMON] unsigned char 
  2404 ;; Return value:  Size  Location     Type
  2405 ;;                  1    wreg      void 
  2406 ;; Registers used:
  2407 ;;		wreg, status,2, status,0, pclath, cstack
  2408 ;; Tracked objects:
  2409 ;;		On entry : 0/0
  2410 ;;		On exit  : 0/0
  2411 ;;		Unchanged: 0/0
  2412 ;; Data sizes:     COMMON   BANK0   BANK1   BANK3   BANK2
  2413 ;;      Params:         0       0       0       0       0
  2414 ;;      Locals:         3       0       0       0       0
  2415 ;;      Temps:          1       0       0       0       0
  2416 ;;      Totals:         4       0       0       0       0
  2417 ;;Total ram usage:        4 bytes
  2418 ;; Hardware stack levels used: 1
  2419 ;; Hardware stack levels required when called: 2
  2420 ;; This function calls:
  2421 ;;		_Lcd_Port
  2422 ;; This function is called by:
  2423 ;;		_Lcd_Write_String
  2424 ;; This function uses a non-reentrant model
  2425 ;;
  2426                           
  2427     1D48                     _Lcd_Write_Char:	
  2428                           ;psect for function _Lcd_Write_Char
  2429                           
  2430                           
  2431                           ;incstack = 0
  2432                           ; Regs used in _Lcd_Write_Char: [wreg+status,2+status,0+pclath+cstack]
  2433                           ;Lcd_Write_Char@a stored from wreg
  2434     1D48  00F6               	movwf	Lcd_Write_Char@a
  2435     1D49                     l3683:
  2436                           
  2437                           ;./lcd.h: 81: void Lcd_Write_Char(char a);./lcd.h: 82: {;./lcd.h: 83:    char temp,y;;./
      +                          lcd.h: 84:    temp = a&0x0F;
  2438     1D49  0876               	movf	Lcd_Write_Char@a,w
  2439     1D4A  390F               	andlw	15
  2440     1D4B  00F4               	movwf	Lcd_Write_Char@temp
  2441                           
  2442                           ;./lcd.h: 85:    y = a&0xF0;
  2443     1D4C  0876               	movf	Lcd_Write_Char@a,w
  2444     1D4D  39F0               	andlw	240
  2445     1D4E  00F5               	movwf	Lcd_Write_Char@y
  2446     1D4F                     l3685:
  2447                           
  2448                           ;./lcd.h: 86:    PORTDbits.RD2 = 1;
  2449     1D4F  1283               	bcf	3,5	;RP0=0, select bank0
  2450     1D50  1303               	bcf	3,6	;RP1=0, select bank0
  2451     1D51  1508               	bsf	8,2	;volatile
  2452     1D52                     l3687:
  2453                           
  2454                           ;./lcd.h: 87:    Lcd_Port(y>>4);
  2455     1D52  0875               	movf	Lcd_Write_Char@y,w
  2456     1D53  00F3               	movwf	??_Lcd_Write_Char
  2457     1D54  3004               	movlw	4
  2458     1D55                     u5555:
  2459     1D55  1003               	clrc
  2460     1D56  0CF3               	rrf	??_Lcd_Write_Char,f
  2461     1D57  3EFF               	addlw	-1
  2462     1D58  1D03               	skipz
  2463     1D59  2D55               	goto	u5555
  2464     1D5A  0873               	movf	??_Lcd_Write_Char,w
  2465     1D5B  160A  158A  2501  160A  158A  	fcall	_Lcd_Port
  2466     1D60                     l3689:
  2467                           
  2468                           ;./lcd.h: 88:    PORTDbits.RD3 = 1;
  2469     1D60  1283               	bcf	3,5	;RP0=0, select bank0
  2470     1D61  1303               	bcf	3,6	;RP1=0, select bank0
  2471     1D62  1588               	bsf	8,3	;volatile
  2472     1D63                     l3691:
  2473                           
  2474                           ;./lcd.h: 89:    _delay((unsigned long)((40)*(4000000/4000000.0)));
  2475     1D63  300D               	movlw	13
  2476     1D64  00F3               	movwf	??_Lcd_Write_Char
  2477     1D65                     u6027:
  2478     1D65  0BF3               	decfsz	??_Lcd_Write_Char,f
  2479     1D66  2D65               	goto	u6027
  2480     1D67                     l3693:
  2481                           
  2482                           ;./lcd.h: 90:    PORTDbits.RD3 = 0;
  2483     1D67  1283               	bcf	3,5	;RP0=0, select bank0
  2484     1D68  1303               	bcf	3,6	;RP1=0, select bank0
  2485     1D69  1188               	bcf	8,3	;volatile
  2486     1D6A                     l3695:
  2487                           
  2488                           ;./lcd.h: 91:    Lcd_Port(temp);
  2489     1D6A  0874               	movf	Lcd_Write_Char@temp,w
  2490     1D6B  160A  158A  2501  160A  158A  	fcall	_Lcd_Port
  2491     1D70                     l3697:
  2492                           
  2493                           ;./lcd.h: 92:    PORTDbits.RD3 = 1;
  2494     1D70  1283               	bcf	3,5	;RP0=0, select bank0
  2495     1D71  1303               	bcf	3,6	;RP1=0, select bank0
  2496     1D72  1588               	bsf	8,3	;volatile
  2497     1D73                     l3699:
  2498                           
  2499                           ;./lcd.h: 93:    _delay((unsigned long)((40)*(4000000/4000000.0)));
  2500     1D73  300D               	movlw	13
  2501     1D74  00F3               	movwf	??_Lcd_Write_Char
  2502     1D75                     u6037:
  2503     1D75  0BF3               	decfsz	??_Lcd_Write_Char,f
  2504     1D76  2D75               	goto	u6037
  2505     1D77                     l3701:
  2506                           
  2507                           ;./lcd.h: 94:    PORTDbits.RD3 = 0;
  2508     1D77  1283               	bcf	3,5	;RP0=0, select bank0
  2509     1D78  1303               	bcf	3,6	;RP1=0, select bank0
  2510     1D79  1188               	bcf	8,3	;volatile
  2511     1D7A                     l67:
  2512     1D7A  0008               	return
  2513     1D7B                     __end_of_Lcd_Write_Char:
  2514                           
  2515                           	psect	text9
  2516     07B4                     __ptext9:	
  2517 ;; *************** function _Lcd_Set_Cursor *****************
  2518 ;; Defined at:
  2519 ;;		line 41 in file "./lcd.h"
  2520 ;; Parameters:    Size  Location     Type
  2521 ;;  a               1    wreg     unsigned char 
  2522 ;;  b               1    6[COMMON] unsigned char 
  2523 ;; Auto vars:     Size  Location     Type
  2524 ;;  a               1    0[BANK0 ] unsigned char 
  2525 ;;  temp            1    3[BANK0 ] unsigned char 
  2526 ;;  y               1    2[BANK0 ] unsigned char 
  2527 ;;  z               1    1[BANK0 ] unsigned char 
  2528 ;; Return value:  Size  Location     Type
  2529 ;;                  1    wreg      void 
  2530 ;; Registers used:
  2531 ;;		wreg, status,2, status,0, pclath, cstack
  2532 ;; Tracked objects:
  2533 ;;		On entry : 0/0
  2534 ;;		On exit  : 0/0
  2535 ;;		Unchanged: 0/0
  2536 ;; Data sizes:     COMMON   BANK0   BANK1   BANK3   BANK2
  2537 ;;      Params:         1       0       0       0       0
  2538 ;;      Locals:         0       4       0       0       0
  2539 ;;      Temps:          1       0       0       0       0
  2540 ;;      Totals:         2       4       0       0       0
  2541 ;;Total ram usage:        6 bytes
  2542 ;; Hardware stack levels used: 1
  2543 ;; Hardware stack levels required when called: 3
  2544 ;; This function calls:
  2545 ;;		_Lcd_Cmd
  2546 ;; This function is called by:
  2547 ;;		_escreveLCD
  2548 ;; This function uses a non-reentrant model
  2549 ;;
  2550                           
  2551     07B4                     _Lcd_Set_Cursor:	
  2552                           ;psect for function _Lcd_Set_Cursor
  2553                           
  2554                           
  2555                           ;incstack = 0
  2556                           ; Regs used in _Lcd_Set_Cursor: [wreg+status,2+status,0+pclath+cstack]
  2557                           ;Lcd_Set_Cursor@a stored from wreg
  2558     07B4  1283               	bcf	3,5	;RP0=0, select bank0
  2559     07B5  1303               	bcf	3,6	;RP1=0, select bank0
  2560     07B6  00A0               	movwf	Lcd_Set_Cursor@a
  2561     07B7                     l3751:
  2562                           
  2563                           ;./lcd.h: 41: void Lcd_Set_Cursor(char a, char b);./lcd.h: 42: {;./lcd.h: 43:  char temp
      +                          ,z,y;;./lcd.h: 44:  if(a == 1)
  2564     07B7  0320               	decf	Lcd_Set_Cursor@a,w
  2565     07B8  1D03               	btfss	3,2
  2566     07B9  2FBB               	goto	u5631
  2567     07BA  2FBC               	goto	u5630
  2568     07BB                     u5631:
  2569     07BB  2FDB               	goto	l3761
  2570     07BC                     u5630:
  2571     07BC                     l3753:
  2572                           
  2573                           ;./lcd.h: 45:  {;./lcd.h: 46:    temp = 0x80 + b - 1;
  2574     07BC  0876               	movf	Lcd_Set_Cursor@b,w
  2575     07BD  3E7F               	addlw	127
  2576     07BE  00A3               	movwf	Lcd_Set_Cursor@temp
  2577                           
  2578                           ;./lcd.h: 47:   z = temp>>4;
  2579     07BF  0823               	movf	Lcd_Set_Cursor@temp,w
  2580     07C0  00F7               	movwf	??_Lcd_Set_Cursor
  2581     07C1  3004               	movlw	4
  2582     07C2                     u5645:
  2583     07C2  1003               	clrc
  2584     07C3  0CF7               	rrf	??_Lcd_Set_Cursor,f
  2585     07C4  3EFF               	addlw	-1
  2586     07C5  1D03               	skipz
  2587     07C6  2FC2               	goto	u5645
  2588     07C7  0877               	movf	??_Lcd_Set_Cursor,w
  2589     07C8  00A1               	movwf	Lcd_Set_Cursor@z
  2590     07C9                     l3755:
  2591                           
  2592                           ;./lcd.h: 48:   y = temp & 0x0F;
  2593     07C9  0823               	movf	Lcd_Set_Cursor@temp,w
  2594     07CA  390F               	andlw	15
  2595     07CB  00A2               	movwf	Lcd_Set_Cursor@y
  2596     07CC                     l3757:
  2597                           
  2598                           ;./lcd.h: 49:   Lcd_Cmd(z);
  2599     07CC  0821               	movf	Lcd_Set_Cursor@z,w
  2600     07CD  160A  158A  24C9  120A  118A  	fcall	_Lcd_Cmd
  2601     07D2                     l3759:
  2602                           
  2603                           ;./lcd.h: 50:   Lcd_Cmd(y);
  2604     07D2  1283               	bcf	3,5	;RP0=0, select bank0
  2605     07D3  1303               	bcf	3,6	;RP1=0, select bank0
  2606     07D4  0822               	movf	Lcd_Set_Cursor@y,w
  2607     07D5  160A  158A  24C9  120A  118A  	fcall	_Lcd_Cmd
  2608                           
  2609                           ;./lcd.h: 51:  }
  2610     07DA  2FFF               	goto	l61
  2611     07DB                     l3761:
  2612     07DB  3002               	movlw	2
  2613     07DC  0620               	xorwf	Lcd_Set_Cursor@a,w
  2614     07DD  1D03               	btfss	3,2
  2615     07DE  2FE0               	goto	u5651
  2616     07DF  2FE1               	goto	u5650
  2617     07E0                     u5651:
  2618     07E0  2FFF               	goto	l61
  2619     07E1                     u5650:
  2620     07E1                     l3763:
  2621                           
  2622                           ;./lcd.h: 53:  {;./lcd.h: 54:   temp = 0xC0 + b - 1;
  2623     07E1  0876               	movf	Lcd_Set_Cursor@b,w
  2624     07E2  3EBF               	addlw	191
  2625     07E3  00A3               	movwf	Lcd_Set_Cursor@temp
  2626                           
  2627                           ;./lcd.h: 55:   z = temp>>4;
  2628     07E4  0823               	movf	Lcd_Set_Cursor@temp,w
  2629     07E5  00F7               	movwf	??_Lcd_Set_Cursor
  2630     07E6  3004               	movlw	4
  2631     07E7                     u5665:
  2632     07E7  1003               	clrc
  2633     07E8  0CF7               	rrf	??_Lcd_Set_Cursor,f
  2634     07E9  3EFF               	addlw	-1
  2635     07EA  1D03               	skipz
  2636     07EB  2FE7               	goto	u5665
  2637     07EC  0877               	movf	??_Lcd_Set_Cursor,w
  2638     07ED  00A1               	movwf	Lcd_Set_Cursor@z
  2639     07EE                     l3765:
  2640                           
  2641                           ;./lcd.h: 56:   y = temp & 0x0F;
  2642     07EE  0823               	movf	Lcd_Set_Cursor@temp,w
  2643     07EF  390F               	andlw	15
  2644     07F0  00A2               	movwf	Lcd_Set_Cursor@y
  2645     07F1                     l3767:
  2646                           
  2647                           ;./lcd.h: 57:   Lcd_Cmd(z);
  2648     07F1  0821               	movf	Lcd_Set_Cursor@z,w
  2649     07F2  160A  158A  24C9  120A  118A  	fcall	_Lcd_Cmd
  2650     07F7                     l3769:
  2651                           
  2652                           ;./lcd.h: 58:   Lcd_Cmd(y);
  2653     07F7  1283               	bcf	3,5	;RP0=0, select bank0
  2654     07F8  1303               	bcf	3,6	;RP1=0, select bank0
  2655     07F9  0822               	movf	Lcd_Set_Cursor@y,w
  2656     07FA  160A  158A  24C9  120A  118A  	fcall	_Lcd_Cmd
  2657     07FF                     l61:
  2658     07FF  0008               	return
  2659     0800                     __end_of_Lcd_Set_Cursor:
  2660                           
  2661                           	psect	text10
  2662     1C69                     __ptext10:	
  2663 ;; *************** function _Lcd_Clear *****************
  2664 ;; Defined at:
  2665 ;;		line 35 in file "./lcd.h"
  2666 ;; Parameters:    Size  Location     Type
  2667 ;;		None
  2668 ;; Auto vars:     Size  Location     Type
  2669 ;;		None
  2670 ;; Return value:  Size  Location     Type
  2671 ;;                  1    wreg      void 
  2672 ;; Registers used:
  2673 ;;		wreg, status,2, status,0, pclath, cstack
  2674 ;; Tracked objects:
  2675 ;;		On entry : 0/0
  2676 ;;		On exit  : 0/0
  2677 ;;		Unchanged: 0/0
  2678 ;; Data sizes:     COMMON   BANK0   BANK1   BANK3   BANK2
  2679 ;;      Params:         0       0       0       0       0
  2680 ;;      Locals:         0       0       0       0       0
  2681 ;;      Temps:          0       0       0       0       0
  2682 ;;      Totals:         0       0       0       0       0
  2683 ;;Total ram usage:        0 bytes
  2684 ;; Hardware stack levels used: 1
  2685 ;; Hardware stack levels required when called: 3
  2686 ;; This function calls:
  2687 ;;		_Lcd_Cmd
  2688 ;; This function is called by:
  2689 ;;		_escreveLCD
  2690 ;; This function uses a non-reentrant model
  2691 ;;
  2692                           
  2693     1C69                     _Lcd_Clear:	
  2694                           ;psect for function _Lcd_Clear
  2695                           
  2696     1C69                     l3749:	
  2697                           ;incstack = 0
  2698                           ; Regs used in _Lcd_Clear: [wreg+status,2+status,0+pclath+cstack]
  2699                           
  2700                           
  2701                           ;./lcd.h: 37:  Lcd_Cmd(0);
  2702     1C69  3000               	movlw	0
  2703     1C6A  160A  158A  24C9  160A  158A  	fcall	_Lcd_Cmd
  2704                           
  2705                           ;./lcd.h: 38:  Lcd_Cmd(1);
  2706     1C6F  3001               	movlw	1
  2707     1C70  160A  158A  24C9  160A  158A  	fcall	_Lcd_Cmd
  2708     1C75                     l55:
  2709     1C75  0008               	return
  2710     1C76                     __end_of_Lcd_Clear:
  2711                           
  2712                           	psect	text11
  2713     1C84                     __ptext11:	
  2714 ;; *************** function _getValorADC *****************
  2715 ;; Defined at:
  2716 ;;		line 70 in file "newmain.c"
  2717 ;; Parameters:    Size  Location     Type
  2718 ;;		None
  2719 ;; Auto vars:     Size  Location     Type
  2720 ;;  valor           2    6[COMMON] int 
  2721 ;; Return value:  Size  Location     Type
  2722 ;;                  2    2[COMMON] int 
  2723 ;; Registers used:
  2724 ;;		wreg
  2725 ;; Tracked objects:
  2726 ;;		On entry : 0/0
  2727 ;;		On exit  : 0/0
  2728 ;;		Unchanged: 0/0
  2729 ;; Data sizes:     COMMON   BANK0   BANK1   BANK3   BANK2
  2730 ;;      Params:         2       0       0       0       0
  2731 ;;      Locals:         2       0       0       0       0
  2732 ;;      Temps:          2       0       0       0       0
  2733 ;;      Totals:         6       0       0       0       0
  2734 ;;Total ram usage:        6 bytes
  2735 ;; Hardware stack levels used: 1
  2736 ;; Hardware stack levels required when called: 1
  2737 ;; This function calls:
  2738 ;;		Nothing
  2739 ;; This function is called by:
  2740 ;;		_main
  2741 ;; This function uses a non-reentrant model
  2742 ;;
  2743                           
  2744     1C84                     _getValorADC:	
  2745                           ;psect for function _getValorADC
  2746                           
  2747     1C84                     l3151:	
  2748                           ;incstack = 0
  2749                           ; Regs used in _getValorADC: [wreg]
  2750                           
  2751                           
  2752                           ;newmain.c: 71:     int valor;;newmain.c: 74:     ADCON0bits.GO = 1;
  2753     1C84  1283               	bcf	3,5	;RP0=0, select bank0
  2754     1C85  1303               	bcf	3,6	;RP1=0, select bank0
  2755     1C86  151F               	bsf	31,2	;volatile
  2756     1C87                     l3153:
  2757                           
  2758                           ;newmain.c: 78:     _delay((unsigned long)((10)*(4000000/4000000.0)));
  2759     1C87  3003               	movlw	3
  2760     1C88  00F4               	movwf	??_getValorADC
  2761     1C89                     u6047:
  2762     1C89  0BF4               	decfsz	??_getValorADC,f
  2763     1C8A  2C89               	goto	u6047
  2764                           
  2765                           ;newmain.c: 82:     valor = ADRESH;
  2766     1C8B  1283               	bcf	3,5	;RP0=0, select bank0
  2767     1C8C  1303               	bcf	3,6	;RP1=0, select bank0
  2768     1C8D  081E               	movf	30,w	;volatile
  2769     1C8E  00F4               	movwf	??_getValorADC
  2770     1C8F  01F5               	clrf	??_getValorADC+1
  2771     1C90  0874               	movf	??_getValorADC,w
  2772     1C91  00F6               	movwf	getValorADC@valor
  2773     1C92  0875               	movf	??_getValorADC+1,w
  2774     1C93  00F7               	movwf	getValorADC@valor+1
  2775                           
  2776                           ;newmain.c: 83:     return valor;
  2777     1C94  0877               	movf	getValorADC@valor+1,w
  2778     1C95  00F3               	movwf	?_getValorADC+1
  2779     1C96  0876               	movf	getValorADC@valor,w
  2780     1C97  00F2               	movwf	?_getValorADC
  2781     1C98                     l95:
  2782     1C98  0008               	return
  2783     1C99                     __end_of_getValorADC:
  2784                           
  2785                           	psect	text12
  2786     0D81                     __ptext12:	
  2787 ;; *************** function _converteVoltsParaLux *****************
  2788 ;; Defined at:
  2789 ;;		line 217 in file "newmain.c"
  2790 ;; Parameters:    Size  Location     Type
  2791 ;;  v_ldr           4   28[BANK3 ] float 
  2792 ;; Auto vars:     Size  Location     Type
  2793 ;;  b               4   48[BANK3 ] float 
  2794 ;;  l_ldr           4   36[BANK3 ] float 
  2795 ;;  r_ldr           4   32[BANK3 ] float 
  2796 ;; Return value:  Size  Location     Type
  2797 ;;                  2   28[BANK3 ] int 
  2798 ;; Registers used:
  2799 ;;		wreg, fsr0l, fsr0h, status,2, status,0, btemp+1, pclath, cstack
  2800 ;; Tracked objects:
  2801 ;;		On entry : 0/0
  2802 ;;		On exit  : 0/0
  2803 ;;		Unchanged: 0/0
  2804 ;; Data sizes:     COMMON   BANK0   BANK1   BANK3   BANK2
  2805 ;;      Params:         0       0       0       4       0
  2806 ;;      Locals:         0       0       0      24       0
  2807 ;;      Temps:          0       0       0       0       0
  2808 ;;      Totals:         0       0       0      28       0
  2809 ;;Total ram usage:       28 bytes
  2810 ;; Hardware stack levels used: 1
  2811 ;; Hardware stack levels required when called: 6
  2812 ;; This function calls:
  2813 ;;		___fladd
  2814 ;;		___fldiv
  2815 ;;		___flmul
  2816 ;;		___flsub
  2817 ;;		___fltol
  2818 ;;		_log10
  2819 ;;		_pow
  2820 ;; This function is called by:
  2821 ;;		_main
  2822 ;; This function uses a non-reentrant model
  2823 ;;
  2824                           
  2825     0D81                     _converteVoltsParaLux:	
  2826                           ;psect for function _converteVoltsParaLux
  2827                           
  2828     0D81                     l4013:	
  2829                           ;incstack = 0
  2830                           ; Regs used in _converteVoltsParaLux: [wreg-fsr0h+status,2+status,0+btemp+1+pclath+cstac
      +                          k]
  2831                           
  2832                           
  2833                           ;newmain.c: 218:     long double r_ldr = (10000*v_ldr)/(5-v_ldr);
  2834     0D81  1683               	bsf	3,5	;RP0=1, select bank3
  2835     0D82  1703               	bsf	3,6	;RP1=1, select bank3
  2836     0D83  082F               	movf	(converteVoltsParaLux@v_ldr+3)^(0+384),w
  2837     0D84  1683               	bsf	3,5	;RP0=1, select bank1
  2838     0D85  1303               	bcf	3,6	;RP1=0, select bank1
  2839     0D86  00C9               	movwf	(___flsub@a+3)^(0+128)
  2840     0D87  1683               	bsf	3,5	;RP0=1, select bank3
  2841     0D88  1703               	bsf	3,6	;RP1=1, select bank3
  2842     0D89  082E               	movf	(converteVoltsParaLux@v_ldr+2)^(0+384),w
  2843     0D8A  1683               	bsf	3,5	;RP0=1, select bank1
  2844     0D8B  1303               	bcf	3,6	;RP1=0, select bank1
  2845     0D8C  00C8               	movwf	(___flsub@a+2)^(0+128)
  2846     0D8D  1683               	bsf	3,5	;RP0=1, select bank3
  2847     0D8E  1703               	bsf	3,6	;RP1=1, select bank3
  2848     0D8F  082D               	movf	(converteVoltsParaLux@v_ldr+1)^(0+384),w
  2849     0D90  1683               	bsf	3,5	;RP0=1, select bank1
  2850     0D91  1303               	bcf	3,6	;RP1=0, select bank1
  2851     0D92  00C7               	movwf	(___flsub@a+1)^(0+128)
  2852     0D93  1683               	bsf	3,5	;RP0=1, select bank3
  2853     0D94  1703               	bsf	3,6	;RP1=1, select bank3
  2854     0D95  082C               	movf	converteVoltsParaLux@v_ldr^(0+384),w
  2855     0D96  1683               	bsf	3,5	;RP0=1, select bank1
  2856     0D97  1303               	bcf	3,6	;RP1=0, select bank1
  2857     0D98  00C6               	movwf	___flsub@a^(0+128)
  2858     0D99  3040               	movlw	64
  2859     0D9A  00CD               	movwf	(___flsub@b+3)^(0+128)
  2860     0D9B  30A0               	movlw	160
  2861     0D9C  00CC               	movwf	(___flsub@b+2)^(0+128)
  2862     0D9D  3000               	movlw	0
  2863     0D9E  00CB               	movwf	(___flsub@b+1)^(0+128)
  2864     0D9F  3000               	movlw	0
  2865     0DA0  00CA               	movwf	___flsub@b^(0+128)
  2866     0DA1  160A  158A  26FE  120A  158A  	fcall	___flsub
  2867     0DA6  1683               	bsf	3,5	;RP0=1, select bank1
  2868     0DA7  1303               	bcf	3,6	;RP1=0, select bank1
  2869     0DA8  0849               	movf	(?___flsub+3)^(0+128),w
  2870     0DA9  00D1               	movwf	(___fldiv@a+3)^(0+128)
  2871     0DAA  0848               	movf	(?___flsub+2)^(0+128),w
  2872     0DAB  00D0               	movwf	(___fldiv@a+2)^(0+128)
  2873     0DAC  0847               	movf	(?___flsub+1)^(0+128),w
  2874     0DAD  00CF               	movwf	(___fldiv@a+1)^(0+128)
  2875     0DAE  0846               	movf	?___flsub^(0+128),w
  2876     0DAF  00CE               	movwf	___fldiv@a^(0+128)
  2877     0DB0  3046               	movlw	70
  2878     0DB1  1283               	bcf	3,5	;RP0=0, select bank0
  2879     0DB2  1303               	bcf	3,6	;RP1=0, select bank0
  2880     0DB3  00CC               	movwf	___flmul@b+3
  2881     0DB4  301C               	movlw	28
  2882     0DB5  00CB               	movwf	___flmul@b+2
  2883     0DB6  3040               	movlw	64
  2884     0DB7  00CA               	movwf	___flmul@b+1
  2885     0DB8  3000               	movlw	0
  2886     0DB9  00C9               	movwf	___flmul@b
  2887     0DBA  1683               	bsf	3,5	;RP0=1, select bank3
  2888     0DBB  1703               	bsf	3,6	;RP1=1, select bank3
  2889     0DBC  082F               	movf	(converteVoltsParaLux@v_ldr+3)^(0+384),w
  2890     0DBD  1283               	bcf	3,5	;RP0=0, select bank0
  2891     0DBE  1303               	bcf	3,6	;RP1=0, select bank0
  2892     0DBF  00D0               	movwf	___flmul@a+3
  2893     0DC0  1683               	bsf	3,5	;RP0=1, select bank3
  2894     0DC1  1703               	bsf	3,6	;RP1=1, select bank3
  2895     0DC2  082E               	movf	(converteVoltsParaLux@v_ldr+2)^(0+384),w
  2896     0DC3  1283               	bcf	3,5	;RP0=0, select bank0
  2897     0DC4  1303               	bcf	3,6	;RP1=0, select bank0
  2898     0DC5  00CF               	movwf	___flmul@a+2
  2899     0DC6  1683               	bsf	3,5	;RP0=1, select bank3
  2900     0DC7  1703               	bsf	3,6	;RP1=1, select bank3
  2901     0DC8  082D               	movf	(converteVoltsParaLux@v_ldr+1)^(0+384),w
  2902     0DC9  1283               	bcf	3,5	;RP0=0, select bank0
  2903     0DCA  1303               	bcf	3,6	;RP1=0, select bank0
  2904     0DCB  00CE               	movwf	___flmul@a+1
  2905     0DCC  1683               	bsf	3,5	;RP0=1, select bank3
  2906     0DCD  1703               	bsf	3,6	;RP1=1, select bank3
  2907     0DCE  082C               	movf	converteVoltsParaLux@v_ldr^(0+384),w
  2908     0DCF  1283               	bcf	3,5	;RP0=0, select bank0
  2909     0DD0  1303               	bcf	3,6	;RP1=0, select bank0
  2910     0DD1  00CD               	movwf	___flmul@a
  2911     0DD2  120A  118A  2039  120A  158A  	fcall	___flmul
  2912     0DD7  1283               	bcf	3,5	;RP0=0, select bank0
  2913     0DD8  1303               	bcf	3,6	;RP1=0, select bank0
  2914     0DD9  084C               	movf	?___flmul+3,w
  2915     0DDA  1683               	bsf	3,5	;RP0=1, select bank1
  2916     0DDB  1303               	bcf	3,6	;RP1=0, select bank1
  2917     0DDC  00D5               	movwf	(___fldiv@b+3)^(0+128)
  2918     0DDD  1283               	bcf	3,5	;RP0=0, select bank0
  2919     0DDE  1303               	bcf	3,6	;RP1=0, select bank0
  2920     0DDF  084B               	movf	?___flmul+2,w
  2921     0DE0  1683               	bsf	3,5	;RP0=1, select bank1
  2922     0DE1  1303               	bcf	3,6	;RP1=0, select bank1
  2923     0DE2  00D4               	movwf	(___fldiv@b+2)^(0+128)
  2924     0DE3  1283               	bcf	3,5	;RP0=0, select bank0
  2925     0DE4  1303               	bcf	3,6	;RP1=0, select bank0
  2926     0DE5  084A               	movf	?___flmul+1,w
  2927     0DE6  1683               	bsf	3,5	;RP0=1, select bank1
  2928     0DE7  1303               	bcf	3,6	;RP1=0, select bank1
  2929     0DE8  00D3               	movwf	(___fldiv@b+1)^(0+128)
  2930     0DE9  1283               	bcf	3,5	;RP0=0, select bank0
  2931     0DEA  1303               	bcf	3,6	;RP1=0, select bank0
  2932     0DEB  0849               	movf	?___flmul,w
  2933     0DEC  1683               	bsf	3,5	;RP0=1, select bank1
  2934     0DED  1303               	bcf	3,6	;RP1=0, select bank1
  2935     0DEE  00D2               	movwf	___fldiv@b^(0+128)
  2936     0DEF  160A  118A  2631  120A  158A  	fcall	___fldiv
  2937     0DF4  1683               	bsf	3,5	;RP0=1, select bank1
  2938     0DF5  1303               	bcf	3,6	;RP1=0, select bank1
  2939     0DF6  0851               	movf	(?___fldiv+3)^(0+128),w
  2940     0DF7  1683               	bsf	3,5	;RP0=1, select bank3
  2941     0DF8  1703               	bsf	3,6	;RP1=1, select bank3
  2942     0DF9  00B3               	movwf	(converteVoltsParaLux@r_ldr+3)^(0+384)
  2943     0DFA  1683               	bsf	3,5	;RP0=1, select bank1
  2944     0DFB  1303               	bcf	3,6	;RP1=0, select bank1
  2945     0DFC  0850               	movf	(?___fldiv+2)^(0+128),w
  2946     0DFD  1683               	bsf	3,5	;RP0=1, select bank3
  2947     0DFE  1703               	bsf	3,6	;RP1=1, select bank3
  2948     0DFF  00B2               	movwf	(converteVoltsParaLux@r_ldr+2)^(0+384)
  2949     0E00  1683               	bsf	3,5	;RP0=1, select bank1
  2950     0E01  1303               	bcf	3,6	;RP1=0, select bank1
  2951     0E02  084F               	movf	(?___fldiv+1)^(0+128),w
  2952     0E03  1683               	bsf	3,5	;RP0=1, select bank3
  2953     0E04  1703               	bsf	3,6	;RP1=1, select bank3
  2954     0E05  00B1               	movwf	(converteVoltsParaLux@r_ldr+1)^(0+384)
  2955     0E06  1683               	bsf	3,5	;RP0=1, select bank1
  2956     0E07  1303               	bcf	3,6	;RP1=0, select bank1
  2957     0E08  084E               	movf	?___fldiv^(0+128),w
  2958     0E09  1683               	bsf	3,5	;RP0=1, select bank3
  2959     0E0A  1703               	bsf	3,6	;RP1=1, select bank3
  2960     0E0B  00B0               	movwf	converteVoltsParaLux@r_ldr^(0+384)
  2961     0E0C                     l4015:
  2962                           
  2963                           ;newmain.c: 219:     long double b = ((log10(4) - log10(9)) - 1)/990;
  2964     0E0C  3041               	movlw	65
  2965     0E0D  1683               	bsf	3,5	;RP0=1, select bank1
  2966     0E0E  1303               	bcf	3,6	;RP1=0, select bank1
  2967     0E0F  00C1               	movwf	(log10@x+3)^(0+128)
  2968     0E10  3010               	movlw	16
  2969     0E11  00C0               	movwf	(log10@x+2)^(0+128)
  2970     0E12  3000               	movlw	0
  2971     0E13  00BF               	movwf	(log10@x+1)^(0+128)
  2972     0E14  3000               	movlw	0
  2973     0E15  00BE               	movwf	log10@x^(0+128)
  2974     0E16  160A  158A  274E  120A  158A  	fcall	_log10
  2975     0E1B  1683               	bsf	3,5	;RP0=1, select bank1
  2976     0E1C  1303               	bcf	3,6	;RP1=0, select bank1
  2977     0E1D  0841               	movf	(?_log10+3)^(0+128),w
  2978     0E1E  00C9               	movwf	(___flsub@a+3)^(0+128)
  2979     0E1F  0840               	movf	(?_log10+2)^(0+128),w
  2980     0E20  00C8               	movwf	(___flsub@a+2)^(0+128)
  2981     0E21  083F               	movf	(?_log10+1)^(0+128),w
  2982     0E22  00C7               	movwf	(___flsub@a+1)^(0+128)
  2983     0E23  083E               	movf	?_log10^(0+128),w
  2984     0E24  00C6               	movwf	___flsub@a^(0+128)
  2985     0E25  3040               	movlw	64
  2986     0E26  00C1               	movwf	(log10@x+3)^(0+128)
  2987     0E27  3080               	movlw	128
  2988     0E28  00C0               	movwf	(log10@x+2)^(0+128)
  2989     0E29  3000               	movlw	0
  2990     0E2A  00BF               	movwf	(log10@x+1)^(0+128)
  2991     0E2B  3000               	movlw	0
  2992     0E2C  00BE               	movwf	log10@x^(0+128)
  2993     0E2D  160A  158A  274E  120A  158A  	fcall	_log10
  2994     0E32  1683               	bsf	3,5	;RP0=1, select bank1
  2995     0E33  1303               	bcf	3,6	;RP1=0, select bank1
  2996     0E34  0841               	movf	(?_log10+3)^(0+128),w
  2997     0E35  00CD               	movwf	(___flsub@b+3)^(0+128)
  2998     0E36  0840               	movf	(?_log10+2)^(0+128),w
  2999     0E37  00CC               	movwf	(___flsub@b+2)^(0+128)
  3000     0E38  083F               	movf	(?_log10+1)^(0+128),w
  3001     0E39  00CB               	movwf	(___flsub@b+1)^(0+128)
  3002     0E3A  083E               	movf	?_log10^(0+128),w
  3003     0E3B  00CA               	movwf	___flsub@b^(0+128)
  3004     0E3C  160A  158A  26FE  120A  158A  	fcall	___flsub
  3005     0E41  1683               	bsf	3,5	;RP0=1, select bank1
  3006     0E42  1303               	bcf	3,6	;RP1=0, select bank1
  3007     0E43  0849               	movf	(?___flsub+3)^(0+128),w
  3008     0E44  1683               	bsf	3,5	;RP0=1, select bank3
  3009     0E45  1703               	bsf	3,6	;RP1=1, select bank3
  3010     0E46  00C7               	movwf	(_converteVoltsParaLux$1070+3)^(0+384)
  3011     0E47  1683               	bsf	3,5	;RP0=1, select bank1
  3012     0E48  1303               	bcf	3,6	;RP1=0, select bank1
  3013     0E49  0848               	movf	(?___flsub+2)^(0+128),w
  3014     0E4A  1683               	bsf	3,5	;RP0=1, select bank3
  3015     0E4B  1703               	bsf	3,6	;RP1=1, select bank3
  3016     0E4C  00C6               	movwf	(_converteVoltsParaLux$1070+2)^(0+384)
  3017     0E4D  1683               	bsf	3,5	;RP0=1, select bank1
  3018     0E4E  1303               	bcf	3,6	;RP1=0, select bank1
  3019     0E4F  0847               	movf	(?___flsub+1)^(0+128),w
  3020     0E50  1683               	bsf	3,5	;RP0=1, select bank3
  3021     0E51  1703               	bsf	3,6	;RP1=1, select bank3
  3022     0E52  00C5               	movwf	(_converteVoltsParaLux$1070+1)^(0+384)
  3023     0E53  1683               	bsf	3,5	;RP0=1, select bank1
  3024     0E54  1303               	bcf	3,6	;RP1=0, select bank1
  3025     0E55  0846               	movf	?___flsub^(0+128),w
  3026     0E56  1683               	bsf	3,5	;RP0=1, select bank3
  3027     0E57  1703               	bsf	3,6	;RP1=1, select bank3
  3028     0E58  00C4               	movwf	_converteVoltsParaLux$1070^(0+384)
  3029     0E59                     l4017:
  3030                           
  3031                           ;newmain.c: 219:     long double b = ((log10(4) - log10(9)) - 1)/990;
  3032     0E59  3044               	movlw	68
  3033     0E5A  1683               	bsf	3,5	;RP0=1, select bank1
  3034     0E5B  1303               	bcf	3,6	;RP1=0, select bank1
  3035     0E5C  00D1               	movwf	(___fldiv@a+3)^(0+128)
  3036     0E5D  3077               	movlw	119
  3037     0E5E  00D0               	movwf	(___fldiv@a+2)^(0+128)
  3038     0E5F  3080               	movlw	128
  3039     0E60  00CF               	movwf	(___fldiv@a+1)^(0+128)
  3040     0E61  3000               	movlw	0
  3041     0E62  00CE               	movwf	___fldiv@a^(0+128)
  3042     0E63  30BF               	movlw	191
  3043     0E64  1283               	bcf	3,5	;RP0=0, select bank0
  3044     0E65  1303               	bcf	3,6	;RP1=0, select bank0
  3045     0E66  00E6               	movwf	___fladd@b+3
  3046     0E67  3080               	movlw	128
  3047     0E68  00E5               	movwf	___fladd@b+2
  3048     0E69  3000               	movlw	0
  3049     0E6A  00E4               	movwf	___fladd@b+1
  3050     0E6B  3000               	movlw	0
  3051     0E6C  00E3               	movwf	___fladd@b
  3052     0E6D  1683               	bsf	3,5	;RP0=1, select bank3
  3053     0E6E  1703               	bsf	3,6	;RP1=1, select bank3
  3054     0E6F  0847               	movf	(_converteVoltsParaLux$1070+3)^(0+384),w
  3055     0E70  1283               	bcf	3,5	;RP0=0, select bank0
  3056     0E71  1303               	bcf	3,6	;RP1=0, select bank0
  3057     0E72  00EA               	movwf	___fladd@a+3
  3058     0E73  1683               	bsf	3,5	;RP0=1, select bank3
  3059     0E74  1703               	bsf	3,6	;RP1=1, select bank3
  3060     0E75  0846               	movf	(_converteVoltsParaLux$1070+2)^(0+384),w
  3061     0E76  1283               	bcf	3,5	;RP0=0, select bank0
  3062     0E77  1303               	bcf	3,6	;RP1=0, select bank0
  3063     0E78  00E9               	movwf	___fladd@a+2
  3064     0E79  1683               	bsf	3,5	;RP0=1, select bank3
  3065     0E7A  1703               	bsf	3,6	;RP1=1, select bank3
  3066     0E7B  0845               	movf	(_converteVoltsParaLux$1070+1)^(0+384),w
  3067     0E7C  1283               	bcf	3,5	;RP0=0, select bank0
  3068     0E7D  1303               	bcf	3,6	;RP1=0, select bank0
  3069     0E7E  00E8               	movwf	___fladd@a+1
  3070     0E7F  1683               	bsf	3,5	;RP0=1, select bank3
  3071     0E80  1703               	bsf	3,6	;RP1=1, select bank3
  3072     0E81  0844               	movf	_converteVoltsParaLux$1070^(0+384),w
  3073     0E82  1283               	bcf	3,5	;RP0=0, select bank0
  3074     0E83  1303               	bcf	3,6	;RP1=0, select bank0
  3075     0E84  00E7               	movwf	___fladd@a
  3076     0E85  120A  118A  237E  120A  158A  	fcall	___fladd
  3077     0E8A  1283               	bcf	3,5	;RP0=0, select bank0
  3078     0E8B  1303               	bcf	3,6	;RP1=0, select bank0
  3079     0E8C  0866               	movf	?___fladd+3,w
  3080     0E8D  1683               	bsf	3,5	;RP0=1, select bank1
  3081     0E8E  1303               	bcf	3,6	;RP1=0, select bank1
  3082     0E8F  00D5               	movwf	(___fldiv@b+3)^(0+128)
  3083     0E90  1283               	bcf	3,5	;RP0=0, select bank0
  3084     0E91  1303               	bcf	3,6	;RP1=0, select bank0
  3085     0E92  0865               	movf	?___fladd+2,w
  3086     0E93  1683               	bsf	3,5	;RP0=1, select bank1
  3087     0E94  1303               	bcf	3,6	;RP1=0, select bank1
  3088     0E95  00D4               	movwf	(___fldiv@b+2)^(0+128)
  3089     0E96  1283               	bcf	3,5	;RP0=0, select bank0
  3090     0E97  1303               	bcf	3,6	;RP1=0, select bank0
  3091     0E98  0864               	movf	?___fladd+1,w
  3092     0E99  1683               	bsf	3,5	;RP0=1, select bank1
  3093     0E9A  1303               	bcf	3,6	;RP1=0, select bank1
  3094     0E9B  00D3               	movwf	(___fldiv@b+1)^(0+128)
  3095     0E9C  1283               	bcf	3,5	;RP0=0, select bank0
  3096     0E9D  1303               	bcf	3,6	;RP1=0, select bank0
  3097     0E9E  0863               	movf	?___fladd,w
  3098     0E9F  1683               	bsf	3,5	;RP0=1, select bank1
  3099     0EA0  1303               	bcf	3,6	;RP1=0, select bank1
  3100     0EA1  00D2               	movwf	___fldiv@b^(0+128)
  3101     0EA2  160A  118A  2631  120A  158A  	fcall	___fldiv
  3102     0EA7  1683               	bsf	3,5	;RP0=1, select bank1
  3103     0EA8  1303               	bcf	3,6	;RP1=0, select bank1
  3104     0EA9  0851               	movf	(?___fldiv+3)^(0+128),w
  3105     0EAA  1683               	bsf	3,5	;RP0=1, select bank3
  3106     0EAB  1703               	bsf	3,6	;RP1=1, select bank3
  3107     0EAC  00C3               	movwf	(converteVoltsParaLux@b+3)^(0+384)
  3108     0EAD  1683               	bsf	3,5	;RP0=1, select bank1
  3109     0EAE  1303               	bcf	3,6	;RP1=0, select bank1
  3110     0EAF  0850               	movf	(?___fldiv+2)^(0+128),w
  3111     0EB0  1683               	bsf	3,5	;RP0=1, select bank3
  3112     0EB1  1703               	bsf	3,6	;RP1=1, select bank3
  3113     0EB2  00C2               	movwf	(converteVoltsParaLux@b+2)^(0+384)
  3114     0EB3  1683               	bsf	3,5	;RP0=1, select bank1
  3115     0EB4  1303               	bcf	3,6	;RP1=0, select bank1
  3116     0EB5  084F               	movf	(?___fldiv+1)^(0+128),w
  3117     0EB6  1683               	bsf	3,5	;RP0=1, select bank3
  3118     0EB7  1703               	bsf	3,6	;RP1=1, select bank3
  3119     0EB8  00C1               	movwf	(converteVoltsParaLux@b+1)^(0+384)
  3120     0EB9  1683               	bsf	3,5	;RP0=1, select bank1
  3121     0EBA  1303               	bcf	3,6	;RP1=0, select bank1
  3122     0EBB  084E               	movf	?___fldiv^(0+128),w
  3123     0EBC  1683               	bsf	3,5	;RP0=1, select bank3
  3124     0EBD  1703               	bsf	3,6	;RP1=1, select bank3
  3125     0EBE  00C0               	movwf	converteVoltsParaLux@b^(0+384)
  3126                           
  3127                           ;newmain.c: 220:     long double l_ldr =
  3128     0EBF  3043               	movlw	67
  3129     0EC0  1683               	bsf	3,5	;RP0=1, select bank1
  3130     0EC1  1303               	bcf	3,6	;RP1=0, select bank1
  3131     0EC2  00C1               	movwf	(log10@x+3)^(0+128)
  3132     0EC3  30C8               	movlw	200
  3133     0EC4  00C0               	movwf	(log10@x+2)^(0+128)
  3134     0EC5  3000               	movlw	0
  3135     0EC6  00BF               	movwf	(log10@x+1)^(0+128)
  3136     0EC7  3000               	movlw	0
  3137     0EC8  00BE               	movwf	log10@x^(0+128)
  3138     0EC9  160A  158A  274E  120A  158A  	fcall	_log10
  3139     0ECE  1683               	bsf	3,5	;RP0=1, select bank1
  3140     0ECF  1303               	bcf	3,6	;RP1=0, select bank1
  3141     0ED0  0841               	movf	(?_log10+3)^(0+128),w
  3142     0ED1  00C9               	movwf	(___flsub@a+3)^(0+128)
  3143     0ED2  0840               	movf	(?_log10+2)^(0+128),w
  3144     0ED3  00C8               	movwf	(___flsub@a+2)^(0+128)
  3145     0ED4  083F               	movf	(?_log10+1)^(0+128),w
  3146     0ED5  00C7               	movwf	(___flsub@a+1)^(0+128)
  3147     0ED6  083E               	movf	?_log10^(0+128),w
  3148     0ED7  00C6               	movwf	___flsub@a^(0+128)
  3149     0ED8  1683               	bsf	3,5	;RP0=1, select bank3
  3150     0ED9  1703               	bsf	3,6	;RP1=1, select bank3
  3151     0EDA  0833               	movf	(converteVoltsParaLux@r_ldr+3)^(0+384),w
  3152     0EDB  1683               	bsf	3,5	;RP0=1, select bank1
  3153     0EDC  1303               	bcf	3,6	;RP1=0, select bank1
  3154     0EDD  00C1               	movwf	(log10@x+3)^(0+128)
  3155     0EDE  1683               	bsf	3,5	;RP0=1, select bank3
  3156     0EDF  1703               	bsf	3,6	;RP1=1, select bank3
  3157     0EE0  0832               	movf	(converteVoltsParaLux@r_ldr+2)^(0+384),w
  3158     0EE1  1683               	bsf	3,5	;RP0=1, select bank1
  3159     0EE2  1303               	bcf	3,6	;RP1=0, select bank1
  3160     0EE3  00C0               	movwf	(log10@x+2)^(0+128)
  3161     0EE4  1683               	bsf	3,5	;RP0=1, select bank3
  3162     0EE5  1703               	bsf	3,6	;RP1=1, select bank3
  3163     0EE6  0831               	movf	(converteVoltsParaLux@r_ldr+1)^(0+384),w
  3164     0EE7  1683               	bsf	3,5	;RP0=1, select bank1
  3165     0EE8  1303               	bcf	3,6	;RP1=0, select bank1
  3166     0EE9  00BF               	movwf	(log10@x+1)^(0+128)
  3167     0EEA  1683               	bsf	3,5	;RP0=1, select bank3
  3168     0EEB  1703               	bsf	3,6	;RP1=1, select bank3
  3169     0EEC  0830               	movf	converteVoltsParaLux@r_ldr^(0+384),w
  3170     0EED  1683               	bsf	3,5	;RP0=1, select bank1
  3171     0EEE  1303               	bcf	3,6	;RP1=0, select bank1
  3172     0EEF  00BE               	movwf	log10@x^(0+128)
  3173     0EF0  160A  158A  274E  120A  158A  	fcall	_log10
  3174     0EF5  1683               	bsf	3,5	;RP0=1, select bank1
  3175     0EF6  1303               	bcf	3,6	;RP1=0, select bank1
  3176     0EF7  0841               	movf	(?_log10+3)^(0+128),w
  3177     0EF8  00CD               	movwf	(___flsub@b+3)^(0+128)
  3178     0EF9  0840               	movf	(?_log10+2)^(0+128),w
  3179     0EFA  00CC               	movwf	(___flsub@b+2)^(0+128)
  3180     0EFB  083F               	movf	(?_log10+1)^(0+128),w
  3181     0EFC  00CB               	movwf	(___flsub@b+1)^(0+128)
  3182     0EFD  083E               	movf	?_log10^(0+128),w
  3183     0EFE  00CA               	movwf	___flsub@b^(0+128)
  3184     0EFF  160A  158A  26FE  120A  158A  	fcall	___flsub
  3185     0F04  1683               	bsf	3,5	;RP0=1, select bank1
  3186     0F05  1303               	bcf	3,6	;RP1=0, select bank1
  3187     0F06  0849               	movf	(?___flsub+3)^(0+128),w
  3188     0F07  1683               	bsf	3,5	;RP0=1, select bank3
  3189     0F08  1703               	bsf	3,6	;RP1=1, select bank3
  3190     0F09  00C7               	movwf	(_converteVoltsParaLux$1070+3)^(0+384)
  3191     0F0A  1683               	bsf	3,5	;RP0=1, select bank1
  3192     0F0B  1303               	bcf	3,6	;RP1=0, select bank1
  3193     0F0C  0848               	movf	(?___flsub+2)^(0+128),w
  3194     0F0D  1683               	bsf	3,5	;RP0=1, select bank3
  3195     0F0E  1703               	bsf	3,6	;RP1=1, select bank3
  3196     0F0F  00C6               	movwf	(_converteVoltsParaLux$1070+2)^(0+384)
  3197     0F10  1683               	bsf	3,5	;RP0=1, select bank1
  3198     0F11  1303               	bcf	3,6	;RP1=0, select bank1
  3199     0F12  0847               	movf	(?___flsub+1)^(0+128),w
  3200     0F13  1683               	bsf	3,5	;RP0=1, select bank3
  3201     0F14  1703               	bsf	3,6	;RP1=1, select bank3
  3202     0F15  00C5               	movwf	(_converteVoltsParaLux$1070+1)^(0+384)
  3203     0F16  1683               	bsf	3,5	;RP0=1, select bank1
  3204     0F17  1303               	bcf	3,6	;RP1=0, select bank1
  3205     0F18  0846               	movf	?___flsub^(0+128),w
  3206     0F19  1683               	bsf	3,5	;RP0=1, select bank3
  3207     0F1A  1703               	bsf	3,6	;RP1=1, select bank3
  3208     0F1B  00C4               	movwf	_converteVoltsParaLux$1070^(0+384)
  3209                           
  3210                           ;newmain.c: 220:     long double l_ldr =
  3211     0F1C  30BF               	movlw	191
  3212     0F1D  009E               	movwf	(pow@y+3)^(0+384)
  3213     0F1E  3080               	movlw	128
  3214     0F1F  009D               	movwf	(pow@y+2)^(0+384)
  3215     0F20  3000               	movlw	0
  3216     0F21  009C               	movwf	(pow@y+1)^(0+384)
  3217     0F22  3000               	movlw	0
  3218     0F23  009B               	movwf	pow@y^(0+384)
  3219     0F24  0843               	movf	(converteVoltsParaLux@b+3)^(0+384),w
  3220     0F25  009A               	movwf	(pow@x+3)^(0+384)
  3221     0F26  0842               	movf	(converteVoltsParaLux@b+2)^(0+384),w
  3222     0F27  0099               	movwf	(pow@x+2)^(0+384)
  3223     0F28  0841               	movf	(converteVoltsParaLux@b+1)^(0+384),w
  3224     0F29  0098               	movwf	(pow@x+1)^(0+384)
  3225     0F2A  0840               	movf	converteVoltsParaLux@b^(0+384),w
  3226     0F2B  0097               	movwf	pow@x^(0+384)
  3227     0F2C  120A  158A  2165  120A  158A  	fcall	_pow
  3228     0F31  1683               	bsf	3,5	;RP0=1, select bank3
  3229     0F32  1703               	bsf	3,6	;RP1=1, select bank3
  3230     0F33  081A               	movf	(?_pow+3)^(0+384),w
  3231     0F34  00BB               	movwf	(_converteVoltsParaLux$1071+3)^(0+384)
  3232     0F35  0819               	movf	(?_pow+2)^(0+384),w
  3233     0F36  00BA               	movwf	(_converteVoltsParaLux$1071+2)^(0+384)
  3234     0F37  0818               	movf	(?_pow+1)^(0+384),w
  3235     0F38  00B9               	movwf	(_converteVoltsParaLux$1071+1)^(0+384)
  3236     0F39  0817               	movf	?_pow^(0+384),w
  3237     0F3A  00B8               	movwf	_converteVoltsParaLux$1071^(0+384)
  3238     0F3B                     l4019:
  3239                           
  3240                           ;newmain.c: 220:     long double l_ldr =
  3241     0F3B  3044               	movlw	68
  3242     0F3C  1283               	bcf	3,5	;RP0=0, select bank0
  3243     0F3D  1303               	bcf	3,6	;RP1=0, select bank0
  3244     0F3E  00CC               	movwf	___flmul@b+3
  3245     0F3F  307A               	movlw	122
  3246     0F40  00CB               	movwf	___flmul@b+2
  3247     0F41  3000               	movlw	0
  3248     0F42  00CA               	movwf	___flmul@b+1
  3249     0F43  3000               	movlw	0
  3250     0F44  00C9               	movwf	___flmul@b
  3251     0F45  1683               	bsf	3,5	;RP0=1, select bank3
  3252     0F46  1703               	bsf	3,6	;RP1=1, select bank3
  3253     0F47  0843               	movf	(converteVoltsParaLux@b+3)^(0+384),w
  3254     0F48  1283               	bcf	3,5	;RP0=0, select bank0
  3255     0F49  1303               	bcf	3,6	;RP1=0, select bank0
  3256     0F4A  00D0               	movwf	___flmul@a+3
  3257     0F4B  1683               	bsf	3,5	;RP0=1, select bank3
  3258     0F4C  1703               	bsf	3,6	;RP1=1, select bank3
  3259     0F4D  0842               	movf	(converteVoltsParaLux@b+2)^(0+384),w
  3260     0F4E  1283               	bcf	3,5	;RP0=0, select bank0
  3261     0F4F  1303               	bcf	3,6	;RP1=0, select bank0
  3262     0F50  00CF               	movwf	___flmul@a+2
  3263     0F51  1683               	bsf	3,5	;RP0=1, select bank3
  3264     0F52  1703               	bsf	3,6	;RP1=1, select bank3
  3265     0F53  0841               	movf	(converteVoltsParaLux@b+1)^(0+384),w
  3266     0F54  1283               	bcf	3,5	;RP0=0, select bank0
  3267     0F55  1303               	bcf	3,6	;RP1=0, select bank0
  3268     0F56  00CE               	movwf	___flmul@a+1
  3269     0F57  1683               	bsf	3,5	;RP0=1, select bank3
  3270     0F58  1703               	bsf	3,6	;RP1=1, select bank3
  3271     0F59  0840               	movf	converteVoltsParaLux@b^(0+384),w
  3272     0F5A  1283               	bcf	3,5	;RP0=0, select bank0
  3273     0F5B  1303               	bcf	3,6	;RP1=0, select bank0
  3274     0F5C  00CD               	movwf	___flmul@a
  3275     0F5D  120A  118A  2039  120A  158A  	fcall	___flmul
  3276     0F62  1283               	bcf	3,5	;RP0=0, select bank0
  3277     0F63  1303               	bcf	3,6	;RP1=0, select bank0
  3278     0F64  084C               	movf	?___flmul+3,w
  3279     0F65  00E6               	movwf	___fladd@b+3
  3280     0F66  084B               	movf	?___flmul+2,w
  3281     0F67  00E5               	movwf	___fladd@b+2
  3282     0F68  084A               	movf	?___flmul+1,w
  3283     0F69  00E4               	movwf	___fladd@b+1
  3284     0F6A  0849               	movf	?___flmul,w
  3285     0F6B  00E3               	movwf	___fladd@b
  3286     0F6C  1683               	bsf	3,5	;RP0=1, select bank3
  3287     0F6D  1703               	bsf	3,6	;RP1=1, select bank3
  3288     0F6E  0847               	movf	(_converteVoltsParaLux$1070+3)^(0+384),w
  3289     0F6F  1283               	bcf	3,5	;RP0=0, select bank0
  3290     0F70  1303               	bcf	3,6	;RP1=0, select bank0
  3291     0F71  00EA               	movwf	___fladd@a+3
  3292     0F72  1683               	bsf	3,5	;RP0=1, select bank3
  3293     0F73  1703               	bsf	3,6	;RP1=1, select bank3
  3294     0F74  0846               	movf	(_converteVoltsParaLux$1070+2)^(0+384),w
  3295     0F75  1283               	bcf	3,5	;RP0=0, select bank0
  3296     0F76  1303               	bcf	3,6	;RP1=0, select bank0
  3297     0F77  00E9               	movwf	___fladd@a+2
  3298     0F78  1683               	bsf	3,5	;RP0=1, select bank3
  3299     0F79  1703               	bsf	3,6	;RP1=1, select bank3
  3300     0F7A  0845               	movf	(_converteVoltsParaLux$1070+1)^(0+384),w
  3301     0F7B  1283               	bcf	3,5	;RP0=0, select bank0
  3302     0F7C  1303               	bcf	3,6	;RP1=0, select bank0
  3303     0F7D  00E8               	movwf	___fladd@a+1
  3304     0F7E  1683               	bsf	3,5	;RP0=1, select bank3
  3305     0F7F  1703               	bsf	3,6	;RP1=1, select bank3
  3306     0F80  0844               	movf	_converteVoltsParaLux$1070^(0+384),w
  3307     0F81  1283               	bcf	3,5	;RP0=0, select bank0
  3308     0F82  1303               	bcf	3,6	;RP1=0, select bank0
  3309     0F83  00E7               	movwf	___fladd@a
  3310     0F84  120A  118A  237E  120A  158A  	fcall	___fladd
  3311     0F89  1283               	bcf	3,5	;RP0=0, select bank0
  3312     0F8A  1303               	bcf	3,6	;RP1=0, select bank0
  3313     0F8B  0866               	movf	?___fladd+3,w
  3314     0F8C  1683               	bsf	3,5	;RP0=1, select bank3
  3315     0F8D  1703               	bsf	3,6	;RP1=1, select bank3
  3316     0F8E  00BF               	movwf	(_converteVoltsParaLux$1072+3)^(0+384)
  3317     0F8F  1283               	bcf	3,5	;RP0=0, select bank0
  3318     0F90  1303               	bcf	3,6	;RP1=0, select bank0
  3319     0F91  0865               	movf	?___fladd+2,w
  3320     0F92  1683               	bsf	3,5	;RP0=1, select bank3
  3321     0F93  1703               	bsf	3,6	;RP1=1, select bank3
  3322     0F94  00BE               	movwf	(_converteVoltsParaLux$1072+2)^(0+384)
  3323     0F95  1283               	bcf	3,5	;RP0=0, select bank0
  3324     0F96  1303               	bcf	3,6	;RP1=0, select bank0
  3325     0F97  0864               	movf	?___fladd+1,w
  3326     0F98  1683               	bsf	3,5	;RP0=1, select bank3
  3327     0F99  1703               	bsf	3,6	;RP1=1, select bank3
  3328     0F9A  00BD               	movwf	(_converteVoltsParaLux$1072+1)^(0+384)
  3329     0F9B  1283               	bcf	3,5	;RP0=0, select bank0
  3330     0F9C  1303               	bcf	3,6	;RP1=0, select bank0
  3331     0F9D  0863               	movf	?___fladd,w
  3332     0F9E  1683               	bsf	3,5	;RP0=1, select bank3
  3333     0F9F  1703               	bsf	3,6	;RP1=1, select bank3
  3334     0FA0  00BC               	movwf	_converteVoltsParaLux$1072^(0+384)
  3335     0FA1                     l4021:
  3336                           
  3337                           ;newmain.c: 220:     long double l_ldr =
  3338     0FA1  083B               	movf	(_converteVoltsParaLux$1071+3)^(0+384),w
  3339     0FA2  1283               	bcf	3,5	;RP0=0, select bank0
  3340     0FA3  1303               	bcf	3,6	;RP1=0, select bank0
  3341     0FA4  00CC               	movwf	___flmul@b+3
  3342     0FA5  1683               	bsf	3,5	;RP0=1, select bank3
  3343     0FA6  1703               	bsf	3,6	;RP1=1, select bank3
  3344     0FA7  083A               	movf	(_converteVoltsParaLux$1071+2)^(0+384),w
  3345     0FA8  1283               	bcf	3,5	;RP0=0, select bank0
  3346     0FA9  1303               	bcf	3,6	;RP1=0, select bank0
  3347     0FAA  00CB               	movwf	___flmul@b+2
  3348     0FAB  1683               	bsf	3,5	;RP0=1, select bank3
  3349     0FAC  1703               	bsf	3,6	;RP1=1, select bank3
  3350     0FAD  0839               	movf	(_converteVoltsParaLux$1071+1)^(0+384),w
  3351     0FAE  1283               	bcf	3,5	;RP0=0, select bank0
  3352     0FAF  1303               	bcf	3,6	;RP1=0, select bank0
  3353     0FB0  00CA               	movwf	___flmul@b+1
  3354     0FB1  1683               	bsf	3,5	;RP0=1, select bank3
  3355     0FB2  1703               	bsf	3,6	;RP1=1, select bank3
  3356     0FB3  0838               	movf	_converteVoltsParaLux$1071^(0+384),w
  3357     0FB4  1283               	bcf	3,5	;RP0=0, select bank0
  3358     0FB5  1303               	bcf	3,6	;RP1=0, select bank0
  3359     0FB6  00C9               	movwf	___flmul@b
  3360     0FB7  1683               	bsf	3,5	;RP0=1, select bank3
  3361     0FB8  1703               	bsf	3,6	;RP1=1, select bank3
  3362     0FB9  083F               	movf	(_converteVoltsParaLux$1072+3)^(0+384),w
  3363     0FBA  1283               	bcf	3,5	;RP0=0, select bank0
  3364     0FBB  1303               	bcf	3,6	;RP1=0, select bank0
  3365     0FBC  00D0               	movwf	___flmul@a+3
  3366     0FBD  1683               	bsf	3,5	;RP0=1, select bank3
  3367     0FBE  1703               	bsf	3,6	;RP1=1, select bank3
  3368     0FBF  083E               	movf	(_converteVoltsParaLux$1072+2)^(0+384),w
  3369     0FC0  1283               	bcf	3,5	;RP0=0, select bank0
  3370     0FC1  1303               	bcf	3,6	;RP1=0, select bank0
  3371     0FC2  00CF               	movwf	___flmul@a+2
  3372     0FC3  1683               	bsf	3,5	;RP0=1, select bank3
  3373     0FC4  1703               	bsf	3,6	;RP1=1, select bank3
  3374     0FC5  083D               	movf	(_converteVoltsParaLux$1072+1)^(0+384),w
  3375     0FC6  1283               	bcf	3,5	;RP0=0, select bank0
  3376     0FC7  1303               	bcf	3,6	;RP1=0, select bank0
  3377     0FC8  00CE               	movwf	___flmul@a+1
  3378     0FC9  1683               	bsf	3,5	;RP0=1, select bank3
  3379     0FCA  1703               	bsf	3,6	;RP1=1, select bank3
  3380     0FCB  083C               	movf	_converteVoltsParaLux$1072^(0+384),w
  3381     0FCC  1283               	bcf	3,5	;RP0=0, select bank0
  3382     0FCD  1303               	bcf	3,6	;RP1=0, select bank0
  3383     0FCE  00CD               	movwf	___flmul@a
  3384     0FCF  120A  118A  2039  120A  158A  	fcall	___flmul
  3385     0FD4  1283               	bcf	3,5	;RP0=0, select bank0
  3386     0FD5  1303               	bcf	3,6	;RP1=0, select bank0
  3387     0FD6  084C               	movf	?___flmul+3,w
  3388     0FD7  1683               	bsf	3,5	;RP0=1, select bank3
  3389     0FD8  1703               	bsf	3,6	;RP1=1, select bank3
  3390     0FD9  00B7               	movwf	(converteVoltsParaLux@l_ldr+3)^(0+384)
  3391     0FDA  1283               	bcf	3,5	;RP0=0, select bank0
  3392     0FDB  1303               	bcf	3,6	;RP1=0, select bank0
  3393     0FDC  084B               	movf	?___flmul+2,w
  3394     0FDD  1683               	bsf	3,5	;RP0=1, select bank3
  3395     0FDE  1703               	bsf	3,6	;RP1=1, select bank3
  3396     0FDF  00B6               	movwf	(converteVoltsParaLux@l_ldr+2)^(0+384)
  3397     0FE0  1283               	bcf	3,5	;RP0=0, select bank0
  3398     0FE1  1303               	bcf	3,6	;RP1=0, select bank0
  3399     0FE2  084A               	movf	?___flmul+1,w
  3400     0FE3  1683               	bsf	3,5	;RP0=1, select bank3
  3401     0FE4  1703               	bsf	3,6	;RP1=1, select bank3
  3402     0FE5  00B5               	movwf	(converteVoltsParaLux@l_ldr+1)^(0+384)
  3403     0FE6  1283               	bcf	3,5	;RP0=0, select bank0
  3404     0FE7  1303               	bcf	3,6	;RP1=0, select bank0
  3405     0FE8  0849               	movf	?___flmul,w
  3406     0FE9  1683               	bsf	3,5	;RP0=1, select bank3
  3407     0FEA  1703               	bsf	3,6	;RP1=1, select bank3
  3408     0FEB  00B4               	movwf	converteVoltsParaLux@l_ldr^(0+384)
  3409     0FEC                     l4023:
  3410                           
  3411                           ;newmain.c: 232:     return l_ldr;
  3412     0FEC  0837               	movf	(converteVoltsParaLux@l_ldr+3)^(0+384),w
  3413     0FED  00F5               	movwf	___fltol@f1+3
  3414     0FEE  0836               	movf	(converteVoltsParaLux@l_ldr+2)^(0+384),w
  3415     0FEF  00F4               	movwf	___fltol@f1+2
  3416     0FF0  0835               	movf	(converteVoltsParaLux@l_ldr+1)^(0+384),w
  3417     0FF1  00F3               	movwf	___fltol@f1+1
  3418     0FF2  0834               	movf	converteVoltsParaLux@l_ldr^(0+384),w
  3419     0FF3  00F2               	movwf	___fltol@f1
  3420     0FF4  160A  118A  2165  120A  158A  	fcall	___fltol
  3421     0FF9  0873               	movf	?___fltol+1,w
  3422     0FFA  1683               	bsf	3,5	;RP0=1, select bank3
  3423     0FFB  1703               	bsf	3,6	;RP1=1, select bank3
  3424     0FFC  00AD               	movwf	(?_converteVoltsParaLux+1)^(0+384)
  3425     0FFD  0872               	movf	?___fltol,w
  3426     0FFE  00AC               	movwf	?_converteVoltsParaLux^(0+384)
  3427     0FFF                     l154:
  3428     0FFF  0008               	return
  3429     1000                     __end_of_converteVoltsParaLux:
  3430                           
  3431                           	psect	text13
  3432     0965                     __ptext13:	
  3433 ;; *************** function _pow *****************
  3434 ;; Defined at:
  3435 ;;		line 5 in file "C:\Program Files\Microchip\xc8\v2.41\pic\sources\c90\common\pow.c"
  3436 ;; Parameters:    Size  Location     Type
  3437 ;;  x               4    7[BANK3 ] int 
  3438 ;;  y               4   11[BANK3 ] int 
  3439 ;; Auto vars:     Size  Location     Type
  3440 ;;  yi              4   24[BANK3 ] unsigned long 
  3441 ;;  sign            1   23[BANK3 ] unsigned char 
  3442 ;; Return value:  Size  Location     Type
  3443 ;;                  4    7[BANK3 ] unsigned char 
  3444 ;; Registers used:
  3445 ;;		wreg, fsr0l, fsr0h, status,2, status,0, btemp+1, pclath, cstack
  3446 ;; Tracked objects:
  3447 ;;		On entry : 0/0
  3448 ;;		On exit  : 0/0
  3449 ;;		Unchanged: 0/0
  3450 ;; Data sizes:     COMMON   BANK0   BANK1   BANK3   BANK2
  3451 ;;      Params:         0       0       0       8       0
  3452 ;;      Locals:         0       0       0      13       0
  3453 ;;      Temps:          0       0       0       0       0
  3454 ;;      Totals:         0       0       0      21       0
  3455 ;;Total ram usage:       21 bytes
  3456 ;; Hardware stack levels used: 1
  3457 ;; Hardware stack levels required when called: 5
  3458 ;; This function calls:
  3459 ;;		___fleq
  3460 ;;		___flge
  3461 ;;		___flmul
  3462 ;;		___flneg
  3463 ;;		___fltol
  3464 ;;		___xxtofl
  3465 ;;		_exp
  3466 ;;		_log
  3467 ;; This function is called by:
  3468 ;;		_converteVoltsParaLux
  3469 ;; This function uses a non-reentrant model
  3470 ;;
  3471                           
  3472     0965                     _pow:	
  3473                           ;psect for function _pow
  3474                           
  3475     0965                     l3861:	
  3476                           ;incstack = 0
  3477                           ; Regs used in _pow: [wreg-fsr0h+status,2+status,0+btemp+1+pclath+cstack]
  3478                           
  3479     0965  1683               	bsf	3,5	;RP0=1, select bank3
  3480     0966  1703               	bsf	3,6	;RP1=1, select bank3
  3481     0967  01A7               	clrf	pow@sign^(0+384)
  3482     0968                     l3863:
  3483     0968  081A               	movf	(pow@x+3)^(0+384),w
  3484     0969  1283               	bcf	3,5	;RP0=0, select bank0
  3485     096A  1303               	bcf	3,6	;RP1=0, select bank0
  3486     096B  00B9               	movwf	___fleq@ff1+3
  3487     096C  1683               	bsf	3,5	;RP0=1, select bank3
  3488     096D  1703               	bsf	3,6	;RP1=1, select bank3
  3489     096E  0819               	movf	(pow@x+2)^(0+384),w
  3490     096F  1283               	bcf	3,5	;RP0=0, select bank0
  3491     0970  1303               	bcf	3,6	;RP1=0, select bank0
  3492     0971  00B8               	movwf	___fleq@ff1+2
  3493     0972  1683               	bsf	3,5	;RP0=1, select bank3
  3494     0973  1703               	bsf	3,6	;RP1=1, select bank3
  3495     0974  0818               	movf	(pow@x+1)^(0+384),w
  3496     0975  1283               	bcf	3,5	;RP0=0, select bank0
  3497     0976  1303               	bcf	3,6	;RP1=0, select bank0
  3498     0977  00B7               	movwf	___fleq@ff1+1
  3499     0978  1683               	bsf	3,5	;RP0=1, select bank3
  3500     0979  1703               	bsf	3,6	;RP1=1, select bank3
  3501     097A  0817               	movf	pow@x^(0+384),w
  3502     097B  1283               	bcf	3,5	;RP0=0, select bank0
  3503     097C  1303               	bcf	3,6	;RP1=0, select bank0
  3504     097D  00B6               	movwf	___fleq@ff1
  3505     097E  3000               	movlw	0
  3506     097F  00BD               	movwf	___fleq@ff2+3
  3507     0980  3000               	movlw	0
  3508     0981  00BC               	movwf	___fleq@ff2+2
  3509     0982  3000               	movlw	0
  3510     0983  00BB               	movwf	___fleq@ff2+1
  3511     0984  3000               	movlw	0
  3512     0985  00BA               	movwf	___fleq@ff2
  3513     0986  160A  158A  26AE  120A  158A  	fcall	___fleq
  3514     098B  1C03               	btfss	3,0
  3515     098C  298E               	goto	u5801
  3516     098D  298F               	goto	u5800
  3517     098E                     u5801:
  3518     098E  29BB               	goto	l3871
  3519     098F                     u5800:
  3520     098F                     l3865:
  3521     098F  3000               	movlw	0
  3522     0990  00F5               	movwf	___flge@ff1+3
  3523     0991  3000               	movlw	0
  3524     0992  00F4               	movwf	___flge@ff1+2
  3525     0993  3000               	movlw	0
  3526     0994  00F3               	movwf	___flge@ff1+1
  3527     0995  3000               	movlw	0
  3528     0996  00F2               	movwf	___flge@ff1
  3529     0997  1683               	bsf	3,5	;RP0=1, select bank3
  3530     0998  1703               	bsf	3,6	;RP1=1, select bank3
  3531     0999  081E               	movf	(pow@y+3)^(0+384),w
  3532     099A  00F9               	movwf	___flge@ff2+3
  3533     099B  081D               	movf	(pow@y+2)^(0+384),w
  3534     099C  00F8               	movwf	___flge@ff2+2
  3535     099D  081C               	movf	(pow@y+1)^(0+384),w
  3536     099E  00F7               	movwf	___flge@ff2+1
  3537     099F  081B               	movf	pow@y^(0+384),w
  3538     09A0  00F6               	movwf	___flge@ff2
  3539     09A1  160A  118A  2275  120A  158A  	fcall	___flge
  3540     09A6  1C03               	btfss	3,0
  3541     09A7  29A9               	goto	u5811
  3542     09A8  29AA               	goto	u5810
  3543     09A9                     u5811:
  3544     09A9  29B0               	goto	l746
  3545     09AA                     u5810:
  3546     09AA                     l3867:
  3547     09AA  3021               	movlw	33
  3548     09AB  1683               	bsf	3,5	;RP0=1, select bank3
  3549     09AC  1703               	bsf	3,6	;RP1=1, select bank3
  3550     09AD  00E1               	movwf	_errno^(0+384)
  3551     09AE  3000               	movlw	0
  3552     09AF  00E2               	movwf	(_errno^(0+384)+1)
  3553     09B0                     l746:
  3554     09B0  3000               	movlw	0
  3555     09B1  1683               	bsf	3,5	;RP0=1, select bank3
  3556     09B2  1703               	bsf	3,6	;RP1=1, select bank3
  3557     09B3  009A               	movwf	(?_pow+3)^(0+384)
  3558     09B4  3000               	movlw	0
  3559     09B5  0099               	movwf	(?_pow+2)^(0+384)
  3560     09B6  3000               	movlw	0
  3561     09B7  0098               	movwf	(?_pow+1)^(0+384)
  3562     09B8  3000               	movlw	0
  3563     09B9  0097               	movwf	?_pow^(0+384)
  3564     09BA  2B65               	goto	l747
  3565     09BB                     l3871:
  3566     09BB  1683               	bsf	3,5	;RP0=1, select bank3
  3567     09BC  1703               	bsf	3,6	;RP1=1, select bank3
  3568     09BD  081E               	movf	(pow@y+3)^(0+384),w
  3569     09BE  1283               	bcf	3,5	;RP0=0, select bank0
  3570     09BF  1303               	bcf	3,6	;RP1=0, select bank0
  3571     09C0  00B9               	movwf	___fleq@ff1+3
  3572     09C1  1683               	bsf	3,5	;RP0=1, select bank3
  3573     09C2  1703               	bsf	3,6	;RP1=1, select bank3
  3574     09C3  081D               	movf	(pow@y+2)^(0+384),w
  3575     09C4  1283               	bcf	3,5	;RP0=0, select bank0
  3576     09C5  1303               	bcf	3,6	;RP1=0, select bank0
  3577     09C6  00B8               	movwf	___fleq@ff1+2
  3578     09C7  1683               	bsf	3,5	;RP0=1, select bank3
  3579     09C8  1703               	bsf	3,6	;RP1=1, select bank3
  3580     09C9  081C               	movf	(pow@y+1)^(0+384),w
  3581     09CA  1283               	bcf	3,5	;RP0=0, select bank0
  3582     09CB  1303               	bcf	3,6	;RP1=0, select bank0
  3583     09CC  00B7               	movwf	___fleq@ff1+1
  3584     09CD  1683               	bsf	3,5	;RP0=1, select bank3
  3585     09CE  1703               	bsf	3,6	;RP1=1, select bank3
  3586     09CF  081B               	movf	pow@y^(0+384),w
  3587     09D0  1283               	bcf	3,5	;RP0=0, select bank0
  3588     09D1  1303               	bcf	3,6	;RP1=0, select bank0
  3589     09D2  00B6               	movwf	___fleq@ff1
  3590     09D3  3000               	movlw	0
  3591     09D4  00BD               	movwf	___fleq@ff2+3
  3592     09D5  3000               	movlw	0
  3593     09D6  00BC               	movwf	___fleq@ff2+2
  3594     09D7  3000               	movlw	0
  3595     09D8  00BB               	movwf	___fleq@ff2+1
  3596     09D9  3000               	movlw	0
  3597     09DA  00BA               	movwf	___fleq@ff2
  3598     09DB  160A  158A  26AE  120A  158A  	fcall	___fleq
  3599     09E0  1C03               	btfss	3,0
  3600     09E1  29E3               	goto	u5821
  3601     09E2  29E4               	goto	u5820
  3602     09E3                     u5821:
  3603     09E3  29EF               	goto	l3877
  3604     09E4                     u5820:
  3605     09E4                     l3873:
  3606     09E4  303F               	movlw	63
  3607     09E5  1683               	bsf	3,5	;RP0=1, select bank3
  3608     09E6  1703               	bsf	3,6	;RP1=1, select bank3
  3609     09E7  009A               	movwf	(?_pow+3)^(0+384)
  3610     09E8  3080               	movlw	128
  3611     09E9  0099               	movwf	(?_pow+2)^(0+384)
  3612     09EA  3000               	movlw	0
  3613     09EB  0098               	movwf	(?_pow+1)^(0+384)
  3614     09EC  3000               	movlw	0
  3615     09ED  0097               	movwf	?_pow^(0+384)
  3616     09EE  2B65               	goto	l747
  3617     09EF                     l3877:
  3618     09EF  1683               	bsf	3,5	;RP0=1, select bank3
  3619     09F0  1703               	bsf	3,6	;RP1=1, select bank3
  3620     09F1  081A               	movf	(pow@x+3)^(0+384),w
  3621     09F2  00F5               	movwf	___flge@ff1+3
  3622     09F3  0819               	movf	(pow@x+2)^(0+384),w
  3623     09F4  00F4               	movwf	___flge@ff1+2
  3624     09F5  0818               	movf	(pow@x+1)^(0+384),w
  3625     09F6  00F3               	movwf	___flge@ff1+1
  3626     09F7  0817               	movf	pow@x^(0+384),w
  3627     09F8  00F2               	movwf	___flge@ff1
  3628     09F9  3000               	movlw	0
  3629     09FA  00F9               	movwf	___flge@ff2+3
  3630     09FB  3000               	movlw	0
  3631     09FC  00F8               	movwf	___flge@ff2+2
  3632     09FD  3000               	movlw	0
  3633     09FE  00F7               	movwf	___flge@ff2+1
  3634     09FF  3000               	movlw	0
  3635     0A00  00F6               	movwf	___flge@ff2
  3636     0A01  160A  118A  2275  120A  158A  	fcall	___flge
  3637     0A06  1803               	btfsc	3,0
  3638     0A07  2A09               	goto	u5831
  3639     0A08  2A0A               	goto	u5830
  3640     0A09                     u5831:
  3641     0A09  2A95               	goto	l3889
  3642     0A0A                     u5830:
  3643     0A0A                     l3879:
  3644     0A0A  1683               	bsf	3,5	;RP0=1, select bank3
  3645     0A0B  1703               	bsf	3,6	;RP1=1, select bank3
  3646     0A0C  081E               	movf	(pow@y+3)^(0+384),w
  3647     0A0D  00F5               	movwf	___fltol@f1+3
  3648     0A0E  081D               	movf	(pow@y+2)^(0+384),w
  3649     0A0F  00F4               	movwf	___fltol@f1+2
  3650     0A10  081C               	movf	(pow@y+1)^(0+384),w
  3651     0A11  00F3               	movwf	___fltol@f1+1
  3652     0A12  081B               	movf	pow@y^(0+384),w
  3653     0A13  00F2               	movwf	___fltol@f1
  3654     0A14  160A  118A  2165  120A  158A  	fcall	___fltol
  3655     0A19  0875               	movf	?___fltol+3,w
  3656     0A1A  1683               	bsf	3,5	;RP0=1, select bank3
  3657     0A1B  1703               	bsf	3,6	;RP1=1, select bank3
  3658     0A1C  00AB               	movwf	(pow@yi+3)^(0+384)
  3659     0A1D  0874               	movf	?___fltol+2,w
  3660     0A1E  00AA               	movwf	(pow@yi+2)^(0+384)
  3661     0A1F  0873               	movf	?___fltol+1,w
  3662     0A20  00A9               	movwf	(pow@yi+1)^(0+384)
  3663     0A21  0872               	movf	?___fltol,w
  3664     0A22  00A8               	movwf	pow@yi^(0+384)
  3665     0A23  082B               	movf	(pow@yi+3)^(0+384),w
  3666     0A24  1283               	bcf	3,5	;RP0=0, select bank0
  3667     0A25  1303               	bcf	3,6	;RP1=0, select bank0
  3668     0A26  00AB               	movwf	___xxtofl@val+3
  3669     0A27  1683               	bsf	3,5	;RP0=1, select bank3
  3670     0A28  1703               	bsf	3,6	;RP1=1, select bank3
  3671     0A29  082A               	movf	(pow@yi+2)^(0+384),w
  3672     0A2A  1283               	bcf	3,5	;RP0=0, select bank0
  3673     0A2B  1303               	bcf	3,6	;RP1=0, select bank0
  3674     0A2C  00AA               	movwf	___xxtofl@val+2
  3675     0A2D  1683               	bsf	3,5	;RP0=1, select bank3
  3676     0A2E  1703               	bsf	3,6	;RP1=1, select bank3
  3677     0A2F  0829               	movf	(pow@yi+1)^(0+384),w
  3678     0A30  1283               	bcf	3,5	;RP0=0, select bank0
  3679     0A31  1303               	bcf	3,6	;RP1=0, select bank0
  3680     0A32  00A9               	movwf	___xxtofl@val+1
  3681     0A33  1683               	bsf	3,5	;RP0=1, select bank3
  3682     0A34  1703               	bsf	3,6	;RP1=1, select bank3
  3683     0A35  0828               	movf	pow@yi^(0+384),w
  3684     0A36  1283               	bcf	3,5	;RP0=0, select bank0
  3685     0A37  1303               	bcf	3,6	;RP1=0, select bank0
  3686     0A38  00A8               	movwf	___xxtofl@val
  3687     0A39  3000               	movlw	0
  3688     0A3A  160A  118A  2319  120A  158A  	fcall	___xxtofl
  3689     0A3F  1283               	bcf	3,5	;RP0=0, select bank0
  3690     0A40  1303               	bcf	3,6	;RP1=0, select bank0
  3691     0A41  082B               	movf	?___xxtofl+3,w
  3692     0A42  00B9               	movwf	___fleq@ff1+3
  3693     0A43  082A               	movf	?___xxtofl+2,w
  3694     0A44  00B8               	movwf	___fleq@ff1+2
  3695     0A45  0829               	movf	?___xxtofl+1,w
  3696     0A46  00B7               	movwf	___fleq@ff1+1
  3697     0A47  0828               	movf	?___xxtofl,w
  3698     0A48  00B6               	movwf	___fleq@ff1
  3699     0A49  1683               	bsf	3,5	;RP0=1, select bank3
  3700     0A4A  1703               	bsf	3,6	;RP1=1, select bank3
  3701     0A4B  081E               	movf	(pow@y+3)^(0+384),w
  3702     0A4C  1283               	bcf	3,5	;RP0=0, select bank0
  3703     0A4D  1303               	bcf	3,6	;RP1=0, select bank0
  3704     0A4E  00BD               	movwf	___fleq@ff2+3
  3705     0A4F  1683               	bsf	3,5	;RP0=1, select bank3
  3706     0A50  1703               	bsf	3,6	;RP1=1, select bank3
  3707     0A51  081D               	movf	(pow@y+2)^(0+384),w
  3708     0A52  1283               	bcf	3,5	;RP0=0, select bank0
  3709     0A53  1303               	bcf	3,6	;RP1=0, select bank0
  3710     0A54  00BC               	movwf	___fleq@ff2+2
  3711     0A55  1683               	bsf	3,5	;RP0=1, select bank3
  3712     0A56  1703               	bsf	3,6	;RP1=1, select bank3
  3713     0A57  081C               	movf	(pow@y+1)^(0+384),w
  3714     0A58  1283               	bcf	3,5	;RP0=0, select bank0
  3715     0A59  1303               	bcf	3,6	;RP1=0, select bank0
  3716     0A5A  00BB               	movwf	___fleq@ff2+1
  3717     0A5B  1683               	bsf	3,5	;RP0=1, select bank3
  3718     0A5C  1703               	bsf	3,6	;RP1=1, select bank3
  3719     0A5D  081B               	movf	pow@y^(0+384),w
  3720     0A5E  1283               	bcf	3,5	;RP0=0, select bank0
  3721     0A5F  1303               	bcf	3,6	;RP1=0, select bank0
  3722     0A60  00BA               	movwf	___fleq@ff2
  3723     0A61  160A  158A  26AE  120A  158A  	fcall	___fleq
  3724     0A66  1803               	btfsc	3,0
  3725     0A67  2A69               	goto	u5841
  3726     0A68  2A6A               	goto	u5840
  3727     0A69                     u5841:
  3728     0A69  2A79               	goto	l3885
  3729     0A6A                     u5840:
  3730     0A6A                     l3881:
  3731     0A6A  3021               	movlw	33
  3732     0A6B  1683               	bsf	3,5	;RP0=1, select bank3
  3733     0A6C  1703               	bsf	3,6	;RP1=1, select bank3
  3734     0A6D  00E1               	movwf	_errno^(0+384)
  3735     0A6E  3000               	movlw	0
  3736     0A6F  00E2               	movwf	(_errno^(0+384)+1)
  3737     0A70  3000               	movlw	0
  3738     0A71  009A               	movwf	(?_pow+3)^(0+384)
  3739     0A72  3000               	movlw	0
  3740     0A73  0099               	movwf	(?_pow+2)^(0+384)
  3741     0A74  3000               	movlw	0
  3742     0A75  0098               	movwf	(?_pow+1)^(0+384)
  3743     0A76  3000               	movlw	0
  3744     0A77  0097               	movwf	?_pow^(0+384)
  3745     0A78  2B65               	goto	l747
  3746     0A79                     l3885:
  3747     0A79  1683               	bsf	3,5	;RP0=1, select bank3
  3748     0A7A  1703               	bsf	3,6	;RP1=1, select bank3
  3749     0A7B  0828               	movf	pow@yi^(0+384),w
  3750     0A7C  3901               	andlw	1
  3751     0A7D  00A7               	movwf	pow@sign^(0+384)
  3752     0A7E                     l3887:
  3753     0A7E  081A               	movf	(pow@x+3)^(0+384),w
  3754     0A7F  00F5               	movwf	___flneg@f1+3
  3755     0A80  0819               	movf	(pow@x+2)^(0+384),w
  3756     0A81  00F4               	movwf	___flneg@f1+2
  3757     0A82  0818               	movf	(pow@x+1)^(0+384),w
  3758     0A83  00F3               	movwf	___flneg@f1+1
  3759     0A84  0817               	movf	pow@x^(0+384),w
  3760     0A85  00F2               	movwf	___flneg@f1
  3761     0A86  160A  158A  245E  120A  158A  	fcall	___flneg
  3762     0A8B  0875               	movf	?___flneg+3,w
  3763     0A8C  1683               	bsf	3,5	;RP0=1, select bank3
  3764     0A8D  1703               	bsf	3,6	;RP1=1, select bank3
  3765     0A8E  009A               	movwf	(pow@x+3)^(0+384)
  3766     0A8F  0874               	movf	?___flneg+2,w
  3767     0A90  0099               	movwf	(pow@x+2)^(0+384)
  3768     0A91  0873               	movf	?___flneg+1,w
  3769     0A92  0098               	movwf	(pow@x+1)^(0+384)
  3770     0A93  0872               	movf	?___flneg,w
  3771     0A94  0097               	movwf	pow@x^(0+384)
  3772     0A95                     l3889:
  3773     0A95  1683               	bsf	3,5	;RP0=1, select bank3
  3774     0A96  1703               	bsf	3,6	;RP1=1, select bank3
  3775     0A97  081A               	movf	(pow@x+3)^(0+384),w
  3776     0A98  1683               	bsf	3,5	;RP0=1, select bank1
  3777     0A99  1303               	bcf	3,6	;RP1=0, select bank1
  3778     0A9A  00BB               	movwf	(log@x+3)^(0+128)
  3779     0A9B  1683               	bsf	3,5	;RP0=1, select bank3
  3780     0A9C  1703               	bsf	3,6	;RP1=1, select bank3
  3781     0A9D  0819               	movf	(pow@x+2)^(0+384),w
  3782     0A9E  1683               	bsf	3,5	;RP0=1, select bank1
  3783     0A9F  1303               	bcf	3,6	;RP1=0, select bank1
  3784     0AA0  00BA               	movwf	(log@x+2)^(0+128)
  3785     0AA1  1683               	bsf	3,5	;RP0=1, select bank3
  3786     0AA2  1703               	bsf	3,6	;RP1=1, select bank3
  3787     0AA3  0818               	movf	(pow@x+1)^(0+384),w
  3788     0AA4  1683               	bsf	3,5	;RP0=1, select bank1
  3789     0AA5  1303               	bcf	3,6	;RP1=0, select bank1
  3790     0AA6  00B9               	movwf	(log@x+1)^(0+128)
  3791     0AA7  1683               	bsf	3,5	;RP0=1, select bank3
  3792     0AA8  1703               	bsf	3,6	;RP1=1, select bank3
  3793     0AA9  0817               	movf	pow@x^(0+384),w
  3794     0AAA  1683               	bsf	3,5	;RP0=1, select bank1
  3795     0AAB  1303               	bcf	3,6	;RP1=0, select bank1
  3796     0AAC  00B8               	movwf	log@x^(0+128)
  3797     0AAD  120A  118A  2658  120A  158A  	fcall	_log
  3798     0AB2  1683               	bsf	3,5	;RP0=1, select bank1
  3799     0AB3  1303               	bcf	3,6	;RP1=0, select bank1
  3800     0AB4  083B               	movf	(?_log+3)^(0+128),w
  3801     0AB5  1683               	bsf	3,5	;RP0=1, select bank3
  3802     0AB6  1703               	bsf	3,6	;RP1=1, select bank3
  3803     0AB7  00A2               	movwf	(_pow$1074+3)^(0+384)
  3804     0AB8  1683               	bsf	3,5	;RP0=1, select bank1
  3805     0AB9  1303               	bcf	3,6	;RP1=0, select bank1
  3806     0ABA  083A               	movf	(?_log+2)^(0+128),w
  3807     0ABB  1683               	bsf	3,5	;RP0=1, select bank3
  3808     0ABC  1703               	bsf	3,6	;RP1=1, select bank3
  3809     0ABD  00A1               	movwf	(_pow$1074+2)^(0+384)
  3810     0ABE  1683               	bsf	3,5	;RP0=1, select bank1
  3811     0ABF  1303               	bcf	3,6	;RP1=0, select bank1
  3812     0AC0  0839               	movf	(?_log+1)^(0+128),w
  3813     0AC1  1683               	bsf	3,5	;RP0=1, select bank3
  3814     0AC2  1703               	bsf	3,6	;RP1=1, select bank3
  3815     0AC3  00A0               	movwf	(_pow$1074+1)^(0+384)
  3816     0AC4  1683               	bsf	3,5	;RP0=1, select bank1
  3817     0AC5  1303               	bcf	3,6	;RP1=0, select bank1
  3818     0AC6  0838               	movf	?_log^(0+128),w
  3819     0AC7  1683               	bsf	3,5	;RP0=1, select bank3
  3820     0AC8  1703               	bsf	3,6	;RP1=1, select bank3
  3821     0AC9  009F               	movwf	_pow$1074^(0+384)
  3822     0ACA                     l3891:
  3823     0ACA  081E               	movf	(pow@y+3)^(0+384),w
  3824     0ACB  1283               	bcf	3,5	;RP0=0, select bank0
  3825     0ACC  1303               	bcf	3,6	;RP1=0, select bank0
  3826     0ACD  00CC               	movwf	___flmul@b+3
  3827     0ACE  1683               	bsf	3,5	;RP0=1, select bank3
  3828     0ACF  1703               	bsf	3,6	;RP1=1, select bank3
  3829     0AD0  081D               	movf	(pow@y+2)^(0+384),w
  3830     0AD1  1283               	bcf	3,5	;RP0=0, select bank0
  3831     0AD2  1303               	bcf	3,6	;RP1=0, select bank0
  3832     0AD3  00CB               	movwf	___flmul@b+2
  3833     0AD4  1683               	bsf	3,5	;RP0=1, select bank3
  3834     0AD5  1703               	bsf	3,6	;RP1=1, select bank3
  3835     0AD6  081C               	movf	(pow@y+1)^(0+384),w
  3836     0AD7  1283               	bcf	3,5	;RP0=0, select bank0
  3837     0AD8  1303               	bcf	3,6	;RP1=0, select bank0
  3838     0AD9  00CA               	movwf	___flmul@b+1
  3839     0ADA  1683               	bsf	3,5	;RP0=1, select bank3
  3840     0ADB  1703               	bsf	3,6	;RP1=1, select bank3
  3841     0ADC  081B               	movf	pow@y^(0+384),w
  3842     0ADD  1283               	bcf	3,5	;RP0=0, select bank0
  3843     0ADE  1303               	bcf	3,6	;RP1=0, select bank0
  3844     0ADF  00C9               	movwf	___flmul@b
  3845     0AE0  1683               	bsf	3,5	;RP0=1, select bank3
  3846     0AE1  1703               	bsf	3,6	;RP1=1, select bank3
  3847     0AE2  0822               	movf	(_pow$1074+3)^(0+384),w
  3848     0AE3  1283               	bcf	3,5	;RP0=0, select bank0
  3849     0AE4  1303               	bcf	3,6	;RP1=0, select bank0
  3850     0AE5  00D0               	movwf	___flmul@a+3
  3851     0AE6  1683               	bsf	3,5	;RP0=1, select bank3
  3852     0AE7  1703               	bsf	3,6	;RP1=1, select bank3
  3853     0AE8  0821               	movf	(_pow$1074+2)^(0+384),w
  3854     0AE9  1283               	bcf	3,5	;RP0=0, select bank0
  3855     0AEA  1303               	bcf	3,6	;RP1=0, select bank0
  3856     0AEB  00CF               	movwf	___flmul@a+2
  3857     0AEC  1683               	bsf	3,5	;RP0=1, select bank3
  3858     0AED  1703               	bsf	3,6	;RP1=1, select bank3
  3859     0AEE  0820               	movf	(_pow$1074+1)^(0+384),w
  3860     0AEF  1283               	bcf	3,5	;RP0=0, select bank0
  3861     0AF0  1303               	bcf	3,6	;RP1=0, select bank0
  3862     0AF1  00CE               	movwf	___flmul@a+1
  3863     0AF2  1683               	bsf	3,5	;RP0=1, select bank3
  3864     0AF3  1703               	bsf	3,6	;RP1=1, select bank3
  3865     0AF4  081F               	movf	_pow$1074^(0+384),w
  3866     0AF5  1283               	bcf	3,5	;RP0=0, select bank0
  3867     0AF6  1303               	bcf	3,6	;RP1=0, select bank0
  3868     0AF7  00CD               	movwf	___flmul@a
  3869     0AF8  120A  118A  2039  120A  158A  	fcall	___flmul
  3870     0AFD  1283               	bcf	3,5	;RP0=0, select bank0
  3871     0AFE  1303               	bcf	3,6	;RP1=0, select bank0
  3872     0AFF  084C               	movf	?___flmul+3,w
  3873     0B00  1683               	bsf	3,5	;RP0=1, select bank3
  3874     0B01  1703               	bsf	3,6	;RP1=1, select bank3
  3875     0B02  00A6               	movwf	(_pow$1075+3)^(0+384)
  3876     0B03  1283               	bcf	3,5	;RP0=0, select bank0
  3877     0B04  1303               	bcf	3,6	;RP1=0, select bank0
  3878     0B05  084B               	movf	?___flmul+2,w
  3879     0B06  1683               	bsf	3,5	;RP0=1, select bank3
  3880     0B07  1703               	bsf	3,6	;RP1=1, select bank3
  3881     0B08  00A5               	movwf	(_pow$1075+2)^(0+384)
  3882     0B09  1283               	bcf	3,5	;RP0=0, select bank0
  3883     0B0A  1303               	bcf	3,6	;RP1=0, select bank0
  3884     0B0B  084A               	movf	?___flmul+1,w
  3885     0B0C  1683               	bsf	3,5	;RP0=1, select bank3
  3886     0B0D  1703               	bsf	3,6	;RP1=1, select bank3
  3887     0B0E  00A4               	movwf	(_pow$1075+1)^(0+384)
  3888     0B0F  1283               	bcf	3,5	;RP0=0, select bank0
  3889     0B10  1303               	bcf	3,6	;RP1=0, select bank0
  3890     0B11  0849               	movf	?___flmul,w
  3891     0B12  1683               	bsf	3,5	;RP0=1, select bank3
  3892     0B13  1703               	bsf	3,6	;RP1=1, select bank3
  3893     0B14  00A3               	movwf	_pow$1075^(0+384)
  3894     0B15                     l3893:
  3895     0B15  0826               	movf	(_pow$1075+3)^(0+384),w
  3896     0B16  1683               	bsf	3,5	;RP0=1, select bank1
  3897     0B17  1303               	bcf	3,6	;RP1=0, select bank1
  3898     0B18  00EB               	movwf	(exp@x+3)^(0+128)
  3899     0B19  1683               	bsf	3,5	;RP0=1, select bank3
  3900     0B1A  1703               	bsf	3,6	;RP1=1, select bank3
  3901     0B1B  0825               	movf	(_pow$1075+2)^(0+384),w
  3902     0B1C  1683               	bsf	3,5	;RP0=1, select bank1
  3903     0B1D  1303               	bcf	3,6	;RP1=0, select bank1
  3904     0B1E  00EA               	movwf	(exp@x+2)^(0+128)
  3905     0B1F  1683               	bsf	3,5	;RP0=1, select bank3
  3906     0B20  1703               	bsf	3,6	;RP1=1, select bank3
  3907     0B21  0824               	movf	(_pow$1075+1)^(0+384),w
  3908     0B22  1683               	bsf	3,5	;RP0=1, select bank1
  3909     0B23  1303               	bcf	3,6	;RP1=0, select bank1
  3910     0B24  00E9               	movwf	(exp@x+1)^(0+128)
  3911     0B25  1683               	bsf	3,5	;RP0=1, select bank3
  3912     0B26  1703               	bsf	3,6	;RP1=1, select bank3
  3913     0B27  0823               	movf	_pow$1075^(0+384),w
  3914     0B28  1683               	bsf	3,5	;RP0=1, select bank1
  3915     0B29  1303               	bcf	3,6	;RP1=0, select bank1
  3916     0B2A  00E8               	movwf	exp@x^(0+128)
  3917     0B2B  120A  158A  2366  120A  158A  	fcall	_exp
  3918     0B30  1683               	bsf	3,5	;RP0=1, select bank1
  3919     0B31  1303               	bcf	3,6	;RP1=0, select bank1
  3920     0B32  086B               	movf	(?_exp+3)^(0+128),w
  3921     0B33  1683               	bsf	3,5	;RP0=1, select bank3
  3922     0B34  1703               	bsf	3,6	;RP1=1, select bank3
  3923     0B35  009A               	movwf	(pow@x+3)^(0+384)
  3924     0B36  1683               	bsf	3,5	;RP0=1, select bank1
  3925     0B37  1303               	bcf	3,6	;RP1=0, select bank1
  3926     0B38  086A               	movf	(?_exp+2)^(0+128),w
  3927     0B39  1683               	bsf	3,5	;RP0=1, select bank3
  3928     0B3A  1703               	bsf	3,6	;RP1=1, select bank3
  3929     0B3B  0099               	movwf	(pow@x+2)^(0+384)
  3930     0B3C  1683               	bsf	3,5	;RP0=1, select bank1
  3931     0B3D  1303               	bcf	3,6	;RP1=0, select bank1
  3932     0B3E  0869               	movf	(?_exp+1)^(0+128),w
  3933     0B3F  1683               	bsf	3,5	;RP0=1, select bank3
  3934     0B40  1703               	bsf	3,6	;RP1=1, select bank3
  3935     0B41  0098               	movwf	(pow@x+1)^(0+384)
  3936     0B42  1683               	bsf	3,5	;RP0=1, select bank1
  3937     0B43  1303               	bcf	3,6	;RP1=0, select bank1
  3938     0B44  0868               	movf	?_exp^(0+128),w
  3939     0B45  1683               	bsf	3,5	;RP0=1, select bank3
  3940     0B46  1703               	bsf	3,6	;RP1=1, select bank3
  3941     0B47  0097               	movwf	pow@x^(0+384)
  3942     0B48                     l3895:
  3943     0B48  0827               	movf	pow@sign^(0+384),w
  3944     0B49  1903               	btfsc	3,2
  3945     0B4A  2B4C               	goto	u5851
  3946     0B4B  2B4D               	goto	u5850
  3947     0B4C                     u5851:
  3948     0B4C  2B65               	goto	l751
  3949     0B4D                     u5850:
  3950     0B4D                     l3897:
  3951     0B4D  081A               	movf	(pow@x+3)^(0+384),w
  3952     0B4E  00F5               	movwf	___flneg@f1+3
  3953     0B4F  0819               	movf	(pow@x+2)^(0+384),w
  3954     0B50  00F4               	movwf	___flneg@f1+2
  3955     0B51  0818               	movf	(pow@x+1)^(0+384),w
  3956     0B52  00F3               	movwf	___flneg@f1+1
  3957     0B53  0817               	movf	pow@x^(0+384),w
  3958     0B54  00F2               	movwf	___flneg@f1
  3959     0B55  160A  158A  245E  120A  158A  	fcall	___flneg
  3960     0B5A  0875               	movf	?___flneg+3,w
  3961     0B5B  1683               	bsf	3,5	;RP0=1, select bank3
  3962     0B5C  1703               	bsf	3,6	;RP1=1, select bank3
  3963     0B5D  009A               	movwf	(?_pow+3)^(0+384)
  3964     0B5E  0874               	movf	?___flneg+2,w
  3965     0B5F  0099               	movwf	(?_pow+2)^(0+384)
  3966     0B60  0873               	movf	?___flneg+1,w
  3967     0B61  0098               	movwf	(?_pow+1)^(0+384)
  3968     0B62  0872               	movf	?___flneg,w
  3969     0B63  0097               	movwf	?_pow^(0+384)
  3970     0B64  2B65               	goto	l747
  3971     0B65                     l751:
  3972     0B65                     l747:
  3973     0B65  0008               	return
  3974     0B66                     __end_of_pow:
  3975                           
  3976                           	psect	text14
  3977     0B66                     __ptext14:	
  3978 ;; *************** function _exp *****************
  3979 ;; Defined at:
  3980 ;;		line 12 in file "C:\Program Files\Microchip\xc8\v2.41\pic\sources\c90\common\exp.c"
  3981 ;; Parameters:    Size  Location     Type
  3982 ;;  x               4   72[BANK1 ] unsigned char 
  3983 ;; Auto vars:     Size  Location     Type
  3984 ;;  exponent        2    4[BANK3 ] int 
  3985 ;;  sign            1    6[BANK3 ] unsigned char 
  3986 ;; Return value:  Size  Location     Type
  3987 ;;                  4   72[BANK1 ] unsigned char 
  3988 ;; Registers used:
  3989 ;;		wreg, fsr0l, fsr0h, status,2, status,0, btemp+1, pclath, cstack
  3990 ;; Tracked objects:
  3991 ;;		On entry : 0/0
  3992 ;;		On exit  : 0/0
  3993 ;;		Unchanged: 0/0
  3994 ;; Data sizes:     COMMON   BANK0   BANK1   BANK3   BANK2
  3995 ;;      Params:         0       0       4       0       0
  3996 ;;      Locals:         0       0       0       7       0
  3997 ;;      Temps:          0       0       0       0       0
  3998 ;;      Totals:         0       0       4       7       0
  3999 ;;Total ram usage:       11 bytes
  4000 ;; Hardware stack levels used: 1
  4001 ;; Hardware stack levels required when called: 4
  4002 ;; This function calls:
  4003 ;;		___fldiv
  4004 ;;		___fleq
  4005 ;;		___flge
  4006 ;;		___flmul
  4007 ;;		___flneg
  4008 ;;		___flsub
  4009 ;;		___fltol
  4010 ;;		___xxtofl
  4011 ;;		_eval_poly
  4012 ;;		_floor
  4013 ;;		_ldexp
  4014 ;; This function is called by:
  4015 ;;		_pow
  4016 ;; This function uses a non-reentrant model
  4017 ;;
  4018                           
  4019     0B66                     _exp:	
  4020                           ;psect for function _exp
  4021                           
  4022     0B66                     l3801:	
  4023                           ;incstack = 0
  4024                           ; Regs used in _exp: [wreg-fsr0h+status,2+status,0+btemp+1+pclath+cstack]
  4025                           
  4026     0B66  1683               	bsf	3,5	;RP0=1, select bank1
  4027     0B67  1303               	bcf	3,6	;RP1=0, select bank1
  4028     0B68  086B               	movf	(exp@x+3)^(0+128),w
  4029     0B69  1283               	bcf	3,5	;RP0=0, select bank0
  4030     0B6A  1303               	bcf	3,6	;RP1=0, select bank0
  4031     0B6B  00B9               	movwf	___fleq@ff1+3
  4032     0B6C  1683               	bsf	3,5	;RP0=1, select bank1
  4033     0B6D  1303               	bcf	3,6	;RP1=0, select bank1
  4034     0B6E  086A               	movf	(exp@x+2)^(0+128),w
  4035     0B6F  1283               	bcf	3,5	;RP0=0, select bank0
  4036     0B70  1303               	bcf	3,6	;RP1=0, select bank0
  4037     0B71  00B8               	movwf	___fleq@ff1+2
  4038     0B72  1683               	bsf	3,5	;RP0=1, select bank1
  4039     0B73  1303               	bcf	3,6	;RP1=0, select bank1
  4040     0B74  0869               	movf	(exp@x+1)^(0+128),w
  4041     0B75  1283               	bcf	3,5	;RP0=0, select bank0
  4042     0B76  1303               	bcf	3,6	;RP1=0, select bank0
  4043     0B77  00B7               	movwf	___fleq@ff1+1
  4044     0B78  1683               	bsf	3,5	;RP0=1, select bank1
  4045     0B79  1303               	bcf	3,6	;RP1=0, select bank1
  4046     0B7A  0868               	movf	exp@x^(0+128),w
  4047     0B7B  1283               	bcf	3,5	;RP0=0, select bank0
  4048     0B7C  1303               	bcf	3,6	;RP1=0, select bank0
  4049     0B7D  00B6               	movwf	___fleq@ff1
  4050     0B7E  3000               	movlw	0
  4051     0B7F  00BD               	movwf	___fleq@ff2+3
  4052     0B80  3000               	movlw	0
  4053     0B81  00BC               	movwf	___fleq@ff2+2
  4054     0B82  3000               	movlw	0
  4055     0B83  00BB               	movwf	___fleq@ff2+1
  4056     0B84  3000               	movlw	0
  4057     0B85  00BA               	movwf	___fleq@ff2
  4058     0B86  160A  158A  26AE  120A  158A  	fcall	___fleq
  4059     0B8B  1C03               	btfss	3,0
  4060     0B8C  2B8E               	goto	u5721
  4061     0B8D  2B8F               	goto	u5720
  4062     0B8E                     u5721:
  4063     0B8E  2B9A               	goto	l3807
  4064     0B8F                     u5720:
  4065     0B8F                     l3803:
  4066     0B8F  303F               	movlw	63
  4067     0B90  1683               	bsf	3,5	;RP0=1, select bank1
  4068     0B91  1303               	bcf	3,6	;RP1=0, select bank1
  4069     0B92  00EB               	movwf	(?_exp+3)^(0+128)
  4070     0B93  3080               	movlw	128
  4071     0B94  00EA               	movwf	(?_exp+2)^(0+128)
  4072     0B95  3000               	movlw	0
  4073     0B96  00E9               	movwf	(?_exp+1)^(0+128)
  4074     0B97  3000               	movlw	0
  4075     0B98  00E8               	movwf	?_exp^(0+128)
  4076     0B99  2D80               	goto	l765
  4077     0B9A                     l3807:
  4078     0B9A  3044               	movlw	68
  4079     0B9B  00F5               	movwf	___flge@ff1+3
  4080     0B9C  3031               	movlw	49
  4081     0B9D  00F4               	movwf	___flge@ff1+2
  4082     0B9E  3072               	movlw	114
  4083     0B9F  00F3               	movwf	___flge@ff1+1
  4084     0BA0  3018               	movlw	24
  4085     0BA1  00F2               	movwf	___flge@ff1
  4086     0BA2  1683               	bsf	3,5	;RP0=1, select bank1
  4087     0BA3  1303               	bcf	3,6	;RP1=0, select bank1
  4088     0BA4  086B               	movf	(exp@x+3)^(0+128),w
  4089     0BA5  00F9               	movwf	___flge@ff2+3
  4090     0BA6  086A               	movf	(exp@x+2)^(0+128),w
  4091     0BA7  00F8               	movwf	___flge@ff2+2
  4092     0BA8  0869               	movf	(exp@x+1)^(0+128),w
  4093     0BA9  00F7               	movwf	___flge@ff2+1
  4094     0BAA  0868               	movf	exp@x^(0+128),w
  4095     0BAB  00F6               	movwf	___flge@ff2
  4096     0BAC  160A  118A  2275  120A  158A  	fcall	___flge
  4097     0BB1  1803               	btfsc	3,0
  4098     0BB2  2BB4               	goto	u5731
  4099     0BB3  2BB5               	goto	u5730
  4100     0BB4                     u5731:
  4101     0BB4  2BC6               	goto	l3813
  4102     0BB5                     u5730:
  4103     0BB5                     l3809:
  4104     0BB5  3022               	movlw	34
  4105     0BB6  1683               	bsf	3,5	;RP0=1, select bank3
  4106     0BB7  1703               	bsf	3,6	;RP1=1, select bank3
  4107     0BB8  00E1               	movwf	_errno^(0+384)
  4108     0BB9  3000               	movlw	0
  4109     0BBA  00E2               	movwf	(_errno^(0+384)+1)
  4110     0BBB  307F               	movlw	127
  4111     0BBC  1683               	bsf	3,5	;RP0=1, select bank1
  4112     0BBD  1303               	bcf	3,6	;RP1=0, select bank1
  4113     0BBE  00EB               	movwf	(?_exp+3)^(0+128)
  4114     0BBF  307F               	movlw	127
  4115     0BC0  00EA               	movwf	(?_exp+2)^(0+128)
  4116     0BC1  30FF               	movlw	255
  4117     0BC2  00E9               	movwf	(?_exp+1)^(0+128)
  4118     0BC3  30FF               	movlw	255
  4119     0BC4  00E8               	movwf	?_exp^(0+128)
  4120     0BC5  2D80               	goto	l765
  4121     0BC6                     l3813:
  4122     0BC6  1683               	bsf	3,5	;RP0=1, select bank1
  4123     0BC7  1303               	bcf	3,6	;RP1=0, select bank1
  4124     0BC8  086B               	movf	(exp@x+3)^(0+128),w
  4125     0BC9  00F5               	movwf	___flge@ff1+3
  4126     0BCA  086A               	movf	(exp@x+2)^(0+128),w
  4127     0BCB  00F4               	movwf	___flge@ff1+2
  4128     0BCC  0869               	movf	(exp@x+1)^(0+128),w
  4129     0BCD  00F3               	movwf	___flge@ff1+1
  4130     0BCE  0868               	movf	exp@x^(0+128),w
  4131     0BCF  00F2               	movwf	___flge@ff1
  4132     0BD0  30C4               	movlw	196
  4133     0BD1  00F9               	movwf	___flge@ff2+3
  4134     0BD2  303A               	movlw	58
  4135     0BD3  00F8               	movwf	___flge@ff2+2
  4136     0BD4  3048               	movlw	72
  4137     0BD5  00F7               	movwf	___flge@ff2+1
  4138     0BD6  3087               	movlw	135
  4139     0BD7  00F6               	movwf	___flge@ff2
  4140     0BD8  160A  118A  2275  120A  158A  	fcall	___flge
  4141     0BDD  1803               	btfsc	3,0
  4142     0BDE  2BE0               	goto	u5741
  4143     0BDF  2BE1               	goto	u5740
  4144     0BE0                     u5741:
  4145     0BE0  2BF2               	goto	l3819
  4146     0BE1                     u5740:
  4147     0BE1                     l3815:
  4148     0BE1  3022               	movlw	34
  4149     0BE2  1683               	bsf	3,5	;RP0=1, select bank3
  4150     0BE3  1703               	bsf	3,6	;RP1=1, select bank3
  4151     0BE4  00E1               	movwf	_errno^(0+384)
  4152     0BE5  3000               	movlw	0
  4153     0BE6  00E2               	movwf	(_errno^(0+384)+1)
  4154     0BE7  3000               	movlw	0
  4155     0BE8  1683               	bsf	3,5	;RP0=1, select bank1
  4156     0BE9  1303               	bcf	3,6	;RP1=0, select bank1
  4157     0BEA  00EB               	movwf	(?_exp+3)^(0+128)
  4158     0BEB  3000               	movlw	0
  4159     0BEC  00EA               	movwf	(?_exp+2)^(0+128)
  4160     0BED  3000               	movlw	0
  4161     0BEE  00E9               	movwf	(?_exp+1)^(0+128)
  4162     0BEF  3000               	movlw	0
  4163     0BF0  00E8               	movwf	?_exp^(0+128)
  4164     0BF1  2D80               	goto	l765
  4165     0BF2                     l3819:
  4166     0BF2  1683               	bsf	3,5	;RP0=1, select bank1
  4167     0BF3  1303               	bcf	3,6	;RP1=0, select bank1
  4168     0BF4  086B               	movf	(exp@x+3)^(0+128),w
  4169     0BF5  00F5               	movwf	___flge@ff1+3
  4170     0BF6  086A               	movf	(exp@x+2)^(0+128),w
  4171     0BF7  00F4               	movwf	___flge@ff1+2
  4172     0BF8  0869               	movf	(exp@x+1)^(0+128),w
  4173     0BF9  00F3               	movwf	___flge@ff1+1
  4174     0BFA  0868               	movf	exp@x^(0+128),w
  4175     0BFB  00F2               	movwf	___flge@ff1
  4176     0BFC  3000               	movlw	0
  4177     0BFD  00F9               	movwf	___flge@ff2+3
  4178     0BFE  3000               	movlw	0
  4179     0BFF  00F8               	movwf	___flge@ff2+2
  4180     0C00  3000               	movlw	0
  4181     0C01  00F7               	movwf	___flge@ff2+1
  4182     0C02  3000               	movlw	0
  4183     0C03  00F6               	movwf	___flge@ff2
  4184     0C04  160A  118A  2275  120A  158A  	fcall	___flge
  4185     0C09  1C03               	btfss	3,0
  4186     0C0A  2C0C               	goto	u5751
  4187     0C0B  2C0E               	goto	u5750
  4188     0C0C                     u5751:
  4189     0C0C  3001               	movlw	1
  4190     0C0D  2C0F               	goto	u5760
  4191     0C0E                     u5750:
  4192     0C0E  3000               	movlw	0
  4193     0C0F                     u5760:
  4194     0C0F  1683               	bsf	3,5	;RP0=1, select bank3
  4195     0C10  1703               	bsf	3,6	;RP1=1, select bank3
  4196     0C11  0096               	movwf	exp@sign^(0+384)
  4197     0C12                     l3821:
  4198     0C12  0816               	movf	exp@sign^(0+384),w
  4199     0C13  1903               	btfsc	3,2
  4200     0C14  2C16               	goto	u5771
  4201     0C15  2C17               	goto	u5770
  4202     0C16                     u5771:
  4203     0C16  2C30               	goto	l3825
  4204     0C17                     u5770:
  4205     0C17                     l3823:
  4206     0C17  1683               	bsf	3,5	;RP0=1, select bank1
  4207     0C18  1303               	bcf	3,6	;RP1=0, select bank1
  4208     0C19  086B               	movf	(exp@x+3)^(0+128),w
  4209     0C1A  00F5               	movwf	___flneg@f1+3
  4210     0C1B  086A               	movf	(exp@x+2)^(0+128),w
  4211     0C1C  00F4               	movwf	___flneg@f1+2
  4212     0C1D  0869               	movf	(exp@x+1)^(0+128),w
  4213     0C1E  00F3               	movwf	___flneg@f1+1
  4214     0C1F  0868               	movf	exp@x^(0+128),w
  4215     0C20  00F2               	movwf	___flneg@f1
  4216     0C21  160A  158A  245E  120A  158A  	fcall	___flneg
  4217     0C26  0875               	movf	?___flneg+3,w
  4218     0C27  1683               	bsf	3,5	;RP0=1, select bank1
  4219     0C28  1303               	bcf	3,6	;RP1=0, select bank1
  4220     0C29  00EB               	movwf	(exp@x+3)^(0+128)
  4221     0C2A  0874               	movf	?___flneg+2,w
  4222     0C2B  00EA               	movwf	(exp@x+2)^(0+128)
  4223     0C2C  0873               	movf	?___flneg+1,w
  4224     0C2D  00E9               	movwf	(exp@x+1)^(0+128)
  4225     0C2E  0872               	movf	?___flneg,w
  4226     0C2F  00E8               	movwf	exp@x^(0+128)
  4227     0C30                     l3825:
  4228     0C30  303F               	movlw	63
  4229     0C31  1283               	bcf	3,5	;RP0=0, select bank0
  4230     0C32  1303               	bcf	3,6	;RP1=0, select bank0
  4231     0C33  00CC               	movwf	___flmul@b+3
  4232     0C34  30B8               	movlw	184
  4233     0C35  00CB               	movwf	___flmul@b+2
  4234     0C36  30AA               	movlw	170
  4235     0C37  00CA               	movwf	___flmul@b+1
  4236     0C38  303B               	movlw	59
  4237     0C39  00C9               	movwf	___flmul@b
  4238     0C3A  1683               	bsf	3,5	;RP0=1, select bank1
  4239     0C3B  1303               	bcf	3,6	;RP1=0, select bank1
  4240     0C3C  086B               	movf	(exp@x+3)^(0+128),w
  4241     0C3D  1283               	bcf	3,5	;RP0=0, select bank0
  4242     0C3E  1303               	bcf	3,6	;RP1=0, select bank0
  4243     0C3F  00D0               	movwf	___flmul@a+3
  4244     0C40  1683               	bsf	3,5	;RP0=1, select bank1
  4245     0C41  1303               	bcf	3,6	;RP1=0, select bank1
  4246     0C42  086A               	movf	(exp@x+2)^(0+128),w
  4247     0C43  1283               	bcf	3,5	;RP0=0, select bank0
  4248     0C44  1303               	bcf	3,6	;RP1=0, select bank0
  4249     0C45  00CF               	movwf	___flmul@a+2
  4250     0C46  1683               	bsf	3,5	;RP0=1, select bank1
  4251     0C47  1303               	bcf	3,6	;RP1=0, select bank1
  4252     0C48  0869               	movf	(exp@x+1)^(0+128),w
  4253     0C49  1283               	bcf	3,5	;RP0=0, select bank0
  4254     0C4A  1303               	bcf	3,6	;RP1=0, select bank0
  4255     0C4B  00CE               	movwf	___flmul@a+1
  4256     0C4C  1683               	bsf	3,5	;RP0=1, select bank1
  4257     0C4D  1303               	bcf	3,6	;RP1=0, select bank1
  4258     0C4E  0868               	movf	exp@x^(0+128),w
  4259     0C4F  1283               	bcf	3,5	;RP0=0, select bank0
  4260     0C50  1303               	bcf	3,6	;RP1=0, select bank0
  4261     0C51  00CD               	movwf	___flmul@a
  4262     0C52  120A  118A  2039  120A  158A  	fcall	___flmul
  4263     0C57  1283               	bcf	3,5	;RP0=0, select bank0
  4264     0C58  1303               	bcf	3,6	;RP1=0, select bank0
  4265     0C59  084C               	movf	?___flmul+3,w
  4266     0C5A  1683               	bsf	3,5	;RP0=1, select bank1
  4267     0C5B  1303               	bcf	3,6	;RP1=0, select bank1
  4268     0C5C  00EB               	movwf	(exp@x+3)^(0+128)
  4269     0C5D  1283               	bcf	3,5	;RP0=0, select bank0
  4270     0C5E  1303               	bcf	3,6	;RP1=0, select bank0
  4271     0C5F  084B               	movf	?___flmul+2,w
  4272     0C60  1683               	bsf	3,5	;RP0=1, select bank1
  4273     0C61  1303               	bcf	3,6	;RP1=0, select bank1
  4274     0C62  00EA               	movwf	(exp@x+2)^(0+128)
  4275     0C63  1283               	bcf	3,5	;RP0=0, select bank0
  4276     0C64  1303               	bcf	3,6	;RP1=0, select bank0
  4277     0C65  084A               	movf	?___flmul+1,w
  4278     0C66  1683               	bsf	3,5	;RP0=1, select bank1
  4279     0C67  1303               	bcf	3,6	;RP1=0, select bank1
  4280     0C68  00E9               	movwf	(exp@x+1)^(0+128)
  4281     0C69  1283               	bcf	3,5	;RP0=0, select bank0
  4282     0C6A  1303               	bcf	3,6	;RP1=0, select bank0
  4283     0C6B  0849               	movf	?___flmul,w
  4284     0C6C  1683               	bsf	3,5	;RP0=1, select bank1
  4285     0C6D  1303               	bcf	3,6	;RP1=0, select bank1
  4286     0C6E  00E8               	movwf	exp@x^(0+128)
  4287     0C6F                     l3827:
  4288     0C6F  086B               	movf	(exp@x+3)^(0+128),w
  4289     0C70  00AB               	movwf	(floor@x+3)^(0+128)
  4290     0C71  086A               	movf	(exp@x+2)^(0+128),w
  4291     0C72  00AA               	movwf	(floor@x+2)^(0+128)
  4292     0C73  0869               	movf	(exp@x+1)^(0+128),w
  4293     0C74  00A9               	movwf	(floor@x+1)^(0+128)
  4294     0C75  0868               	movf	exp@x^(0+128),w
  4295     0C76  00A8               	movwf	floor@x^(0+128)
  4296     0C77  120A  158A  206E  120A  158A  	fcall	_floor
  4297     0C7C  1683               	bsf	3,5	;RP0=1, select bank1
  4298     0C7D  1303               	bcf	3,6	;RP1=0, select bank1
  4299     0C7E  082B               	movf	(?_floor+3)^(0+128),w
  4300     0C7F  1683               	bsf	3,5	;RP0=1, select bank3
  4301     0C80  1703               	bsf	3,6	;RP1=1, select bank3
  4302     0C81  0093               	movwf	(_exp$1076+3)^(0+384)
  4303     0C82  1683               	bsf	3,5	;RP0=1, select bank1
  4304     0C83  1303               	bcf	3,6	;RP1=0, select bank1
  4305     0C84  082A               	movf	(?_floor+2)^(0+128),w
  4306     0C85  1683               	bsf	3,5	;RP0=1, select bank3
  4307     0C86  1703               	bsf	3,6	;RP1=1, select bank3
  4308     0C87  0092               	movwf	(_exp$1076+2)^(0+384)
  4309     0C88  1683               	bsf	3,5	;RP0=1, select bank1
  4310     0C89  1303               	bcf	3,6	;RP1=0, select bank1
  4311     0C8A  0829               	movf	(?_floor+1)^(0+128),w
  4312     0C8B  1683               	bsf	3,5	;RP0=1, select bank3
  4313     0C8C  1703               	bsf	3,6	;RP1=1, select bank3
  4314     0C8D  0091               	movwf	(_exp$1076+1)^(0+384)
  4315     0C8E  1683               	bsf	3,5	;RP0=1, select bank1
  4316     0C8F  1303               	bcf	3,6	;RP1=0, select bank1
  4317     0C90  0828               	movf	?_floor^(0+128),w
  4318     0C91  1683               	bsf	3,5	;RP0=1, select bank3
  4319     0C92  1703               	bsf	3,6	;RP1=1, select bank3
  4320     0C93  0090               	movwf	_exp$1076^(0+384)
  4321     0C94                     l3829:
  4322     0C94  0813               	movf	(_exp$1076+3)^(0+384),w
  4323     0C95  00F5               	movwf	___fltol@f1+3
  4324     0C96  0812               	movf	(_exp$1076+2)^(0+384),w
  4325     0C97  00F4               	movwf	___fltol@f1+2
  4326     0C98  0811               	movf	(_exp$1076+1)^(0+384),w
  4327     0C99  00F3               	movwf	___fltol@f1+1
  4328     0C9A  0810               	movf	_exp$1076^(0+384),w
  4329     0C9B  00F2               	movwf	___fltol@f1
  4330     0C9C  160A  118A  2165  120A  158A  	fcall	___fltol
  4331     0CA1  0873               	movf	?___fltol+1,w
  4332     0CA2  1683               	bsf	3,5	;RP0=1, select bank3
  4333     0CA3  1703               	bsf	3,6	;RP1=1, select bank3
  4334     0CA4  0095               	movwf	(exp@exponent+1)^(0+384)
  4335     0CA5  0872               	movf	?___fltol,w
  4336     0CA6  0094               	movwf	exp@exponent^(0+384)
  4337     0CA7                     l3831:
  4338     0CA7  0814               	movf	exp@exponent^(0+384),w
  4339     0CA8  1283               	bcf	3,5	;RP0=0, select bank0
  4340     0CA9  1303               	bcf	3,6	;RP1=0, select bank0
  4341     0CAA  00A8               	movwf	___xxtofl@val
  4342     0CAB  1683               	bsf	3,5	;RP0=1, select bank3
  4343     0CAC  1703               	bsf	3,6	;RP1=1, select bank3
  4344     0CAD  0815               	movf	(exp@exponent+1)^(0+384),w
  4345     0CAE  1283               	bcf	3,5	;RP0=0, select bank0
  4346     0CAF  1303               	bcf	3,6	;RP1=0, select bank0
  4347     0CB0  00A9               	movwf	___xxtofl@val+1
  4348     0CB1  3000               	movlw	0
  4349     0CB2  1BA9               	btfsc	___xxtofl@val+1,7
  4350     0CB3  30FF               	movlw	255
  4351     0CB4  00AA               	movwf	___xxtofl@val+2
  4352     0CB5  00AB               	movwf	___xxtofl@val+3
  4353     0CB6  3001               	movlw	1
  4354     0CB7  160A  118A  2319  120A  158A  	fcall	___xxtofl
  4355     0CBC  1283               	bcf	3,5	;RP0=0, select bank0
  4356     0CBD  1303               	bcf	3,6	;RP1=0, select bank0
  4357     0CBE  082B               	movf	?___xxtofl+3,w
  4358     0CBF  1683               	bsf	3,5	;RP0=1, select bank1
  4359     0CC0  1303               	bcf	3,6	;RP1=0, select bank1
  4360     0CC1  00C9               	movwf	(___flsub@a+3)^(0+128)
  4361     0CC2  1283               	bcf	3,5	;RP0=0, select bank0
  4362     0CC3  1303               	bcf	3,6	;RP1=0, select bank0
  4363     0CC4  082A               	movf	?___xxtofl+2,w
  4364     0CC5  1683               	bsf	3,5	;RP0=1, select bank1
  4365     0CC6  1303               	bcf	3,6	;RP1=0, select bank1
  4366     0CC7  00C8               	movwf	(___flsub@a+2)^(0+128)
  4367     0CC8  1283               	bcf	3,5	;RP0=0, select bank0
  4368     0CC9  1303               	bcf	3,6	;RP1=0, select bank0
  4369     0CCA  0829               	movf	?___xxtofl+1,w
  4370     0CCB  1683               	bsf	3,5	;RP0=1, select bank1
  4371     0CCC  1303               	bcf	3,6	;RP1=0, select bank1
  4372     0CCD  00C7               	movwf	(___flsub@a+1)^(0+128)
  4373     0CCE  1283               	bcf	3,5	;RP0=0, select bank0
  4374     0CCF  1303               	bcf	3,6	;RP1=0, select bank0
  4375     0CD0  0828               	movf	?___xxtofl,w
  4376     0CD1  1683               	bsf	3,5	;RP0=1, select bank1
  4377     0CD2  1303               	bcf	3,6	;RP1=0, select bank1
  4378     0CD3  00C6               	movwf	___flsub@a^(0+128)
  4379     0CD4  086B               	movf	(exp@x+3)^(0+128),w
  4380     0CD5  00CD               	movwf	(___flsub@b+3)^(0+128)
  4381     0CD6  086A               	movf	(exp@x+2)^(0+128),w
  4382     0CD7  00CC               	movwf	(___flsub@b+2)^(0+128)
  4383     0CD8  0869               	movf	(exp@x+1)^(0+128),w
  4384     0CD9  00CB               	movwf	(___flsub@b+1)^(0+128)
  4385     0CDA  0868               	movf	exp@x^(0+128),w
  4386     0CDB  00CA               	movwf	___flsub@b^(0+128)
  4387     0CDC  160A  158A  26FE  120A  158A  	fcall	___flsub
  4388     0CE1  1683               	bsf	3,5	;RP0=1, select bank1
  4389     0CE2  1303               	bcf	3,6	;RP1=0, select bank1
  4390     0CE3  0849               	movf	(?___flsub+3)^(0+128),w
  4391     0CE4  00EB               	movwf	(exp@x+3)^(0+128)
  4392     0CE5  0848               	movf	(?___flsub+2)^(0+128),w
  4393     0CE6  00EA               	movwf	(exp@x+2)^(0+128)
  4394     0CE7  0847               	movf	(?___flsub+1)^(0+128),w
  4395     0CE8  00E9               	movwf	(exp@x+1)^(0+128)
  4396     0CE9  0846               	movf	?___flsub^(0+128),w
  4397     0CEA  00E8               	movwf	exp@x^(0+128)
  4398     0CEB                     l3833:
  4399     0CEB  086B               	movf	(exp@x+3)^(0+128),w
  4400     0CEC  00AB               	movwf	(eval_poly@x+3)^(0+128)
  4401     0CED  086A               	movf	(exp@x+2)^(0+128),w
  4402     0CEE  00AA               	movwf	(eval_poly@x+2)^(0+128)
  4403     0CEF  0869               	movf	(exp@x+1)^(0+128),w
  4404     0CF0  00A9               	movwf	(eval_poly@x+1)^(0+128)
  4405     0CF1  0868               	movf	exp@x^(0+128),w
  4406     0CF2  00A8               	movwf	eval_poly@x^(0+128)
  4407     0CF3  3001               	movlw	(low ((exp@coeff-__stringbase)| (0+32768)))& (0+255)
  4408     0CF4  00AC               	movwf	eval_poly@d^(0+128)
  4409     0CF5  3009               	movlw	9
  4410     0CF6  00AD               	movwf	eval_poly@n^(0+128)
  4411     0CF7  3000               	movlw	0
  4412     0CF8  00AE               	movwf	(eval_poly@n^(0+128)+1)
  4413     0CF9  160A  118A  2557  120A  158A  	fcall	_eval_poly
  4414     0CFE  1683               	bsf	3,5	;RP0=1, select bank1
  4415     0CFF  1303               	bcf	3,6	;RP1=0, select bank1
  4416     0D00  082B               	movf	(?_eval_poly+3)^(0+128),w
  4417     0D01  00BB               	movwf	(ldexp@value+3)^(0+128)
  4418     0D02  082A               	movf	(?_eval_poly+2)^(0+128),w
  4419     0D03  00BA               	movwf	(ldexp@value+2)^(0+128)
  4420     0D04  0829               	movf	(?_eval_poly+1)^(0+128),w
  4421     0D05  00B9               	movwf	(ldexp@value+1)^(0+128)
  4422     0D06  0828               	movf	?_eval_poly^(0+128),w
  4423     0D07  00B8               	movwf	ldexp@value^(0+128)
  4424     0D08  1683               	bsf	3,5	;RP0=1, select bank3
  4425     0D09  1703               	bsf	3,6	;RP1=1, select bank3
  4426     0D0A  0815               	movf	(exp@exponent+1)^(0+384),w
  4427     0D0B  1683               	bsf	3,5	;RP0=1, select bank1
  4428     0D0C  1303               	bcf	3,6	;RP1=0, select bank1
  4429     0D0D  00BD               	movwf	(ldexp@newexp+1)^(0+128)
  4430     0D0E  1683               	bsf	3,5	;RP0=1, select bank3
  4431     0D0F  1703               	bsf	3,6	;RP1=1, select bank3
  4432     0D10  0814               	movf	exp@exponent^(0+384),w
  4433     0D11  1683               	bsf	3,5	;RP0=1, select bank1
  4434     0D12  1303               	bcf	3,6	;RP1=0, select bank1
  4435     0D13  00BC               	movwf	ldexp@newexp^(0+128)
  4436     0D14  160A  118A  23D3  120A  158A  	fcall	_ldexp
  4437     0D19  1683               	bsf	3,5	;RP0=1, select bank1
  4438     0D1A  1303               	bcf	3,6	;RP1=0, select bank1
  4439     0D1B  083B               	movf	(?_ldexp+3)^(0+128),w
  4440     0D1C  00EB               	movwf	(exp@x+3)^(0+128)
  4441     0D1D  083A               	movf	(?_ldexp+2)^(0+128),w
  4442     0D1E  00EA               	movwf	(exp@x+2)^(0+128)
  4443     0D1F  0839               	movf	(?_ldexp+1)^(0+128),w
  4444     0D20  00E9               	movwf	(exp@x+1)^(0+128)
  4445     0D21  0838               	movf	?_ldexp^(0+128),w
  4446     0D22  00E8               	movwf	exp@x^(0+128)
  4447     0D23                     l3835:
  4448     0D23  1683               	bsf	3,5	;RP0=1, select bank3
  4449     0D24  1703               	bsf	3,6	;RP1=1, select bank3
  4450     0D25  0816               	movf	exp@sign^(0+384),w
  4451     0D26  1903               	btfsc	3,2
  4452     0D27  2D29               	goto	u5781
  4453     0D28  2D2A               	goto	u5780
  4454     0D29                     u5781:
  4455     0D29  2D80               	goto	l769
  4456     0D2A                     u5780:
  4457     0D2A                     l3837:
  4458     0D2A  1683               	bsf	3,5	;RP0=1, select bank1
  4459     0D2B  1303               	bcf	3,6	;RP1=0, select bank1
  4460     0D2C  086B               	movf	(exp@x+3)^(0+128),w
  4461     0D2D  1283               	bcf	3,5	;RP0=0, select bank0
  4462     0D2E  1303               	bcf	3,6	;RP1=0, select bank0
  4463     0D2F  00B9               	movwf	___fleq@ff1+3
  4464     0D30  1683               	bsf	3,5	;RP0=1, select bank1
  4465     0D31  1303               	bcf	3,6	;RP1=0, select bank1
  4466     0D32  086A               	movf	(exp@x+2)^(0+128),w
  4467     0D33  1283               	bcf	3,5	;RP0=0, select bank0
  4468     0D34  1303               	bcf	3,6	;RP1=0, select bank0
  4469     0D35  00B8               	movwf	___fleq@ff1+2
  4470     0D36  1683               	bsf	3,5	;RP0=1, select bank1
  4471     0D37  1303               	bcf	3,6	;RP1=0, select bank1
  4472     0D38  0869               	movf	(exp@x+1)^(0+128),w
  4473     0D39  1283               	bcf	3,5	;RP0=0, select bank0
  4474     0D3A  1303               	bcf	3,6	;RP1=0, select bank0
  4475     0D3B  00B7               	movwf	___fleq@ff1+1
  4476     0D3C  1683               	bsf	3,5	;RP0=1, select bank1
  4477     0D3D  1303               	bcf	3,6	;RP1=0, select bank1
  4478     0D3E  0868               	movf	exp@x^(0+128),w
  4479     0D3F  1283               	bcf	3,5	;RP0=0, select bank0
  4480     0D40  1303               	bcf	3,6	;RP1=0, select bank0
  4481     0D41  00B6               	movwf	___fleq@ff1
  4482     0D42  307F               	movlw	127
  4483     0D43  00BD               	movwf	___fleq@ff2+3
  4484     0D44  307F               	movlw	127
  4485     0D45  00BC               	movwf	___fleq@ff2+2
  4486     0D46  30FF               	movlw	255
  4487     0D47  00BB               	movwf	___fleq@ff2+1
  4488     0D48  30FF               	movlw	255
  4489     0D49  00BA               	movwf	___fleq@ff2
  4490     0D4A  160A  158A  26AE  120A  158A  	fcall	___fleq
  4491     0D4F  1C03               	btfss	3,0
  4492     0D50  2D52               	goto	u5791
  4493     0D51  2D53               	goto	u5790
  4494     0D52                     u5791:
  4495     0D52  2D5E               	goto	l3843
  4496     0D53                     u5790:
  4497     0D53                     l3839:
  4498     0D53  3000               	movlw	0
  4499     0D54  1683               	bsf	3,5	;RP0=1, select bank1
  4500     0D55  1303               	bcf	3,6	;RP1=0, select bank1
  4501     0D56  00EB               	movwf	(?_exp+3)^(0+128)
  4502     0D57  3000               	movlw	0
  4503     0D58  00EA               	movwf	(?_exp+2)^(0+128)
  4504     0D59  3000               	movlw	0
  4505     0D5A  00E9               	movwf	(?_exp+1)^(0+128)
  4506     0D5B  3000               	movlw	0
  4507     0D5C  00E8               	movwf	?_exp^(0+128)
  4508     0D5D  2D80               	goto	l765
  4509     0D5E                     l3843:
  4510     0D5E  1683               	bsf	3,5	;RP0=1, select bank1
  4511     0D5F  1303               	bcf	3,6	;RP1=0, select bank1
  4512     0D60  086B               	movf	(exp@x+3)^(0+128),w
  4513     0D61  00D1               	movwf	(___fldiv@a+3)^(0+128)
  4514     0D62  086A               	movf	(exp@x+2)^(0+128),w
  4515     0D63  00D0               	movwf	(___fldiv@a+2)^(0+128)
  4516     0D64  0869               	movf	(exp@x+1)^(0+128),w
  4517     0D65  00CF               	movwf	(___fldiv@a+1)^(0+128)
  4518     0D66  0868               	movf	exp@x^(0+128),w
  4519     0D67  00CE               	movwf	___fldiv@a^(0+128)
  4520     0D68  303F               	movlw	63
  4521     0D69  00D5               	movwf	(___fldiv@b+3)^(0+128)
  4522     0D6A  3080               	movlw	128
  4523     0D6B  00D4               	movwf	(___fldiv@b+2)^(0+128)
  4524     0D6C  3000               	movlw	0
  4525     0D6D  00D3               	movwf	(___fldiv@b+1)^(0+128)
  4526     0D6E  3000               	movlw	0
  4527     0D6F  00D2               	movwf	___fldiv@b^(0+128)
  4528     0D70  160A  118A  2631  120A  158A  	fcall	___fldiv
  4529     0D75  1683               	bsf	3,5	;RP0=1, select bank1
  4530     0D76  1303               	bcf	3,6	;RP1=0, select bank1
  4531     0D77  0851               	movf	(?___fldiv+3)^(0+128),w
  4532     0D78  00EB               	movwf	(?_exp+3)^(0+128)
  4533     0D79  0850               	movf	(?___fldiv+2)^(0+128),w
  4534     0D7A  00EA               	movwf	(?_exp+2)^(0+128)
  4535     0D7B  084F               	movf	(?___fldiv+1)^(0+128),w
  4536     0D7C  00E9               	movwf	(?_exp+1)^(0+128)
  4537     0D7D  084E               	movf	?___fldiv^(0+128),w
  4538     0D7E  00E8               	movwf	?_exp^(0+128)
  4539     0D7F  2D80               	goto	l765
  4540     0D80                     l769:
  4541     0D80                     l765:
  4542     0D80  0008               	return
  4543     0D81                     __end_of_exp:
  4544                           
  4545                           	psect	text15
  4546     13D3                     __ptext15:	
  4547 ;; *************** function _ldexp *****************
  4548 ;; Defined at:
  4549 ;;		line 277 in file "C:\Program Files\Microchip\xc8\v2.41\pic\sources\c90\common\frexp.c"
  4550 ;; Parameters:    Size  Location     Type
  4551 ;;  value           4   24[BANK1 ] unsigned char 
  4552 ;;  newexp          2   28[BANK1 ] int 
  4553 ;; Auto vars:     Size  Location     Type
  4554 ;;		None
  4555 ;; Return value:  Size  Location     Type
  4556 ;;                  4   24[BANK1 ] int 
  4557 ;; Registers used:
  4558 ;;		wreg, status,2, status,0, btemp+1, pclath, cstack
  4559 ;; Tracked objects:
  4560 ;;		On entry : 0/0
  4561 ;;		On exit  : 0/0
  4562 ;;		Unchanged: 0/0
  4563 ;; Data sizes:     COMMON   BANK0   BANK1   BANK3   BANK2
  4564 ;;      Params:         0       0       6       0       0
  4565 ;;      Locals:         0       0       0       0       0
  4566 ;;      Temps:          0       0       2       0       0
  4567 ;;      Totals:         0       0       8       0       0
  4568 ;;Total ram usage:        8 bytes
  4569 ;; Hardware stack levels used: 1
  4570 ;; Hardware stack levels required when called: 2
  4571 ;; This function calls:
  4572 ;;		___fleq
  4573 ;;		___flge
  4574 ;; This function is called by:
  4575 ;;		_exp
  4576 ;; This function uses a non-reentrant model
  4577 ;;
  4578                           
  4579     13D3                     _ldexp:	
  4580                           ;psect for function _ldexp
  4581                           
  4582     13D3                     l2785:	
  4583                           ;incstack = 0
  4584                           ; Regs used in _ldexp: [wreg+status,2+status,0+btemp+1+pclath+cstack]
  4585                           
  4586     13D3  1683               	bsf	3,5	;RP0=1, select bank1
  4587     13D4  1303               	bcf	3,6	;RP1=0, select bank1
  4588     13D5  083B               	movf	(ldexp@value+3)^(0+128),w
  4589     13D6  1283               	bcf	3,5	;RP0=0, select bank0
  4590     13D7  1303               	bcf	3,6	;RP1=0, select bank0
  4591     13D8  00B9               	movwf	___fleq@ff1+3
  4592     13D9  1683               	bsf	3,5	;RP0=1, select bank1
  4593     13DA  1303               	bcf	3,6	;RP1=0, select bank1
  4594     13DB  083A               	movf	(ldexp@value+2)^(0+128),w
  4595     13DC  1283               	bcf	3,5	;RP0=0, select bank0
  4596     13DD  1303               	bcf	3,6	;RP1=0, select bank0
  4597     13DE  00B8               	movwf	___fleq@ff1+2
  4598     13DF  1683               	bsf	3,5	;RP0=1, select bank1
  4599     13E0  1303               	bcf	3,6	;RP1=0, select bank1
  4600     13E1  0839               	movf	(ldexp@value+1)^(0+128),w
  4601     13E2  1283               	bcf	3,5	;RP0=0, select bank0
  4602     13E3  1303               	bcf	3,6	;RP1=0, select bank0
  4603     13E4  00B7               	movwf	___fleq@ff1+1
  4604     13E5  1683               	bsf	3,5	;RP0=1, select bank1
  4605     13E6  1303               	bcf	3,6	;RP1=0, select bank1
  4606     13E7  0838               	movf	ldexp@value^(0+128),w
  4607     13E8  1283               	bcf	3,5	;RP0=0, select bank0
  4608     13E9  1303               	bcf	3,6	;RP1=0, select bank0
  4609     13EA  00B6               	movwf	___fleq@ff1
  4610     13EB  3000               	movlw	0
  4611     13EC  00BD               	movwf	___fleq@ff2+3
  4612     13ED  3000               	movlw	0
  4613     13EE  00BC               	movwf	___fleq@ff2+2
  4614     13EF  3000               	movlw	0
  4615     13F0  00BB               	movwf	___fleq@ff2+1
  4616     13F1  3000               	movlw	0
  4617     13F2  00BA               	movwf	___fleq@ff2
  4618     13F3  160A  158A  26AE  160A  118A  	fcall	___fleq
  4619     13F8  1C03               	btfss	3,0
  4620     13F9  2BFB               	goto	u3881
  4621     13FA  2BFC               	goto	u3880
  4622     13FB                     u3881:
  4623     13FB  2C07               	goto	l2791
  4624     13FC                     u3880:
  4625     13FC                     l2787:
  4626     13FC  3000               	movlw	0
  4627     13FD  1683               	bsf	3,5	;RP0=1, select bank1
  4628     13FE  1303               	bcf	3,6	;RP1=0, select bank1
  4629     13FF  00BB               	movwf	(?_ldexp+3)^(0+128)
  4630     1400  3000               	movlw	0
  4631     1401  00BA               	movwf	(?_ldexp+2)^(0+128)
  4632     1402  3000               	movlw	0
  4633     1403  00B9               	movwf	(?_ldexp+1)^(0+128)
  4634     1404  3000               	movlw	0
  4635     1405  00B8               	movwf	?_ldexp^(0+128)
  4636     1406  2C92               	goto	l730
  4637     1407                     l2791:
  4638     1407  1683               	bsf	3,5	;RP0=1, select bank1
  4639     1408  1303               	bcf	3,6	;RP1=0, select bank1
  4640     1409  083B               	movf	(ldexp@value^(0+128)+3),w
  4641     140A  397F               	andlw	127
  4642     140B  00BE               	movwf	??_ldexp^(0+128)
  4643     140C  01BF               	clrf	(??_ldexp^(0+128)+1)
  4644     140D  1003               	clrc
  4645     140E  0DBE               	rlf	??_ldexp^(0+128),f
  4646     140F  0DBF               	rlf	(??_ldexp^(0+128)+1),f
  4647     1410  083E               	movf	??_ldexp^(0+128),w
  4648     1411  07BC               	addwf	ldexp@newexp^(0+128),f
  4649     1412  1803               	skipnc
  4650     1413  0ABD               	incf	(ldexp@newexp+1)^(0+128),f
  4651     1414  083F               	movf	(??_ldexp+1)^(0+128),w
  4652     1415  07BD               	addwf	(ldexp@newexp+1)^(0+128),f
  4653     1416  0D3A               	rlf	(ldexp@value^(0+128)+2),w
  4654     1417  0D3A               	rlf	(ldexp@value^(0+128)+2),w
  4655     1418  3901               	andlw	1
  4656     1419  00BE               	movwf	??_ldexp^(0+128)
  4657     141A  01BF               	clrf	(??_ldexp^(0+128)+1)
  4658     141B  083E               	movf	??_ldexp^(0+128),w
  4659     141C  07BC               	addwf	ldexp@newexp^(0+128),f
  4660     141D  1803               	skipnc
  4661     141E  0ABD               	incf	(ldexp@newexp+1)^(0+128),f
  4662     141F  083F               	movf	(??_ldexp+1)^(0+128),w
  4663     1420  07BD               	addwf	(ldexp@newexp+1)^(0+128),f
  4664     1421                     l2793:
  4665     1421  1FBD               	btfss	(ldexp@newexp+1)^(0+128),7
  4666     1422  2C24               	goto	u3891
  4667     1423  2C25               	goto	u3890
  4668     1424                     u3891:
  4669     1424  2C36               	goto	l2801
  4670     1425                     u3890:
  4671     1425                     l2795:
  4672     1425  3022               	movlw	34
  4673     1426  1683               	bsf	3,5	;RP0=1, select bank3
  4674     1427  1703               	bsf	3,6	;RP1=1, select bank3
  4675     1428  00E1               	movwf	_errno^(0+384)
  4676     1429  3000               	movlw	0
  4677     142A  00E2               	movwf	(_errno^(0+384)+1)
  4678     142B  3000               	movlw	0
  4679     142C  1683               	bsf	3,5	;RP0=1, select bank1
  4680     142D  1303               	bcf	3,6	;RP1=0, select bank1
  4681     142E  00BB               	movwf	(?_ldexp+3)^(0+128)
  4682     142F  3000               	movlw	0
  4683     1430  00BA               	movwf	(?_ldexp+2)^(0+128)
  4684     1431  3000               	movlw	0
  4685     1432  00B9               	movwf	(?_ldexp+1)^(0+128)
  4686     1433  3000               	movlw	0
  4687     1434  00B8               	movwf	?_ldexp^(0+128)
  4688     1435  2C92               	goto	l730
  4689     1436                     l2801:
  4690     1436  083D               	movf	(ldexp@newexp+1)^(0+128),w
  4691     1437  3A80               	xorlw	128
  4692     1438  00FF               	movwf	btemp+1
  4693     1439  3081               	movlw	129
  4694     143A  027F               	subwf	btemp+1,w
  4695     143B  1D03               	skipz
  4696     143C  2C3F               	goto	u3905
  4697     143D  3000               	movlw	0
  4698     143E  023C               	subwf	ldexp@newexp^(0+128),w
  4699     143F                     u3905:
  4700     143F  1C03               	skipc
  4701     1440  2C42               	goto	u3901
  4702     1441  2C43               	goto	u3900
  4703     1442                     u3901:
  4704     1442  2C7A               	goto	l2817
  4705     1443                     u3900:
  4706     1443                     l2803:
  4707     1443  3022               	movlw	34
  4708     1444  1683               	bsf	3,5	;RP0=1, select bank3
  4709     1445  1703               	bsf	3,6	;RP1=1, select bank3
  4710     1446  00E1               	movwf	_errno^(0+384)
  4711     1447  3000               	movlw	0
  4712     1448  00E2               	movwf	(_errno^(0+384)+1)
  4713     1449                     l2805:
  4714     1449  1683               	bsf	3,5	;RP0=1, select bank1
  4715     144A  1303               	bcf	3,6	;RP1=0, select bank1
  4716     144B  083B               	movf	(ldexp@value+3)^(0+128),w
  4717     144C  00F5               	movwf	___flge@ff1+3
  4718     144D  083A               	movf	(ldexp@value+2)^(0+128),w
  4719     144E  00F4               	movwf	___flge@ff1+2
  4720     144F  0839               	movf	(ldexp@value+1)^(0+128),w
  4721     1450  00F3               	movwf	___flge@ff1+1
  4722     1451  0838               	movf	ldexp@value^(0+128),w
  4723     1452  00F2               	movwf	___flge@ff1
  4724     1453  3000               	movlw	0
  4725     1454  00F9               	movwf	___flge@ff2+3
  4726     1455  3000               	movlw	0
  4727     1456  00F8               	movwf	___flge@ff2+2
  4728     1457  3000               	movlw	0
  4729     1458  00F7               	movwf	___flge@ff2+1
  4730     1459  3000               	movlw	0
  4731     145A  00F6               	movwf	___flge@ff2
  4732     145B  160A  118A  2275  160A  118A  	fcall	___flge
  4733     1460  1803               	btfsc	3,0
  4734     1461  2C63               	goto	u3911
  4735     1462  2C64               	goto	u3910
  4736     1463                     u3911:
  4737     1463  2C6F               	goto	l2813
  4738     1464                     u3910:
  4739     1464                     l2807:
  4740     1464  30FF               	movlw	255
  4741     1465  1683               	bsf	3,5	;RP0=1, select bank1
  4742     1466  1303               	bcf	3,6	;RP1=0, select bank1
  4743     1467  00BB               	movwf	(?_ldexp+3)^(0+128)
  4744     1468  307F               	movlw	127
  4745     1469  00BA               	movwf	(?_ldexp+2)^(0+128)
  4746     146A  30FF               	movlw	255
  4747     146B  00B9               	movwf	(?_ldexp+1)^(0+128)
  4748     146C  30FF               	movlw	255
  4749     146D  00B8               	movwf	?_ldexp^(0+128)
  4750     146E  2C92               	goto	l730
  4751     146F                     l2813:
  4752     146F  307F               	movlw	127
  4753     1470  1683               	bsf	3,5	;RP0=1, select bank1
  4754     1471  1303               	bcf	3,6	;RP1=0, select bank1
  4755     1472  00BB               	movwf	(?_ldexp+3)^(0+128)
  4756     1473  307F               	movlw	127
  4757     1474  00BA               	movwf	(?_ldexp+2)^(0+128)
  4758     1475  30FF               	movlw	255
  4759     1476  00B9               	movwf	(?_ldexp+1)^(0+128)
  4760     1477  30FF               	movlw	255
  4761     1478  00B8               	movwf	?_ldexp^(0+128)
  4762     1479  2C92               	goto	l730
  4763     147A                     l2817:
  4764     147A  1683               	bsf	3,5	;RP0=1, select bank1
  4765     147B  1303               	bcf	3,6	;RP1=0, select bank1
  4766     147C  083D               	movf	(ldexp@newexp+1)^(0+128),w
  4767     147D  00BF               	movwf	(??_ldexp^(0+128)+1)
  4768     147E  083C               	movf	ldexp@newexp^(0+128),w
  4769     147F  00BE               	movwf	??_ldexp^(0+128)
  4770     1480  0D3F               	rlf	(??_ldexp^(0+128)+1),w
  4771     1481  0CBF               	rrf	(??_ldexp^(0+128)+1),f
  4772     1482  0CBE               	rrf	??_ldexp^(0+128),f
  4773     1483  083B               	movf	(ldexp@value^(0+128)+3),w
  4774     1484  063E               	xorwf	??_ldexp^(0+128),w
  4775     1485  3980               	andlw	-128
  4776     1486  063E               	xorwf	??_ldexp^(0+128),w
  4777     1487  00BB               	movwf	(ldexp@value^(0+128)+3)
  4778     1488  083C               	movf	ldexp@newexp^(0+128),w
  4779     1489  3901               	andlw	1
  4780     148A  00BE               	movwf	??_ldexp^(0+128)
  4781     148B  0CBE               	rrf	??_ldexp^(0+128),f
  4782     148C  0CBE               	rrf	??_ldexp^(0+128),f
  4783     148D  083A               	movf	(ldexp@value^(0+128)+2),w
  4784     148E  063E               	xorwf	??_ldexp^(0+128),w
  4785     148F  397F               	andlw	-129
  4786     1490  063E               	xorwf	??_ldexp^(0+128),w
  4787     1491  00BA               	movwf	(ldexp@value^(0+128)+2)
  4788     1492                     l2819:
  4789     1492                     l730:
  4790     1492  0008               	return
  4791     1493                     __end_of_ldexp:
  4792                           
  4793                           	psect	text16
  4794     086E                     __ptext16:	
  4795 ;; *************** function _floor *****************
  4796 ;; Defined at:
  4797 ;;		line 13 in file "C:\Program Files\Microchip\xc8\v2.41\pic\sources\c90\common\floor.c"
  4798 ;; Parameters:    Size  Location     Type
  4799 ;;  x               4    8[BANK1 ] int 
  4800 ;; Auto vars:     Size  Location     Type
  4801 ;;  i               4   12[BANK1 ] int 
  4802 ;;  expon           2   16[BANK1 ] int 
  4803 ;; Return value:  Size  Location     Type
  4804 ;;                  4    8[BANK1 ] int 
  4805 ;; Registers used:
  4806 ;;		wreg, fsr0l, fsr0h, status,2, status,0, btemp+1, pclath, cstack
  4807 ;; Tracked objects:
  4808 ;;		On entry : 0/0
  4809 ;;		On exit  : 0/0
  4810 ;;		Unchanged: 0/0
  4811 ;; Data sizes:     COMMON   BANK0   BANK1   BANK3   BANK2
  4812 ;;      Params:         0       0       4       0       0
  4813 ;;      Locals:         0       0       6       0       0
  4814 ;;      Temps:          0       0       0       0       0
  4815 ;;      Totals:         0       0      10       0       0
  4816 ;;Total ram usage:       10 bytes
  4817 ;; Hardware stack levels used: 1
  4818 ;; Hardware stack levels required when called: 3
  4819 ;; This function calls:
  4820 ;;		___fladd
  4821 ;;		___flge
  4822 ;;		___fltol
  4823 ;;		___xxtofl
  4824 ;;		_frexp
  4825 ;; This function is called by:
  4826 ;;		_exp
  4827 ;; This function uses a non-reentrant model
  4828 ;;
  4829                           
  4830     086E                     _floor:	
  4831                           ;psect for function _floor
  4832                           
  4833     086E                     l3719:	
  4834                           ;incstack = 0
  4835                           ; Regs used in _floor: [wreg-fsr0h+status,2+status,0+btemp+1+pclath+cstack]
  4836                           
  4837     086E  1683               	bsf	3,5	;RP0=1, select bank1
  4838     086F  1303               	bcf	3,6	;RP1=0, select bank1
  4839     0870  082B               	movf	(floor@x+3)^(0+128),w
  4840     0871  1283               	bcf	3,5	;RP0=0, select bank0
  4841     0872  1303               	bcf	3,6	;RP1=0, select bank0
  4842     0873  00C5               	movwf	frexp@value+3
  4843     0874  1683               	bsf	3,5	;RP0=1, select bank1
  4844     0875  1303               	bcf	3,6	;RP1=0, select bank1
  4845     0876  082A               	movf	(floor@x+2)^(0+128),w
  4846     0877  1283               	bcf	3,5	;RP0=0, select bank0
  4847     0878  1303               	bcf	3,6	;RP1=0, select bank0
  4848     0879  00C4               	movwf	frexp@value+2
  4849     087A  1683               	bsf	3,5	;RP0=1, select bank1
  4850     087B  1303               	bcf	3,6	;RP1=0, select bank1
  4851     087C  0829               	movf	(floor@x+1)^(0+128),w
  4852     087D  1283               	bcf	3,5	;RP0=0, select bank0
  4853     087E  1303               	bcf	3,6	;RP1=0, select bank0
  4854     087F  00C3               	movwf	frexp@value+1
  4855     0880  1683               	bsf	3,5	;RP0=1, select bank1
  4856     0881  1303               	bcf	3,6	;RP1=0, select bank1
  4857     0882  0828               	movf	floor@x^(0+128),w
  4858     0883  1283               	bcf	3,5	;RP0=0, select bank0
  4859     0884  1303               	bcf	3,6	;RP1=0, select bank0
  4860     0885  00C2               	movwf	frexp@value
  4861     0886  30B0               	movlw	(low (floor@expon| 0))& (0+255)
  4862     0887  00C6               	movwf	frexp@eptr
  4863     0888  160A  118A  20AC  120A  158A  	fcall	_frexp
  4864     088D                     l3721:
  4865     088D  1683               	bsf	3,5	;RP0=1, select bank1
  4866     088E  1303               	bcf	3,6	;RP1=0, select bank1
  4867     088F  1FB1               	btfss	(floor@expon+1)^(0+128),7
  4868     0890  2892               	goto	u5591
  4869     0891  2893               	goto	u5590
  4870     0892                     u5591:
  4871     0892  28C2               	goto	l3733
  4872     0893                     u5590:
  4873     0893                     l3723:
  4874     0893  082B               	movf	(floor@x+3)^(0+128),w
  4875     0894  00F5               	movwf	___flge@ff1+3
  4876     0895  082A               	movf	(floor@x+2)^(0+128),w
  4877     0896  00F4               	movwf	___flge@ff1+2
  4878     0897  0829               	movf	(floor@x+1)^(0+128),w
  4879     0898  00F3               	movwf	___flge@ff1+1
  4880     0899  0828               	movf	floor@x^(0+128),w
  4881     089A  00F2               	movwf	___flge@ff1
  4882     089B  3000               	movlw	0
  4883     089C  00F9               	movwf	___flge@ff2+3
  4884     089D  3000               	movlw	0
  4885     089E  00F8               	movwf	___flge@ff2+2
  4886     089F  3000               	movlw	0
  4887     08A0  00F7               	movwf	___flge@ff2+1
  4888     08A1  3000               	movlw	0
  4889     08A2  00F6               	movwf	___flge@ff2
  4890     08A3  160A  118A  2275  120A  158A  	fcall	___flge
  4891     08A8  1803               	btfsc	3,0
  4892     08A9  28AB               	goto	u5601
  4893     08AA  28AC               	goto	u5600
  4894     08AB                     u5601:
  4895     08AB  28B7               	goto	l3729
  4896     08AC                     u5600:
  4897     08AC                     l3725:
  4898     08AC  30BF               	movlw	191
  4899     08AD  1683               	bsf	3,5	;RP0=1, select bank1
  4900     08AE  1303               	bcf	3,6	;RP1=0, select bank1
  4901     08AF  00AB               	movwf	(?_floor+3)^(0+128)
  4902     08B0  3080               	movlw	128
  4903     08B1  00AA               	movwf	(?_floor+2)^(0+128)
  4904     08B2  3000               	movlw	0
  4905     08B3  00A9               	movwf	(?_floor+1)^(0+128)
  4906     08B4  3000               	movlw	0
  4907     08B5  00A8               	movwf	?_floor^(0+128)
  4908     08B6  2964               	goto	l777
  4909     08B7                     l3729:
  4910     08B7  3000               	movlw	0
  4911     08B8  1683               	bsf	3,5	;RP0=1, select bank1
  4912     08B9  1303               	bcf	3,6	;RP1=0, select bank1
  4913     08BA  00AB               	movwf	(?_floor+3)^(0+128)
  4914     08BB  3000               	movlw	0
  4915     08BC  00AA               	movwf	(?_floor+2)^(0+128)
  4916     08BD  3000               	movlw	0
  4917     08BE  00A9               	movwf	(?_floor+1)^(0+128)
  4918     08BF  3000               	movlw	0
  4919     08C0  00A8               	movwf	?_floor^(0+128)
  4920     08C1  2964               	goto	l777
  4921     08C2                     l3733:
  4922     08C2  3000               	movlw	0
  4923     08C3  0231               	subwf	(floor@expon+1)^(0+128),w
  4924     08C4  301D               	movlw	29
  4925     08C5  1903               	skipnz
  4926     08C6  0230               	subwf	floor@expon^(0+128),w
  4927     08C7  1C03               	skipc
  4928     08C8  28CA               	goto	u5611
  4929     08C9  28CB               	goto	u5610
  4930     08CA                     u5611:
  4931     08CA  28CC               	goto	l3737
  4932     08CB                     u5610:
  4933     08CB                     l3735:
  4934     08CB  2964               	goto	l777
  4935     08CC                     l3737:
  4936     08CC  082B               	movf	(floor@x+3)^(0+128),w
  4937     08CD  00F5               	movwf	___fltol@f1+3
  4938     08CE  082A               	movf	(floor@x+2)^(0+128),w
  4939     08CF  00F4               	movwf	___fltol@f1+2
  4940     08D0  0829               	movf	(floor@x+1)^(0+128),w
  4941     08D1  00F3               	movwf	___fltol@f1+1
  4942     08D2  0828               	movf	floor@x^(0+128),w
  4943     08D3  00F2               	movwf	___fltol@f1
  4944     08D4  160A  118A  2165  120A  158A  	fcall	___fltol
  4945     08D9  0875               	movf	?___fltol+3,w
  4946     08DA  1283               	bcf	3,5	;RP0=0, select bank0
  4947     08DB  1303               	bcf	3,6	;RP1=0, select bank0
  4948     08DC  00AB               	movwf	___xxtofl@val+3
  4949     08DD  0874               	movf	?___fltol+2,w
  4950     08DE  00AA               	movwf	___xxtofl@val+2
  4951     08DF  0873               	movf	?___fltol+1,w
  4952     08E0  00A9               	movwf	___xxtofl@val+1
  4953     08E1  0872               	movf	?___fltol,w
  4954     08E2  00A8               	movwf	___xxtofl@val
  4955     08E3  3001               	movlw	1
  4956     08E4  160A  118A  2319  120A  158A  	fcall	___xxtofl
  4957     08E9  1283               	bcf	3,5	;RP0=0, select bank0
  4958     08EA  1303               	bcf	3,6	;RP1=0, select bank0
  4959     08EB  082B               	movf	?___xxtofl+3,w
  4960     08EC  1683               	bsf	3,5	;RP0=1, select bank1
  4961     08ED  1303               	bcf	3,6	;RP1=0, select bank1
  4962     08EE  00AF               	movwf	(floor@i+3)^(0+128)
  4963     08EF  1283               	bcf	3,5	;RP0=0, select bank0
  4964     08F0  1303               	bcf	3,6	;RP1=0, select bank0
  4965     08F1  082A               	movf	?___xxtofl+2,w
  4966     08F2  1683               	bsf	3,5	;RP0=1, select bank1
  4967     08F3  1303               	bcf	3,6	;RP1=0, select bank1
  4968     08F4  00AE               	movwf	(floor@i+2)^(0+128)
  4969     08F5  1283               	bcf	3,5	;RP0=0, select bank0
  4970     08F6  1303               	bcf	3,6	;RP1=0, select bank0
  4971     08F7  0829               	movf	?___xxtofl+1,w
  4972     08F8  1683               	bsf	3,5	;RP0=1, select bank1
  4973     08F9  1303               	bcf	3,6	;RP1=0, select bank1
  4974     08FA  00AD               	movwf	(floor@i+1)^(0+128)
  4975     08FB  1283               	bcf	3,5	;RP0=0, select bank0
  4976     08FC  1303               	bcf	3,6	;RP1=0, select bank0
  4977     08FD  0828               	movf	?___xxtofl,w
  4978     08FE  1683               	bsf	3,5	;RP0=1, select bank1
  4979     08FF  1303               	bcf	3,6	;RP1=0, select bank1
  4980     0900  00AC               	movwf	floor@i^(0+128)
  4981     0901                     l3739:
  4982     0901  082B               	movf	(floor@x+3)^(0+128),w
  4983     0902  00F5               	movwf	___flge@ff1+3
  4984     0903  082A               	movf	(floor@x+2)^(0+128),w
  4985     0904  00F4               	movwf	___flge@ff1+2
  4986     0905  0829               	movf	(floor@x+1)^(0+128),w
  4987     0906  00F3               	movwf	___flge@ff1+1
  4988     0907  0828               	movf	floor@x^(0+128),w
  4989     0908  00F2               	movwf	___flge@ff1
  4990     0909  082F               	movf	(floor@i+3)^(0+128),w
  4991     090A  00F9               	movwf	___flge@ff2+3
  4992     090B  082E               	movf	(floor@i+2)^(0+128),w
  4993     090C  00F8               	movwf	___flge@ff2+2
  4994     090D  082D               	movf	(floor@i+1)^(0+128),w
  4995     090E  00F7               	movwf	___flge@ff2+1
  4996     090F  082C               	movf	floor@i^(0+128),w
  4997     0910  00F6               	movwf	___flge@ff2
  4998     0911  160A  118A  2275  120A  158A  	fcall	___flge
  4999     0916  1803               	btfsc	3,0
  5000     0917  2919               	goto	u5621
  5001     0918  291A               	goto	u5620
  5002     0919                     u5621:
  5003     0919  295A               	goto	l3745
  5004     091A                     u5620:
  5005     091A                     l3741:
  5006     091A  30BF               	movlw	191
  5007     091B  1283               	bcf	3,5	;RP0=0, select bank0
  5008     091C  1303               	bcf	3,6	;RP1=0, select bank0
  5009     091D  00E6               	movwf	___fladd@b+3
  5010     091E  3080               	movlw	128
  5011     091F  00E5               	movwf	___fladd@b+2
  5012     0920  3000               	movlw	0
  5013     0921  00E4               	movwf	___fladd@b+1
  5014     0922  3000               	movlw	0
  5015     0923  00E3               	movwf	___fladd@b
  5016     0924  1683               	bsf	3,5	;RP0=1, select bank1
  5017     0925  1303               	bcf	3,6	;RP1=0, select bank1
  5018     0926  082F               	movf	(floor@i+3)^(0+128),w
  5019     0927  1283               	bcf	3,5	;RP0=0, select bank0
  5020     0928  1303               	bcf	3,6	;RP1=0, select bank0
  5021     0929  00EA               	movwf	___fladd@a+3
  5022     092A  1683               	bsf	3,5	;RP0=1, select bank1
  5023     092B  1303               	bcf	3,6	;RP1=0, select bank1
  5024     092C  082E               	movf	(floor@i+2)^(0+128),w
  5025     092D  1283               	bcf	3,5	;RP0=0, select bank0
  5026     092E  1303               	bcf	3,6	;RP1=0, select bank0
  5027     092F  00E9               	movwf	___fladd@a+2
  5028     0930  1683               	bsf	3,5	;RP0=1, select bank1
  5029     0931  1303               	bcf	3,6	;RP1=0, select bank1
  5030     0932  082D               	movf	(floor@i+1)^(0+128),w
  5031     0933  1283               	bcf	3,5	;RP0=0, select bank0
  5032     0934  1303               	bcf	3,6	;RP1=0, select bank0
  5033     0935  00E8               	movwf	___fladd@a+1
  5034     0936  1683               	bsf	3,5	;RP0=1, select bank1
  5035     0937  1303               	bcf	3,6	;RP1=0, select bank1
  5036     0938  082C               	movf	floor@i^(0+128),w
  5037     0939  1283               	bcf	3,5	;RP0=0, select bank0
  5038     093A  1303               	bcf	3,6	;RP1=0, select bank0
  5039     093B  00E7               	movwf	___fladd@a
  5040     093C  120A  118A  237E  120A  158A  	fcall	___fladd
  5041     0941  1283               	bcf	3,5	;RP0=0, select bank0
  5042     0942  1303               	bcf	3,6	;RP1=0, select bank0
  5043     0943  0866               	movf	?___fladd+3,w
  5044     0944  1683               	bsf	3,5	;RP0=1, select bank1
  5045     0945  1303               	bcf	3,6	;RP1=0, select bank1
  5046     0946  00AB               	movwf	(?_floor+3)^(0+128)
  5047     0947  1283               	bcf	3,5	;RP0=0, select bank0
  5048     0948  1303               	bcf	3,6	;RP1=0, select bank0
  5049     0949  0865               	movf	?___fladd+2,w
  5050     094A  1683               	bsf	3,5	;RP0=1, select bank1
  5051     094B  1303               	bcf	3,6	;RP1=0, select bank1
  5052     094C  00AA               	movwf	(?_floor+2)^(0+128)
  5053     094D  1283               	bcf	3,5	;RP0=0, select bank0
  5054     094E  1303               	bcf	3,6	;RP1=0, select bank0
  5055     094F  0864               	movf	?___fladd+1,w
  5056     0950  1683               	bsf	3,5	;RP0=1, select bank1
  5057     0951  1303               	bcf	3,6	;RP1=0, select bank1
  5058     0952  00A9               	movwf	(?_floor+1)^(0+128)
  5059     0953  1283               	bcf	3,5	;RP0=0, select bank0
  5060     0954  1303               	bcf	3,6	;RP1=0, select bank0
  5061     0955  0863               	movf	?___fladd,w
  5062     0956  1683               	bsf	3,5	;RP0=1, select bank1
  5063     0957  1303               	bcf	3,6	;RP1=0, select bank1
  5064     0958  00A8               	movwf	?_floor^(0+128)
  5065     0959  2964               	goto	l777
  5066     095A                     l3745:
  5067     095A  1683               	bsf	3,5	;RP0=1, select bank1
  5068     095B  1303               	bcf	3,6	;RP1=0, select bank1
  5069     095C  082F               	movf	(floor@i+3)^(0+128),w
  5070     095D  00AB               	movwf	(?_floor+3)^(0+128)
  5071     095E  082E               	movf	(floor@i+2)^(0+128),w
  5072     095F  00AA               	movwf	(?_floor+2)^(0+128)
  5073     0960  082D               	movf	(floor@i+1)^(0+128),w
  5074     0961  00A9               	movwf	(?_floor+1)^(0+128)
  5075     0962  082C               	movf	floor@i^(0+128),w
  5076     0963  00A8               	movwf	?_floor^(0+128)
  5077     0964                     l777:
  5078     0964  0008               	return
  5079     0965                     __end_of_floor:
  5080                           
  5081                           	psect	text17
  5082     1165                     __ptext17:	
  5083 ;; *************** function ___fltol *****************
  5084 ;; Defined at:
  5085 ;;		line 43 in file "C:\Program Files\Microchip\xc8\v2.41\pic\sources\c90\common\fltol.c"
  5086 ;; Parameters:    Size  Location     Type
  5087 ;;  f1              4    2[COMMON] int 
  5088 ;; Auto vars:     Size  Location     Type
  5089 ;;  exp1            1    1[BANK0 ] unsigned char 
  5090 ;;  sign1           1    0[BANK0 ] unsigned char 
  5091 ;; Return value:  Size  Location     Type
  5092 ;;                  4    2[COMMON] long 
  5093 ;; Registers used:
  5094 ;;		wreg, status,2, status,0, btemp+1
  5095 ;; Tracked objects:
  5096 ;;		On entry : 0/0
  5097 ;;		On exit  : 0/0
  5098 ;;		Unchanged: 0/0
  5099 ;; Data sizes:     COMMON   BANK0   BANK1   BANK3   BANK2
  5100 ;;      Params:         4       0       0       0       0
  5101 ;;      Locals:         0       2       0       0       0
  5102 ;;      Temps:          4       0       0       0       0
  5103 ;;      Totals:         8       2       0       0       0
  5104 ;;Total ram usage:       10 bytes
  5105 ;; Hardware stack levels used: 1
  5106 ;; Hardware stack levels required when called: 1
  5107 ;; This function calls:
  5108 ;;		Nothing
  5109 ;; This function is called by:
  5110 ;;		_converteVoltsParaLux
  5111 ;;		_pow
  5112 ;;		_exp
  5113 ;;		_floor
  5114 ;; This function uses a non-reentrant model
  5115 ;;
  5116                           
  5117     1165                     ___fltol:	
  5118                           ;psect for function ___fltol
  5119                           
  5120     1165                     l3293:	
  5121                           ;incstack = 0
  5122                           ; Regs used in ___fltol: [wreg+status,2+status,0+btemp+1]
  5123                           
  5124     1165  1003               	clrc
  5125     1166  0D74               	rlf	___fltol@f1+2,w
  5126     1167  0D75               	rlf	___fltol@f1+3,w
  5127     1168  1283               	bcf	3,5	;RP0=0, select bank0
  5128     1169  1303               	bcf	3,6	;RP1=0, select bank0
  5129     116A  00A1               	movwf	___fltol@exp1
  5130     116B  0821               	movf	___fltol@exp1,w
  5131     116C  1D03               	btfss	3,2
  5132     116D  296F               	goto	u4621
  5133     116E  2970               	goto	u4620
  5134     116F                     u4621:
  5135     116F  2979               	goto	l3299
  5136     1170                     u4620:
  5137     1170                     l3295:
  5138     1170  3000               	movlw	0
  5139     1171  00F5               	movwf	?___fltol+3
  5140     1172  3000               	movlw	0
  5141     1173  00F4               	movwf	?___fltol+2
  5142     1174  3000               	movlw	0
  5143     1175  00F3               	movwf	?___fltol+1
  5144     1176  3000               	movlw	0
  5145     1177  00F2               	movwf	?___fltol
  5146     1178  29DC               	goto	l434
  5147     1179                     l3299:
  5148     1179  0872               	movf	___fltol@f1,w
  5149     117A  00F6               	movwf	??___fltol
  5150     117B  0873               	movf	___fltol@f1+1,w
  5151     117C  00F7               	movwf	??___fltol+1
  5152     117D  0874               	movf	___fltol@f1+2,w
  5153     117E  00F8               	movwf	??___fltol+2
  5154     117F  0875               	movf	___fltol@f1+3,w
  5155     1180  00F9               	movwf	??___fltol+3
  5156     1181  301F               	movlw	31
  5157     1182                     u4635:
  5158     1182  1003               	clrc
  5159     1183  0CF9               	rrf	??___fltol+3,f
  5160     1184  0CF8               	rrf	??___fltol+2,f
  5161     1185  0CF7               	rrf	??___fltol+1,f
  5162     1186  0CF6               	rrf	??___fltol,f
  5163     1187                     u4630:
  5164     1187  3EFF               	addlw	-1
  5165     1188  1D03               	skipz
  5166     1189  2982               	goto	u4635
  5167     118A  0876               	movf	??___fltol,w
  5168     118B  00A0               	movwf	___fltol@sign1
  5169     118C                     l3301:
  5170     118C  17F4               	bsf	___fltol@f1+2,7
  5171     118D                     l3303:
  5172     118D  30FF               	movlw	255
  5173     118E  05F2               	andwf	___fltol@f1,f
  5174     118F  30FF               	movlw	255
  5175     1190  05F3               	andwf	___fltol@f1+1,f
  5176     1191  30FF               	movlw	255
  5177     1192  05F4               	andwf	___fltol@f1+2,f
  5178     1193  3000               	movlw	0
  5179     1194  05F5               	andwf	___fltol@f1+3,f
  5180     1195                     l3305:
  5181     1195  3096               	movlw	150
  5182     1196  02A1               	subwf	___fltol@exp1,f
  5183     1197                     l3307:
  5184     1197  1FA1               	btfss	___fltol@exp1,7
  5185     1198  299A               	goto	u4641
  5186     1199  299B               	goto	u4640
  5187     119A                     u4641:
  5188     119A  29B5               	goto	l3319
  5189     119B                     u4640:
  5190     119B                     l3309:
  5191     119B  0821               	movf	___fltol@exp1,w
  5192     119C  3A80               	xorlw	128
  5193     119D  3E97               	addlw	151
  5194     119E  1803               	skipnc
  5195     119F  29A1               	goto	u4651
  5196     11A0  29A2               	goto	u4650
  5197     11A1                     u4651:
  5198     11A1  29A3               	goto	l3315
  5199     11A2                     u4650:
  5200     11A2  2970               	goto	l3295
  5201     11A3                     l3315:
  5202     11A3  3001               	movlw	1
  5203     11A4                     u4665:
  5204     11A4  1003               	clrc
  5205     11A5  0CF5               	rrf	___fltol@f1+3,f
  5206     11A6  0CF4               	rrf	___fltol@f1+2,f
  5207     11A7  0CF3               	rrf	___fltol@f1+1,f
  5208     11A8  0CF2               	rrf	___fltol@f1,f
  5209     11A9  3EFF               	addlw	-1
  5210     11AA  1D03               	skipz
  5211     11AB  29A4               	goto	u4665
  5212     11AC                     l3317:
  5213     11AC  3001               	movlw	1
  5214     11AD  00FF               	movwf	btemp+1
  5215     11AE  087F               	movf	btemp+1,w
  5216     11AF  07A1               	addwf	___fltol@exp1,f
  5217     11B0  1D03               	btfss	3,2
  5218     11B1  29B3               	goto	u4671
  5219     11B2  29B4               	goto	u4670
  5220     11B3                     u4671:
  5221     11B3  29A3               	goto	l3315
  5222     11B4                     u4670:
  5223     11B4  29CC               	goto	l3327
  5224     11B5                     l3319:
  5225     11B5  3020               	movlw	32
  5226     11B6  0221               	subwf	___fltol@exp1,w
  5227     11B7  1C03               	skipc
  5228     11B8  29BA               	goto	u4681
  5229     11B9  29BB               	goto	u4680
  5230     11BA                     u4681:
  5231     11BA  29C7               	goto	l441
  5232     11BB                     u4680:
  5233     11BB  2970               	goto	l3295
  5234     11BC                     l3325:
  5235     11BC  3001               	movlw	1
  5236     11BD  00F6               	movwf	??___fltol
  5237     11BE                     u4695:
  5238     11BE  1003               	clrc
  5239     11BF  0DF2               	rlf	___fltol@f1,f
  5240     11C0  0DF3               	rlf	___fltol@f1+1,f
  5241     11C1  0DF4               	rlf	___fltol@f1+2,f
  5242     11C2  0DF5               	rlf	___fltol@f1+3,f
  5243     11C3  0BF6               	decfsz	??___fltol,f
  5244     11C4  29BE               	goto	u4695
  5245     11C5  3001               	movlw	1
  5246     11C6  02A1               	subwf	___fltol@exp1,f
  5247     11C7                     l441:
  5248     11C7  0821               	movf	___fltol@exp1,w
  5249     11C8  1D03               	btfss	3,2
  5250     11C9  29CB               	goto	u4701
  5251     11CA  29CC               	goto	u4700
  5252     11CB                     u4701:
  5253     11CB  29BC               	goto	l3325
  5254     11CC                     u4700:
  5255     11CC                     l3327:
  5256     11CC  0820               	movf	___fltol@sign1,w
  5257     11CD  1903               	btfsc	3,2
  5258     11CE  29D0               	goto	u4711
  5259     11CF  29D1               	goto	u4710
  5260     11D0                     u4711:
  5261     11D0  29DC               	goto	l444
  5262     11D1                     u4710:
  5263     11D1                     l3329:
  5264     11D1  09F2               	comf	___fltol@f1,f
  5265     11D2  09F3               	comf	___fltol@f1+1,f
  5266     11D3  09F4               	comf	___fltol@f1+2,f
  5267     11D4  09F5               	comf	___fltol@f1+3,f
  5268     11D5  0AF2               	incf	___fltol@f1,f
  5269     11D6  1903               	skipnz
  5270     11D7  0AF3               	incf	___fltol@f1+1,f
  5271     11D8  1903               	skipnz
  5272     11D9  0AF4               	incf	___fltol@f1+2,f
  5273     11DA  1903               	skipnz
  5274     11DB  0AF5               	incf	___fltol@f1+3,f
  5275     11DC                     l444:
  5276     11DC                     l434:
  5277     11DC  0008               	return
  5278     11DD                     __end_of___fltol:
  5279                           
  5280                           	psect	text18
  5281     1EFE                     __ptext18:	
  5282 ;; *************** function ___flsub *****************
  5283 ;; Defined at:
  5284 ;;		line 242 in file "C:\Program Files\Microchip\xc8\v2.41\pic\sources\c90\common\sprcadd.c"
  5285 ;; Parameters:    Size  Location     Type
  5286 ;;  a               4   38[BANK1 ] long 
  5287 ;;  b               4   42[BANK1 ] long 
  5288 ;; Auto vars:     Size  Location     Type
  5289 ;;		None
  5290 ;; Return value:  Size  Location     Type
  5291 ;;                  4   38[BANK1 ] long 
  5292 ;; Registers used:
  5293 ;;		wreg, status,2, status,0, btemp+1, pclath, cstack
  5294 ;; Tracked objects:
  5295 ;;		On entry : 0/0
  5296 ;;		On exit  : 0/0
  5297 ;;		Unchanged: 0/0
  5298 ;; Data sizes:     COMMON   BANK0   BANK1   BANK3   BANK2
  5299 ;;      Params:         0       0       8       0       0
  5300 ;;      Locals:         0       0       0       0       0
  5301 ;;      Temps:          0       0       0       0       0
  5302 ;;      Totals:         0       0       8       0       0
  5303 ;;Total ram usage:        8 bytes
  5304 ;; Hardware stack levels used: 1
  5305 ;; Hardware stack levels required when called: 2
  5306 ;; This function calls:
  5307 ;;		___fladd
  5308 ;; This function is called by:
  5309 ;;		_converteVoltsParaLux
  5310 ;;		_exp
  5311 ;; This function uses a non-reentrant model
  5312 ;;
  5313                           
  5314     1EFE                     ___flsub:	
  5315                           ;psect for function ___flsub
  5316                           
  5317     1EFE                     l3703:	
  5318                           ;incstack = 0
  5319                           ; Regs used in ___flsub: [wreg+status,2+status,0+btemp+1+pclath+cstack]
  5320                           
  5321     1EFE  3080               	movlw	128
  5322     1EFF  1683               	bsf	3,5	;RP0=1, select bank1
  5323     1F00  1303               	bcf	3,6	;RP1=0, select bank1
  5324     1F01  06C9               	xorwf	(___flsub@a+3)^(0+128),f
  5325     1F02                     l3705:
  5326     1F02  084D               	movf	(___flsub@b+3)^(0+128),w
  5327     1F03  1283               	bcf	3,5	;RP0=0, select bank0
  5328     1F04  1303               	bcf	3,6	;RP1=0, select bank0
  5329     1F05  00E6               	movwf	___fladd@b+3
  5330     1F06  1683               	bsf	3,5	;RP0=1, select bank1
  5331     1F07  1303               	bcf	3,6	;RP1=0, select bank1
  5332     1F08  084C               	movf	(___flsub@b+2)^(0+128),w
  5333     1F09  1283               	bcf	3,5	;RP0=0, select bank0
  5334     1F0A  1303               	bcf	3,6	;RP1=0, select bank0
  5335     1F0B  00E5               	movwf	___fladd@b+2
  5336     1F0C  1683               	bsf	3,5	;RP0=1, select bank1
  5337     1F0D  1303               	bcf	3,6	;RP1=0, select bank1
  5338     1F0E  084B               	movf	(___flsub@b+1)^(0+128),w
  5339     1F0F  1283               	bcf	3,5	;RP0=0, select bank0
  5340     1F10  1303               	bcf	3,6	;RP1=0, select bank0
  5341     1F11  00E4               	movwf	___fladd@b+1
  5342     1F12  1683               	bsf	3,5	;RP0=1, select bank1
  5343     1F13  1303               	bcf	3,6	;RP1=0, select bank1
  5344     1F14  084A               	movf	___flsub@b^(0+128),w
  5345     1F15  1283               	bcf	3,5	;RP0=0, select bank0
  5346     1F16  1303               	bcf	3,6	;RP1=0, select bank0
  5347     1F17  00E3               	movwf	___fladd@b
  5348     1F18  1683               	bsf	3,5	;RP0=1, select bank1
  5349     1F19  1303               	bcf	3,6	;RP1=0, select bank1
  5350     1F1A  0849               	movf	(___flsub@a+3)^(0+128),w
  5351     1F1B  1283               	bcf	3,5	;RP0=0, select bank0
  5352     1F1C  1303               	bcf	3,6	;RP1=0, select bank0
  5353     1F1D  00EA               	movwf	___fladd@a+3
  5354     1F1E  1683               	bsf	3,5	;RP0=1, select bank1
  5355     1F1F  1303               	bcf	3,6	;RP1=0, select bank1
  5356     1F20  0848               	movf	(___flsub@a+2)^(0+128),w
  5357     1F21  1283               	bcf	3,5	;RP0=0, select bank0
  5358     1F22  1303               	bcf	3,6	;RP1=0, select bank0
  5359     1F23  00E9               	movwf	___fladd@a+2
  5360     1F24  1683               	bsf	3,5	;RP0=1, select bank1
  5361     1F25  1303               	bcf	3,6	;RP1=0, select bank1
  5362     1F26  0847               	movf	(___flsub@a+1)^(0+128),w
  5363     1F27  1283               	bcf	3,5	;RP0=0, select bank0
  5364     1F28  1303               	bcf	3,6	;RP1=0, select bank0
  5365     1F29  00E8               	movwf	___fladd@a+1
  5366     1F2A  1683               	bsf	3,5	;RP0=1, select bank1
  5367     1F2B  1303               	bcf	3,6	;RP1=0, select bank1
  5368     1F2C  0846               	movf	___flsub@a^(0+128),w
  5369     1F2D  1283               	bcf	3,5	;RP0=0, select bank0
  5370     1F2E  1303               	bcf	3,6	;RP1=0, select bank0
  5371     1F2F  00E7               	movwf	___fladd@a
  5372     1F30  120A  118A  237E  160A  158A  	fcall	___fladd
  5373     1F35  1283               	bcf	3,5	;RP0=0, select bank0
  5374     1F36  1303               	bcf	3,6	;RP1=0, select bank0
  5375     1F37  0866               	movf	?___fladd+3,w
  5376     1F38  1683               	bsf	3,5	;RP0=1, select bank1
  5377     1F39  1303               	bcf	3,6	;RP1=0, select bank1
  5378     1F3A  00C9               	movwf	(?___flsub+3)^(0+128)
  5379     1F3B  1283               	bcf	3,5	;RP0=0, select bank0
  5380     1F3C  1303               	bcf	3,6	;RP1=0, select bank0
  5381     1F3D  0865               	movf	?___fladd+2,w
  5382     1F3E  1683               	bsf	3,5	;RP0=1, select bank1
  5383     1F3F  1303               	bcf	3,6	;RP1=0, select bank1
  5384     1F40  00C8               	movwf	(?___flsub+2)^(0+128)
  5385     1F41  1283               	bcf	3,5	;RP0=0, select bank0
  5386     1F42  1303               	bcf	3,6	;RP1=0, select bank0
  5387     1F43  0864               	movf	?___fladd+1,w
  5388     1F44  1683               	bsf	3,5	;RP0=1, select bank1
  5389     1F45  1303               	bcf	3,6	;RP1=0, select bank1
  5390     1F46  00C7               	movwf	(?___flsub+1)^(0+128)
  5391     1F47  1283               	bcf	3,5	;RP0=0, select bank0
  5392     1F48  1303               	bcf	3,6	;RP1=0, select bank0
  5393     1F49  0863               	movf	?___fladd,w
  5394     1F4A  1683               	bsf	3,5	;RP0=1, select bank1
  5395     1F4B  1303               	bcf	3,6	;RP1=0, select bank1
  5396     1F4C  00C6               	movwf	?___flsub^(0+128)
  5397     1F4D                     l587:
  5398     1F4D  0008               	return
  5399     1F4E                     __end_of___flsub:
  5400                           
  5401                           	psect	text19
  5402     1C5E                     __ptext19:	
  5403 ;; *************** function ___flneg *****************
  5404 ;; Defined at:
  5405 ;;		line 15 in file "C:\Program Files\Microchip\xc8\v2.41\pic\sources\c90\common\flneg.c"
  5406 ;; Parameters:    Size  Location     Type
  5407 ;;  f1              4    2[COMMON] long 
  5408 ;; Auto vars:     Size  Location     Type
  5409 ;;		None
  5410 ;; Return value:  Size  Location     Type
  5411 ;;                  4    2[COMMON] long 
  5412 ;; Registers used:
  5413 ;;		wreg
  5414 ;; Tracked objects:
  5415 ;;		On entry : 0/0
  5416 ;;		On exit  : 0/0
  5417 ;;		Unchanged: 0/0
  5418 ;; Data sizes:     COMMON   BANK0   BANK1   BANK3   BANK2
  5419 ;;      Params:         4       0       0       0       0
  5420 ;;      Locals:         0       0       0       0       0
  5421 ;;      Temps:          0       0       0       0       0
  5422 ;;      Totals:         4       0       0       0       0
  5423 ;;Total ram usage:        4 bytes
  5424 ;; Hardware stack levels used: 1
  5425 ;; Hardware stack levels required when called: 1
  5426 ;; This function calls:
  5427 ;;		Nothing
  5428 ;; This function is called by:
  5429 ;;		_pow
  5430 ;;		_exp
  5431 ;; This function uses a non-reentrant model
  5432 ;;
  5433                           
  5434     1C5E                     ___flneg:	
  5435                           ;psect for function ___flneg
  5436                           
  5437     1C5E                     l2615:	
  5438                           ;incstack = 0
  5439                           ; Regs used in ___flneg: [wreg]
  5440                           
  5441     1C5E  0875               	movf	___flneg@f1+3,w
  5442     1C5F  0474               	iorwf	___flneg@f1+2,w
  5443     1C60  0473               	iorwf	___flneg@f1+1,w
  5444     1C61  0472               	iorwf	___flneg@f1,w
  5445     1C62  1903               	skipnz
  5446     1C63  2C65               	goto	u3551
  5447     1C64  2C66               	goto	u3550
  5448     1C65                     u3551:
  5449     1C65  2C68               	goto	l2619
  5450     1C66                     u3550:
  5451     1C66                     l2617:
  5452     1C66  3080               	movlw	128
  5453     1C67  06F5               	xorwf	___flneg@f1+3,f
  5454     1C68                     l2619:
  5455     1C68                     l430:
  5456     1C68  0008               	return
  5457     1C69                     __end_of___flneg:
  5458                           
  5459                           	psect	text20
  5460     1631                     __ptext20:	
  5461 ;; *************** function ___fldiv *****************
  5462 ;; Defined at:
  5463 ;;		line 8 in file "C:\Program Files\Microchip\xc8\v2.41\pic\sources\c90\common\sprcdiv.c"
  5464 ;; Parameters:    Size  Location     Type
  5465 ;;  a               4   46[BANK1 ] long 
  5466 ;;  b               4   50[BANK1 ] long 
  5467 ;; Auto vars:     Size  Location     Type
  5468 ;;  grs             4   66[BANK1 ] unsigned long 
  5469 ;;  rem             4   59[BANK1 ] unsigned long 
  5470 ;;  new_exp         2   64[BANK1 ] int 
  5471 ;;  aexp            1   71[BANK1 ] unsigned char 
  5472 ;;  bexp            1   70[BANK1 ] unsigned char 
  5473 ;;  sign            1   63[BANK1 ] unsigned char 
  5474 ;; Return value:  Size  Location     Type
  5475 ;;                  4   46[BANK1 ] unsigned char 
  5476 ;; Registers used:
  5477 ;;		wreg, status,2, status,0, btemp+1
  5478 ;; Tracked objects:
  5479 ;;		On entry : 0/0
  5480 ;;		On exit  : 0/0
  5481 ;;		Unchanged: 0/0
  5482 ;; Data sizes:     COMMON   BANK0   BANK1   BANK3   BANK2
  5483 ;;      Params:         0       0       8       0       0
  5484 ;;      Locals:         0       0      13       0       0
  5485 ;;      Temps:          0       0       5       0       0
  5486 ;;      Totals:         0       0      26       0       0
  5487 ;;Total ram usage:       26 bytes
  5488 ;; Hardware stack levels used: 1
  5489 ;; Hardware stack levels required when called: 1
  5490 ;; This function calls:
  5491 ;;		Nothing
  5492 ;; This function is called by:
  5493 ;;		_converteVoltsParaLux
  5494 ;;		_exp
  5495 ;; This function uses a non-reentrant model
  5496 ;;
  5497                           
  5498     1631                     ___fldiv:	
  5499                           ;psect for function ___fldiv
  5500                           
  5501     1631                     l2629:	
  5502                           ;incstack = 0
  5503                           ; Regs used in ___fldiv: [wreg+status,2+status,0+btemp+1]
  5504                           
  5505     1631  1683               	bsf	3,5	;RP0=1, select bank1
  5506     1632  1303               	bcf	3,6	;RP1=0, select bank1
  5507     1633  0855               	movf	(___fldiv@b^(0+128)+3),w
  5508     1634  3980               	andlw	128
  5509     1635  00DF               	movwf	___fldiv@sign^(0+128)
  5510     1636                     l2631:
  5511     1636  0855               	movf	(___fldiv@b^(0+128)+3),w
  5512     1637  00D6               	movwf	??___fldiv^(0+128)
  5513     1638  0756               	addwf	??___fldiv^(0+128),w
  5514     1639  00E6               	movwf	___fldiv@bexp^(0+128)
  5515     163A                     l2633:
  5516     163A  1FD4               	btfss	(___fldiv@b^(0+128)+2),7
  5517     163B  2E3D               	goto	u3561
  5518     163C  2E3E               	goto	u3560
  5519     163D                     u3561:
  5520     163D  2E3F               	goto	l2637
  5521     163E                     u3560:
  5522     163E                     l2635:
  5523     163E  1466               	bsf	___fldiv@bexp^(0+128),0
  5524     163F                     l2637:
  5525     163F  0866               	movf	___fldiv@bexp^(0+128),w
  5526     1640  1903               	btfsc	3,2
  5527     1641  2E43               	goto	u3571
  5528     1642  2E44               	goto	u3570
  5529     1643                     u3571:
  5530     1643  2E54               	goto	l2647
  5531     1644                     u3570:
  5532     1644                     l2639:
  5533     1644  0A66               	incf	___fldiv@bexp^(0+128),w
  5534     1645  1D03               	btfss	3,2
  5535     1646  2E48               	goto	u3581
  5536     1647  2E49               	goto	u3580
  5537     1648                     u3581:
  5538     1648  2E51               	goto	l2643
  5539     1649                     u3580:
  5540     1649                     l2641:
  5541     1649  3000               	movlw	0
  5542     164A  00D5               	movwf	(___fldiv@b+3)^(0+128)
  5543     164B  3000               	movlw	0
  5544     164C  00D4               	movwf	(___fldiv@b+2)^(0+128)
  5545     164D  3000               	movlw	0
  5546     164E  00D3               	movwf	(___fldiv@b+1)^(0+128)
  5547     164F  3000               	movlw	0
  5548     1650  00D2               	movwf	___fldiv@b^(0+128)
  5549     1651                     l2643:
  5550     1651  17D4               	bsf	(___fldiv@b^(0+128)+2),7
  5551     1652                     l2645:
  5552     1652  01D5               	clrf	(___fldiv@b^(0+128)+3)
  5553     1653  2E5C               	goto	l2649
  5554     1654                     l2647:
  5555     1654  3000               	movlw	0
  5556     1655  00D5               	movwf	(___fldiv@b+3)^(0+128)
  5557     1656  3000               	movlw	0
  5558     1657  00D4               	movwf	(___fldiv@b+2)^(0+128)
  5559     1658  3000               	movlw	0
  5560     1659  00D3               	movwf	(___fldiv@b+1)^(0+128)
  5561     165A  3000               	movlw	0
  5562     165B  00D2               	movwf	___fldiv@b^(0+128)
  5563     165C                     l2649:
  5564     165C  0851               	movf	(___fldiv@a^(0+128)+3),w
  5565     165D  3980               	andlw	128
  5566     165E  00FF               	movwf	btemp+1
  5567     165F  087F               	movf	btemp+1,w
  5568     1660  06DF               	xorwf	___fldiv@sign^(0+128),f
  5569     1661                     l2651:
  5570     1661  0851               	movf	(___fldiv@a^(0+128)+3),w
  5571     1662  00D6               	movwf	??___fldiv^(0+128)
  5572     1663  0756               	addwf	??___fldiv^(0+128),w
  5573     1664  00E7               	movwf	___fldiv@aexp^(0+128)
  5574     1665                     l2653:
  5575     1665  1FD0               	btfss	(___fldiv@a^(0+128)+2),7
  5576     1666  2E68               	goto	u3591
  5577     1667  2E69               	goto	u3590
  5578     1668                     u3591:
  5579     1668  2E6A               	goto	l2657
  5580     1669                     u3590:
  5581     1669                     l2655:
  5582     1669  1467               	bsf	___fldiv@aexp^(0+128),0
  5583     166A                     l2657:
  5584     166A  0867               	movf	___fldiv@aexp^(0+128),w
  5585     166B  1903               	btfsc	3,2
  5586     166C  2E6E               	goto	u3601
  5587     166D  2E6F               	goto	u3600
  5588     166E                     u3601:
  5589     166E  2E7F               	goto	l2667
  5590     166F                     u3600:
  5591     166F                     l2659:
  5592     166F  0A67               	incf	___fldiv@aexp^(0+128),w
  5593     1670  1D03               	btfss	3,2
  5594     1671  2E73               	goto	u3611
  5595     1672  2E74               	goto	u3610
  5596     1673                     u3611:
  5597     1673  2E7C               	goto	l2663
  5598     1674                     u3610:
  5599     1674                     l2661:
  5600     1674  3000               	movlw	0
  5601     1675  00D1               	movwf	(___fldiv@a+3)^(0+128)
  5602     1676  3000               	movlw	0
  5603     1677  00D0               	movwf	(___fldiv@a+2)^(0+128)
  5604     1678  3000               	movlw	0
  5605     1679  00CF               	movwf	(___fldiv@a+1)^(0+128)
  5606     167A  3000               	movlw	0
  5607     167B  00CE               	movwf	___fldiv@a^(0+128)
  5608     167C                     l2663:
  5609     167C  17D0               	bsf	(___fldiv@a^(0+128)+2),7
  5610     167D                     l2665:
  5611     167D  01D1               	clrf	(___fldiv@a^(0+128)+3)
  5612     167E  2E87               	goto	l597
  5613     167F                     l2667:
  5614     167F  3000               	movlw	0
  5615     1680  00D1               	movwf	(___fldiv@a+3)^(0+128)
  5616     1681  3000               	movlw	0
  5617     1682  00D0               	movwf	(___fldiv@a+2)^(0+128)
  5618     1683  3000               	movlw	0
  5619     1684  00CF               	movwf	(___fldiv@a+1)^(0+128)
  5620     1685  3000               	movlw	0
  5621     1686  00CE               	movwf	___fldiv@a^(0+128)
  5622     1687                     l597:
  5623     1687  0851               	movf	(___fldiv@a+3)^(0+128),w
  5624     1688  0450               	iorwf	(___fldiv@a+2)^(0+128),w
  5625     1689  044F               	iorwf	(___fldiv@a+1)^(0+128),w
  5626     168A  044E               	iorwf	___fldiv@a^(0+128),w
  5627     168B  1D03               	skipz
  5628     168C  2E8E               	goto	u3621
  5629     168D  2E8F               	goto	u3620
  5630     168E                     u3621:
  5631     168E  2EA8               	goto	l2677
  5632     168F                     u3620:
  5633     168F                     l2669:
  5634     168F  3000               	movlw	0
  5635     1690  00D5               	movwf	(___fldiv@b+3)^(0+128)
  5636     1691  3000               	movlw	0
  5637     1692  00D4               	movwf	(___fldiv@b+2)^(0+128)
  5638     1693  3000               	movlw	0
  5639     1694  00D3               	movwf	(___fldiv@b+1)^(0+128)
  5640     1695  3000               	movlw	0
  5641     1696  00D2               	movwf	___fldiv@b^(0+128)
  5642     1697  3080               	movlw	128
  5643     1698  04D4               	iorwf	(___fldiv@b^(0+128)+2),f
  5644     1699  307F               	movlw	127
  5645     169A  04D5               	iorwf	((___fldiv@b+1)^(0+128)+2),f
  5646     169B                     l2671:
  5647     169B  085F               	movf	___fldiv@sign^(0+128),w
  5648     169C  00FF               	movwf	btemp+1
  5649     169D  087F               	movf	btemp+1,w
  5650     169E  04D5               	iorwf	(___fldiv@b^(0+128)+3),f
  5651     169F                     l2673:
  5652     169F  0855               	movf	(___fldiv@b+3)^(0+128),w
  5653     16A0  00D1               	movwf	(?___fldiv+3)^(0+128)
  5654     16A1  0854               	movf	(___fldiv@b+2)^(0+128),w
  5655     16A2  00D0               	movwf	(?___fldiv+2)^(0+128)
  5656     16A3  0853               	movf	(___fldiv@b+1)^(0+128),w
  5657     16A4  00CF               	movwf	(?___fldiv+1)^(0+128)
  5658     16A5  0852               	movf	___fldiv@b^(0+128),w
  5659     16A6  00CE               	movwf	?___fldiv^(0+128)
  5660     16A7  2FFF               	goto	l599
  5661     16A8                     l2677:
  5662     16A8  0866               	movf	___fldiv@bexp^(0+128),w
  5663     16A9  1D03               	btfss	3,2
  5664     16AA  2EAC               	goto	u3631
  5665     16AB  2EAD               	goto	u3630
  5666     16AC                     u3631:
  5667     16AC  2EB6               	goto	l2683
  5668     16AD                     u3630:
  5669     16AD                     l2679:
  5670     16AD  3000               	movlw	0
  5671     16AE  00D1               	movwf	(?___fldiv+3)^(0+128)
  5672     16AF  3000               	movlw	0
  5673     16B0  00D0               	movwf	(?___fldiv+2)^(0+128)
  5674     16B1  3000               	movlw	0
  5675     16B2  00CF               	movwf	(?___fldiv+1)^(0+128)
  5676     16B3  3000               	movlw	0
  5677     16B4  00CE               	movwf	?___fldiv^(0+128)
  5678     16B5  2FFF               	goto	l599
  5679     16B6                     l2683:
  5680     16B6  0866               	movf	___fldiv@bexp^(0+128),w
  5681     16B7  00D6               	movwf	??___fldiv^(0+128)
  5682     16B8  01D7               	clrf	(??___fldiv^(0+128)+1)
  5683     16B9  0857               	movf	(??___fldiv+1)^(0+128),w
  5684     16BA  00D9               	movwf	((??___fldiv+2)^(0+128)+1)
  5685     16BB  0867               	movf	___fldiv@aexp^(0+128),w
  5686     16BC  0256               	subwf	??___fldiv^(0+128),w
  5687     16BD  00D8               	movwf	(??___fldiv+2)^(0+128)
  5688     16BE  1C03               	skipc
  5689     16BF  03D9               	decf	((??___fldiv+2)^(0+128)+1),f
  5690     16C0  0858               	movf	(??___fldiv+2)^(0+128),w
  5691     16C1  3E7F               	addlw	127
  5692     16C2  00E0               	movwf	___fldiv@new_exp^(0+128)
  5693     16C3  0859               	movf	(??___fldiv+3)^(0+128),w
  5694     16C4  1803               	skipnc
  5695     16C5  3E01               	addlw	1
  5696     16C6  3E00               	addlw	0
  5697     16C7  00E1               	movwf	(___fldiv@new_exp+1)^(0+128)
  5698     16C8                     l2685:
  5699     16C8  0855               	movf	(___fldiv@b+3)^(0+128),w
  5700     16C9  00DE               	movwf	(___fldiv@rem+3)^(0+128)
  5701     16CA  0854               	movf	(___fldiv@b+2)^(0+128),w
  5702     16CB  00DD               	movwf	(___fldiv@rem+2)^(0+128)
  5703     16CC  0853               	movf	(___fldiv@b+1)^(0+128),w
  5704     16CD  00DC               	movwf	(___fldiv@rem+1)^(0+128)
  5705     16CE  0852               	movf	___fldiv@b^(0+128),w
  5706     16CF  00DB               	movwf	___fldiv@rem^(0+128)
  5707     16D0                     l2687:
  5708     16D0  3000               	movlw	0
  5709     16D1  00D5               	movwf	(___fldiv@b+3)^(0+128)
  5710     16D2  3000               	movlw	0
  5711     16D3  00D4               	movwf	(___fldiv@b+2)^(0+128)
  5712     16D4  3000               	movlw	0
  5713     16D5  00D3               	movwf	(___fldiv@b+1)^(0+128)
  5714     16D6  3000               	movlw	0
  5715     16D7  00D2               	movwf	___fldiv@b^(0+128)
  5716     16D8                     l2689:
  5717     16D8  3000               	movlw	0
  5718     16D9  00E5               	movwf	(___fldiv@grs+3)^(0+128)
  5719     16DA  3000               	movlw	0
  5720     16DB  00E4               	movwf	(___fldiv@grs+2)^(0+128)
  5721     16DC  3000               	movlw	0
  5722     16DD  00E3               	movwf	(___fldiv@grs+1)^(0+128)
  5723     16DE  3000               	movlw	0
  5724     16DF  00E2               	movwf	___fldiv@grs^(0+128)
  5725     16E0                     l2691:
  5726     16E0  01E7               	clrf	___fldiv@aexp^(0+128)
  5727     16E1  2F2C               	goto	l2711
  5728     16E2                     l2693:
  5729     16E2  0867               	movf	___fldiv@aexp^(0+128),w
  5730     16E3  1903               	btfsc	3,2
  5731     16E4  2EE6               	goto	u3641
  5732     16E5  2EE7               	goto	u3640
  5733     16E6                     u3641:
  5734     16E6  2F07               	goto	l2703
  5735     16E7                     u3640:
  5736     16E7                     l2695:
  5737     16E7  3001               	movlw	1
  5738     16E8  00D6               	movwf	??___fldiv^(0+128)
  5739     16E9                     u3655:
  5740     16E9  1003               	clrc
  5741     16EA  0DDB               	rlf	___fldiv@rem^(0+128),f
  5742     16EB  0DDC               	rlf	(___fldiv@rem+1)^(0+128),f
  5743     16EC  0DDD               	rlf	(___fldiv@rem+2)^(0+128),f
  5744     16ED  0DDE               	rlf	(___fldiv@rem+3)^(0+128),f
  5745     16EE  0BD6               	decfsz	??___fldiv^(0+128),f
  5746     16EF  2EE9               	goto	u3655
  5747     16F0  3001               	movlw	1
  5748     16F1  00D6               	movwf	??___fldiv^(0+128)
  5749     16F2                     u3665:
  5750     16F2  1003               	clrc
  5751     16F3  0DD2               	rlf	___fldiv@b^(0+128),f
  5752     16F4  0DD3               	rlf	(___fldiv@b+1)^(0+128),f
  5753     16F5  0DD4               	rlf	(___fldiv@b+2)^(0+128),f
  5754     16F6  0DD5               	rlf	(___fldiv@b+3)^(0+128),f
  5755     16F7  0BD6               	decfsz	??___fldiv^(0+128),f
  5756     16F8  2EF2               	goto	u3665
  5757     16F9                     l2697:
  5758     16F9  1FE5               	btfss	(___fldiv@grs+3)^(0+128),7
  5759     16FA  2EFC               	goto	u3671
  5760     16FB  2EFD               	goto	u3670
  5761     16FC                     u3671:
  5762     16FC  2EFE               	goto	l2701
  5763     16FD                     u3670:
  5764     16FD                     l2699:
  5765     16FD  1452               	bsf	___fldiv@b^(0+128),0
  5766     16FE                     l2701:
  5767     16FE  3001               	movlw	1
  5768     16FF  00D6               	movwf	??___fldiv^(0+128)
  5769     1700                     u3685:
  5770     1700  1003               	clrc
  5771     1701  0DE2               	rlf	___fldiv@grs^(0+128),f
  5772     1702  0DE3               	rlf	(___fldiv@grs+1)^(0+128),f
  5773     1703  0DE4               	rlf	(___fldiv@grs+2)^(0+128),f
  5774     1704  0DE5               	rlf	(___fldiv@grs+3)^(0+128),f
  5775     1705  0BD6               	decfsz	??___fldiv^(0+128),f
  5776     1706  2F00               	goto	u3685
  5777     1707                     l2703:
  5778     1707  0851               	movf	(___fldiv@a+3)^(0+128),w
  5779     1708  025E               	subwf	(___fldiv@rem+3)^(0+128),w
  5780     1709  1D03               	skipz
  5781     170A  2F15               	goto	u3695
  5782     170B  0850               	movf	(___fldiv@a+2)^(0+128),w
  5783     170C  025D               	subwf	(___fldiv@rem+2)^(0+128),w
  5784     170D  1D03               	skipz
  5785     170E  2F15               	goto	u3695
  5786     170F  084F               	movf	(___fldiv@a+1)^(0+128),w
  5787     1710  025C               	subwf	(___fldiv@rem+1)^(0+128),w
  5788     1711  1D03               	skipz
  5789     1712  2F15               	goto	u3695
  5790     1713  084E               	movf	___fldiv@a^(0+128),w
  5791     1714  025B               	subwf	___fldiv@rem^(0+128),w
  5792     1715                     u3695:
  5793     1715  1C03               	skipc
  5794     1716  2F18               	goto	u3691
  5795     1717  2F19               	goto	u3690
  5796     1718                     u3691:
  5797     1718  2F28               	goto	l2709
  5798     1719                     u3690:
  5799     1719                     l2705:
  5800     1719  1765               	bsf	(___fldiv@grs^(0+128)+3),6
  5801     171A                     l2707:
  5802     171A  084E               	movf	___fldiv@a^(0+128),w
  5803     171B  02DB               	subwf	___fldiv@rem^(0+128),f
  5804     171C  084F               	movf	(___fldiv@a+1)^(0+128),w
  5805     171D  1C03               	skipc
  5806     171E  0F4F               	incfsz	(___fldiv@a+1)^(0+128),w
  5807     171F  02DC               	subwf	(___fldiv@rem+1)^(0+128),f
  5808     1720  0850               	movf	(___fldiv@a+2)^(0+128),w
  5809     1721  1C03               	skipc
  5810     1722  0F50               	incfsz	(___fldiv@a+2)^(0+128),w
  5811     1723  02DD               	subwf	(___fldiv@rem+2)^(0+128),f
  5812     1724  0851               	movf	(___fldiv@a+3)^(0+128),w
  5813     1725  1C03               	skipc
  5814     1726  0F51               	incfsz	(___fldiv@a+3)^(0+128),w
  5815     1727  02DE               	subwf	(___fldiv@rem+3)^(0+128),f
  5816     1728                     l2709:
  5817     1728  3001               	movlw	1
  5818     1729  00FF               	movwf	btemp+1
  5819     172A  087F               	movf	btemp+1,w
  5820     172B  07E7               	addwf	___fldiv@aexp^(0+128),f
  5821     172C                     l2711:
  5822     172C  301A               	movlw	26
  5823     172D  0267               	subwf	___fldiv@aexp^(0+128),w
  5824     172E  1C03               	skipc
  5825     172F  2F31               	goto	u3701
  5826     1730  2F32               	goto	u3700
  5827     1731                     u3701:
  5828     1731  2EE2               	goto	l2693
  5829     1732                     u3700:
  5830     1732                     l2713:
  5831     1732  085E               	movf	(___fldiv@rem+3)^(0+128),w
  5832     1733  045D               	iorwf	(___fldiv@rem+2)^(0+128),w
  5833     1734  045C               	iorwf	(___fldiv@rem+1)^(0+128),w
  5834     1735  045B               	iorwf	___fldiv@rem^(0+128),w
  5835     1736  1903               	skipnz
  5836     1737  2F39               	goto	u3711
  5837     1738  2F3A               	goto	u3710
  5838     1739                     u3711:
  5839     1739  2F59               	goto	l2727
  5840     173A                     u3710:
  5841     173A                     l2715:
  5842     173A  1462               	bsf	___fldiv@grs^(0+128),0
  5843     173B  2F59               	goto	l2727
  5844     173C                     l2717:
  5845     173C  3001               	movlw	1
  5846     173D  00D6               	movwf	??___fldiv^(0+128)
  5847     173E                     u3725:
  5848     173E  1003               	clrc
  5849     173F  0DD2               	rlf	___fldiv@b^(0+128),f
  5850     1740  0DD3               	rlf	(___fldiv@b+1)^(0+128),f
  5851     1741  0DD4               	rlf	(___fldiv@b+2)^(0+128),f
  5852     1742  0DD5               	rlf	(___fldiv@b+3)^(0+128),f
  5853     1743  0BD6               	decfsz	??___fldiv^(0+128),f
  5854     1744  2F3E               	goto	u3725
  5855     1745                     l2719:
  5856     1745  1FE5               	btfss	(___fldiv@grs+3)^(0+128),7
  5857     1746  2F48               	goto	u3731
  5858     1747  2F49               	goto	u3730
  5859     1748                     u3731:
  5860     1748  2F4A               	goto	l2723
  5861     1749                     u3730:
  5862     1749                     l2721:
  5863     1749  1452               	bsf	___fldiv@b^(0+128),0
  5864     174A                     l2723:
  5865     174A  3001               	movlw	1
  5866     174B  00D6               	movwf	??___fldiv^(0+128)
  5867     174C                     u3745:
  5868     174C  1003               	clrc
  5869     174D  0DE2               	rlf	___fldiv@grs^(0+128),f
  5870     174E  0DE3               	rlf	(___fldiv@grs+1)^(0+128),f
  5871     174F  0DE4               	rlf	(___fldiv@grs+2)^(0+128),f
  5872     1750  0DE5               	rlf	(___fldiv@grs+3)^(0+128),f
  5873     1751  0BD6               	decfsz	??___fldiv^(0+128),f
  5874     1752  2F4C               	goto	u3745
  5875     1753                     l2725:
  5876     1753  30FF               	movlw	255
  5877     1754  07E0               	addwf	___fldiv@new_exp^(0+128),f
  5878     1755  1803               	skipnc
  5879     1756  0AE1               	incf	(___fldiv@new_exp+1)^(0+128),f
  5880     1757  30FF               	movlw	255
  5881     1758  07E1               	addwf	(___fldiv@new_exp+1)^(0+128),f
  5882     1759                     l2727:
  5883     1759  1FD4               	btfss	(___fldiv@b+2)^(0+128),7
  5884     175A  2F5C               	goto	u3751
  5885     175B  2F5D               	goto	u3750
  5886     175C                     u3751:
  5887     175C  2F3C               	goto	l2717
  5888     175D                     u3750:
  5889     175D                     l2729:
  5890     175D  01E7               	clrf	___fldiv@aexp^(0+128)
  5891     175E                     l2731:
  5892     175E  1FE5               	btfss	(___fldiv@grs+3)^(0+128),7
  5893     175F  2F61               	goto	u3761
  5894     1760  2F62               	goto	u3760
  5895     1761                     u3761:
  5896     1761  2F7E               	goto	l2739
  5897     1762                     u3760:
  5898     1762                     l2733:
  5899     1762  30FF               	movlw	255
  5900     1763  0562               	andwf	___fldiv@grs^(0+128),w
  5901     1764  00D6               	movwf	??___fldiv^(0+128)
  5902     1765  30FF               	movlw	255
  5903     1766  0563               	andwf	(___fldiv@grs+1)^(0+128),w
  5904     1767  00D7               	movwf	(??___fldiv^(0+128)+1)
  5905     1768  30FF               	movlw	255
  5906     1769  0564               	andwf	(___fldiv@grs+2)^(0+128),w
  5907     176A  00D8               	movwf	(??___fldiv^(0+128)+2)
  5908     176B  307F               	movlw	127
  5909     176C  0565               	andwf	(___fldiv@grs+3)^(0+128),w
  5910     176D  00D9               	movwf	(??___fldiv^(0+128)+3)
  5911     176E  0859               	movf	(??___fldiv+3)^(0+128),w
  5912     176F  0458               	iorwf	(??___fldiv+2)^(0+128),w
  5913     1770  0457               	iorwf	(??___fldiv+1)^(0+128),w
  5914     1771  0456               	iorwf	??___fldiv^(0+128),w
  5915     1772  1903               	skipnz
  5916     1773  2F75               	goto	u3771
  5917     1774  2F76               	goto	u3770
  5918     1775                     u3771:
  5919     1775  2F79               	goto	l613
  5920     1776                     u3770:
  5921     1776                     l2735:
  5922     1776  01E7               	clrf	___fldiv@aexp^(0+128)
  5923     1777  0AE7               	incf	___fldiv@aexp^(0+128),f
  5924     1778  2F7E               	goto	l2739
  5925     1779                     l613:
  5926     1779  1C52               	btfss	___fldiv@b^(0+128),0
  5927     177A  2F7C               	goto	u3781
  5928     177B  2F7D               	goto	u3780
  5929     177C                     u3781:
  5930     177C  2F7E               	goto	l2739
  5931     177D                     u3780:
  5932     177D  2F76               	goto	l2735
  5933     177E                     l2739:
  5934     177E  0867               	movf	___fldiv@aexp^(0+128),w
  5935     177F  1903               	btfsc	3,2
  5936     1780  2F82               	goto	u3791
  5937     1781  2F83               	goto	u3790
  5938     1782                     u3791:
  5939     1782  2FB4               	goto	l2749
  5940     1783                     u3790:
  5941     1783                     l2741:
  5942     1783  3001               	movlw	1
  5943     1784  07D2               	addwf	___fldiv@b^(0+128),f
  5944     1785  3000               	movlw	0
  5945     1786  1803               	skipnc
  5946     1787  3001               	movlw	1
  5947     1788  07D3               	addwf	(___fldiv@b+1)^(0+128),f
  5948     1789  3000               	movlw	0
  5949     178A  1803               	skipnc
  5950     178B  3001               	movlw	1
  5951     178C  07D4               	addwf	(___fldiv@b+2)^(0+128),f
  5952     178D  3000               	movlw	0
  5953     178E  1803               	skipnc
  5954     178F  3001               	movlw	1
  5955     1790  07D5               	addwf	(___fldiv@b+3)^(0+128),f
  5956     1791                     l2743:
  5957     1791  1C55               	btfss	(___fldiv@b+3)^(0+128),0
  5958     1792  2F94               	goto	u3801
  5959     1793  2F95               	goto	u3800
  5960     1794                     u3801:
  5961     1794  2FB4               	goto	l2749
  5962     1795                     u3800:
  5963     1795                     l2745:
  5964     1795  0852               	movf	___fldiv@b^(0+128),w
  5965     1796  00D6               	movwf	??___fldiv^(0+128)
  5966     1797  0853               	movf	(___fldiv@b+1)^(0+128),w
  5967     1798  00D7               	movwf	(??___fldiv^(0+128)+1)
  5968     1799  0854               	movf	(___fldiv@b+2)^(0+128),w
  5969     179A  00D8               	movwf	(??___fldiv^(0+128)+2)
  5970     179B  0855               	movf	(___fldiv@b+3)^(0+128),w
  5971     179C  00D9               	movwf	(??___fldiv^(0+128)+3)
  5972     179D  3001               	movlw	1
  5973     179E  00DA               	movwf	(??___fldiv+4)^(0+128)
  5974     179F                     u3815:
  5975     179F  0D59               	rlf	(??___fldiv^(0+128)+3),w
  5976     17A0  0CD9               	rrf	(??___fldiv^(0+128)+3),f
  5977     17A1  0CD8               	rrf	(??___fldiv^(0+128)+2),f
  5978     17A2  0CD7               	rrf	(??___fldiv^(0+128)+1),f
  5979     17A3  0CD6               	rrf	??___fldiv^(0+128),f
  5980     17A4                     u3810:
  5981     17A4  0BDA               	decfsz	(??___fldiv+4)^(0+128),f
  5982     17A5  2F9F               	goto	u3815
  5983     17A6  0859               	movf	(??___fldiv+3)^(0+128),w
  5984     17A7  00D5               	movwf	(___fldiv@b+3)^(0+128)
  5985     17A8  0858               	movf	(??___fldiv+2)^(0+128),w
  5986     17A9  00D4               	movwf	(___fldiv@b+2)^(0+128)
  5987     17AA  0857               	movf	(??___fldiv+1)^(0+128),w
  5988     17AB  00D3               	movwf	(___fldiv@b+1)^(0+128)
  5989     17AC  0856               	movf	??___fldiv^(0+128),w
  5990     17AD  00D2               	movwf	___fldiv@b^(0+128)
  5991     17AE                     l2747:
  5992     17AE  3001               	movlw	1
  5993     17AF  07E0               	addwf	___fldiv@new_exp^(0+128),f
  5994     17B0  1803               	skipnc
  5995     17B1  0AE1               	incf	(___fldiv@new_exp+1)^(0+128),f
  5996     17B2  3000               	movlw	0
  5997     17B3  07E1               	addwf	(___fldiv@new_exp+1)^(0+128),f
  5998     17B4                     l2749:
  5999     17B4  0861               	movf	(___fldiv@new_exp+1)^(0+128),w
  6000     17B5  3A80               	xorlw	128
  6001     17B6  00FF               	movwf	btemp+1
  6002     17B7  3080               	movlw	128
  6003     17B8  027F               	subwf	btemp+1,w
  6004     17B9  1D03               	skipz
  6005     17BA  2FBD               	goto	u3825
  6006     17BB  30FF               	movlw	255
  6007     17BC  0260               	subwf	___fldiv@new_exp^(0+128),w
  6008     17BD                     u3825:
  6009     17BD  1C03               	skipc
  6010     17BE  2FC0               	goto	u3821
  6011     17BF  2FC1               	goto	u3820
  6012     17C0                     u3821:
  6013     17C0  2FCF               	goto	l2753
  6014     17C1                     u3820:
  6015     17C1                     l2751:
  6016     17C1  30FF               	movlw	255
  6017     17C2  1683               	bsf	3,5	;RP0=1, select bank1
  6018     17C3  1303               	bcf	3,6	;RP1=0, select bank1
  6019     17C4  00E0               	movwf	___fldiv@new_exp^(0+128)
  6020     17C5  3000               	movlw	0
  6021     17C6  00E1               	movwf	(___fldiv@new_exp^(0+128)+1)
  6022     17C7  3000               	movlw	0
  6023     17C8  00D5               	movwf	(___fldiv@b+3)^(0+128)
  6024     17C9  3000               	movlw	0
  6025     17CA  00D4               	movwf	(___fldiv@b+2)^(0+128)
  6026     17CB  3000               	movlw	0
  6027     17CC  00D3               	movwf	(___fldiv@b+1)^(0+128)
  6028     17CD  3000               	movlw	0
  6029     17CE  00D2               	movwf	___fldiv@b^(0+128)
  6030     17CF                     l2753:
  6031     17CF  1683               	bsf	3,5	;RP0=1, select bank1
  6032     17D0  1303               	bcf	3,6	;RP1=0, select bank1
  6033     17D1  0861               	movf	(___fldiv@new_exp+1)^(0+128),w
  6034     17D2  3A80               	xorlw	128
  6035     17D3  00FF               	movwf	btemp+1
  6036     17D4  3080               	movlw	128
  6037     17D5  027F               	subwf	btemp+1,w
  6038     17D6  1D03               	skipz
  6039     17D7  2FDA               	goto	u3835
  6040     17D8  3001               	movlw	1
  6041     17D9  0260               	subwf	___fldiv@new_exp^(0+128),w
  6042     17DA                     u3835:
  6043     17DA  1803               	skipnc
  6044     17DB  2FDD               	goto	u3831
  6045     17DC  2FDE               	goto	u3830
  6046     17DD                     u3831:
  6047     17DD  2FEB               	goto	l619
  6048     17DE                     u3830:
  6049     17DE                     l2755:
  6050     17DE  1683               	bsf	3,5	;RP0=1, select bank1
  6051     17DF  1303               	bcf	3,6	;RP1=0, select bank1
  6052     17E0  01E0               	clrf	___fldiv@new_exp^(0+128)
  6053     17E1  01E1               	clrf	(___fldiv@new_exp+1)^(0+128)
  6054     17E2                     l2757:
  6055     17E2  3000               	movlw	0
  6056     17E3  00D5               	movwf	(___fldiv@b+3)^(0+128)
  6057     17E4  3000               	movlw	0
  6058     17E5  00D4               	movwf	(___fldiv@b+2)^(0+128)
  6059     17E6  3000               	movlw	0
  6060     17E7  00D3               	movwf	(___fldiv@b+1)^(0+128)
  6061     17E8  3000               	movlw	0
  6062     17E9  00D2               	movwf	___fldiv@b^(0+128)
  6063     17EA                     l2759:
  6064     17EA  01DF               	clrf	___fldiv@sign^(0+128)
  6065     17EB                     l619:
  6066     17EB  1683               	bsf	3,5	;RP0=1, select bank1
  6067     17EC  1303               	bcf	3,6	;RP1=0, select bank1
  6068     17ED  0860               	movf	___fldiv@new_exp^(0+128),w
  6069     17EE  00E6               	movwf	___fldiv@bexp^(0+128)
  6070     17EF                     l2761:
  6071     17EF  1C66               	btfss	___fldiv@bexp^(0+128),0
  6072     17F0  2FF2               	goto	u3841
  6073     17F1  2FF3               	goto	u3840
  6074     17F2                     u3841:
  6075     17F2  2FF5               	goto	l2765
  6076     17F3                     u3840:
  6077     17F3                     l2763:
  6078     17F3  17D4               	bsf	(___fldiv@b^(0+128)+2),7
  6079     17F4  2FF9               	goto	l2767
  6080     17F5                     l2765:
  6081     17F5  307F               	movlw	127
  6082     17F6  00FF               	movwf	btemp+1
  6083     17F7  087F               	movf	btemp+1,w
  6084     17F8  05D4               	andwf	(___fldiv@b^(0+128)+2),f
  6085     17F9                     l2767:
  6086     17F9  0866               	movf	___fldiv@bexp^(0+128),w
  6087     17FA  00D6               	movwf	??___fldiv^(0+128)
  6088     17FB  1003               	clrc
  6089     17FC  0C56               	rrf	??___fldiv^(0+128),w
  6090     17FD  00D5               	movwf	(___fldiv@b^(0+128)+3)
  6091     17FE  2E9B               	goto	l2671
  6092     17FF                     l599:
  6093     17FF  0008               	return
  6094     1800                     __end_of___fldiv:
  6095                           
  6096                           	psect	text21
  6097     1F4E                     __ptext21:	
  6098 ;; *************** function _log10 *****************
  6099 ;; Defined at:
  6100 ;;		line 39 in file "C:\Program Files\Microchip\xc8\v2.41\pic\sources\c90\common\log.c"
  6101 ;; Parameters:    Size  Location     Type
  6102 ;;  x               4   30[BANK1 ] unsigned char 
  6103 ;; Auto vars:     Size  Location     Type
  6104 ;;		None
  6105 ;; Return value:  Size  Location     Type
  6106 ;;                  4   30[BANK1 ] unsigned char 
  6107 ;; Registers used:
  6108 ;;		wreg, fsr0l, fsr0h, status,2, status,0, btemp+1, pclath, cstack
  6109 ;; Tracked objects:
  6110 ;;		On entry : 0/0
  6111 ;;		On exit  : 0/0
  6112 ;;		Unchanged: 0/0
  6113 ;; Data sizes:     COMMON   BANK0   BANK1   BANK3   BANK2
  6114 ;;      Params:         0       0       4       0       0
  6115 ;;      Locals:         0       0       4       0       0
  6116 ;;      Temps:          0       0       0       0       0
  6117 ;;      Totals:         0       0       8       0       0
  6118 ;;Total ram usage:        8 bytes
  6119 ;; Hardware stack levels used: 1
  6120 ;; Hardware stack levels required when called: 5
  6121 ;; This function calls:
  6122 ;;		___flmul
  6123 ;;		_log
  6124 ;; This function is called by:
  6125 ;;		_converteVoltsParaLux
  6126 ;; This function uses a non-reentrant model
  6127 ;;
  6128                           
  6129     1F4E                     _log10:	
  6130                           ;psect for function _log10
  6131                           
  6132     1F4E                     l3855:	
  6133                           ;incstack = 0
  6134                           ; Regs used in _log10: [wreg-fsr0h+status,2+status,0+btemp+1+pclath+cstack]
  6135                           
  6136     1F4E  1683               	bsf	3,5	;RP0=1, select bank1
  6137     1F4F  1303               	bcf	3,6	;RP1=0, select bank1
  6138     1F50  0841               	movf	(log10@x+3)^(0+128),w
  6139     1F51  00BB               	movwf	(log@x+3)^(0+128)
  6140     1F52  0840               	movf	(log10@x+2)^(0+128),w
  6141     1F53  00BA               	movwf	(log@x+2)^(0+128)
  6142     1F54  083F               	movf	(log10@x+1)^(0+128),w
  6143     1F55  00B9               	movwf	(log@x+1)^(0+128)
  6144     1F56  083E               	movf	log10@x^(0+128),w
  6145     1F57  00B8               	movwf	log@x^(0+128)
  6146     1F58  120A  118A  2658  160A  158A  	fcall	_log
  6147     1F5D  1683               	bsf	3,5	;RP0=1, select bank1
  6148     1F5E  1303               	bcf	3,6	;RP1=0, select bank1
  6149     1F5F  083B               	movf	(?_log+3)^(0+128),w
  6150     1F60  00C5               	movwf	(_log10$1073+3)^(0+128)
  6151     1F61  083A               	movf	(?_log+2)^(0+128),w
  6152     1F62  00C4               	movwf	(_log10$1073+2)^(0+128)
  6153     1F63  0839               	movf	(?_log+1)^(0+128),w
  6154     1F64  00C3               	movwf	(_log10$1073+1)^(0+128)
  6155     1F65  0838               	movf	?_log^(0+128),w
  6156     1F66  00C2               	movwf	_log10$1073^(0+128)
  6157     1F67                     l3857:
  6158     1F67  303E               	movlw	62
  6159     1F68  1283               	bcf	3,5	;RP0=0, select bank0
  6160     1F69  1303               	bcf	3,6	;RP1=0, select bank0
  6161     1F6A  00CC               	movwf	___flmul@b+3
  6162     1F6B  30DE               	movlw	222
  6163     1F6C  00CB               	movwf	___flmul@b+2
  6164     1F6D  305B               	movlw	91
  6165     1F6E  00CA               	movwf	___flmul@b+1
  6166     1F6F  30D9               	movlw	217
  6167     1F70  00C9               	movwf	___flmul@b
  6168     1F71  1683               	bsf	3,5	;RP0=1, select bank1
  6169     1F72  1303               	bcf	3,6	;RP1=0, select bank1
  6170     1F73  0845               	movf	(_log10$1073+3)^(0+128),w
  6171     1F74  1283               	bcf	3,5	;RP0=0, select bank0
  6172     1F75  1303               	bcf	3,6	;RP1=0, select bank0
  6173     1F76  00D0               	movwf	___flmul@a+3
  6174     1F77  1683               	bsf	3,5	;RP0=1, select bank1
  6175     1F78  1303               	bcf	3,6	;RP1=0, select bank1
  6176     1F79  0844               	movf	(_log10$1073+2)^(0+128),w
  6177     1F7A  1283               	bcf	3,5	;RP0=0, select bank0
  6178     1F7B  1303               	bcf	3,6	;RP1=0, select bank0
  6179     1F7C  00CF               	movwf	___flmul@a+2
  6180     1F7D  1683               	bsf	3,5	;RP0=1, select bank1
  6181     1F7E  1303               	bcf	3,6	;RP1=0, select bank1
  6182     1F7F  0843               	movf	(_log10$1073+1)^(0+128),w
  6183     1F80  1283               	bcf	3,5	;RP0=0, select bank0
  6184     1F81  1303               	bcf	3,6	;RP1=0, select bank0
  6185     1F82  00CE               	movwf	___flmul@a+1
  6186     1F83  1683               	bsf	3,5	;RP0=1, select bank1
  6187     1F84  1303               	bcf	3,6	;RP1=0, select bank1
  6188     1F85  0842               	movf	_log10$1073^(0+128),w
  6189     1F86  1283               	bcf	3,5	;RP0=0, select bank0
  6190     1F87  1303               	bcf	3,6	;RP1=0, select bank0
  6191     1F88  00CD               	movwf	___flmul@a
  6192     1F89  120A  118A  2039  160A  158A  	fcall	___flmul
  6193     1F8E  1283               	bcf	3,5	;RP0=0, select bank0
  6194     1F8F  1303               	bcf	3,6	;RP1=0, select bank0
  6195     1F90  084C               	movf	?___flmul+3,w
  6196     1F91  1683               	bsf	3,5	;RP0=1, select bank1
  6197     1F92  1303               	bcf	3,6	;RP1=0, select bank1
  6198     1F93  00C1               	movwf	(?_log10+3)^(0+128)
  6199     1F94  1283               	bcf	3,5	;RP0=0, select bank0
  6200     1F95  1303               	bcf	3,6	;RP1=0, select bank0
  6201     1F96  084B               	movf	?___flmul+2,w
  6202     1F97  1683               	bsf	3,5	;RP0=1, select bank1
  6203     1F98  1303               	bcf	3,6	;RP1=0, select bank1
  6204     1F99  00C0               	movwf	(?_log10+2)^(0+128)
  6205     1F9A  1283               	bcf	3,5	;RP0=0, select bank0
  6206     1F9B  1303               	bcf	3,6	;RP1=0, select bank0
  6207     1F9C  084A               	movf	?___flmul+1,w
  6208     1F9D  1683               	bsf	3,5	;RP0=1, select bank1
  6209     1F9E  1303               	bcf	3,6	;RP1=0, select bank1
  6210     1F9F  00BF               	movwf	(?_log10+1)^(0+128)
  6211     1FA0  1283               	bcf	3,5	;RP0=0, select bank0
  6212     1FA1  1303               	bcf	3,6	;RP1=0, select bank0
  6213     1FA2  0849               	movf	?___flmul,w
  6214     1FA3  1683               	bsf	3,5	;RP0=1, select bank1
  6215     1FA4  1303               	bcf	3,6	;RP1=0, select bank1
  6216     1FA5  00BE               	movwf	?_log10^(0+128)
  6217     1FA6                     l712:
  6218     1FA6  0008               	return
  6219     1FA7                     __end_of_log10:
  6220                           
  6221                           	psect	text22
  6222     0658                     __ptext22:	
  6223 ;; *************** function _log *****************
  6224 ;; Defined at:
  6225 ;;		line 5 in file "C:\Program Files\Microchip\xc8\v2.41\pic\sources\c90\common\log.c"
  6226 ;; Parameters:    Size  Location     Type
  6227 ;;  x               4   24[BANK1 ] unsigned char 
  6228 ;; Auto vars:     Size  Location     Type
  6229 ;;  exponent        2   28[BANK1 ] int 
  6230 ;; Return value:  Size  Location     Type
  6231 ;;                  4   24[BANK1 ] int 
  6232 ;; Registers used:
  6233 ;;		wreg, fsr0l, fsr0h, status,2, status,0, btemp+1, pclath, cstack
  6234 ;; Tracked objects:
  6235 ;;		On entry : 0/0
  6236 ;;		On exit  : 0/0
  6237 ;;		Unchanged: 0/0
  6238 ;; Data sizes:     COMMON   BANK0   BANK1   BANK3   BANK2
  6239 ;;      Params:         0       0       4       0       0
  6240 ;;      Locals:         0       0       2       0       0
  6241 ;;      Temps:          0       0       0       0       0
  6242 ;;      Totals:         0       0       6       0       0
  6243 ;;Total ram usage:        6 bytes
  6244 ;; Hardware stack levels used: 1
  6245 ;; Hardware stack levels required when called: 4
  6246 ;; This function calls:
  6247 ;;		___fladd
  6248 ;;		___fleq
  6249 ;;		___flge
  6250 ;;		___flmul
  6251 ;;		___xxtofl
  6252 ;;		_eval_poly
  6253 ;;		_frexp
  6254 ;; This function is called by:
  6255 ;;		_log10
  6256 ;;		_pow
  6257 ;; This function uses a non-reentrant model
  6258 ;;
  6259                           
  6260     0658                     _log:	
  6261                           ;psect for function _log
  6262                           
  6263     0658                     l3779:	
  6264                           ;incstack = 0
  6265                           ; Regs used in _log: [wreg-fsr0h+status,2+status,0+btemp+1+pclath+cstack]
  6266                           
  6267     0658  1683               	bsf	3,5	;RP0=1, select bank1
  6268     0659  1303               	bcf	3,6	;RP1=0, select bank1
  6269     065A  083B               	movf	(log@x+3)^(0+128),w
  6270     065B  00F5               	movwf	___flge@ff1+3
  6271     065C  083A               	movf	(log@x+2)^(0+128),w
  6272     065D  00F4               	movwf	___flge@ff1+2
  6273     065E  0839               	movf	(log@x+1)^(0+128),w
  6274     065F  00F3               	movwf	___flge@ff1+1
  6275     0660  0838               	movf	log@x^(0+128),w
  6276     0661  00F2               	movwf	___flge@ff1
  6277     0662  3000               	movlw	0
  6278     0663  00F9               	movwf	___flge@ff2+3
  6279     0664  3000               	movlw	0
  6280     0665  00F8               	movwf	___flge@ff2+2
  6281     0666  3000               	movlw	0
  6282     0667  00F7               	movwf	___flge@ff2+1
  6283     0668  3000               	movlw	0
  6284     0669  00F6               	movwf	___flge@ff2
  6285     066A  160A  118A  2275  120A  118A  	fcall	___flge
  6286     066F  1803               	btfsc	3,0
  6287     0670  2E72               	goto	u5701
  6288     0671  2E73               	goto	u5700
  6289     0672                     u5701:
  6290     0672  2E84               	goto	l3785
  6291     0673                     u5700:
  6292     0673                     l3781:
  6293     0673  3021               	movlw	33
  6294     0674  1683               	bsf	3,5	;RP0=1, select bank3
  6295     0675  1703               	bsf	3,6	;RP1=1, select bank3
  6296     0676  00E1               	movwf	_errno^(0+384)
  6297     0677  3000               	movlw	0
  6298     0678  00E2               	movwf	(_errno^(0+384)+1)
  6299     0679  3000               	movlw	0
  6300     067A  1683               	bsf	3,5	;RP0=1, select bank1
  6301     067B  1303               	bcf	3,6	;RP1=0, select bank1
  6302     067C  00BB               	movwf	(?_log+3)^(0+128)
  6303     067D  3000               	movlw	0
  6304     067E  00BA               	movwf	(?_log+2)^(0+128)
  6305     067F  3000               	movlw	0
  6306     0680  00B9               	movwf	(?_log+1)^(0+128)
  6307     0681  3000               	movlw	0
  6308     0682  00B8               	movwf	?_log^(0+128)
  6309     0683  2FB3               	goto	l708
  6310     0684                     l3785:
  6311     0684  1683               	bsf	3,5	;RP0=1, select bank1
  6312     0685  1303               	bcf	3,6	;RP1=0, select bank1
  6313     0686  083B               	movf	(log@x+3)^(0+128),w
  6314     0687  1283               	bcf	3,5	;RP0=0, select bank0
  6315     0688  1303               	bcf	3,6	;RP1=0, select bank0
  6316     0689  00B9               	movwf	___fleq@ff1+3
  6317     068A  1683               	bsf	3,5	;RP0=1, select bank1
  6318     068B  1303               	bcf	3,6	;RP1=0, select bank1
  6319     068C  083A               	movf	(log@x+2)^(0+128),w
  6320     068D  1283               	bcf	3,5	;RP0=0, select bank0
  6321     068E  1303               	bcf	3,6	;RP1=0, select bank0
  6322     068F  00B8               	movwf	___fleq@ff1+2
  6323     0690  1683               	bsf	3,5	;RP0=1, select bank1
  6324     0691  1303               	bcf	3,6	;RP1=0, select bank1
  6325     0692  0839               	movf	(log@x+1)^(0+128),w
  6326     0693  1283               	bcf	3,5	;RP0=0, select bank0
  6327     0694  1303               	bcf	3,6	;RP1=0, select bank0
  6328     0695  00B7               	movwf	___fleq@ff1+1
  6329     0696  1683               	bsf	3,5	;RP0=1, select bank1
  6330     0697  1303               	bcf	3,6	;RP1=0, select bank1
  6331     0698  0838               	movf	log@x^(0+128),w
  6332     0699  1283               	bcf	3,5	;RP0=0, select bank0
  6333     069A  1303               	bcf	3,6	;RP1=0, select bank0
  6334     069B  00B6               	movwf	___fleq@ff1
  6335     069C  3000               	movlw	0
  6336     069D  00BD               	movwf	___fleq@ff2+3
  6337     069E  3000               	movlw	0
  6338     069F  00BC               	movwf	___fleq@ff2+2
  6339     06A0  3000               	movlw	0
  6340     06A1  00BB               	movwf	___fleq@ff2+1
  6341     06A2  3000               	movlw	0
  6342     06A3  00BA               	movwf	___fleq@ff2
  6343     06A4  160A  158A  26AE  120A  118A  	fcall	___fleq
  6344     06A9  1C03               	btfss	3,0
  6345     06AA  2EAC               	goto	u5711
  6346     06AB  2EAD               	goto	u5710
  6347     06AC                     u5711:
  6348     06AC  2EBE               	goto	l3791
  6349     06AD                     u5710:
  6350     06AD                     l3787:
  6351     06AD  3022               	movlw	34
  6352     06AE  1683               	bsf	3,5	;RP0=1, select bank3
  6353     06AF  1703               	bsf	3,6	;RP1=1, select bank3
  6354     06B0  00E1               	movwf	_errno^(0+384)
  6355     06B1  3000               	movlw	0
  6356     06B2  00E2               	movwf	(_errno^(0+384)+1)
  6357     06B3  3000               	movlw	0
  6358     06B4  1683               	bsf	3,5	;RP0=1, select bank1
  6359     06B5  1303               	bcf	3,6	;RP1=0, select bank1
  6360     06B6  00BB               	movwf	(?_log+3)^(0+128)
  6361     06B7  3000               	movlw	0
  6362     06B8  00BA               	movwf	(?_log+2)^(0+128)
  6363     06B9  3000               	movlw	0
  6364     06BA  00B9               	movwf	(?_log+1)^(0+128)
  6365     06BB  3000               	movlw	0
  6366     06BC  00B8               	movwf	?_log^(0+128)
  6367     06BD  2FB3               	goto	l708
  6368     06BE                     l3791:
  6369     06BE  30BF               	movlw	191
  6370     06BF  1283               	bcf	3,5	;RP0=0, select bank0
  6371     06C0  1303               	bcf	3,6	;RP1=0, select bank0
  6372     06C1  00E6               	movwf	___fladd@b+3
  6373     06C2  3080               	movlw	128
  6374     06C3  00E5               	movwf	___fladd@b+2
  6375     06C4  3000               	movlw	0
  6376     06C5  00E4               	movwf	___fladd@b+1
  6377     06C6  3000               	movlw	0
  6378     06C7  00E3               	movwf	___fladd@b
  6379     06C8  3040               	movlw	64
  6380     06C9  00CC               	movwf	___flmul@b+3
  6381     06CA  3000               	movlw	0
  6382     06CB  00CB               	movwf	___flmul@b+2
  6383     06CC  3000               	movlw	0
  6384     06CD  00CA               	movwf	___flmul@b+1
  6385     06CE  3000               	movlw	0
  6386     06CF  00C9               	movwf	___flmul@b
  6387     06D0  30BC               	movlw	(low (log@exponent| 0))& (0+255)
  6388     06D1  00C6               	movwf	frexp@eptr
  6389     06D2  1683               	bsf	3,5	;RP0=1, select bank1
  6390     06D3  1303               	bcf	3,6	;RP1=0, select bank1
  6391     06D4  083B               	movf	(log@x+3)^(0+128),w
  6392     06D5  1283               	bcf	3,5	;RP0=0, select bank0
  6393     06D6  1303               	bcf	3,6	;RP1=0, select bank0
  6394     06D7  00C5               	movwf	frexp@value+3
  6395     06D8  1683               	bsf	3,5	;RP0=1, select bank1
  6396     06D9  1303               	bcf	3,6	;RP1=0, select bank1
  6397     06DA  083A               	movf	(log@x+2)^(0+128),w
  6398     06DB  1283               	bcf	3,5	;RP0=0, select bank0
  6399     06DC  1303               	bcf	3,6	;RP1=0, select bank0
  6400     06DD  00C4               	movwf	frexp@value+2
  6401     06DE  1683               	bsf	3,5	;RP0=1, select bank1
  6402     06DF  1303               	bcf	3,6	;RP1=0, select bank1
  6403     06E0  0839               	movf	(log@x+1)^(0+128),w
  6404     06E1  1283               	bcf	3,5	;RP0=0, select bank0
  6405     06E2  1303               	bcf	3,6	;RP1=0, select bank0
  6406     06E3  00C3               	movwf	frexp@value+1
  6407     06E4  1683               	bsf	3,5	;RP0=1, select bank1
  6408     06E5  1303               	bcf	3,6	;RP1=0, select bank1
  6409     06E6  0838               	movf	log@x^(0+128),w
  6410     06E7  1283               	bcf	3,5	;RP0=0, select bank0
  6411     06E8  1303               	bcf	3,6	;RP1=0, select bank0
  6412     06E9  00C2               	movwf	frexp@value
  6413     06EA  160A  118A  20AC  120A  118A  	fcall	_frexp
  6414     06EF  1283               	bcf	3,5	;RP0=0, select bank0
  6415     06F0  1303               	bcf	3,6	;RP1=0, select bank0
  6416     06F1  0845               	movf	?_frexp+3,w
  6417     06F2  00D0               	movwf	___flmul@a+3
  6418     06F3  0844               	movf	?_frexp+2,w
  6419     06F4  00CF               	movwf	___flmul@a+2
  6420     06F5  0843               	movf	?_frexp+1,w
  6421     06F6  00CE               	movwf	___flmul@a+1
  6422     06F7  0842               	movf	?_frexp,w
  6423     06F8  00CD               	movwf	___flmul@a
  6424     06F9  120A  118A  2039  120A  118A  	fcall	___flmul
  6425     06FE  1283               	bcf	3,5	;RP0=0, select bank0
  6426     06FF  1303               	bcf	3,6	;RP1=0, select bank0
  6427     0700  084C               	movf	?___flmul+3,w
  6428     0701  00EA               	movwf	___fladd@a+3
  6429     0702  084B               	movf	?___flmul+2,w
  6430     0703  00E9               	movwf	___fladd@a+2
  6431     0704  084A               	movf	?___flmul+1,w
  6432     0705  00E8               	movwf	___fladd@a+1
  6433     0706  0849               	movf	?___flmul,w
  6434     0707  00E7               	movwf	___fladd@a
  6435     0708  120A  118A  237E  120A  118A  	fcall	___fladd
  6436     070D  1283               	bcf	3,5	;RP0=0, select bank0
  6437     070E  1303               	bcf	3,6	;RP1=0, select bank0
  6438     070F  0866               	movf	?___fladd+3,w
  6439     0710  1683               	bsf	3,5	;RP0=1, select bank1
  6440     0711  1303               	bcf	3,6	;RP1=0, select bank1
  6441     0712  00BB               	movwf	(log@x+3)^(0+128)
  6442     0713  1283               	bcf	3,5	;RP0=0, select bank0
  6443     0714  1303               	bcf	3,6	;RP1=0, select bank0
  6444     0715  0865               	movf	?___fladd+2,w
  6445     0716  1683               	bsf	3,5	;RP0=1, select bank1
  6446     0717  1303               	bcf	3,6	;RP1=0, select bank1
  6447     0718  00BA               	movwf	(log@x+2)^(0+128)
  6448     0719  1283               	bcf	3,5	;RP0=0, select bank0
  6449     071A  1303               	bcf	3,6	;RP1=0, select bank0
  6450     071B  0864               	movf	?___fladd+1,w
  6451     071C  1683               	bsf	3,5	;RP0=1, select bank1
  6452     071D  1303               	bcf	3,6	;RP1=0, select bank1
  6453     071E  00B9               	movwf	(log@x+1)^(0+128)
  6454     071F  1283               	bcf	3,5	;RP0=0, select bank0
  6455     0720  1303               	bcf	3,6	;RP1=0, select bank0
  6456     0721  0863               	movf	?___fladd,w
  6457     0722  1683               	bsf	3,5	;RP0=1, select bank1
  6458     0723  1303               	bcf	3,6	;RP1=0, select bank1
  6459     0724  00B8               	movwf	log@x^(0+128)
  6460     0725                     l3793:
  6461     0725  30FF               	movlw	255
  6462     0726  07BC               	addwf	log@exponent^(0+128),f
  6463     0727  1803               	skipnc
  6464     0728  0ABD               	incf	(log@exponent+1)^(0+128),f
  6465     0729  30FF               	movlw	255
  6466     072A  07BD               	addwf	(log@exponent+1)^(0+128),f
  6467     072B                     l3795:
  6468     072B  083B               	movf	(log@x+3)^(0+128),w
  6469     072C  00AB               	movwf	(eval_poly@x+3)^(0+128)
  6470     072D  083A               	movf	(log@x+2)^(0+128),w
  6471     072E  00AA               	movwf	(eval_poly@x+2)^(0+128)
  6472     072F  0839               	movf	(log@x+1)^(0+128),w
  6473     0730  00A9               	movwf	(eval_poly@x+1)^(0+128)
  6474     0731  0838               	movf	log@x^(0+128),w
  6475     0732  00A8               	movwf	eval_poly@x^(0+128)
  6476     0733  3029               	movlw	(low ((log@coeff-__stringbase)| (0+32768)))& (0+255)
  6477     0734  00AC               	movwf	eval_poly@d^(0+128)
  6478     0735  3008               	movlw	8
  6479     0736  00AD               	movwf	eval_poly@n^(0+128)
  6480     0737  3000               	movlw	0
  6481     0738  00AE               	movwf	(eval_poly@n^(0+128)+1)
  6482     0739  160A  118A  2557  120A  118A  	fcall	_eval_poly
  6483     073E  1683               	bsf	3,5	;RP0=1, select bank1
  6484     073F  1303               	bcf	3,6	;RP1=0, select bank1
  6485     0740  082B               	movf	(?_eval_poly+3)^(0+128),w
  6486     0741  00BB               	movwf	(log@x+3)^(0+128)
  6487     0742  082A               	movf	(?_eval_poly+2)^(0+128),w
  6488     0743  00BA               	movwf	(log@x+2)^(0+128)
  6489     0744  0829               	movf	(?_eval_poly+1)^(0+128),w
  6490     0745  00B9               	movwf	(log@x+1)^(0+128)
  6491     0746  0828               	movf	?_eval_poly^(0+128),w
  6492     0747  00B8               	movwf	log@x^(0+128)
  6493     0748                     l3797:
  6494     0748  083B               	movf	(log@x+3)^(0+128),w
  6495     0749  1283               	bcf	3,5	;RP0=0, select bank0
  6496     074A  1303               	bcf	3,6	;RP1=0, select bank0
  6497     074B  00E6               	movwf	___fladd@b+3
  6498     074C  1683               	bsf	3,5	;RP0=1, select bank1
  6499     074D  1303               	bcf	3,6	;RP1=0, select bank1
  6500     074E  083A               	movf	(log@x+2)^(0+128),w
  6501     074F  1283               	bcf	3,5	;RP0=0, select bank0
  6502     0750  1303               	bcf	3,6	;RP1=0, select bank0
  6503     0751  00E5               	movwf	___fladd@b+2
  6504     0752  1683               	bsf	3,5	;RP0=1, select bank1
  6505     0753  1303               	bcf	3,6	;RP1=0, select bank1
  6506     0754  0839               	movf	(log@x+1)^(0+128),w
  6507     0755  1283               	bcf	3,5	;RP0=0, select bank0
  6508     0756  1303               	bcf	3,6	;RP1=0, select bank0
  6509     0757  00E4               	movwf	___fladd@b+1
  6510     0758  1683               	bsf	3,5	;RP0=1, select bank1
  6511     0759  1303               	bcf	3,6	;RP1=0, select bank1
  6512     075A  0838               	movf	log@x^(0+128),w
  6513     075B  1283               	bcf	3,5	;RP0=0, select bank0
  6514     075C  1303               	bcf	3,6	;RP1=0, select bank0
  6515     075D  00E3               	movwf	___fladd@b
  6516     075E  303F               	movlw	63
  6517     075F  00CC               	movwf	___flmul@b+3
  6518     0760  3031               	movlw	49
  6519     0761  00CB               	movwf	___flmul@b+2
  6520     0762  3072               	movlw	114
  6521     0763  00CA               	movwf	___flmul@b+1
  6522     0764  3018               	movlw	24
  6523     0765  00C9               	movwf	___flmul@b
  6524     0766  1683               	bsf	3,5	;RP0=1, select bank1
  6525     0767  1303               	bcf	3,6	;RP1=0, select bank1
  6526     0768  083C               	movf	log@exponent^(0+128),w
  6527     0769  1283               	bcf	3,5	;RP0=0, select bank0
  6528     076A  1303               	bcf	3,6	;RP1=0, select bank0
  6529     076B  00A8               	movwf	___xxtofl@val
  6530     076C  1683               	bsf	3,5	;RP0=1, select bank1
  6531     076D  1303               	bcf	3,6	;RP1=0, select bank1
  6532     076E  083D               	movf	(log@exponent+1)^(0+128),w
  6533     076F  1283               	bcf	3,5	;RP0=0, select bank0
  6534     0770  1303               	bcf	3,6	;RP1=0, select bank0
  6535     0771  00A9               	movwf	___xxtofl@val+1
  6536     0772  3000               	movlw	0
  6537     0773  1BA9               	btfsc	___xxtofl@val+1,7
  6538     0774  30FF               	movlw	255
  6539     0775  00AA               	movwf	___xxtofl@val+2
  6540     0776  00AB               	movwf	___xxtofl@val+3
  6541     0777  3001               	movlw	1
  6542     0778  160A  118A  2319  120A  118A  	fcall	___xxtofl
  6543     077D  1283               	bcf	3,5	;RP0=0, select bank0
  6544     077E  1303               	bcf	3,6	;RP1=0, select bank0
  6545     077F  082B               	movf	?___xxtofl+3,w
  6546     0780  00D0               	movwf	___flmul@a+3
  6547     0781  082A               	movf	?___xxtofl+2,w
  6548     0782  00CF               	movwf	___flmul@a+2
  6549     0783  0829               	movf	?___xxtofl+1,w
  6550     0784  00CE               	movwf	___flmul@a+1
  6551     0785  0828               	movf	?___xxtofl,w
  6552     0786  00CD               	movwf	___flmul@a
  6553     0787  120A  118A  2039  120A  118A  	fcall	___flmul
  6554     078C  1283               	bcf	3,5	;RP0=0, select bank0
  6555     078D  1303               	bcf	3,6	;RP1=0, select bank0
  6556     078E  084C               	movf	?___flmul+3,w
  6557     078F  00EA               	movwf	___fladd@a+3
  6558     0790  084B               	movf	?___flmul+2,w
  6559     0791  00E9               	movwf	___fladd@a+2
  6560     0792  084A               	movf	?___flmul+1,w
  6561     0793  00E8               	movwf	___fladd@a+1
  6562     0794  0849               	movf	?___flmul,w
  6563     0795  00E7               	movwf	___fladd@a
  6564     0796  120A  118A  237E  120A  118A  	fcall	___fladd
  6565     079B  1283               	bcf	3,5	;RP0=0, select bank0
  6566     079C  1303               	bcf	3,6	;RP1=0, select bank0
  6567     079D  0866               	movf	?___fladd+3,w
  6568     079E  1683               	bsf	3,5	;RP0=1, select bank1
  6569     079F  1303               	bcf	3,6	;RP1=0, select bank1
  6570     07A0  00BB               	movwf	(?_log+3)^(0+128)
  6571     07A1  1283               	bcf	3,5	;RP0=0, select bank0
  6572     07A2  1303               	bcf	3,6	;RP1=0, select bank0
  6573     07A3  0865               	movf	?___fladd+2,w
  6574     07A4  1683               	bsf	3,5	;RP0=1, select bank1
  6575     07A5  1303               	bcf	3,6	;RP1=0, select bank1
  6576     07A6  00BA               	movwf	(?_log+2)^(0+128)
  6577     07A7  1283               	bcf	3,5	;RP0=0, select bank0
  6578     07A8  1303               	bcf	3,6	;RP1=0, select bank0
  6579     07A9  0864               	movf	?___fladd+1,w
  6580     07AA  1683               	bsf	3,5	;RP0=1, select bank1
  6581     07AB  1303               	bcf	3,6	;RP1=0, select bank1
  6582     07AC  00B9               	movwf	(?_log+1)^(0+128)
  6583     07AD  1283               	bcf	3,5	;RP0=0, select bank0
  6584     07AE  1303               	bcf	3,6	;RP1=0, select bank0
  6585     07AF  0863               	movf	?___fladd,w
  6586     07B0  1683               	bsf	3,5	;RP0=1, select bank1
  6587     07B1  1303               	bcf	3,6	;RP1=0, select bank1
  6588     07B2  00B8               	movwf	?_log^(0+128)
  6589     07B3                     l708:
  6590     07B3  0008               	return
  6591     07B4                     __end_of_log:
  6592                           
  6593                           	psect	text23
  6594     10AC                     __ptext23:	
  6595 ;; *************** function _frexp *****************
  6596 ;; Defined at:
  6597 ;;		line 254 in file "C:\Program Files\Microchip\xc8\v2.41\pic\sources\c90\common\frexp.c"
  6598 ;; Parameters:    Size  Location     Type
  6599 ;;  value           4   34[BANK0 ] int 
  6600 ;;  eptr            1   38[BANK0 ] PTR int 
  6601 ;;		 -> floor@expon(2), log@exponent(2), 
  6602 ;; Auto vars:     Size  Location     Type
  6603 ;;		None
  6604 ;; Return value:  Size  Location     Type
  6605 ;;                  4   34[BANK0 ] PTR int 
  6606 ;; Registers used:
  6607 ;;		wreg, fsr0l, fsr0h, status,2, status,0, btemp+1, pclath, cstack
  6608 ;; Tracked objects:
  6609 ;;		On entry : 0/0
  6610 ;;		On exit  : 0/0
  6611 ;;		Unchanged: 0/0
  6612 ;; Data sizes:     COMMON   BANK0   BANK1   BANK3   BANK2
  6613 ;;      Params:         0       5       0       0       0
  6614 ;;      Locals:         0       0       0       0       0
  6615 ;;      Temps:          0       2       0       0       0
  6616 ;;      Totals:         0       7       0       0       0
  6617 ;;Total ram usage:        7 bytes
  6618 ;; Hardware stack levels used: 1
  6619 ;; Hardware stack levels required when called: 2
  6620 ;; This function calls:
  6621 ;;		___fleq
  6622 ;; This function is called by:
  6623 ;;		_log
  6624 ;;		_floor
  6625 ;; This function uses a non-reentrant model
  6626 ;;
  6627                           
  6628     10AC                     _frexp:	
  6629                           ;psect for function _frexp
  6630                           
  6631     10AC                     l2565:	
  6632                           ;incstack = 0
  6633                           ; Regs used in _frexp: [wreg-fsr0h+status,2+status,0+btemp+1+pclath+cstack]
  6634                           
  6635     10AC  1283               	bcf	3,5	;RP0=0, select bank0
  6636     10AD  1303               	bcf	3,6	;RP1=0, select bank0
  6637     10AE  0845               	movf	frexp@value+3,w
  6638     10AF  00B9               	movwf	___fleq@ff1+3
  6639     10B0  0844               	movf	frexp@value+2,w
  6640     10B1  00B8               	movwf	___fleq@ff1+2
  6641     10B2  0843               	movf	frexp@value+1,w
  6642     10B3  00B7               	movwf	___fleq@ff1+1
  6643     10B4  0842               	movf	frexp@value,w
  6644     10B5  00B6               	movwf	___fleq@ff1
  6645     10B6  3000               	movlw	0
  6646     10B7  00BD               	movwf	___fleq@ff2+3
  6647     10B8  3000               	movlw	0
  6648     10B9  00BC               	movwf	___fleq@ff2+2
  6649     10BA  3000               	movlw	0
  6650     10BB  00BB               	movwf	___fleq@ff2+1
  6651     10BC  3000               	movlw	0
  6652     10BD  00BA               	movwf	___fleq@ff2
  6653     10BE  160A  158A  26AE  160A  118A  	fcall	___fleq
  6654     10C3  1C03               	btfss	3,0
  6655     10C4  28C6               	goto	u3531
  6656     10C5  28C7               	goto	u3530
  6657     10C6                     u3531:
  6658     10C6  28D8               	goto	l2573
  6659     10C7                     u3530:
  6660     10C7                     l2567:
  6661     10C7  1283               	bcf	3,5	;RP0=0, select bank0
  6662     10C8  1303               	bcf	3,6	;RP1=0, select bank0
  6663     10C9  0846               	movf	frexp@eptr,w
  6664     10CA  0084               	movwf	4
  6665     10CB  1383               	bcf	3,7	;select IRP bank0
  6666     10CC  0180               	clrf	0
  6667     10CD  0A84               	incf	4,f
  6668     10CE  0180               	clrf	0
  6669     10CF                     l2569:
  6670     10CF  3000               	movlw	0
  6671     10D0  00C5               	movwf	?_frexp+3
  6672     10D1  3000               	movlw	0
  6673     10D2  00C4               	movwf	?_frexp+2
  6674     10D3  3000               	movlw	0
  6675     10D4  00C3               	movwf	?_frexp+1
  6676     10D5  3000               	movlw	0
  6677     10D6  00C2               	movwf	?_frexp
  6678     10D7  2907               	goto	l726
  6679     10D8                     l2573:
  6680     10D8  1283               	bcf	3,5	;RP0=0, select bank0
  6681     10D9  1303               	bcf	3,6	;RP1=0, select bank0
  6682     10DA  0845               	movf	frexp@value+3,w
  6683     10DB  397F               	andlw	127
  6684     10DC  00C7               	movwf	??_frexp
  6685     10DD  01C8               	clrf	??_frexp+1
  6686     10DE  1003               	clrc
  6687     10DF  0DC7               	rlf	??_frexp,f
  6688     10E0  0DC8               	rlf	??_frexp+1,f
  6689     10E1  0846               	movf	frexp@eptr,w
  6690     10E2  0084               	movwf	4
  6691     10E3  0847               	movf	??_frexp,w
  6692     10E4  1383               	bcf	3,7	;select IRP bank0
  6693     10E5  0080               	movwf	0
  6694     10E6  0A84               	incf	4,f
  6695     10E7  0848               	movf	??_frexp+1,w
  6696     10E8  0080               	movwf	0
  6697     10E9  0D44               	rlf	frexp@value+2,w
  6698     10EA  0D44               	rlf	frexp@value+2,w
  6699     10EB  3901               	andlw	1
  6700     10EC  00C7               	movwf	??_frexp
  6701     10ED  01C8               	clrf	??_frexp+1
  6702     10EE  0846               	movf	frexp@eptr,w
  6703     10EF  0084               	movwf	4
  6704     10F0  0847               	movf	??_frexp,w
  6705     10F1  0480               	iorwf	0,f
  6706     10F2  0A84               	incf	4,f
  6707     10F3  0848               	movf	??_frexp+1,w
  6708     10F4  0480               	iorwf	0,f
  6709     10F5                     l2575:
  6710     10F5  0846               	movf	frexp@eptr,w
  6711     10F6  0084               	movwf	4
  6712     10F7  3082               	movlw	130
  6713     10F8  0780               	addwf	0,f
  6714     10F9  0F84               	incfsz	4,f
  6715     10FA  0800               	movf	0,w
  6716     10FB  1803               	skipnc
  6717     10FC  0A00               	incf	0,w
  6718     10FD  00FF               	movwf	btemp+1
  6719     10FE  30FF               	movlw	255
  6720     10FF  077F               	addwf	btemp+1,w
  6721     1100  0080               	movwf	0
  6722     1101  0384               	decf	4,f
  6723     1102                     l2577:
  6724     1102  0845               	movf	frexp@value+3,w
  6725     1103  3980               	andlw	-128
  6726     1104  383F               	iorlw	63
  6727     1105  00C5               	movwf	frexp@value+3
  6728     1106                     l2579:
  6729     1106  13C4               	bcf	frexp@value+2,7
  6730     1107                     l2581:
  6731     1107                     l726:
  6732     1107  0008               	return
  6733     1108                     __end_of_frexp:
  6734                           
  6735                           	psect	text24
  6736     1EAE                     __ptext24:	
  6737 ;; *************** function ___fleq *****************
  6738 ;; Defined at:
  6739 ;;		line 4 in file "C:\Program Files\Microchip\xc8\v2.41\pic\sources\c90\common\fleq.c"
  6740 ;; Parameters:    Size  Location     Type
  6741 ;;  ff1             4   22[BANK0 ] PTR int 
  6742 ;;  ff2             4   26[BANK0 ] PTR int 
  6743 ;; Auto vars:     Size  Location     Type
  6744 ;;		None
  6745 ;; Return value:  Size  Location     Type
  6746 ;;		None               void
  6747 ;; Registers used:
  6748 ;;		wreg, status,2, status,0
  6749 ;; Tracked objects:
  6750 ;;		On entry : 0/0
  6751 ;;		On exit  : 0/0
  6752 ;;		Unchanged: 0/0
  6753 ;; Data sizes:     COMMON   BANK0   BANK1   BANK3   BANK2
  6754 ;;      Params:         0       8       0       0       0
  6755 ;;      Locals:         0       0       0       0       0
  6756 ;;      Temps:          0       4       0       0       0
  6757 ;;      Totals:         0      12       0       0       0
  6758 ;;Total ram usage:       12 bytes
  6759 ;; Hardware stack levels used: 1
  6760 ;; Hardware stack levels required when called: 1
  6761 ;; This function calls:
  6762 ;;		Nothing
  6763 ;; This function is called by:
  6764 ;;		_log
  6765 ;;		_frexp
  6766 ;;		_ldexp
  6767 ;;		_pow
  6768 ;;		_exp
  6769 ;; This function uses a non-reentrant model
  6770 ;;
  6771                           
  6772     1EAE                     ___fleq:	
  6773                           ;psect for function ___fleq
  6774                           
  6775     1EAE                     l2081:	
  6776                           ;incstack = 0
  6777                           ; Regs used in ___fleq: [wreg+status,2+status,0]
  6778                           
  6779     1EAE  3000               	movlw	0
  6780     1EAF  1283               	bcf	3,5	;RP0=0, select bank0
  6781     1EB0  1303               	bcf	3,6	;RP1=0, select bank0
  6782     1EB1  0536               	andwf	___fleq@ff1,w
  6783     1EB2  00BE               	movwf	??___fleq
  6784     1EB3  3000               	movlw	0
  6785     1EB4  0537               	andwf	___fleq@ff1+1,w
  6786     1EB5  00BF               	movwf	??___fleq+1
  6787     1EB6  3080               	movlw	128
  6788     1EB7  0538               	andwf	___fleq@ff1+2,w
  6789     1EB8  00C0               	movwf	??___fleq+2
  6790     1EB9  307F               	movlw	127
  6791     1EBA  0539               	andwf	___fleq@ff1+3,w
  6792     1EBB  00C1               	movwf	??___fleq+3
  6793     1EBC  0841               	movf	??___fleq+3,w
  6794     1EBD  0440               	iorwf	??___fleq+2,w
  6795     1EBE  043F               	iorwf	??___fleq+1,w
  6796     1EBF  043E               	iorwf	??___fleq,w
  6797     1EC0  1D03               	skipz
  6798     1EC1  2EC3               	goto	u2291
  6799     1EC2  2EC4               	goto	u2290
  6800     1EC3                     u2291:
  6801     1EC3  2ECC               	goto	l417
  6802     1EC4                     u2290:
  6803     1EC4                     l2083:
  6804     1EC4  3000               	movlw	0
  6805     1EC5  00B9               	movwf	___fleq@ff1+3
  6806     1EC6  3000               	movlw	0
  6807     1EC7  00B8               	movwf	___fleq@ff1+2
  6808     1EC8  3000               	movlw	0
  6809     1EC9  00B7               	movwf	___fleq@ff1+1
  6810     1ECA  3000               	movlw	0
  6811     1ECB  00B6               	movwf	___fleq@ff1
  6812     1ECC                     l417:
  6813     1ECC  3000               	movlw	0
  6814     1ECD  053A               	andwf	___fleq@ff2,w
  6815     1ECE  00BE               	movwf	??___fleq
  6816     1ECF  3000               	movlw	0
  6817     1ED0  053B               	andwf	___fleq@ff2+1,w
  6818     1ED1  00BF               	movwf	??___fleq+1
  6819     1ED2  3080               	movlw	128
  6820     1ED3  053C               	andwf	___fleq@ff2+2,w
  6821     1ED4  00C0               	movwf	??___fleq+2
  6822     1ED5  307F               	movlw	127
  6823     1ED6  053D               	andwf	___fleq@ff2+3,w
  6824     1ED7  00C1               	movwf	??___fleq+3
  6825     1ED8  0841               	movf	??___fleq+3,w
  6826     1ED9  0440               	iorwf	??___fleq+2,w
  6827     1EDA  043F               	iorwf	??___fleq+1,w
  6828     1EDB  043E               	iorwf	??___fleq,w
  6829     1EDC  1D03               	skipz
  6830     1EDD  2EDF               	goto	u2301
  6831     1EDE  2EE0               	goto	u2300
  6832     1EDF                     u2301:
  6833     1EDF  2EE8               	goto	l418
  6834     1EE0                     u2300:
  6835     1EE0                     l2085:
  6836     1EE0  3000               	movlw	0
  6837     1EE1  00BD               	movwf	___fleq@ff2+3
  6838     1EE2  3000               	movlw	0
  6839     1EE3  00BC               	movwf	___fleq@ff2+2
  6840     1EE4  3000               	movlw	0
  6841     1EE5  00BB               	movwf	___fleq@ff2+1
  6842     1EE6  3000               	movlw	0
  6843     1EE7  00BA               	movwf	___fleq@ff2
  6844     1EE8                     l418:
  6845     1EE8  083D               	movf	___fleq@ff2+3,w
  6846     1EE9  0639               	xorwf	___fleq@ff1+3,w
  6847     1EEA  1D03               	skipz
  6848     1EEB  2EF6               	goto	u2315
  6849     1EEC  083C               	movf	___fleq@ff2+2,w
  6850     1EED  0638               	xorwf	___fleq@ff1+2,w
  6851     1EEE  1D03               	skipz
  6852     1EEF  2EF6               	goto	u2315
  6853     1EF0  083B               	movf	___fleq@ff2+1,w
  6854     1EF1  0637               	xorwf	___fleq@ff1+1,w
  6855     1EF2  1D03               	skipz
  6856     1EF3  2EF6               	goto	u2315
  6857     1EF4  083A               	movf	___fleq@ff2,w
  6858     1EF5  0636               	xorwf	___fleq@ff1,w
  6859     1EF6                     u2315:
  6860     1EF6  1903               	skipnz
  6861     1EF7  2EF9               	goto	u2311
  6862     1EF8  2EFA               	goto	u2310
  6863     1EF9                     u2311:
  6864     1EF9  2EFC               	goto	l2089
  6865     1EFA                     u2310:
  6866     1EFA                     l2087:
  6867     1EFA  1003               	clrc
  6868     1EFB  2EFD               	goto	l419
  6869     1EFC                     l2089:
  6870     1EFC  1403               	setc
  6871     1EFD                     l419:
  6872     1EFD  0008               	return
  6873     1EFE                     __end_of___fleq:
  6874                           
  6875                           	psect	text25
  6876     1557                     __ptext25:	
  6877 ;; *************** function _eval_poly *****************
  6878 ;; Defined at:
  6879 ;;		line 4 in file "C:\Program Files\Microchip\xc8\v2.41\pic\sources\c90\common\evalpoly.c"
  6880 ;; Parameters:    Size  Location     Type
  6881 ;;  x               4    8[BANK1 ] PTR int 
  6882 ;;  d               1   12[BANK1 ] PTR const 
  6883 ;;		 -> exp@coeff(40), log@coeff(36), 
  6884 ;;  n               2   13[BANK1 ] int 
  6885 ;; Auto vars:     Size  Location     Type
  6886 ;;  res             4   20[BANK1 ] int 
  6887 ;; Return value:  Size  Location     Type
  6888 ;;                  4    8[BANK1 ] int 
  6889 ;; Registers used:
  6890 ;;		wreg, fsr0l, fsr0h, status,2, status,0, btemp+1, pclath, cstack
  6891 ;; Tracked objects:
  6892 ;;		On entry : 0/0
  6893 ;;		On exit  : 0/0
  6894 ;;		Unchanged: 0/0
  6895 ;; Data sizes:     COMMON   BANK0   BANK1   BANK3   BANK2
  6896 ;;      Params:         0       0       7       0       0
  6897 ;;      Locals:         0       0       4       0       0
  6898 ;;      Temps:          0       0       5       0       0
  6899 ;;      Totals:         0       0      16       0       0
  6900 ;;Total ram usage:       16 bytes
  6901 ;; Hardware stack levels used: 1
  6902 ;; Hardware stack levels required when called: 3
  6903 ;; This function calls:
  6904 ;;		___fladd
  6905 ;;		___flmul
  6906 ;; This function is called by:
  6907 ;;		_log
  6908 ;;		_exp
  6909 ;; This function uses a non-reentrant model
  6910 ;;
  6911                           
  6912     1557                     _eval_poly:	
  6913                           ;psect for function _eval_poly
  6914                           
  6915     1557                     l3709:	
  6916                           ;incstack = 0
  6917                           ; Regs used in _eval_poly: [wreg-fsr0h+status,2+status,0+btemp+1+pclath+cstack]
  6918                           
  6919     1557  1683               	bsf	3,5	;RP0=1, select bank1
  6920     1558  1303               	bcf	3,6	;RP1=0, select bank1
  6921     1559  082D               	movf	eval_poly@n^(0+128),w
  6922     155A  00AF               	movwf	??_eval_poly^(0+128)
  6923     155B  3001               	movlw	1
  6924     155C                     u5565:
  6925     155C  1003               	clrc
  6926     155D  0DAF               	rlf	??_eval_poly^(0+128),f
  6927     155E  3EFF               	addlw	-1
  6928     155F  1D03               	skipz
  6929     1560  2D5C               	goto	u5565
  6930     1561  1003               	clrc
  6931     1562  0D2F               	rlf	??_eval_poly^(0+128),w
  6932     1563  072C               	addwf	eval_poly@d^(0+128),w
  6933     1564  0084               	movwf	4
  6934     1565  160A  118A  200A  160A  118A  	fcall	stringdir
  6935     156A  00B0               	movwf	(??_eval_poly+1)^(0+128)
  6936     156B  160A  118A  200A  160A  118A  	fcall	stringdir
  6937     1570  00B1               	movwf	((??_eval_poly+1)^(0+128)+1)
  6938     1571  160A  118A  200A  160A  118A  	fcall	stringdir
  6939     1576  00B2               	movwf	((??_eval_poly+1)^(0+128)+2)
  6940     1577  160A  118A  200A  160A  118A  	fcall	stringdir
  6941     157C  00B3               	movwf	((??_eval_poly+1)^(0+128)+3)
  6942     157D  0833               	movf	(??_eval_poly+4)^(0+128),w
  6943     157E  00B7               	movwf	(eval_poly@res+3)^(0+128)
  6944     157F  0832               	movf	(??_eval_poly+3)^(0+128),w
  6945     1580  00B6               	movwf	(eval_poly@res+2)^(0+128)
  6946     1581  0831               	movf	(??_eval_poly+2)^(0+128),w
  6947     1582  00B5               	movwf	(eval_poly@res+1)^(0+128)
  6948     1583  0830               	movf	(??_eval_poly+1)^(0+128),w
  6949     1584  00B4               	movwf	eval_poly@res^(0+128)
  6950     1585  2E22               	goto	l3713
  6951     1586                     l3711:
  6952     1586  30FF               	movlw	255
  6953     1587  07AD               	addwf	eval_poly@n^(0+128),f
  6954     1588  1803               	skipnc
  6955     1589  0AAE               	incf	(eval_poly@n+1)^(0+128),f
  6956     158A  30FF               	movlw	255
  6957     158B  07AE               	addwf	(eval_poly@n+1)^(0+128),f
  6958     158C  082D               	movf	eval_poly@n^(0+128),w
  6959     158D  00AF               	movwf	??_eval_poly^(0+128)
  6960     158E  3001               	movlw	1
  6961     158F                     u5575:
  6962     158F  1003               	clrc
  6963     1590  0DAF               	rlf	??_eval_poly^(0+128),f
  6964     1591  3EFF               	addlw	-1
  6965     1592  1D03               	skipz
  6966     1593  2D8F               	goto	u5575
  6967     1594  1003               	clrc
  6968     1595  0D2F               	rlf	??_eval_poly^(0+128),w
  6969     1596  072C               	addwf	eval_poly@d^(0+128),w
  6970     1597  0084               	movwf	4
  6971     1598  160A  118A  200A  160A  118A  	fcall	stringdir
  6972     159D  00B0               	movwf	(??_eval_poly+1)^(0+128)
  6973     159E  160A  118A  200A  160A  118A  	fcall	stringdir
  6974     15A3  00B1               	movwf	((??_eval_poly+1)^(0+128)+1)
  6975     15A4  160A  118A  200A  160A  118A  	fcall	stringdir
  6976     15A9  00B2               	movwf	((??_eval_poly+1)^(0+128)+2)
  6977     15AA  160A  118A  200A  160A  118A  	fcall	stringdir
  6978     15AF  00B3               	movwf	((??_eval_poly+1)^(0+128)+3)
  6979     15B0  0833               	movf	(??_eval_poly+4)^(0+128),w
  6980     15B1  1283               	bcf	3,5	;RP0=0, select bank0
  6981     15B2  1303               	bcf	3,6	;RP1=0, select bank0
  6982     15B3  00E6               	movwf	___fladd@b+3
  6983     15B4  1683               	bsf	3,5	;RP0=1, select bank1
  6984     15B5  1303               	bcf	3,6	;RP1=0, select bank1
  6985     15B6  0832               	movf	(??_eval_poly+3)^(0+128),w
  6986     15B7  1283               	bcf	3,5	;RP0=0, select bank0
  6987     15B8  1303               	bcf	3,6	;RP1=0, select bank0
  6988     15B9  00E5               	movwf	___fladd@b+2
  6989     15BA  1683               	bsf	3,5	;RP0=1, select bank1
  6990     15BB  1303               	bcf	3,6	;RP1=0, select bank1
  6991     15BC  0831               	movf	(??_eval_poly+2)^(0+128),w
  6992     15BD  1283               	bcf	3,5	;RP0=0, select bank0
  6993     15BE  1303               	bcf	3,6	;RP1=0, select bank0
  6994     15BF  00E4               	movwf	___fladd@b+1
  6995     15C0  1683               	bsf	3,5	;RP0=1, select bank1
  6996     15C1  1303               	bcf	3,6	;RP1=0, select bank1
  6997     15C2  0830               	movf	(??_eval_poly+1)^(0+128),w
  6998     15C3  1283               	bcf	3,5	;RP0=0, select bank0
  6999     15C4  1303               	bcf	3,6	;RP1=0, select bank0
  7000     15C5  00E3               	movwf	___fladd@b
  7001     15C6  1683               	bsf	3,5	;RP0=1, select bank1
  7002     15C7  1303               	bcf	3,6	;RP1=0, select bank1
  7003     15C8  0837               	movf	(eval_poly@res+3)^(0+128),w
  7004     15C9  1283               	bcf	3,5	;RP0=0, select bank0
  7005     15CA  1303               	bcf	3,6	;RP1=0, select bank0
  7006     15CB  00CC               	movwf	___flmul@b+3
  7007     15CC  1683               	bsf	3,5	;RP0=1, select bank1
  7008     15CD  1303               	bcf	3,6	;RP1=0, select bank1
  7009     15CE  0836               	movf	(eval_poly@res+2)^(0+128),w
  7010     15CF  1283               	bcf	3,5	;RP0=0, select bank0
  7011     15D0  1303               	bcf	3,6	;RP1=0, select bank0
  7012     15D1  00CB               	movwf	___flmul@b+2
  7013     15D2  1683               	bsf	3,5	;RP0=1, select bank1
  7014     15D3  1303               	bcf	3,6	;RP1=0, select bank1
  7015     15D4  0835               	movf	(eval_poly@res+1)^(0+128),w
  7016     15D5  1283               	bcf	3,5	;RP0=0, select bank0
  7017     15D6  1303               	bcf	3,6	;RP1=0, select bank0
  7018     15D7  00CA               	movwf	___flmul@b+1
  7019     15D8  1683               	bsf	3,5	;RP0=1, select bank1
  7020     15D9  1303               	bcf	3,6	;RP1=0, select bank1
  7021     15DA  0834               	movf	eval_poly@res^(0+128),w
  7022     15DB  1283               	bcf	3,5	;RP0=0, select bank0
  7023     15DC  1303               	bcf	3,6	;RP1=0, select bank0
  7024     15DD  00C9               	movwf	___flmul@b
  7025     15DE  1683               	bsf	3,5	;RP0=1, select bank1
  7026     15DF  1303               	bcf	3,6	;RP1=0, select bank1
  7027     15E0  082B               	movf	(eval_poly@x+3)^(0+128),w
  7028     15E1  1283               	bcf	3,5	;RP0=0, select bank0
  7029     15E2  1303               	bcf	3,6	;RP1=0, select bank0
  7030     15E3  00D0               	movwf	___flmul@a+3
  7031     15E4  1683               	bsf	3,5	;RP0=1, select bank1
  7032     15E5  1303               	bcf	3,6	;RP1=0, select bank1
  7033     15E6  082A               	movf	(eval_poly@x+2)^(0+128),w
  7034     15E7  1283               	bcf	3,5	;RP0=0, select bank0
  7035     15E8  1303               	bcf	3,6	;RP1=0, select bank0
  7036     15E9  00CF               	movwf	___flmul@a+2
  7037     15EA  1683               	bsf	3,5	;RP0=1, select bank1
  7038     15EB  1303               	bcf	3,6	;RP1=0, select bank1
  7039     15EC  0829               	movf	(eval_poly@x+1)^(0+128),w
  7040     15ED  1283               	bcf	3,5	;RP0=0, select bank0
  7041     15EE  1303               	bcf	3,6	;RP1=0, select bank0
  7042     15EF  00CE               	movwf	___flmul@a+1
  7043     15F0  1683               	bsf	3,5	;RP0=1, select bank1
  7044     15F1  1303               	bcf	3,6	;RP1=0, select bank1
  7045     15F2  0828               	movf	eval_poly@x^(0+128),w
  7046     15F3  1283               	bcf	3,5	;RP0=0, select bank0
  7047     15F4  1303               	bcf	3,6	;RP1=0, select bank0
  7048     15F5  00CD               	movwf	___flmul@a
  7049     15F6  120A  118A  2039  160A  118A  	fcall	___flmul
  7050     15FB  1283               	bcf	3,5	;RP0=0, select bank0
  7051     15FC  1303               	bcf	3,6	;RP1=0, select bank0
  7052     15FD  084C               	movf	?___flmul+3,w
  7053     15FE  00EA               	movwf	___fladd@a+3
  7054     15FF  084B               	movf	?___flmul+2,w
  7055     1600  00E9               	movwf	___fladd@a+2
  7056     1601  084A               	movf	?___flmul+1,w
  7057     1602  00E8               	movwf	___fladd@a+1
  7058     1603  0849               	movf	?___flmul,w
  7059     1604  00E7               	movwf	___fladd@a
  7060     1605  120A  118A  237E  160A  118A  	fcall	___fladd
  7061     160A  1283               	bcf	3,5	;RP0=0, select bank0
  7062     160B  1303               	bcf	3,6	;RP1=0, select bank0
  7063     160C  0866               	movf	?___fladd+3,w
  7064     160D  1683               	bsf	3,5	;RP0=1, select bank1
  7065     160E  1303               	bcf	3,6	;RP1=0, select bank1
  7066     160F  00B7               	movwf	(eval_poly@res+3)^(0+128)
  7067     1610  1283               	bcf	3,5	;RP0=0, select bank0
  7068     1611  1303               	bcf	3,6	;RP1=0, select bank0
  7069     1612  0865               	movf	?___fladd+2,w
  7070     1613  1683               	bsf	3,5	;RP0=1, select bank1
  7071     1614  1303               	bcf	3,6	;RP1=0, select bank1
  7072     1615  00B6               	movwf	(eval_poly@res+2)^(0+128)
  7073     1616  1283               	bcf	3,5	;RP0=0, select bank0
  7074     1617  1303               	bcf	3,6	;RP1=0, select bank0
  7075     1618  0864               	movf	?___fladd+1,w
  7076     1619  1683               	bsf	3,5	;RP0=1, select bank1
  7077     161A  1303               	bcf	3,6	;RP1=0, select bank1
  7078     161B  00B5               	movwf	(eval_poly@res+1)^(0+128)
  7079     161C  1283               	bcf	3,5	;RP0=0, select bank0
  7080     161D  1303               	bcf	3,6	;RP1=0, select bank0
  7081     161E  0863               	movf	?___fladd,w
  7082     161F  1683               	bsf	3,5	;RP0=1, select bank1
  7083     1620  1303               	bcf	3,6	;RP1=0, select bank1
  7084     1621  00B4               	movwf	eval_poly@res^(0+128)
  7085     1622                     l3713:
  7086     1622  082D               	movf	eval_poly@n^(0+128),w
  7087     1623  042E               	iorwf	(eval_poly@n+1)^(0+128),w
  7088     1624  1D03               	btfss	3,2
  7089     1625  2E27               	goto	u5581
  7090     1626  2E28               	goto	u5580
  7091     1627                     u5581:
  7092     1627  2D86               	goto	l3711
  7093     1628                     u5580:
  7094     1628                     l3715:
  7095     1628  0837               	movf	(eval_poly@res+3)^(0+128),w
  7096     1629  00AB               	movwf	(?_eval_poly+3)^(0+128)
  7097     162A  0836               	movf	(eval_poly@res+2)^(0+128),w
  7098     162B  00AA               	movwf	(?_eval_poly+2)^(0+128)
  7099     162C  0835               	movf	(eval_poly@res+1)^(0+128),w
  7100     162D  00A9               	movwf	(?_eval_poly+1)^(0+128)
  7101     162E  0834               	movf	eval_poly@res^(0+128),w
  7102     162F  00A8               	movwf	?_eval_poly^(0+128)
  7103     1630                     l720:
  7104     1630  0008               	return
  7105     1631                     __end_of_eval_poly:
  7106                           
  7107                           	psect	text26
  7108     0039                     __ptext26:	
  7109 ;; *************** function ___flmul *****************
  7110 ;; Defined at:
  7111 ;;		line 8 in file "C:\Program Files\Microchip\xc8\v2.41\pic\sources\c90\common\sprcmul.c"
  7112 ;; Parameters:    Size  Location     Type
  7113 ;;  b               4   41[BANK0 ] int 
  7114 ;;  a               4   45[BANK0 ] int 
  7115 ;; Auto vars:     Size  Location     Type
  7116 ;;  prod            4   61[BANK0 ] struct .
  7117 ;;  grs             4   56[BANK0 ] unsigned long 
  7118 ;;  temp            2   65[BANK0 ] struct .
  7119 ;;  bexp            1   60[BANK0 ] unsigned char 
  7120 ;;  aexp            1   55[BANK0 ] unsigned char 
  7121 ;;  sign            1   54[BANK0 ] unsigned char 
  7122 ;; Return value:  Size  Location     Type
  7123 ;;                  4   41[BANK0 ] unsigned char 
  7124 ;; Registers used:
  7125 ;;		wreg, status,2, status,0, btemp+1, pclath, cstack
  7126 ;; Tracked objects:
  7127 ;;		On entry : 0/0
  7128 ;;		On exit  : 0/0
  7129 ;;		Unchanged: 0/0
  7130 ;; Data sizes:     COMMON   BANK0   BANK1   BANK3   BANK2
  7131 ;;      Params:         0       8       0       0       0
  7132 ;;      Locals:         0      13       0       0       0
  7133 ;;      Temps:          0       5       0       0       0
  7134 ;;      Totals:         0      26       0       0       0
  7135 ;;Total ram usage:       26 bytes
  7136 ;; Hardware stack levels used: 1
  7137 ;; Hardware stack levels required when called: 2
  7138 ;; This function calls:
  7139 ;;		__Umul8_16
  7140 ;; This function is called by:
  7141 ;;		_converteVoltsParaLux
  7142 ;;		_log
  7143 ;;		_log10
  7144 ;;		_eval_poly
  7145 ;;		_pow
  7146 ;;		_exp
  7147 ;; This function uses a non-reentrant model
  7148 ;;
  7149                           
  7150     0039                     ___flmul:	
  7151                           ;psect for function ___flmul
  7152                           
  7153     0039                     l3531:	
  7154                           ;incstack = 0
  7155                           ; Regs used in ___flmul: [wreg+status,2+status,0+btemp+1+pclath+cstack]
  7156                           
  7157     0039  1283               	bcf	3,5	;RP0=0, select bank0
  7158     003A  1303               	bcf	3,6	;RP1=0, select bank0
  7159     003B  084C               	movf	___flmul@b+3,w
  7160     003C  3980               	andlw	128
  7161     003D  00D6               	movwf	___flmul@sign
  7162     003E                     l3533:
  7163     003E  084C               	movf	___flmul@b+3,w
  7164     003F  00D1               	movwf	??___flmul
  7165     0040  0751               	addwf	??___flmul,w
  7166     0041  00DC               	movwf	___flmul@bexp
  7167     0042                     l3535:
  7168     0042  1FCB               	btfss	___flmul@b+2,7
  7169     0043  2845               	goto	u5181
  7170     0044  2846               	goto	u5180
  7171     0045                     u5181:
  7172     0045  2847               	goto	l3539
  7173     0046                     u5180:
  7174     0046                     l3537:
  7175     0046  145C               	bsf	___flmul@bexp,0
  7176     0047                     l3539:
  7177     0047  085C               	movf	___flmul@bexp,w
  7178     0048  1903               	btfsc	3,2
  7179     0049  284B               	goto	u5191
  7180     004A  284C               	goto	u5190
  7181     004B                     u5191:
  7182     004B  285B               	goto	l3547
  7183     004C                     u5190:
  7184     004C                     l3541:
  7185     004C  0A5C               	incf	___flmul@bexp,w
  7186     004D  1D03               	btfss	3,2
  7187     004E  2850               	goto	u5201
  7188     004F  2851               	goto	u5200
  7189     0050                     u5201:
  7190     0050  2859               	goto	l3545
  7191     0051                     u5200:
  7192     0051                     l3543:
  7193     0051  3000               	movlw	0
  7194     0052  00CC               	movwf	___flmul@b+3
  7195     0053  3000               	movlw	0
  7196     0054  00CB               	movwf	___flmul@b+2
  7197     0055  3000               	movlw	0
  7198     0056  00CA               	movwf	___flmul@b+1
  7199     0057  3000               	movlw	0
  7200     0058  00C9               	movwf	___flmul@b
  7201     0059                     l3545:
  7202     0059  17CB               	bsf	___flmul@b+2,7
  7203     005A  2863               	goto	l3549
  7204     005B                     l3547:
  7205     005B  3000               	movlw	0
  7206     005C  00CC               	movwf	___flmul@b+3
  7207     005D  3000               	movlw	0
  7208     005E  00CB               	movwf	___flmul@b+2
  7209     005F  3000               	movlw	0
  7210     0060  00CA               	movwf	___flmul@b+1
  7211     0061  3000               	movlw	0
  7212     0062  00C9               	movwf	___flmul@b
  7213     0063                     l3549:
  7214     0063  0850               	movf	___flmul@a+3,w
  7215     0064  3980               	andlw	128
  7216     0065  00FF               	movwf	btemp+1
  7217     0066  087F               	movf	btemp+1,w
  7218     0067  06D6               	xorwf	___flmul@sign,f
  7219     0068                     l3551:
  7220     0068  0850               	movf	___flmul@a+3,w
  7221     0069  00D1               	movwf	??___flmul
  7222     006A  0751               	addwf	??___flmul,w
  7223     006B  00D7               	movwf	___flmul@aexp
  7224     006C                     l3553:
  7225     006C  1FCF               	btfss	___flmul@a+2,7
  7226     006D  286F               	goto	u5211
  7227     006E  2870               	goto	u5210
  7228     006F                     u5211:
  7229     006F  2871               	goto	l3557
  7230     0070                     u5210:
  7231     0070                     l3555:
  7232     0070  1457               	bsf	___flmul@aexp,0
  7233     0071                     l3557:
  7234     0071  0857               	movf	___flmul@aexp,w
  7235     0072  1903               	btfsc	3,2
  7236     0073  2875               	goto	u5221
  7237     0074  2876               	goto	u5220
  7238     0075                     u5221:
  7239     0075  2885               	goto	l3565
  7240     0076                     u5220:
  7241     0076                     l3559:
  7242     0076  0A57               	incf	___flmul@aexp,w
  7243     0077  1D03               	btfss	3,2
  7244     0078  287A               	goto	u5231
  7245     0079  287B               	goto	u5230
  7246     007A                     u5231:
  7247     007A  2883               	goto	l3563
  7248     007B                     u5230:
  7249     007B                     l3561:
  7250     007B  3000               	movlw	0
  7251     007C  00D0               	movwf	___flmul@a+3
  7252     007D  3000               	movlw	0
  7253     007E  00CF               	movwf	___flmul@a+2
  7254     007F  3000               	movlw	0
  7255     0080  00CE               	movwf	___flmul@a+1
  7256     0081  3000               	movlw	0
  7257     0082  00CD               	movwf	___flmul@a
  7258     0083                     l3563:
  7259     0083  17CF               	bsf	___flmul@a+2,7
  7260     0084  288D               	goto	l3567
  7261     0085                     l3565:
  7262     0085  3000               	movlw	0
  7263     0086  00D0               	movwf	___flmul@a+3
  7264     0087  3000               	movlw	0
  7265     0088  00CF               	movwf	___flmul@a+2
  7266     0089  3000               	movlw	0
  7267     008A  00CE               	movwf	___flmul@a+1
  7268     008B  3000               	movlw	0
  7269     008C  00CD               	movwf	___flmul@a
  7270     008D                     l3567:
  7271     008D  0857               	movf	___flmul@aexp,w
  7272     008E  1903               	btfsc	3,2
  7273     008F  2891               	goto	u5241
  7274     0090  2892               	goto	u5240
  7275     0091                     u5241:
  7276     0091  2897               	goto	l3571
  7277     0092                     u5240:
  7278     0092                     l3569:
  7279     0092  085C               	movf	___flmul@bexp,w
  7280     0093  1D03               	btfss	3,2
  7281     0094  2896               	goto	u5251
  7282     0095  2897               	goto	u5250
  7283     0096                     u5251:
  7284     0096  28A0               	goto	l3575
  7285     0097                     u5250:
  7286     0097                     l3571:
  7287     0097  3000               	movlw	0
  7288     0098  00CC               	movwf	?___flmul+3
  7289     0099  3000               	movlw	0
  7290     009A  00CB               	movwf	?___flmul+2
  7291     009B  3000               	movlw	0
  7292     009C  00CA               	movwf	?___flmul+1
  7293     009D  3000               	movlw	0
  7294     009E  00C9               	movwf	?___flmul
  7295     009F  2B7D               	goto	l637
  7296     00A0                     l3575:
  7297     00A0  0849               	movf	___flmul@b,w
  7298     00A1  00F2               	movwf	__Umul8_16@multiplicand
  7299     00A2  084F               	movf	___flmul@a+2,w
  7300     00A3  160A  118A  2083  120A  118A  	fcall	__Umul8_16
  7301     00A8  0873               	movf	?__Umul8_16+1,w
  7302     00A9  1283               	bcf	3,5	;RP0=0, select bank0
  7303     00AA  1303               	bcf	3,6	;RP1=0, select bank0
  7304     00AB  00E2               	movwf	___flmul@temp+1
  7305     00AC  0872               	movf	?__Umul8_16,w
  7306     00AD  00E1               	movwf	___flmul@temp
  7307     00AE                     l3577:
  7308     00AE  0861               	movf	___flmul@temp,w
  7309     00AF  00D1               	movwf	??___flmul
  7310     00B0  01D2               	clrf	??___flmul+1
  7311     00B1  01D3               	clrf	??___flmul+2
  7312     00B2  01D4               	clrf	??___flmul+3
  7313     00B3  0854               	movf	??___flmul+3,w
  7314     00B4  00DB               	movwf	___flmul@grs+3
  7315     00B5  0853               	movf	??___flmul+2,w
  7316     00B6  00DA               	movwf	___flmul@grs+2
  7317     00B7  0852               	movf	??___flmul+1,w
  7318     00B8  00D9               	movwf	___flmul@grs+1
  7319     00B9  0851               	movf	??___flmul,w
  7320     00BA  00D8               	movwf	___flmul@grs
  7321     00BB                     l3579:
  7322     00BB  0862               	movf	___flmul@temp+1,w
  7323     00BC  00D1               	movwf	??___flmul
  7324     00BD  01D2               	clrf	??___flmul+1
  7325     00BE  01D3               	clrf	??___flmul+2
  7326     00BF  01D4               	clrf	??___flmul+3
  7327     00C0  0854               	movf	??___flmul+3,w
  7328     00C1  00E0               	movwf	___flmul@prod+3
  7329     00C2  0853               	movf	??___flmul+2,w
  7330     00C3  00DF               	movwf	___flmul@prod+2
  7331     00C4  0852               	movf	??___flmul+1,w
  7332     00C5  00DE               	movwf	___flmul@prod+1
  7333     00C6  0851               	movf	??___flmul,w
  7334     00C7  00DD               	movwf	___flmul@prod
  7335     00C8  084A               	movf	___flmul@b+1,w
  7336     00C9  00F2               	movwf	__Umul8_16@multiplicand
  7337     00CA  084E               	movf	___flmul@a+1,w
  7338     00CB  160A  118A  2083  120A  118A  	fcall	__Umul8_16
  7339     00D0  0873               	movf	?__Umul8_16+1,w
  7340     00D1  1283               	bcf	3,5	;RP0=0, select bank0
  7341     00D2  1303               	bcf	3,6	;RP1=0, select bank0
  7342     00D3  00E2               	movwf	___flmul@temp+1
  7343     00D4  0872               	movf	?__Umul8_16,w
  7344     00D5  00E1               	movwf	___flmul@temp
  7345     00D6                     l3581:
  7346     00D6  0861               	movf	___flmul@temp,w
  7347     00D7  00D1               	movwf	??___flmul
  7348     00D8  01D2               	clrf	??___flmul+1
  7349     00D9  01D3               	clrf	??___flmul+2
  7350     00DA  01D4               	clrf	??___flmul+3
  7351     00DB  0851               	movf	??___flmul,w
  7352     00DC  07D8               	addwf	___flmul@grs,f
  7353     00DD  0852               	movf	??___flmul+1,w
  7354     00DE  1103               	clrz
  7355     00DF  1803               	skipnc
  7356     00E0  3E01               	addlw	1
  7357     00E1  1903               	skipnz
  7358     00E2  28E4               	goto	u5261
  7359     00E3  07D9               	addwf	___flmul@grs+1,f
  7360     00E4                     u5261:
  7361     00E4  0853               	movf	??___flmul+2,w
  7362     00E5  1103               	clrz
  7363     00E6  1803               	skipnc
  7364     00E7  3E01               	addlw	1
  7365     00E8  1903               	skipnz
  7366     00E9  28EB               	goto	u5262
  7367     00EA  07DA               	addwf	___flmul@grs+2,f
  7368     00EB                     u5262:
  7369     00EB  0854               	movf	??___flmul+3,w
  7370     00EC  1103               	clrz
  7371     00ED  1803               	skipnc
  7372     00EE  3E01               	addlw	1
  7373     00EF  1903               	skipnz
  7374     00F0  28F2               	goto	u5263
  7375     00F1  07DB               	addwf	___flmul@grs+3,f
  7376     00F2                     u5263:
  7377     00F2                     l3583:
  7378     00F2  0862               	movf	___flmul@temp+1,w
  7379     00F3  00D1               	movwf	??___flmul
  7380     00F4  01D2               	clrf	??___flmul+1
  7381     00F5  01D3               	clrf	??___flmul+2
  7382     00F6  01D4               	clrf	??___flmul+3
  7383     00F7  0851               	movf	??___flmul,w
  7384     00F8  07DD               	addwf	___flmul@prod,f
  7385     00F9  0852               	movf	??___flmul+1,w
  7386     00FA  1103               	clrz
  7387     00FB  1803               	skipnc
  7388     00FC  3E01               	addlw	1
  7389     00FD  1903               	skipnz
  7390     00FE  2900               	goto	u5271
  7391     00FF  07DE               	addwf	___flmul@prod+1,f
  7392     0100                     u5271:
  7393     0100  0853               	movf	??___flmul+2,w
  7394     0101  1103               	clrz
  7395     0102  1803               	skipnc
  7396     0103  3E01               	addlw	1
  7397     0104  1903               	skipnz
  7398     0105  2907               	goto	u5272
  7399     0106  07DF               	addwf	___flmul@prod+2,f
  7400     0107                     u5272:
  7401     0107  0854               	movf	??___flmul+3,w
  7402     0108  1103               	clrz
  7403     0109  1803               	skipnc
  7404     010A  3E01               	addlw	1
  7405     010B  1903               	skipnz
  7406     010C  290E               	goto	u5273
  7407     010D  07E0               	addwf	___flmul@prod+3,f
  7408     010E                     u5273:
  7409     010E  084B               	movf	___flmul@b+2,w
  7410     010F  00F2               	movwf	__Umul8_16@multiplicand
  7411     0110  084D               	movf	___flmul@a,w
  7412     0111  160A  118A  2083  120A  118A  	fcall	__Umul8_16
  7413     0116  0873               	movf	?__Umul8_16+1,w
  7414     0117  1283               	bcf	3,5	;RP0=0, select bank0
  7415     0118  1303               	bcf	3,6	;RP1=0, select bank0
  7416     0119  00E2               	movwf	___flmul@temp+1
  7417     011A  0872               	movf	?__Umul8_16,w
  7418     011B  00E1               	movwf	___flmul@temp
  7419     011C                     l3585:
  7420     011C  0861               	movf	___flmul@temp,w
  7421     011D  00D1               	movwf	??___flmul
  7422     011E  01D2               	clrf	??___flmul+1
  7423     011F  01D3               	clrf	??___flmul+2
  7424     0120  01D4               	clrf	??___flmul+3
  7425     0121  0851               	movf	??___flmul,w
  7426     0122  07D8               	addwf	___flmul@grs,f
  7427     0123  0852               	movf	??___flmul+1,w
  7428     0124  1103               	clrz
  7429     0125  1803               	skipnc
  7430     0126  3E01               	addlw	1
  7431     0127  1903               	skipnz
  7432     0128  292A               	goto	u5281
  7433     0129  07D9               	addwf	___flmul@grs+1,f
  7434     012A                     u5281:
  7435     012A  0853               	movf	??___flmul+2,w
  7436     012B  1103               	clrz
  7437     012C  1803               	skipnc
  7438     012D  3E01               	addlw	1
  7439     012E  1903               	skipnz
  7440     012F  2931               	goto	u5282
  7441     0130  07DA               	addwf	___flmul@grs+2,f
  7442     0131                     u5282:
  7443     0131  0854               	movf	??___flmul+3,w
  7444     0132  1103               	clrz
  7445     0133  1803               	skipnc
  7446     0134  3E01               	addlw	1
  7447     0135  1903               	skipnz
  7448     0136  2938               	goto	u5283
  7449     0137  07DB               	addwf	___flmul@grs+3,f
  7450     0138                     u5283:
  7451     0138                     l3587:
  7452     0138  0862               	movf	___flmul@temp+1,w
  7453     0139  00D1               	movwf	??___flmul
  7454     013A  01D2               	clrf	??___flmul+1
  7455     013B  01D3               	clrf	??___flmul+2
  7456     013C  01D4               	clrf	??___flmul+3
  7457     013D  0851               	movf	??___flmul,w
  7458     013E  07DD               	addwf	___flmul@prod,f
  7459     013F  0852               	movf	??___flmul+1,w
  7460     0140  1103               	clrz
  7461     0141  1803               	skipnc
  7462     0142  3E01               	addlw	1
  7463     0143  1903               	skipnz
  7464     0144  2946               	goto	u5291
  7465     0145  07DE               	addwf	___flmul@prod+1,f
  7466     0146                     u5291:
  7467     0146  0853               	movf	??___flmul+2,w
  7468     0147  1103               	clrz
  7469     0148  1803               	skipnc
  7470     0149  3E01               	addlw	1
  7471     014A  1903               	skipnz
  7472     014B  294D               	goto	u5292
  7473     014C  07DF               	addwf	___flmul@prod+2,f
  7474     014D                     u5292:
  7475     014D  0854               	movf	??___flmul+3,w
  7476     014E  1103               	clrz
  7477     014F  1803               	skipnc
  7478     0150  3E01               	addlw	1
  7479     0151  1903               	skipnz
  7480     0152  2954               	goto	u5293
  7481     0153  07E0               	addwf	___flmul@prod+3,f
  7482     0154                     u5293:
  7483     0154                     l3589:
  7484     0154  3008               	movlw	8
  7485     0155  00D1               	movwf	??___flmul
  7486     0156                     u5305:
  7487     0156  1003               	clrc
  7488     0157  0DD8               	rlf	___flmul@grs,f
  7489     0158  0DD9               	rlf	___flmul@grs+1,f
  7490     0159  0DDA               	rlf	___flmul@grs+2,f
  7491     015A  0DDB               	rlf	___flmul@grs+3,f
  7492     015B  0BD1               	decfsz	??___flmul,f
  7493     015C  2956               	goto	u5305
  7494     015D                     l3591:
  7495     015D  084A               	movf	___flmul@b+1,w
  7496     015E  00F2               	movwf	__Umul8_16@multiplicand
  7497     015F  084D               	movf	___flmul@a,w
  7498     0160  160A  118A  2083  120A  118A  	fcall	__Umul8_16
  7499     0165  0873               	movf	?__Umul8_16+1,w
  7500     0166  1283               	bcf	3,5	;RP0=0, select bank0
  7501     0167  1303               	bcf	3,6	;RP1=0, select bank0
  7502     0168  00E2               	movwf	___flmul@temp+1
  7503     0169  0872               	movf	?__Umul8_16,w
  7504     016A  00E1               	movwf	___flmul@temp
  7505     016B                     l3593:
  7506     016B  0861               	movf	___flmul@temp,w
  7507     016C  00D1               	movwf	??___flmul
  7508     016D  0862               	movf	___flmul@temp+1,w
  7509     016E  00D2               	movwf	??___flmul+1
  7510     016F  01D3               	clrf	??___flmul+2
  7511     0170  01D4               	clrf	??___flmul+3
  7512     0171  0851               	movf	??___flmul,w
  7513     0172  07D8               	addwf	___flmul@grs,f
  7514     0173  0852               	movf	??___flmul+1,w
  7515     0174  1103               	clrz
  7516     0175  1803               	skipnc
  7517     0176  3E01               	addlw	1
  7518     0177  1903               	skipnz
  7519     0178  297A               	goto	u5311
  7520     0179  07D9               	addwf	___flmul@grs+1,f
  7521     017A                     u5311:
  7522     017A  0853               	movf	??___flmul+2,w
  7523     017B  1103               	clrz
  7524     017C  1803               	skipnc
  7525     017D  3E01               	addlw	1
  7526     017E  1903               	skipnz
  7527     017F  2981               	goto	u5312
  7528     0180  07DA               	addwf	___flmul@grs+2,f
  7529     0181                     u5312:
  7530     0181  0854               	movf	??___flmul+3,w
  7531     0182  1103               	clrz
  7532     0183  1803               	skipnc
  7533     0184  3E01               	addlw	1
  7534     0185  1903               	skipnz
  7535     0186  2988               	goto	u5313
  7536     0187  07DB               	addwf	___flmul@grs+3,f
  7537     0188                     u5313:
  7538     0188                     l3595:
  7539     0188  0849               	movf	___flmul@b,w
  7540     0189  00F2               	movwf	__Umul8_16@multiplicand
  7541     018A  084E               	movf	___flmul@a+1,w
  7542     018B  160A  118A  2083  120A  118A  	fcall	__Umul8_16
  7543     0190  0873               	movf	?__Umul8_16+1,w
  7544     0191  1283               	bcf	3,5	;RP0=0, select bank0
  7545     0192  1303               	bcf	3,6	;RP1=0, select bank0
  7546     0193  00E2               	movwf	___flmul@temp+1
  7547     0194  0872               	movf	?__Umul8_16,w
  7548     0195  00E1               	movwf	___flmul@temp
  7549     0196                     l3597:
  7550     0196  0861               	movf	___flmul@temp,w
  7551     0197  00D1               	movwf	??___flmul
  7552     0198  0862               	movf	___flmul@temp+1,w
  7553     0199  00D2               	movwf	??___flmul+1
  7554     019A  01D3               	clrf	??___flmul+2
  7555     019B  01D4               	clrf	??___flmul+3
  7556     019C  0851               	movf	??___flmul,w
  7557     019D  07D8               	addwf	___flmul@grs,f
  7558     019E  0852               	movf	??___flmul+1,w
  7559     019F  1103               	clrz
  7560     01A0  1803               	skipnc
  7561     01A1  3E01               	addlw	1
  7562     01A2  1903               	skipnz
  7563     01A3  29A5               	goto	u5321
  7564     01A4  07D9               	addwf	___flmul@grs+1,f
  7565     01A5                     u5321:
  7566     01A5  0853               	movf	??___flmul+2,w
  7567     01A6  1103               	clrz
  7568     01A7  1803               	skipnc
  7569     01A8  3E01               	addlw	1
  7570     01A9  1903               	skipnz
  7571     01AA  29AC               	goto	u5322
  7572     01AB  07DA               	addwf	___flmul@grs+2,f
  7573     01AC                     u5322:
  7574     01AC  0854               	movf	??___flmul+3,w
  7575     01AD  1103               	clrz
  7576     01AE  1803               	skipnc
  7577     01AF  3E01               	addlw	1
  7578     01B0  1903               	skipnz
  7579     01B1  29B3               	goto	u5323
  7580     01B2  07DB               	addwf	___flmul@grs+3,f
  7581     01B3                     u5323:
  7582     01B3                     l3599:
  7583     01B3  3008               	movlw	8
  7584     01B4  00D1               	movwf	??___flmul
  7585     01B5                     u5335:
  7586     01B5  1003               	clrc
  7587     01B6  0DD8               	rlf	___flmul@grs,f
  7588     01B7  0DD9               	rlf	___flmul@grs+1,f
  7589     01B8  0DDA               	rlf	___flmul@grs+2,f
  7590     01B9  0DDB               	rlf	___flmul@grs+3,f
  7591     01BA  0BD1               	decfsz	??___flmul,f
  7592     01BB  29B5               	goto	u5335
  7593     01BC  0849               	movf	___flmul@b,w
  7594     01BD  00F2               	movwf	__Umul8_16@multiplicand
  7595     01BE  084D               	movf	___flmul@a,w
  7596     01BF  160A  118A  2083  120A  118A  	fcall	__Umul8_16
  7597     01C4  0873               	movf	?__Umul8_16+1,w
  7598     01C5  1283               	bcf	3,5	;RP0=0, select bank0
  7599     01C6  1303               	bcf	3,6	;RP1=0, select bank0
  7600     01C7  00E2               	movwf	___flmul@temp+1
  7601     01C8  0872               	movf	?__Umul8_16,w
  7602     01C9  00E1               	movwf	___flmul@temp
  7603     01CA                     l3601:
  7604     01CA  0861               	movf	___flmul@temp,w
  7605     01CB  00D1               	movwf	??___flmul
  7606     01CC  0862               	movf	___flmul@temp+1,w
  7607     01CD  00D2               	movwf	??___flmul+1
  7608     01CE  01D3               	clrf	??___flmul+2
  7609     01CF  01D4               	clrf	??___flmul+3
  7610     01D0  0851               	movf	??___flmul,w
  7611     01D1  07D8               	addwf	___flmul@grs,f
  7612     01D2  0852               	movf	??___flmul+1,w
  7613     01D3  1103               	clrz
  7614     01D4  1803               	skipnc
  7615     01D5  3E01               	addlw	1
  7616     01D6  1903               	skipnz
  7617     01D7  29D9               	goto	u5341
  7618     01D8  07D9               	addwf	___flmul@grs+1,f
  7619     01D9                     u5341:
  7620     01D9  0853               	movf	??___flmul+2,w
  7621     01DA  1103               	clrz
  7622     01DB  1803               	skipnc
  7623     01DC  3E01               	addlw	1
  7624     01DD  1903               	skipnz
  7625     01DE  29E0               	goto	u5342
  7626     01DF  07DA               	addwf	___flmul@grs+2,f
  7627     01E0                     u5342:
  7628     01E0  0854               	movf	??___flmul+3,w
  7629     01E1  1103               	clrz
  7630     01E2  1803               	skipnc
  7631     01E3  3E01               	addlw	1
  7632     01E4  1903               	skipnz
  7633     01E5  29E7               	goto	u5343
  7634     01E6  07DB               	addwf	___flmul@grs+3,f
  7635     01E7                     u5343:
  7636     01E7                     l3603:
  7637     01E7  084A               	movf	___flmul@b+1,w
  7638     01E8  00F2               	movwf	__Umul8_16@multiplicand
  7639     01E9  084F               	movf	___flmul@a+2,w
  7640     01EA  160A  118A  2083  120A  118A  	fcall	__Umul8_16
  7641     01EF  0873               	movf	?__Umul8_16+1,w
  7642     01F0  1283               	bcf	3,5	;RP0=0, select bank0
  7643     01F1  1303               	bcf	3,6	;RP1=0, select bank0
  7644     01F2  00E2               	movwf	___flmul@temp+1
  7645     01F3  0872               	movf	?__Umul8_16,w
  7646     01F4  00E1               	movwf	___flmul@temp
  7647     01F5  0861               	movf	___flmul@temp,w
  7648     01F6  00D1               	movwf	??___flmul
  7649     01F7  0862               	movf	___flmul@temp+1,w
  7650     01F8  00D2               	movwf	??___flmul+1
  7651     01F9  01D3               	clrf	??___flmul+2
  7652     01FA  01D4               	clrf	??___flmul+3
  7653     01FB  0851               	movf	??___flmul,w
  7654     01FC  07DD               	addwf	___flmul@prod,f
  7655     01FD  0852               	movf	??___flmul+1,w
  7656     01FE  1103               	clrz
  7657     01FF  1803               	skipnc
  7658     0200  3E01               	addlw	1
  7659     0201  1903               	skipnz
  7660     0202  2A04               	goto	u5351
  7661     0203  07DE               	addwf	___flmul@prod+1,f
  7662     0204                     u5351:
  7663     0204  0853               	movf	??___flmul+2,w
  7664     0205  1103               	clrz
  7665     0206  1803               	skipnc
  7666     0207  3E01               	addlw	1
  7667     0208  1903               	skipnz
  7668     0209  2A0B               	goto	u5352
  7669     020A  07DF               	addwf	___flmul@prod+2,f
  7670     020B                     u5352:
  7671     020B  0854               	movf	??___flmul+3,w
  7672     020C  1103               	clrz
  7673     020D  1803               	skipnc
  7674     020E  3E01               	addlw	1
  7675     020F  1903               	skipnz
  7676     0210  2A12               	goto	u5353
  7677     0211  07E0               	addwf	___flmul@prod+3,f
  7678     0212                     u5353:
  7679     0212                     l3605:
  7680     0212  084B               	movf	___flmul@b+2,w
  7681     0213  00F2               	movwf	__Umul8_16@multiplicand
  7682     0214  084E               	movf	___flmul@a+1,w
  7683     0215  160A  118A  2083  120A  118A  	fcall	__Umul8_16
  7684     021A  0873               	movf	?__Umul8_16+1,w
  7685     021B  1283               	bcf	3,5	;RP0=0, select bank0
  7686     021C  1303               	bcf	3,6	;RP1=0, select bank0
  7687     021D  00E2               	movwf	___flmul@temp+1
  7688     021E  0872               	movf	?__Umul8_16,w
  7689     021F  00E1               	movwf	___flmul@temp
  7690     0220                     l3607:
  7691     0220  0861               	movf	___flmul@temp,w
  7692     0221  00D1               	movwf	??___flmul
  7693     0222  0862               	movf	___flmul@temp+1,w
  7694     0223  00D2               	movwf	??___flmul+1
  7695     0224  01D3               	clrf	??___flmul+2
  7696     0225  01D4               	clrf	??___flmul+3
  7697     0226  0851               	movf	??___flmul,w
  7698     0227  07DD               	addwf	___flmul@prod,f
  7699     0228  0852               	movf	??___flmul+1,w
  7700     0229  1103               	clrz
  7701     022A  1803               	skipnc
  7702     022B  3E01               	addlw	1
  7703     022C  1903               	skipnz
  7704     022D  2A2F               	goto	u5361
  7705     022E  07DE               	addwf	___flmul@prod+1,f
  7706     022F                     u5361:
  7707     022F  0853               	movf	??___flmul+2,w
  7708     0230  1103               	clrz
  7709     0231  1803               	skipnc
  7710     0232  3E01               	addlw	1
  7711     0233  1903               	skipnz
  7712     0234  2A36               	goto	u5362
  7713     0235  07DF               	addwf	___flmul@prod+2,f
  7714     0236                     u5362:
  7715     0236  0854               	movf	??___flmul+3,w
  7716     0237  1103               	clrz
  7717     0238  1803               	skipnc
  7718     0239  3E01               	addlw	1
  7719     023A  1903               	skipnz
  7720     023B  2A3D               	goto	u5363
  7721     023C  07E0               	addwf	___flmul@prod+3,f
  7722     023D                     u5363:
  7723     023D  084B               	movf	___flmul@b+2,w
  7724     023E  00F2               	movwf	__Umul8_16@multiplicand
  7725     023F  084F               	movf	___flmul@a+2,w
  7726     0240  160A  118A  2083  120A  118A  	fcall	__Umul8_16
  7727     0245  0873               	movf	?__Umul8_16+1,w
  7728     0246  1283               	bcf	3,5	;RP0=0, select bank0
  7729     0247  1303               	bcf	3,6	;RP1=0, select bank0
  7730     0248  00E2               	movwf	___flmul@temp+1
  7731     0249  0872               	movf	?__Umul8_16,w
  7732     024A  00E1               	movwf	___flmul@temp
  7733     024B                     l3609:
  7734     024B  0861               	movf	___flmul@temp,w
  7735     024C  00D1               	movwf	??___flmul
  7736     024D  0862               	movf	___flmul@temp+1,w
  7737     024E  00D2               	movwf	??___flmul+1
  7738     024F  01D3               	clrf	??___flmul+2
  7739     0250  01D4               	clrf	??___flmul+3
  7740     0251  3008               	movlw	8
  7741     0252                     u5375:
  7742     0252  1003               	clrc
  7743     0253  0DD1               	rlf	??___flmul,f
  7744     0254  0DD2               	rlf	??___flmul+1,f
  7745     0255  0DD3               	rlf	??___flmul+2,f
  7746     0256  0DD4               	rlf	??___flmul+3,f
  7747     0257                     u5370:
  7748     0257  3EFF               	addlw	-1
  7749     0258  1D03               	skipz
  7750     0259  2A52               	goto	u5375
  7751     025A  0851               	movf	??___flmul,w
  7752     025B  07DD               	addwf	___flmul@prod,f
  7753     025C  0852               	movf	??___flmul+1,w
  7754     025D  1103               	clrz
  7755     025E  1803               	skipnc
  7756     025F  3E01               	addlw	1
  7757     0260  1903               	skipnz
  7758     0261  2A63               	goto	u5381
  7759     0262  07DE               	addwf	___flmul@prod+1,f
  7760     0263                     u5381:
  7761     0263  0853               	movf	??___flmul+2,w
  7762     0264  1103               	clrz
  7763     0265  1803               	skipnc
  7764     0266  3E01               	addlw	1
  7765     0267  1903               	skipnz
  7766     0268  2A6A               	goto	u5382
  7767     0269  07DF               	addwf	___flmul@prod+2,f
  7768     026A                     u5382:
  7769     026A  0854               	movf	??___flmul+3,w
  7770     026B  1103               	clrz
  7771     026C  1803               	skipnc
  7772     026D  3E01               	addlw	1
  7773     026E  1903               	skipnz
  7774     026F  2A71               	goto	u5383
  7775     0270  07E0               	addwf	___flmul@prod+3,f
  7776     0271                     u5383:
  7777     0271                     l3611:
  7778     0271  0858               	movf	___flmul@grs,w
  7779     0272  00D1               	movwf	??___flmul
  7780     0273  0859               	movf	___flmul@grs+1,w
  7781     0274  00D2               	movwf	??___flmul+1
  7782     0275  085A               	movf	___flmul@grs+2,w
  7783     0276  00D3               	movwf	??___flmul+2
  7784     0277  085B               	movf	___flmul@grs+3,w
  7785     0278  00D4               	movwf	??___flmul+3
  7786     0279  3018               	movlw	24
  7787     027A                     u5395:
  7788     027A  1003               	clrc
  7789     027B  0CD4               	rrf	??___flmul+3,f
  7790     027C  0CD3               	rrf	??___flmul+2,f
  7791     027D  0CD2               	rrf	??___flmul+1,f
  7792     027E  0CD1               	rrf	??___flmul,f
  7793     027F                     u5390:
  7794     027F  3EFF               	addlw	-1
  7795     0280  1D03               	skipz
  7796     0281  2A7A               	goto	u5395
  7797     0282  0851               	movf	??___flmul,w
  7798     0283  07DD               	addwf	___flmul@prod,f
  7799     0284  0852               	movf	??___flmul+1,w
  7800     0285  1103               	clrz
  7801     0286  1803               	skipnc
  7802     0287  3E01               	addlw	1
  7803     0288  1903               	skipnz
  7804     0289  2A8B               	goto	u5401
  7805     028A  07DE               	addwf	___flmul@prod+1,f
  7806     028B                     u5401:
  7807     028B  0853               	movf	??___flmul+2,w
  7808     028C  1103               	clrz
  7809     028D  1803               	skipnc
  7810     028E  3E01               	addlw	1
  7811     028F  1903               	skipnz
  7812     0290  2A92               	goto	u5402
  7813     0291  07DF               	addwf	___flmul@prod+2,f
  7814     0292                     u5402:
  7815     0292  0854               	movf	??___flmul+3,w
  7816     0293  1103               	clrz
  7817     0294  1803               	skipnc
  7818     0295  3E01               	addlw	1
  7819     0296  1903               	skipnz
  7820     0297  2A99               	goto	u5403
  7821     0298  07E0               	addwf	___flmul@prod+3,f
  7822     0299                     u5403:
  7823     0299                     l3613:
  7824     0299  3008               	movlw	8
  7825     029A  00D1               	movwf	??___flmul
  7826     029B                     u5415:
  7827     029B  1003               	clrc
  7828     029C  0DD8               	rlf	___flmul@grs,f
  7829     029D  0DD9               	rlf	___flmul@grs+1,f
  7830     029E  0DDA               	rlf	___flmul@grs+2,f
  7831     029F  0DDB               	rlf	___flmul@grs+3,f
  7832     02A0  0BD1               	decfsz	??___flmul,f
  7833     02A1  2A9B               	goto	u5415
  7834     02A2                     l3615:
  7835     02A2  085C               	movf	___flmul@bexp,w
  7836     02A3  0757               	addwf	___flmul@aexp,w
  7837     02A4  00D1               	movwf	??___flmul
  7838     02A5  01D2               	clrf	??___flmul+1
  7839     02A6  0DD2               	rlf	??___flmul+1,f
  7840     02A7  0851               	movf	??___flmul,w
  7841     02A8  3E82               	addlw	130
  7842     02A9  00E1               	movwf	___flmul@temp
  7843     02AA  0852               	movf	??___flmul+1,w
  7844     02AB  1803               	skipnc
  7845     02AC  3E01               	addlw	1
  7846     02AD  3EFF               	addlw	255
  7847     02AE  00E2               	movwf	___flmul@temp+1
  7848     02AF  2ACD               	goto	l3627
  7849     02B0                     l3617:
  7850     02B0  3001               	movlw	1
  7851     02B1  00D1               	movwf	??___flmul
  7852     02B2                     u5425:
  7853     02B2  1003               	clrc
  7854     02B3  0DDD               	rlf	___flmul@prod,f
  7855     02B4  0DDE               	rlf	___flmul@prod+1,f
  7856     02B5  0DDF               	rlf	___flmul@prod+2,f
  7857     02B6  0DE0               	rlf	___flmul@prod+3,f
  7858     02B7  0BD1               	decfsz	??___flmul,f
  7859     02B8  2AB2               	goto	u5425
  7860     02B9                     l3619:
  7861     02B9  1FDB               	btfss	___flmul@grs+3,7
  7862     02BA  2ABC               	goto	u5431
  7863     02BB  2ABD               	goto	u5430
  7864     02BC                     u5431:
  7865     02BC  2ABE               	goto	l3623
  7866     02BD                     u5430:
  7867     02BD                     l3621:
  7868     02BD  145D               	bsf	___flmul@prod,0
  7869     02BE                     l3623:
  7870     02BE  3001               	movlw	1
  7871     02BF  00D1               	movwf	??___flmul
  7872     02C0                     u5445:
  7873     02C0  1003               	clrc
  7874     02C1  0DD8               	rlf	___flmul@grs,f
  7875     02C2  0DD9               	rlf	___flmul@grs+1,f
  7876     02C3  0DDA               	rlf	___flmul@grs+2,f
  7877     02C4  0DDB               	rlf	___flmul@grs+3,f
  7878     02C5  0BD1               	decfsz	??___flmul,f
  7879     02C6  2AC0               	goto	u5445
  7880     02C7                     l3625:
  7881     02C7  30FF               	movlw	255
  7882     02C8  07E1               	addwf	___flmul@temp,f
  7883     02C9  1803               	skipnc
  7884     02CA  0AE2               	incf	___flmul@temp+1,f
  7885     02CB  30FF               	movlw	255
  7886     02CC  07E2               	addwf	___flmul@temp+1,f
  7887     02CD                     l3627:
  7888     02CD  1FDF               	btfss	___flmul@prod+2,7
  7889     02CE  2AD0               	goto	u5451
  7890     02CF  2AD1               	goto	u5450
  7891     02D0                     u5451:
  7892     02D0  2AB0               	goto	l3617
  7893     02D1                     u5450:
  7894     02D1                     l3629:
  7895     02D1  01D7               	clrf	___flmul@aexp
  7896     02D2                     l3631:
  7897     02D2  1FDB               	btfss	___flmul@grs+3,7
  7898     02D3  2AD5               	goto	u5461
  7899     02D4  2AD6               	goto	u5460
  7900     02D5                     u5461:
  7901     02D5  2AF2               	goto	l3639
  7902     02D6                     u5460:
  7903     02D6                     l3633:
  7904     02D6  30FF               	movlw	255
  7905     02D7  0558               	andwf	___flmul@grs,w
  7906     02D8  00D1               	movwf	??___flmul
  7907     02D9  30FF               	movlw	255
  7908     02DA  0559               	andwf	___flmul@grs+1,w
  7909     02DB  00D2               	movwf	??___flmul+1
  7910     02DC  30FF               	movlw	255
  7911     02DD  055A               	andwf	___flmul@grs+2,w
  7912     02DE  00D3               	movwf	??___flmul+2
  7913     02DF  307F               	movlw	127
  7914     02E0  055B               	andwf	___flmul@grs+3,w
  7915     02E1  00D4               	movwf	??___flmul+3
  7916     02E2  0854               	movf	??___flmul+3,w
  7917     02E3  0453               	iorwf	??___flmul+2,w
  7918     02E4  0452               	iorwf	??___flmul+1,w
  7919     02E5  0451               	iorwf	??___flmul,w
  7920     02E6  1903               	skipnz
  7921     02E7  2AE9               	goto	u5471
  7922     02E8  2AEA               	goto	u5470
  7923     02E9                     u5471:
  7924     02E9  2AED               	goto	l643
  7925     02EA                     u5470:
  7926     02EA                     l3635:
  7927     02EA  01D7               	clrf	___flmul@aexp
  7928     02EB  0AD7               	incf	___flmul@aexp,f
  7929     02EC  2AF2               	goto	l3639
  7930     02ED                     l643:
  7931     02ED  1C5D               	btfss	___flmul@prod,0
  7932     02EE  2AF0               	goto	u5481
  7933     02EF  2AF1               	goto	u5480
  7934     02F0                     u5481:
  7935     02F0  2AF2               	goto	l3639
  7936     02F1                     u5480:
  7937     02F1  2AEA               	goto	l3635
  7938     02F2                     l3639:
  7939     02F2  0857               	movf	___flmul@aexp,w
  7940     02F3  1903               	btfsc	3,2
  7941     02F4  2AF6               	goto	u5491
  7942     02F5  2AF7               	goto	u5490
  7943     02F6                     u5491:
  7944     02F6  2B28               	goto	l3649
  7945     02F7                     u5490:
  7946     02F7                     l3641:
  7947     02F7  3001               	movlw	1
  7948     02F8  07DD               	addwf	___flmul@prod,f
  7949     02F9  3000               	movlw	0
  7950     02FA  1803               	skipnc
  7951     02FB  3001               	movlw	1
  7952     02FC  07DE               	addwf	___flmul@prod+1,f
  7953     02FD  3000               	movlw	0
  7954     02FE  1803               	skipnc
  7955     02FF  3001               	movlw	1
  7956     0300  07DF               	addwf	___flmul@prod+2,f
  7957     0301  3000               	movlw	0
  7958     0302  1803               	skipnc
  7959     0303  3001               	movlw	1
  7960     0304  07E0               	addwf	___flmul@prod+3,f
  7961     0305                     l3643:
  7962     0305  1C60               	btfss	___flmul@prod+3,0
  7963     0306  2B08               	goto	u5501
  7964     0307  2B09               	goto	u5500
  7965     0308                     u5501:
  7966     0308  2B28               	goto	l3649
  7967     0309                     u5500:
  7968     0309                     l3645:
  7969     0309  085D               	movf	___flmul@prod,w
  7970     030A  00D1               	movwf	??___flmul
  7971     030B  085E               	movf	___flmul@prod+1,w
  7972     030C  00D2               	movwf	??___flmul+1
  7973     030D  085F               	movf	___flmul@prod+2,w
  7974     030E  00D3               	movwf	??___flmul+2
  7975     030F  0860               	movf	___flmul@prod+3,w
  7976     0310  00D4               	movwf	??___flmul+3
  7977     0311  3001               	movlw	1
  7978     0312  00D5               	movwf	??___flmul+4
  7979     0313                     u5515:
  7980     0313  0D54               	rlf	??___flmul+3,w
  7981     0314  0CD4               	rrf	??___flmul+3,f
  7982     0315  0CD3               	rrf	??___flmul+2,f
  7983     0316  0CD2               	rrf	??___flmul+1,f
  7984     0317  0CD1               	rrf	??___flmul,f
  7985     0318                     u5510:
  7986     0318  0BD5               	decfsz	??___flmul+4,f
  7987     0319  2B13               	goto	u5515
  7988     031A  0854               	movf	??___flmul+3,w
  7989     031B  00E0               	movwf	___flmul@prod+3
  7990     031C  0853               	movf	??___flmul+2,w
  7991     031D  00DF               	movwf	___flmul@prod+2
  7992     031E  0852               	movf	??___flmul+1,w
  7993     031F  00DE               	movwf	___flmul@prod+1
  7994     0320  0851               	movf	??___flmul,w
  7995     0321  00DD               	movwf	___flmul@prod
  7996     0322                     l3647:
  7997     0322  3001               	movlw	1
  7998     0323  07E1               	addwf	___flmul@temp,f
  7999     0324  1803               	skipnc
  8000     0325  0AE2               	incf	___flmul@temp+1,f
  8001     0326  3000               	movlw	0
  8002     0327  07E2               	addwf	___flmul@temp+1,f
  8003     0328                     l3649:
  8004     0328  0862               	movf	___flmul@temp+1,w
  8005     0329  3A80               	xorlw	128
  8006     032A  00FF               	movwf	btemp+1
  8007     032B  3080               	movlw	128
  8008     032C  027F               	subwf	btemp+1,w
  8009     032D  1D03               	skipz
  8010     032E  2B31               	goto	u5525
  8011     032F  30FF               	movlw	255
  8012     0330  0261               	subwf	___flmul@temp,w
  8013     0331                     u5525:
  8014     0331  1C03               	skipc
  8015     0332  2B34               	goto	u5521
  8016     0333  2B35               	goto	u5520
  8017     0334                     u5521:
  8018     0334  2B40               	goto	l3653
  8019     0335                     u5520:
  8020     0335                     l3651:
  8021     0335  307F               	movlw	127
  8022     0336  1283               	bcf	3,5	;RP0=0, select bank0
  8023     0337  1303               	bcf	3,6	;RP1=0, select bank0
  8024     0338  00E0               	movwf	___flmul@prod+3
  8025     0339  3080               	movlw	128
  8026     033A  00DF               	movwf	___flmul@prod+2
  8027     033B  3000               	movlw	0
  8028     033C  00DE               	movwf	___flmul@prod+1
  8029     033D  3000               	movlw	0
  8030     033E  00DD               	movwf	___flmul@prod
  8031     033F  2B71               	goto	l3667
  8032     0340                     l3653:
  8033     0340  1283               	bcf	3,5	;RP0=0, select bank0
  8034     0341  1303               	bcf	3,6	;RP1=0, select bank0
  8035     0342  0862               	movf	___flmul@temp+1,w
  8036     0343  3A80               	xorlw	128
  8037     0344  00FF               	movwf	btemp+1
  8038     0345  3080               	movlw	128
  8039     0346  027F               	subwf	btemp+1,w
  8040     0347  1D03               	skipz
  8041     0348  2B4B               	goto	u5535
  8042     0349  3001               	movlw	1
  8043     034A  0261               	subwf	___flmul@temp,w
  8044     034B                     u5535:
  8045     034B  1803               	skipnc
  8046     034C  2B4E               	goto	u5531
  8047     034D  2B4F               	goto	u5530
  8048     034E                     u5531:
  8049     034E  2B5B               	goto	l3659
  8050     034F                     u5530:
  8051     034F                     l3655:
  8052     034F  3000               	movlw	0
  8053     0350  1283               	bcf	3,5	;RP0=0, select bank0
  8054     0351  1303               	bcf	3,6	;RP1=0, select bank0
  8055     0352  00E0               	movwf	___flmul@prod+3
  8056     0353  3000               	movlw	0
  8057     0354  00DF               	movwf	___flmul@prod+2
  8058     0355  3000               	movlw	0
  8059     0356  00DE               	movwf	___flmul@prod+1
  8060     0357  3000               	movlw	0
  8061     0358  00DD               	movwf	___flmul@prod
  8062     0359                     l3657:
  8063     0359  01D6               	clrf	___flmul@sign
  8064     035A  2B71               	goto	l3667
  8065     035B                     l3659:
  8066     035B  1283               	bcf	3,5	;RP0=0, select bank0
  8067     035C  1303               	bcf	3,6	;RP1=0, select bank0
  8068     035D  0861               	movf	___flmul@temp,w
  8069     035E  00DC               	movwf	___flmul@bexp
  8070     035F  30FF               	movlw	255
  8071     0360  05DD               	andwf	___flmul@prod,f
  8072     0361  30FF               	movlw	255
  8073     0362  05DE               	andwf	___flmul@prod+1,f
  8074     0363  307F               	movlw	127
  8075     0364  05DF               	andwf	___flmul@prod+2,f
  8076     0365  3000               	movlw	0
  8077     0366  05E0               	andwf	___flmul@prod+3,f
  8078     0367                     l3661:
  8079     0367  1C5C               	btfss	___flmul@bexp,0
  8080     0368  2B6A               	goto	u5541
  8081     0369  2B6B               	goto	u5540
  8082     036A                     u5541:
  8083     036A  2B6C               	goto	l3665
  8084     036B                     u5540:
  8085     036B                     l3663:
  8086     036B  17DF               	bsf	___flmul@prod+2,7
  8087     036C                     l3665:
  8088     036C  085C               	movf	___flmul@bexp,w
  8089     036D  00D1               	movwf	??___flmul
  8090     036E  1003               	clrc
  8091     036F  0C51               	rrf	??___flmul,w
  8092     0370  00E0               	movwf	___flmul@prod+3
  8093     0371                     l3667:
  8094     0371  0856               	movf	___flmul@sign,w
  8095     0372  00FF               	movwf	btemp+1
  8096     0373  087F               	movf	btemp+1,w
  8097     0374  04E0               	iorwf	___flmul@prod+3,f
  8098     0375                     l3669:
  8099     0375  0860               	movf	___flmul@prod+3,w
  8100     0376  00CC               	movwf	?___flmul+3
  8101     0377  085F               	movf	___flmul@prod+2,w
  8102     0378  00CB               	movwf	?___flmul+2
  8103     0379  085E               	movf	___flmul@prod+1,w
  8104     037A  00CA               	movwf	?___flmul+1
  8105     037B  085D               	movf	___flmul@prod,w
  8106     037C  00C9               	movwf	?___flmul
  8107     037D                     l637:
  8108     037D  0008               	return
  8109     037E                     __end_of___flmul:
  8110                           
  8111                           	psect	text27
  8112     1083                     __ptext27:	
  8113 ;; *************** function __Umul8_16 *****************
  8114 ;; Defined at:
  8115 ;;		line 4 in file "C:\Program Files\Microchip\xc8\v2.41\pic\sources\c90\common\Umul8_16.c"
  8116 ;; Parameters:    Size  Location     Type
  8117 ;;  multiplier      1    wreg     unsigned char 
  8118 ;;  multiplicand    1    2[COMMON] unsigned char 
  8119 ;; Auto vars:     Size  Location     Type
  8120 ;;  multiplier      1    4[BANK0 ] unsigned char 
  8121 ;;  word_mpld       2    2[BANK0 ] unsigned int 
  8122 ;;  product         2    0[BANK0 ] unsigned int 
  8123 ;; Return value:  Size  Location     Type
  8124 ;;                  2    2[COMMON] unsigned int 
  8125 ;; Registers used:
  8126 ;;		wreg, status,2, status,0
  8127 ;; Tracked objects:
  8128 ;;		On entry : 0/0
  8129 ;;		On exit  : 0/0
  8130 ;;		Unchanged: 0/0
  8131 ;; Data sizes:     COMMON   BANK0   BANK1   BANK3   BANK2
  8132 ;;      Params:         2       0       0       0       0
  8133 ;;      Locals:         0       5       0       0       0
  8134 ;;      Temps:          2       0       0       0       0
  8135 ;;      Totals:         4       5       0       0       0
  8136 ;;Total ram usage:        9 bytes
  8137 ;; Hardware stack levels used: 1
  8138 ;; Hardware stack levels required when called: 1
  8139 ;; This function calls:
  8140 ;;		Nothing
  8141 ;; This function is called by:
  8142 ;;		___flmul
  8143 ;; This function uses a non-reentrant model
  8144 ;;
  8145                           
  8146     1083                     __Umul8_16:	
  8147                           ;psect for function __Umul8_16
  8148                           
  8149                           
  8150                           ;incstack = 0
  8151                           ; Regs used in __Umul8_16: [wreg+status,2+status,0]
  8152                           ;__Umul8_16@multiplier stored from wreg
  8153     1083  1283               	bcf	3,5	;RP0=0, select bank0
  8154     1084  1303               	bcf	3,6	;RP1=0, select bank0
  8155     1085  00A4               	movwf	__Umul8_16@multiplier
  8156     1086                     l3269:
  8157     1086  01A0               	clrf	__Umul8_16@product
  8158     1087  01A1               	clrf	__Umul8_16@product+1
  8159     1088                     l3271:
  8160     1088  0872               	movf	__Umul8_16@multiplicand,w
  8161     1089  00F4               	movwf	??__Umul8_16
  8162     108A  01F5               	clrf	??__Umul8_16+1
  8163     108B  0874               	movf	??__Umul8_16,w
  8164     108C  00A2               	movwf	__Umul8_16@word_mpld
  8165     108D  0875               	movf	??__Umul8_16+1,w
  8166     108E  00A3               	movwf	__Umul8_16@word_mpld+1
  8167     108F                     l3273:
  8168     108F  1C24               	btfss	__Umul8_16@multiplier,0
  8169     1090  2892               	goto	u4551
  8170     1091  2893               	goto	u4550
  8171     1092                     u4551:
  8172     1092  2899               	goto	l656
  8173     1093                     u4550:
  8174     1093                     l3275:
  8175     1093  0822               	movf	__Umul8_16@word_mpld,w
  8176     1094  07A0               	addwf	__Umul8_16@product,f
  8177     1095  1803               	skipnc
  8178     1096  0AA1               	incf	__Umul8_16@product+1,f
  8179     1097  0823               	movf	__Umul8_16@word_mpld+1,w
  8180     1098  07A1               	addwf	__Umul8_16@product+1,f
  8181     1099                     l656:
  8182     1099  3001               	movlw	1
  8183     109A                     u4565:
  8184     109A  1003               	clrc
  8185     109B  0DA2               	rlf	__Umul8_16@word_mpld,f
  8186     109C  0DA3               	rlf	__Umul8_16@word_mpld+1,f
  8187     109D  3EFF               	addlw	-1
  8188     109E  1D03               	skipz
  8189     109F  289A               	goto	u4565
  8190     10A0  1003               	clrc
  8191     10A1  0CA4               	rrf	__Umul8_16@multiplier,f
  8192     10A2                     l3277:
  8193     10A2  0824               	movf	__Umul8_16@multiplier,w
  8194     10A3  1D03               	btfss	3,2
  8195     10A4  28A6               	goto	u4571
  8196     10A5  28A7               	goto	u4570
  8197     10A6                     u4571:
  8198     10A6  288F               	goto	l3273
  8199     10A7                     u4570:
  8200     10A7                     l3279:
  8201     10A7  0821               	movf	__Umul8_16@product+1,w
  8202     10A8  00F3               	movwf	?__Umul8_16+1
  8203     10A9  0820               	movf	__Umul8_16@product,w
  8204     10AA  00F2               	movwf	?__Umul8_16
  8205     10AB                     l658:
  8206     10AB  0008               	return
  8207     10AC                     __end_of__Umul8_16:
  8208                           
  8209                           	psect	text28
  8210     037E                     __ptext28:	
  8211 ;; *************** function ___fladd *****************
  8212 ;; Defined at:
  8213 ;;		line 10 in file "C:\Program Files\Microchip\xc8\v2.41\pic\sources\c90\common\sprcadd.c"
  8214 ;; Parameters:    Size  Location     Type
  8215 ;;  b               4   67[BANK0 ] unsigned int 
  8216 ;;  a               4   71[BANK0 ] unsigned int 
  8217 ;; Auto vars:     Size  Location     Type
  8218 ;;  grs             1   78[BANK0 ] unsigned char 
  8219 ;;  bexp            1   77[BANK0 ] unsigned char 
  8220 ;;  aexp            1   76[BANK0 ] unsigned char 
  8221 ;;  signs           1   75[BANK0 ] unsigned char 
  8222 ;; Return value:  Size  Location     Type
  8223 ;;                  4   67[BANK0 ] unsigned char 
  8224 ;; Registers used:
  8225 ;;		wreg, status,2, status,0, btemp+1
  8226 ;; Tracked objects:
  8227 ;;		On entry : 0/0
  8228 ;;		On exit  : 0/0
  8229 ;;		Unchanged: 0/0
  8230 ;; Data sizes:     COMMON   BANK0   BANK1   BANK3   BANK2
  8231 ;;      Params:         0       8       0       0       0
  8232 ;;      Locals:         0       4       0       0       0
  8233 ;;      Temps:          0       0       8       0       0
  8234 ;;      Totals:         0      12       8       0       0
  8235 ;;Total ram usage:       20 bytes
  8236 ;; Hardware stack levels used: 1
  8237 ;; Hardware stack levels required when called: 1
  8238 ;; This function calls:
  8239 ;;		Nothing
  8240 ;; This function is called by:
  8241 ;;		_converteVoltsParaLux
  8242 ;;		___flsub
  8243 ;;		_log
  8244 ;;		_eval_poly
  8245 ;;		_floor
  8246 ;; This function uses a non-reentrant model
  8247 ;;
  8248                           
  8249     037E                     ___fladd:	
  8250                           ;psect for function ___fladd
  8251                           
  8252     037E                     l3331:	
  8253                           ;incstack = 0
  8254                           ; Regs used in ___fladd: [wreg+status,2+status,0+btemp+1]
  8255                           
  8256     037E  1283               	bcf	3,5	;RP0=0, select bank0
  8257     037F  1303               	bcf	3,6	;RP1=0, select bank0
  8258     0380  0866               	movf	___fladd@b+3,w
  8259     0381  3980               	andlw	128
  8260     0382  00EB               	movwf	___fladd@signs
  8261     0383                     l3333:
  8262     0383  0866               	movf	___fladd@b+3,w
  8263     0384  1683               	bsf	3,5	;RP0=1, select bank1
  8264     0385  1303               	bcf	3,6	;RP1=0, select bank1
  8265     0386  00A0               	movwf	??___fladd^(0+128)
  8266     0387  0720               	addwf	??___fladd^(0+128),w
  8267     0388  1283               	bcf	3,5	;RP0=0, select bank0
  8268     0389  1303               	bcf	3,6	;RP1=0, select bank0
  8269     038A  00ED               	movwf	___fladd@bexp
  8270     038B                     l3335:
  8271     038B  1FE5               	btfss	___fladd@b+2,7
  8272     038C  2B8E               	goto	u4721
  8273     038D  2B8F               	goto	u4720
  8274     038E                     u4721:
  8275     038E  2B90               	goto	l3339
  8276     038F                     u4720:
  8277     038F                     l3337:
  8278     038F  146D               	bsf	___fladd@bexp,0
  8279     0390                     l3339:
  8280     0390  086D               	movf	___fladd@bexp,w
  8281     0391  1903               	btfsc	3,2
  8282     0392  2B94               	goto	u4731
  8283     0393  2B95               	goto	u4730
  8284     0394                     u4731:
  8285     0394  2BA5               	goto	l3349
  8286     0395                     u4730:
  8287     0395                     l3341:
  8288     0395  0A6D               	incf	___fladd@bexp,w
  8289     0396  1D03               	btfss	3,2
  8290     0397  2B99               	goto	u4741
  8291     0398  2B9A               	goto	u4740
  8292     0399                     u4741:
  8293     0399  2BA2               	goto	l3345
  8294     039A                     u4740:
  8295     039A                     l3343:
  8296     039A  3000               	movlw	0
  8297     039B  00E6               	movwf	___fladd@b+3
  8298     039C  3000               	movlw	0
  8299     039D  00E5               	movwf	___fladd@b+2
  8300     039E  3000               	movlw	0
  8301     039F  00E4               	movwf	___fladd@b+1
  8302     03A0  3000               	movlw	0
  8303     03A1  00E3               	movwf	___fladd@b
  8304     03A2                     l3345:
  8305     03A2  17E5               	bsf	___fladd@b+2,7
  8306     03A3                     l3347:
  8307     03A3  01E6               	clrf	___fladd@b+3
  8308     03A4  2BAD               	goto	l3351
  8309     03A5                     l3349:
  8310     03A5  3000               	movlw	0
  8311     03A6  00E6               	movwf	___fladd@b+3
  8312     03A7  3000               	movlw	0
  8313     03A8  00E5               	movwf	___fladd@b+2
  8314     03A9  3000               	movlw	0
  8315     03AA  00E4               	movwf	___fladd@b+1
  8316     03AB  3000               	movlw	0
  8317     03AC  00E3               	movwf	___fladd@b
  8318     03AD                     l3351:
  8319     03AD  086A               	movf	___fladd@a+3,w
  8320     03AE  3980               	andlw	128
  8321     03AF  00EC               	movwf	___fladd@aexp
  8322     03B0                     l3353:
  8323     03B0  086C               	movf	___fladd@aexp,w
  8324     03B1  066B               	xorwf	___fladd@signs,w
  8325     03B2  1903               	skipnz
  8326     03B3  2BB5               	goto	u4751
  8327     03B4  2BB6               	goto	u4750
  8328     03B5                     u4751:
  8329     03B5  2BB7               	goto	l3357
  8330     03B6                     u4750:
  8331     03B6                     l3355:
  8332     03B6  176B               	bsf	___fladd@signs,6
  8333     03B7                     l3357:
  8334     03B7  086A               	movf	___fladd@a+3,w
  8335     03B8  1683               	bsf	3,5	;RP0=1, select bank1
  8336     03B9  1303               	bcf	3,6	;RP1=0, select bank1
  8337     03BA  00A0               	movwf	??___fladd^(0+128)
  8338     03BB  0720               	addwf	??___fladd^(0+128),w
  8339     03BC  1283               	bcf	3,5	;RP0=0, select bank0
  8340     03BD  1303               	bcf	3,6	;RP1=0, select bank0
  8341     03BE  00EC               	movwf	___fladd@aexp
  8342     03BF                     l3359:
  8343     03BF  1FE9               	btfss	___fladd@a+2,7
  8344     03C0  2BC2               	goto	u4761
  8345     03C1  2BC3               	goto	u4760
  8346     03C2                     u4761:
  8347     03C2  2BC4               	goto	l3363
  8348     03C3                     u4760:
  8349     03C3                     l3361:
  8350     03C3  146C               	bsf	___fladd@aexp,0
  8351     03C4                     l3363:
  8352     03C4  086C               	movf	___fladd@aexp,w
  8353     03C5  1903               	btfsc	3,2
  8354     03C6  2BC8               	goto	u4771
  8355     03C7  2BC9               	goto	u4770
  8356     03C8                     u4771:
  8357     03C8  2BD9               	goto	l3373
  8358     03C9                     u4770:
  8359     03C9                     l3365:
  8360     03C9  0A6C               	incf	___fladd@aexp,w
  8361     03CA  1D03               	btfss	3,2
  8362     03CB  2BCD               	goto	u4781
  8363     03CC  2BCE               	goto	u4780
  8364     03CD                     u4781:
  8365     03CD  2BD6               	goto	l3369
  8366     03CE                     u4780:
  8367     03CE                     l3367:
  8368     03CE  3000               	movlw	0
  8369     03CF  00EA               	movwf	___fladd@a+3
  8370     03D0  3000               	movlw	0
  8371     03D1  00E9               	movwf	___fladd@a+2
  8372     03D2  3000               	movlw	0
  8373     03D3  00E8               	movwf	___fladd@a+1
  8374     03D4  3000               	movlw	0
  8375     03D5  00E7               	movwf	___fladd@a
  8376     03D6                     l3369:
  8377     03D6  17E9               	bsf	___fladd@a+2,7
  8378     03D7                     l3371:
  8379     03D7  01EA               	clrf	___fladd@a+3
  8380     03D8  2BE1               	goto	l541
  8381     03D9                     l3373:
  8382     03D9  3000               	movlw	0
  8383     03DA  00EA               	movwf	___fladd@a+3
  8384     03DB  3000               	movlw	0
  8385     03DC  00E9               	movwf	___fladd@a+2
  8386     03DD  3000               	movlw	0
  8387     03DE  00E8               	movwf	___fladd@a+1
  8388     03DF  3000               	movlw	0
  8389     03E0  00E7               	movwf	___fladd@a
  8390     03E1                     l541:
  8391     03E1  086D               	movf	___fladd@bexp,w
  8392     03E2  026C               	subwf	___fladd@aexp,w
  8393     03E3  1803               	skipnc
  8394     03E4  2BE6               	goto	u4791
  8395     03E5  2BE7               	goto	u4790
  8396     03E6                     u4791:
  8397     03E6  2C0D               	goto	l3409
  8398     03E7                     u4790:
  8399     03E7                     l3375:
  8400     03E7  1F6B               	btfss	___fladd@signs,6
  8401     03E8  2BEA               	goto	u4801
  8402     03E9  2BEB               	goto	u4800
  8403     03EA                     u4801:
  8404     03EA  2BEF               	goto	l3379
  8405     03EB                     u4800:
  8406     03EB                     l3377:
  8407     03EB  3080               	movlw	128
  8408     03EC  00FF               	movwf	btemp+1
  8409     03ED  087F               	movf	btemp+1,w
  8410     03EE  06EB               	xorwf	___fladd@signs,f
  8411     03EF                     l3379:
  8412     03EF  086D               	movf	___fladd@bexp,w
  8413     03F0  00EE               	movwf	___fladd@grs
  8414     03F1                     l3381:
  8415     03F1  086C               	movf	___fladd@aexp,w
  8416     03F2  00ED               	movwf	___fladd@bexp
  8417     03F3                     l3383:
  8418     03F3  086E               	movf	___fladd@grs,w
  8419     03F4  00EC               	movwf	___fladd@aexp
  8420     03F5                     l3385:
  8421     03F5  0863               	movf	___fladd@b,w
  8422     03F6  00EE               	movwf	___fladd@grs
  8423     03F7                     l3387:
  8424     03F7  0867               	movf	___fladd@a,w
  8425     03F8  00E3               	movwf	___fladd@b
  8426     03F9                     l3389:
  8427     03F9  086E               	movf	___fladd@grs,w
  8428     03FA  00E7               	movwf	___fladd@a
  8429     03FB                     l3391:
  8430     03FB  0864               	movf	___fladd@b+1,w
  8431     03FC  00EE               	movwf	___fladd@grs
  8432     03FD                     l3393:
  8433     03FD  0868               	movf	___fladd@a+1,w
  8434     03FE  00E4               	movwf	___fladd@b+1
  8435     03FF                     l3395:
  8436     03FF  086E               	movf	___fladd@grs,w
  8437     0400  00E8               	movwf	___fladd@a+1
  8438     0401                     l3397:
  8439     0401  0865               	movf	___fladd@b+2,w
  8440     0402  00EE               	movwf	___fladd@grs
  8441     0403                     l3399:
  8442     0403  0869               	movf	___fladd@a+2,w
  8443     0404  00E5               	movwf	___fladd@b+2
  8444     0405                     l3401:
  8445     0405  086E               	movf	___fladd@grs,w
  8446     0406  00E9               	movwf	___fladd@a+2
  8447     0407                     l3403:
  8448     0407  0866               	movf	___fladd@b+3,w
  8449     0408  00EE               	movwf	___fladd@grs
  8450     0409                     l3405:
  8451     0409  086A               	movf	___fladd@a+3,w
  8452     040A  00E6               	movwf	___fladd@b+3
  8453     040B                     l3407:
  8454     040B  086E               	movf	___fladd@grs,w
  8455     040C  00EA               	movwf	___fladd@a+3
  8456     040D                     l3409:
  8457     040D  01EE               	clrf	___fladd@grs
  8458     040E                     l3411:
  8459     040E  086C               	movf	___fladd@aexp,w
  8460     040F  1683               	bsf	3,5	;RP0=1, select bank1
  8461     0410  1303               	bcf	3,6	;RP1=0, select bank1
  8462     0411  00A0               	movwf	??___fladd^(0+128)
  8463     0412  01A1               	clrf	(??___fladd^(0+128)+1)
  8464     0413  0821               	movf	(??___fladd+1)^(0+128),w
  8465     0414  00A3               	movwf	((??___fladd+2)^(0+128)+1)
  8466     0415  1283               	bcf	3,5	;RP0=0, select bank0
  8467     0416  1303               	bcf	3,6	;RP1=0, select bank0
  8468     0417  086D               	movf	___fladd@bexp,w
  8469     0418  1683               	bsf	3,5	;RP0=1, select bank1
  8470     0419  1303               	bcf	3,6	;RP1=0, select bank1
  8471     041A  0220               	subwf	??___fladd^(0+128),w
  8472     041B  00A2               	movwf	(??___fladd+2)^(0+128)
  8473     041C  1C03               	skipc
  8474     041D  03A3               	decf	((??___fladd+2)^(0+128)+1),f
  8475     041E  0823               	movf	(??___fladd+3)^(0+128),w
  8476     041F  3A80               	xorlw	128
  8477     0420  00FF               	movwf	btemp+1
  8478     0421  3080               	movlw	128
  8479     0422  027F               	subwf	btemp+1,w
  8480     0423  1D03               	skipz
  8481     0424  2C27               	goto	u4815
  8482     0425  301A               	movlw	26
  8483     0426  0222               	subwf	(??___fladd+2)^(0+128),w
  8484     0427                     u4815:
  8485     0427  1C03               	skipc
  8486     0428  2C2A               	goto	u4811
  8487     0429  2C2B               	goto	u4810
  8488     042A                     u4811:
  8489     042A  2C6E               	goto	l3427
  8490     042B                     u4810:
  8491     042B                     l3413:
  8492     042B  1283               	bcf	3,5	;RP0=0, select bank0
  8493     042C  1303               	bcf	3,6	;RP1=0, select bank0
  8494     042D  0866               	movf	___fladd@b+3,w
  8495     042E  0465               	iorwf	___fladd@b+2,w
  8496     042F  0464               	iorwf	___fladd@b+1,w
  8497     0430  0463               	iorwf	___fladd@b,w
  8498     0431  1D03               	skipz
  8499     0432  2C34               	goto	u4821
  8500     0433  2C36               	goto	u4820
  8501     0434                     u4821:
  8502     0434  3001               	movlw	1
  8503     0435  2C37               	goto	u4830
  8504     0436                     u4820:
  8505     0436  3000               	movlw	0
  8506     0437                     u4830:
  8507     0437  00EE               	movwf	___fladd@grs
  8508     0438  3000               	movlw	0
  8509     0439  00E6               	movwf	___fladd@b+3
  8510     043A  3000               	movlw	0
  8511     043B  00E5               	movwf	___fladd@b+2
  8512     043C  3000               	movlw	0
  8513     043D  00E4               	movwf	___fladd@b+1
  8514     043E  3000               	movlw	0
  8515     043F  00E3               	movwf	___fladd@b
  8516     0440  086C               	movf	___fladd@aexp,w
  8517     0441  00ED               	movwf	___fladd@bexp
  8518     0442  2C76               	goto	l545
  8519     0443                     l547:
  8520     0443  1C6E               	btfss	___fladd@grs,0
  8521     0444  2C46               	goto	u4841
  8522     0445  2C47               	goto	u4840
  8523     0446                     u4841:
  8524     0446  2C52               	goto	l3417
  8525     0447                     u4840:
  8526     0447                     l3415:
  8527     0447  086E               	movf	___fladd@grs,w
  8528     0448  1683               	bsf	3,5	;RP0=1, select bank1
  8529     0449  1303               	bcf	3,6	;RP1=0, select bank1
  8530     044A  00A0               	movwf	??___fladd^(0+128)
  8531     044B  1003               	clrc
  8532     044C  0C20               	rrf	??___fladd^(0+128),w
  8533     044D  3801               	iorlw	1
  8534     044E  1283               	bcf	3,5	;RP0=0, select bank0
  8535     044F  1303               	bcf	3,6	;RP1=0, select bank0
  8536     0450  00EE               	movwf	___fladd@grs
  8537     0451  2C54               	goto	l3419
  8538     0452                     l3417:
  8539     0452  1003               	clrc
  8540     0453  0CEE               	rrf	___fladd@grs,f
  8541     0454                     l3419:
  8542     0454  1C63               	btfss	___fladd@b,0
  8543     0455  2C57               	goto	u4851
  8544     0456  2C58               	goto	u4850
  8545     0457                     u4851:
  8546     0457  2C59               	goto	l3423
  8547     0458                     u4850:
  8548     0458                     l3421:
  8549     0458  17EE               	bsf	___fladd@grs,7
  8550     0459                     l3423:
  8551     0459  3001               	movlw	1
  8552     045A  1683               	bsf	3,5	;RP0=1, select bank1
  8553     045B  1303               	bcf	3,6	;RP1=0, select bank1
  8554     045C  00A0               	movwf	??___fladd^(0+128)
  8555     045D                     u4865:
  8556     045D  1283               	bcf	3,5	;RP0=0, select bank0
  8557     045E  1303               	bcf	3,6	;RP1=0, select bank0
  8558     045F  0D66               	rlf	___fladd@b+3,w
  8559     0460  0CE6               	rrf	___fladd@b+3,f
  8560     0461  0CE5               	rrf	___fladd@b+2,f
  8561     0462  0CE4               	rrf	___fladd@b+1,f
  8562     0463  0CE3               	rrf	___fladd@b,f
  8563     0464  1683               	bsf	3,5	;RP0=1, select bank1
  8564     0465  1303               	bcf	3,6	;RP1=0, select bank1
  8565     0466  0BA0               	decfsz	(??___fladd^(0+128))& (0+127),f
  8566     0467  2C5D               	goto	u4865
  8567     0468                     l3425:
  8568     0468  3001               	movlw	1
  8569     0469  00FF               	movwf	btemp+1
  8570     046A  087F               	movf	btemp+1,w
  8571     046B  1283               	bcf	3,5	;RP0=0, select bank0
  8572     046C  1303               	bcf	3,6	;RP1=0, select bank0
  8573     046D  07ED               	addwf	___fladd@bexp,f
  8574     046E                     l3427:
  8575     046E  1283               	bcf	3,5	;RP0=0, select bank0
  8576     046F  1303               	bcf	3,6	;RP1=0, select bank0
  8577     0470  086C               	movf	___fladd@aexp,w
  8578     0471  026D               	subwf	___fladd@bexp,w
  8579     0472  1C03               	skipc
  8580     0473  2C75               	goto	u4871
  8581     0474  2C76               	goto	u4870
  8582     0475                     u4871:
  8583     0475  2C43               	goto	l547
  8584     0476                     u4870:
  8585     0476                     l545:
  8586     0476  1B6B               	btfsc	___fladd@signs,6
  8587     0477  2C79               	goto	u4881
  8588     0478  2C7A               	goto	u4880
  8589     0479                     u4881:
  8590     0479  2CCF               	goto	l3453
  8591     047A                     u4880:
  8592     047A                     l3429:
  8593     047A  086D               	movf	___fladd@bexp,w
  8594     047B  1D03               	btfss	3,2
  8595     047C  2C7E               	goto	u4891
  8596     047D  2C7F               	goto	u4890
  8597     047E                     u4891:
  8598     047E  2C88               	goto	l3435
  8599     047F                     u4890:
  8600     047F                     l3431:
  8601     047F  3000               	movlw	0
  8602     0480  00E6               	movwf	?___fladd+3
  8603     0481  3000               	movlw	0
  8604     0482  00E5               	movwf	?___fladd+2
  8605     0483  3000               	movlw	0
  8606     0484  00E4               	movwf	?___fladd+1
  8607     0485  3000               	movlw	0
  8608     0486  00E3               	movwf	?___fladd
  8609     0487  2E57               	goto	l554
  8610     0488                     l3435:
  8611     0488  0867               	movf	___fladd@a,w
  8612     0489  07E3               	addwf	___fladd@b,f
  8613     048A  0868               	movf	___fladd@a+1,w
  8614     048B  1103               	clrz
  8615     048C  1803               	skipnc
  8616     048D  3E01               	addlw	1
  8617     048E  1903               	skipnz
  8618     048F  2C91               	goto	u4901
  8619     0490  07E4               	addwf	___fladd@b+1,f
  8620     0491                     u4901:
  8621     0491  0869               	movf	___fladd@a+2,w
  8622     0492  1103               	clrz
  8623     0493  1803               	skipnc
  8624     0494  3E01               	addlw	1
  8625     0495  1903               	skipnz
  8626     0496  2C98               	goto	u4902
  8627     0497  07E5               	addwf	___fladd@b+2,f
  8628     0498                     u4902:
  8629     0498  086A               	movf	___fladd@a+3,w
  8630     0499  1103               	clrz
  8631     049A  1803               	skipnc
  8632     049B  3E01               	addlw	1
  8633     049C  1903               	skipnz
  8634     049D  2C9F               	goto	u4903
  8635     049E  07E6               	addwf	___fladd@b+3,f
  8636     049F                     u4903:
  8637     049F                     l3437:
  8638     049F  1C66               	btfss	___fladd@b+3,0
  8639     04A0  2CA2               	goto	u4911
  8640     04A1  2CA3               	goto	u4910
  8641     04A2                     u4911:
  8642     04A2  2DBF               	goto	l3489
  8643     04A3                     u4910:
  8644     04A3                     l3439:
  8645     04A3  1C6E               	btfss	___fladd@grs,0
  8646     04A4  2CA6               	goto	u4921
  8647     04A5  2CA7               	goto	u4920
  8648     04A6                     u4921:
  8649     04A6  2CB2               	goto	l3443
  8650     04A7                     u4920:
  8651     04A7                     l3441:
  8652     04A7  086E               	movf	___fladd@grs,w
  8653     04A8  1683               	bsf	3,5	;RP0=1, select bank1
  8654     04A9  1303               	bcf	3,6	;RP1=0, select bank1
  8655     04AA  00A0               	movwf	??___fladd^(0+128)
  8656     04AB  1003               	clrc
  8657     04AC  0C20               	rrf	??___fladd^(0+128),w
  8658     04AD  3801               	iorlw	1
  8659     04AE  1283               	bcf	3,5	;RP0=0, select bank0
  8660     04AF  1303               	bcf	3,6	;RP1=0, select bank0
  8661     04B0  00EE               	movwf	___fladd@grs
  8662     04B1  2CB4               	goto	l3445
  8663     04B2                     l3443:
  8664     04B2  1003               	clrc
  8665     04B3  0CEE               	rrf	___fladd@grs,f
  8666     04B4                     l3445:
  8667     04B4  1C63               	btfss	___fladd@b,0
  8668     04B5  2CB7               	goto	u4931
  8669     04B6  2CB8               	goto	u4930
  8670     04B7                     u4931:
  8671     04B7  2CB9               	goto	l3449
  8672     04B8                     u4930:
  8673     04B8                     l3447:
  8674     04B8  17EE               	bsf	___fladd@grs,7
  8675     04B9                     l3449:
  8676     04B9  3001               	movlw	1
  8677     04BA  1683               	bsf	3,5	;RP0=1, select bank1
  8678     04BB  1303               	bcf	3,6	;RP1=0, select bank1
  8679     04BC  00A0               	movwf	??___fladd^(0+128)
  8680     04BD                     u4945:
  8681     04BD  1283               	bcf	3,5	;RP0=0, select bank0
  8682     04BE  1303               	bcf	3,6	;RP1=0, select bank0
  8683     04BF  0D66               	rlf	___fladd@b+3,w
  8684     04C0  0CE6               	rrf	___fladd@b+3,f
  8685     04C1  0CE5               	rrf	___fladd@b+2,f
  8686     04C2  0CE4               	rrf	___fladd@b+1,f
  8687     04C3  0CE3               	rrf	___fladd@b,f
  8688     04C4  1683               	bsf	3,5	;RP0=1, select bank1
  8689     04C5  1303               	bcf	3,6	;RP1=0, select bank1
  8690     04C6  0BA0               	decfsz	(??___fladd^(0+128))& (0+127),f
  8691     04C7  2CBD               	goto	u4945
  8692     04C8                     l3451:
  8693     04C8  3001               	movlw	1
  8694     04C9  00FF               	movwf	btemp+1
  8695     04CA  087F               	movf	btemp+1,w
  8696     04CB  1283               	bcf	3,5	;RP0=0, select bank0
  8697     04CC  1303               	bcf	3,6	;RP1=0, select bank0
  8698     04CD  07ED               	addwf	___fladd@bexp,f
  8699     04CE  2DBF               	goto	l3489
  8700     04CF                     l3453:
  8701     04CF  0866               	movf	___fladd@b+3,w
  8702     04D0  3A80               	xorlw	128
  8703     04D1  00FF               	movwf	btemp+1
  8704     04D2  086A               	movf	___fladd@a+3,w
  8705     04D3  3A80               	xorlw	128
  8706     04D4  027F               	subwf	btemp+1,w
  8707     04D5  1D03               	skipz
  8708     04D6  2CE1               	goto	u4953
  8709     04D7  0869               	movf	___fladd@a+2,w
  8710     04D8  0265               	subwf	___fladd@b+2,w
  8711     04D9  1D03               	skipz
  8712     04DA  2CE1               	goto	u4953
  8713     04DB  0868               	movf	___fladd@a+1,w
  8714     04DC  0264               	subwf	___fladd@b+1,w
  8715     04DD  1D03               	skipz
  8716     04DE  2CE1               	goto	u4953
  8717     04DF  0867               	movf	___fladd@a,w
  8718     04E0  0263               	subwf	___fladd@b,w
  8719     04E1                     u4953:
  8720     04E1  1803               	skipnc
  8721     04E2  2CE4               	goto	u4951
  8722     04E3  2CE5               	goto	u4950
  8723     04E4                     u4951:
  8724     04E4  2D71               	goto	l3465
  8725     04E5                     u4950:
  8726     04E5                     l3455:
  8727     04E5  30FF               	movlw	255
  8728     04E6  1683               	bsf	3,5	;RP0=1, select bank1
  8729     04E7  1303               	bcf	3,6	;RP1=0, select bank1
  8730     04E8  00A0               	movwf	??___fladd^(0+128)
  8731     04E9  30FF               	movlw	255
  8732     04EA  00A1               	movwf	(??___fladd^(0+128)+1)
  8733     04EB  30FF               	movlw	255
  8734     04EC  00A2               	movwf	(??___fladd^(0+128)+2)
  8735     04ED  30FF               	movlw	255
  8736     04EE  00A3               	movwf	(??___fladd^(0+128)+3)
  8737     04EF  1283               	bcf	3,5	;RP0=0, select bank0
  8738     04F0  1303               	bcf	3,6	;RP1=0, select bank0
  8739     04F1  0867               	movf	___fladd@a,w
  8740     04F2  1683               	bsf	3,5	;RP0=1, select bank1
  8741     04F3  1303               	bcf	3,6	;RP1=0, select bank1
  8742     04F4  00A4               	movwf	(??___fladd+4)^(0+128)
  8743     04F5  1283               	bcf	3,5	;RP0=0, select bank0
  8744     04F6  1303               	bcf	3,6	;RP1=0, select bank0
  8745     04F7  0868               	movf	___fladd@a+1,w
  8746     04F8  1683               	bsf	3,5	;RP0=1, select bank1
  8747     04F9  1303               	bcf	3,6	;RP1=0, select bank1
  8748     04FA  00A5               	movwf	((??___fladd+4)^(0+128)+1)
  8749     04FB  1283               	bcf	3,5	;RP0=0, select bank0
  8750     04FC  1303               	bcf	3,6	;RP1=0, select bank0
  8751     04FD  0869               	movf	___fladd@a+2,w
  8752     04FE  1683               	bsf	3,5	;RP0=1, select bank1
  8753     04FF  1303               	bcf	3,6	;RP1=0, select bank1
  8754     0500  00A6               	movwf	((??___fladd+4)^(0+128)+2)
  8755     0501  1283               	bcf	3,5	;RP0=0, select bank0
  8756     0502  1303               	bcf	3,6	;RP1=0, select bank0
  8757     0503  086A               	movf	___fladd@a+3,w
  8758     0504  1683               	bsf	3,5	;RP0=1, select bank1
  8759     0505  1303               	bcf	3,6	;RP1=0, select bank1
  8760     0506  00A7               	movwf	((??___fladd+4)^(0+128)+3)
  8761     0507  1283               	bcf	3,5	;RP0=0, select bank0
  8762     0508  1303               	bcf	3,6	;RP1=0, select bank0
  8763     0509  0863               	movf	___fladd@b,w
  8764     050A  1683               	bsf	3,5	;RP0=1, select bank1
  8765     050B  1303               	bcf	3,6	;RP1=0, select bank1
  8766     050C  02A4               	subwf	(??___fladd+4)^(0+128),f
  8767     050D  1283               	bcf	3,5	;RP0=0, select bank0
  8768     050E  1303               	bcf	3,6	;RP1=0, select bank0
  8769     050F  0864               	movf	___fladd@b+1,w
  8770     0510  1C03               	skipc
  8771     0511  0F64               	incfsz	___fladd@b+1,w
  8772     0512  2D14               	goto	u4961
  8773     0513  2D17               	goto	u4962
  8774     0514                     u4961:
  8775     0514  1683               	bsf	3,5	;RP0=1, select bank1
  8776     0515  1303               	bcf	3,6	;RP1=0, select bank1
  8777     0516  02A5               	subwf	((??___fladd+4)^(0+128)+1),f
  8778     0517                     u4962:
  8779     0517  1283               	bcf	3,5	;RP0=0, select bank0
  8780     0518  1303               	bcf	3,6	;RP1=0, select bank0
  8781     0519  0865               	movf	___fladd@b+2,w
  8782     051A  1C03               	skipc
  8783     051B  0F65               	incfsz	___fladd@b+2,w
  8784     051C  2D1E               	goto	u4963
  8785     051D  2D21               	goto	u4964
  8786     051E                     u4963:
  8787     051E  1683               	bsf	3,5	;RP0=1, select bank1
  8788     051F  1303               	bcf	3,6	;RP1=0, select bank1
  8789     0520  02A6               	subwf	((??___fladd+4)^(0+128)+2),f
  8790     0521                     u4964:
  8791     0521  1283               	bcf	3,5	;RP0=0, select bank0
  8792     0522  1303               	bcf	3,6	;RP1=0, select bank0
  8793     0523  0866               	movf	___fladd@b+3,w
  8794     0524  1C03               	skipc
  8795     0525  0F66               	incfsz	___fladd@b+3,w
  8796     0526  2D28               	goto	u4965
  8797     0527  2D2B               	goto	u4966
  8798     0528                     u4965:
  8799     0528  1683               	bsf	3,5	;RP0=1, select bank1
  8800     0529  1303               	bcf	3,6	;RP1=0, select bank1
  8801     052A  02A7               	subwf	((??___fladd+4)^(0+128)+3),f
  8802     052B                     u4966:
  8803     052B  1283               	bcf	3,5	;RP0=0, select bank0
  8804     052C  1303               	bcf	3,6	;RP1=0, select bank0
  8805     052D  1683               	bsf	3,5	;RP0=1, select bank1
  8806     052E  1303               	bcf	3,6	;RP1=0, select bank1
  8807     052F  0824               	movf	(??___fladd+4)^(0+128),w
  8808     0530  07A0               	addwf	??___fladd^(0+128),f
  8809     0531  0825               	movf	(??___fladd+5)^(0+128),w
  8810     0532  1803               	skipnc
  8811     0533  0F25               	incfsz	(??___fladd+5)^(0+128),w
  8812     0534  2D36               	goto	u4970
  8813     0535  2D37               	goto	u4971
  8814     0536                     u4970:
  8815     0536  07A1               	addwf	(??___fladd^(0+128)+1),f
  8816     0537                     u4971:
  8817     0537  0826               	movf	(??___fladd+6)^(0+128),w
  8818     0538  1803               	skipnc
  8819     0539  0F26               	incfsz	(??___fladd+6)^(0+128),w
  8820     053A  2D3C               	goto	u4972
  8821     053B  2D3D               	goto	u4973
  8822     053C                     u4972:
  8823     053C  07A2               	addwf	(??___fladd^(0+128)+2),f
  8824     053D                     u4973:
  8825     053D  0827               	movf	(??___fladd+7)^(0+128),w
  8826     053E  1803               	skipnc
  8827     053F  0A27               	incf	(??___fladd+7)^(0+128),w
  8828     0540  07A3               	addwf	(??___fladd^(0+128)+3),f
  8829     0541  0823               	movf	(??___fladd+3)^(0+128),w
  8830     0542  1283               	bcf	3,5	;RP0=0, select bank0
  8831     0543  1303               	bcf	3,6	;RP1=0, select bank0
  8832     0544  00E6               	movwf	___fladd@b+3
  8833     0545  1683               	bsf	3,5	;RP0=1, select bank1
  8834     0546  1303               	bcf	3,6	;RP1=0, select bank1
  8835     0547  0822               	movf	(??___fladd+2)^(0+128),w
  8836     0548  1283               	bcf	3,5	;RP0=0, select bank0
  8837     0549  1303               	bcf	3,6	;RP1=0, select bank0
  8838     054A  00E5               	movwf	___fladd@b+2
  8839     054B  1683               	bsf	3,5	;RP0=1, select bank1
  8840     054C  1303               	bcf	3,6	;RP1=0, select bank1
  8841     054D  0821               	movf	(??___fladd+1)^(0+128),w
  8842     054E  1283               	bcf	3,5	;RP0=0, select bank0
  8843     054F  1303               	bcf	3,6	;RP1=0, select bank0
  8844     0550  00E4               	movwf	___fladd@b+1
  8845     0551  1683               	bsf	3,5	;RP0=1, select bank1
  8846     0552  1303               	bcf	3,6	;RP1=0, select bank1
  8847     0553  0820               	movf	??___fladd^(0+128),w
  8848     0554  1283               	bcf	3,5	;RP0=0, select bank0
  8849     0555  1303               	bcf	3,6	;RP1=0, select bank0
  8850     0556  00E3               	movwf	___fladd@b
  8851     0557                     l3457:
  8852     0557  3080               	movlw	128
  8853     0558  00FF               	movwf	btemp+1
  8854     0559  087F               	movf	btemp+1,w
  8855     055A  06EB               	xorwf	___fladd@signs,f
  8856     055B                     l3459:
  8857     055B  09EE               	comf	___fladd@grs,f
  8858     055C  0AEE               	incf	___fladd@grs,f
  8859     055D                     l3461:
  8860     055D  086E               	movf	___fladd@grs,w
  8861     055E  1D03               	btfss	3,2
  8862     055F  2D61               	goto	u4981
  8863     0560  2D62               	goto	u4980
  8864     0561                     u4981:
  8865     0561  2D7F               	goto	l562
  8866     0562                     u4980:
  8867     0562                     l3463:
  8868     0562  3001               	movlw	1
  8869     0563  07E3               	addwf	___fladd@b,f
  8870     0564  3000               	movlw	0
  8871     0565  1803               	skipnc
  8872     0566  3001               	movlw	1
  8873     0567  07E4               	addwf	___fladd@b+1,f
  8874     0568  3000               	movlw	0
  8875     0569  1803               	skipnc
  8876     056A  3001               	movlw	1
  8877     056B  07E5               	addwf	___fladd@b+2,f
  8878     056C  3000               	movlw	0
  8879     056D  1803               	skipnc
  8880     056E  3001               	movlw	1
  8881     056F  07E6               	addwf	___fladd@b+3,f
  8882     0570  2D7F               	goto	l562
  8883     0571                     l3465:
  8884     0571  0867               	movf	___fladd@a,w
  8885     0572  02E3               	subwf	___fladd@b,f
  8886     0573  0868               	movf	___fladd@a+1,w
  8887     0574  1C03               	skipc
  8888     0575  0F68               	incfsz	___fladd@a+1,w
  8889     0576  02E4               	subwf	___fladd@b+1,f
  8890     0577  0869               	movf	___fladd@a+2,w
  8891     0578  1C03               	skipc
  8892     0579  0F69               	incfsz	___fladd@a+2,w
  8893     057A  02E5               	subwf	___fladd@b+2,f
  8894     057B  086A               	movf	___fladd@a+3,w
  8895     057C  1C03               	skipc
  8896     057D  0F6A               	incfsz	___fladd@a+3,w
  8897     057E  02E6               	subwf	___fladd@b+3,f
  8898     057F                     l562:
  8899     057F  0866               	movf	___fladd@b+3,w
  8900     0580  0465               	iorwf	___fladd@b+2,w
  8901     0581  0464               	iorwf	___fladd@b+1,w
  8902     0582  0463               	iorwf	___fladd@b,w
  8903     0583  1D03               	skipz
  8904     0584  2D86               	goto	u4991
  8905     0585  2D87               	goto	u4990
  8906     0586                     u4991:
  8907     0586  2DBB               	goto	l3487
  8908     0587                     u4990:
  8909     0587                     l3467:
  8910     0587  086E               	movf	___fladd@grs,w
  8911     0588  1D03               	btfss	3,2
  8912     0589  2D8B               	goto	u5001
  8913     058A  2D8C               	goto	u5000
  8914     058B                     u5001:
  8915     058B  2DBB               	goto	l3487
  8916     058C                     u5000:
  8917     058C                     l3469:
  8918     058C  3000               	movlw	0
  8919     058D  00E6               	movwf	?___fladd+3
  8920     058E  3000               	movlw	0
  8921     058F  00E5               	movwf	?___fladd+2
  8922     0590  3000               	movlw	0
  8923     0591  00E4               	movwf	?___fladd+1
  8924     0592  3000               	movlw	0
  8925     0593  00E3               	movwf	?___fladd
  8926     0594  2E57               	goto	l554
  8927     0595                     l3473:
  8928     0595  3001               	movlw	1
  8929     0596  1683               	bsf	3,5	;RP0=1, select bank1
  8930     0597  1303               	bcf	3,6	;RP1=0, select bank1
  8931     0598  00A0               	movwf	??___fladd^(0+128)
  8932     0599                     u5015:
  8933     0599  1003               	clrc
  8934     059A  1283               	bcf	3,5	;RP0=0, select bank0
  8935     059B  1303               	bcf	3,6	;RP1=0, select bank0
  8936     059C  0DE3               	rlf	___fladd@b,f
  8937     059D  0DE4               	rlf	___fladd@b+1,f
  8938     059E  0DE5               	rlf	___fladd@b+2,f
  8939     059F  0DE6               	rlf	___fladd@b+3,f
  8940     05A0  1683               	bsf	3,5	;RP0=1, select bank1
  8941     05A1  1303               	bcf	3,6	;RP1=0, select bank1
  8942     05A2  0BA0               	decfsz	??___fladd^(0+128),f
  8943     05A3  2D99               	goto	u5015
  8944     05A4                     l3475:
  8945     05A4  1283               	bcf	3,5	;RP0=0, select bank0
  8946     05A5  1303               	bcf	3,6	;RP1=0, select bank0
  8947     05A6  1FEE               	btfss	___fladd@grs,7
  8948     05A7  2DA9               	goto	u5021
  8949     05A8  2DAA               	goto	u5020
  8950     05A9                     u5021:
  8951     05A9  2DAB               	goto	l566
  8952     05AA                     u5020:
  8953     05AA                     l3477:
  8954     05AA  1463               	bsf	___fladd@b,0
  8955     05AB                     l566:
  8956     05AB  1C6E               	btfss	___fladd@grs,0
  8957     05AC  2DAE               	goto	u5031
  8958     05AD  2DAF               	goto	u5030
  8959     05AE                     u5031:
  8960     05AE  2DB2               	goto	l3481
  8961     05AF                     u5030:
  8962     05AF                     l3479:
  8963     05AF  1403               	setc
  8964     05B0  0DEE               	rlf	___fladd@grs,f
  8965     05B1  2DB4               	goto	l3483
  8966     05B2                     l3481:
  8967     05B2  1003               	clrc
  8968     05B3  0DEE               	rlf	___fladd@grs,f
  8969     05B4                     l3483:
  8970     05B4  086D               	movf	___fladd@bexp,w
  8971     05B5  1903               	btfsc	3,2
  8972     05B6  2DB8               	goto	u5041
  8973     05B7  2DB9               	goto	u5040
  8974     05B8                     u5041:
  8975     05B8  2DBB               	goto	l3487
  8976     05B9                     u5040:
  8977     05B9                     l3485:
  8978     05B9  3001               	movlw	1
  8979     05BA  02ED               	subwf	___fladd@bexp,f
  8980     05BB                     l3487:
  8981     05BB  1FE5               	btfss	___fladd@b+2,7
  8982     05BC  2DBE               	goto	u5051
  8983     05BD  2DBF               	goto	u5050
  8984     05BE                     u5051:
  8985     05BE  2D95               	goto	l3473
  8986     05BF                     u5050:
  8987     05BF                     l3489:
  8988     05BF  01EC               	clrf	___fladd@aexp
  8989     05C0                     l3491:
  8990     05C0  1FEE               	btfss	___fladd@grs,7
  8991     05C1  2DC3               	goto	u5061
  8992     05C2  2DC4               	goto	u5060
  8993     05C3                     u5061:
  8994     05C3  2DD2               	goto	l3499
  8995     05C4                     u5060:
  8996     05C4                     l3493:
  8997     05C4  086E               	movf	___fladd@grs,w
  8998     05C5  397F               	andlw	127
  8999     05C6  1903               	btfsc	3,2
  9000     05C7  2DC9               	goto	u5071
  9001     05C8  2DCA               	goto	u5070
  9002     05C9                     u5071:
  9003     05C9  2DCD               	goto	l572
  9004     05CA                     u5070:
  9005     05CA                     l3495:
  9006     05CA  01EC               	clrf	___fladd@aexp
  9007     05CB  0AEC               	incf	___fladd@aexp,f
  9008     05CC  2DD2               	goto	l3499
  9009     05CD                     l572:
  9010     05CD  1C63               	btfss	___fladd@b,0
  9011     05CE  2DD0               	goto	u5081
  9012     05CF  2DD1               	goto	u5080
  9013     05D0                     u5081:
  9014     05D0  2DD2               	goto	l3499
  9015     05D1                     u5080:
  9016     05D1  2DCA               	goto	l3495
  9017     05D2                     l3499:
  9018     05D2  086C               	movf	___fladd@aexp,w
  9019     05D3  1903               	btfsc	3,2
  9020     05D4  2DD6               	goto	u5091
  9021     05D5  2DD7               	goto	u5090
  9022     05D6                     u5091:
  9023     05D6  2E27               	goto	l3509
  9024     05D7                     u5090:
  9025     05D7                     l3501:
  9026     05D7  3001               	movlw	1
  9027     05D8  07E3               	addwf	___fladd@b,f
  9028     05D9  3000               	movlw	0
  9029     05DA  1803               	skipnc
  9030     05DB  3001               	movlw	1
  9031     05DC  07E4               	addwf	___fladd@b+1,f
  9032     05DD  3000               	movlw	0
  9033     05DE  1803               	skipnc
  9034     05DF  3001               	movlw	1
  9035     05E0  07E5               	addwf	___fladd@b+2,f
  9036     05E1  3000               	movlw	0
  9037     05E2  1803               	skipnc
  9038     05E3  3001               	movlw	1
  9039     05E4  07E6               	addwf	___fladd@b+3,f
  9040     05E5                     l3503:
  9041     05E5  1C66               	btfss	___fladd@b+3,0
  9042     05E6  2DE8               	goto	u5101
  9043     05E7  2DE9               	goto	u5100
  9044     05E8                     u5101:
  9045     05E8  2E27               	goto	l3509
  9046     05E9                     u5100:
  9047     05E9                     l3505:
  9048     05E9  0863               	movf	___fladd@b,w
  9049     05EA  1683               	bsf	3,5	;RP0=1, select bank1
  9050     05EB  1303               	bcf	3,6	;RP1=0, select bank1
  9051     05EC  00A0               	movwf	??___fladd^(0+128)
  9052     05ED  1283               	bcf	3,5	;RP0=0, select bank0
  9053     05EE  1303               	bcf	3,6	;RP1=0, select bank0
  9054     05EF  0864               	movf	___fladd@b+1,w
  9055     05F0  1683               	bsf	3,5	;RP0=1, select bank1
  9056     05F1  1303               	bcf	3,6	;RP1=0, select bank1
  9057     05F2  00A1               	movwf	(??___fladd^(0+128)+1)
  9058     05F3  1283               	bcf	3,5	;RP0=0, select bank0
  9059     05F4  1303               	bcf	3,6	;RP1=0, select bank0
  9060     05F5  0865               	movf	___fladd@b+2,w
  9061     05F6  1683               	bsf	3,5	;RP0=1, select bank1
  9062     05F7  1303               	bcf	3,6	;RP1=0, select bank1
  9063     05F8  00A2               	movwf	(??___fladd^(0+128)+2)
  9064     05F9  1283               	bcf	3,5	;RP0=0, select bank0
  9065     05FA  1303               	bcf	3,6	;RP1=0, select bank0
  9066     05FB  0866               	movf	___fladd@b+3,w
  9067     05FC  1683               	bsf	3,5	;RP0=1, select bank1
  9068     05FD  1303               	bcf	3,6	;RP1=0, select bank1
  9069     05FE  00A3               	movwf	(??___fladd^(0+128)+3)
  9070     05FF  3001               	movlw	1
  9071     0600  00A4               	movwf	(??___fladd+4)^(0+128)
  9072     0601                     u5115:
  9073     0601  0D23               	rlf	(??___fladd^(0+128)+3),w
  9074     0602  0CA3               	rrf	(??___fladd^(0+128)+3),f
  9075     0603  0CA2               	rrf	(??___fladd^(0+128)+2),f
  9076     0604  0CA1               	rrf	(??___fladd^(0+128)+1),f
  9077     0605  0CA0               	rrf	??___fladd^(0+128),f
  9078     0606                     u5110:
  9079     0606  0BA4               	decfsz	(??___fladd+4)^(0+128),f
  9080     0607  2E01               	goto	u5115
  9081     0608  0823               	movf	(??___fladd+3)^(0+128),w
  9082     0609  1283               	bcf	3,5	;RP0=0, select bank0
  9083     060A  1303               	bcf	3,6	;RP1=0, select bank0
  9084     060B  00E6               	movwf	___fladd@b+3
  9085     060C  1683               	bsf	3,5	;RP0=1, select bank1
  9086     060D  1303               	bcf	3,6	;RP1=0, select bank1
  9087     060E  0822               	movf	(??___fladd+2)^(0+128),w
  9088     060F  1283               	bcf	3,5	;RP0=0, select bank0
  9089     0610  1303               	bcf	3,6	;RP1=0, select bank0
  9090     0611  00E5               	movwf	___fladd@b+2
  9091     0612  1683               	bsf	3,5	;RP0=1, select bank1
  9092     0613  1303               	bcf	3,6	;RP1=0, select bank1
  9093     0614  0821               	movf	(??___fladd+1)^(0+128),w
  9094     0615  1283               	bcf	3,5	;RP0=0, select bank0
  9095     0616  1303               	bcf	3,6	;RP1=0, select bank0
  9096     0617  00E4               	movwf	___fladd@b+1
  9097     0618  1683               	bsf	3,5	;RP0=1, select bank1
  9098     0619  1303               	bcf	3,6	;RP1=0, select bank1
  9099     061A  0820               	movf	??___fladd^(0+128),w
  9100     061B  1283               	bcf	3,5	;RP0=0, select bank0
  9101     061C  1303               	bcf	3,6	;RP1=0, select bank0
  9102     061D  00E3               	movwf	___fladd@b
  9103     061E  0A6D               	incf	___fladd@bexp,w
  9104     061F  1903               	btfsc	3,2
  9105     0620  2E22               	goto	u5121
  9106     0621  2E23               	goto	u5120
  9107     0622                     u5121:
  9108     0622  2E27               	goto	l3509
  9109     0623                     u5120:
  9110     0623                     l3507:
  9111     0623  3001               	movlw	1
  9112     0624  00FF               	movwf	btemp+1
  9113     0625  087F               	movf	btemp+1,w
  9114     0626  07ED               	addwf	___fladd@bexp,f
  9115     0627                     l3509:
  9116     0627  0A6D               	incf	___fladd@bexp,w
  9117     0628  1903               	btfsc	3,2
  9118     0629  2E2B               	goto	u5131
  9119     062A  2E2C               	goto	u5130
  9120     062B                     u5131:
  9121     062B  2E31               	goto	l3513
  9122     062C                     u5130:
  9123     062C                     l3511:
  9124     062C  086D               	movf	___fladd@bexp,w
  9125     062D  1D03               	btfss	3,2
  9126     062E  2E30               	goto	u5141
  9127     062F  2E31               	goto	u5140
  9128     0630                     u5141:
  9129     0630  2E3F               	goto	l3519
  9130     0631                     u5140:
  9131     0631                     l3513:
  9132     0631  3000               	movlw	0
  9133     0632  00E6               	movwf	___fladd@b+3
  9134     0633  3000               	movlw	0
  9135     0634  00E5               	movwf	___fladd@b+2
  9136     0635  3000               	movlw	0
  9137     0636  00E4               	movwf	___fladd@b+1
  9138     0637  3000               	movlw	0
  9139     0638  00E3               	movwf	___fladd@b
  9140     0639                     l3515:
  9141     0639  086D               	movf	___fladd@bexp,w
  9142     063A  1D03               	btfss	3,2
  9143     063B  2E3D               	goto	u5151
  9144     063C  2E3E               	goto	u5150
  9145     063D                     u5151:
  9146     063D  2E3F               	goto	l3519
  9147     063E                     u5150:
  9148     063E                     l3517:
  9149     063E  01EB               	clrf	___fladd@signs
  9150     063F                     l3519:
  9151     063F  1C6D               	btfss	___fladd@bexp,0
  9152     0640  2E42               	goto	u5161
  9153     0641  2E43               	goto	u5160
  9154     0642                     u5161:
  9155     0642  2E45               	goto	l3523
  9156     0643                     u5160:
  9157     0643                     l3521:
  9158     0643  17E5               	bsf	___fladd@b+2,7
  9159     0644  2E49               	goto	l3525
  9160     0645                     l3523:
  9161     0645  307F               	movlw	127
  9162     0646  00FF               	movwf	btemp+1
  9163     0647  087F               	movf	btemp+1,w
  9164     0648  05E5               	andwf	___fladd@b+2,f
  9165     0649                     l3525:
  9166     0649  086D               	movf	___fladd@bexp,w
  9167     064A  1683               	bsf	3,5	;RP0=1, select bank1
  9168     064B  1303               	bcf	3,6	;RP1=0, select bank1
  9169     064C  00A0               	movwf	??___fladd^(0+128)
  9170     064D  1003               	clrc
  9171     064E  0C20               	rrf	??___fladd^(0+128),w
  9172     064F  1283               	bcf	3,5	;RP0=0, select bank0
  9173     0650  1303               	bcf	3,6	;RP1=0, select bank0
  9174     0651  00E6               	movwf	___fladd@b+3
  9175     0652                     l3527:
  9176     0652  1FEB               	btfss	___fladd@signs,7
  9177     0653  2E55               	goto	u5171
  9178     0654  2E56               	goto	u5170
  9179     0655                     u5171:
  9180     0655  2E57               	goto	l584
  9181     0656                     u5170:
  9182     0656                     l3529:
  9183     0656  17E6               	bsf	___fladd@b+3,7
  9184     0657                     l584:
  9185     0657                     l554:
  9186     0657  0008               	return
  9187     0658                     __end_of___fladd:
  9188                           
  9189                           	psect	text29
  9190     1275                     __ptext29:	
  9191 ;; *************** function ___flge *****************
  9192 ;; Defined at:
  9193 ;;		line 4 in file "C:\Program Files\Microchip\xc8\v2.41\pic\sources\c90\common\flge.c"
  9194 ;; Parameters:    Size  Location     Type
  9195 ;;  ff1             4    2[COMMON] unsigned char 
  9196 ;;  ff2             4    6[COMMON] unsigned char 
  9197 ;; Auto vars:     Size  Location     Type
  9198 ;;		None
  9199 ;; Return value:  Size  Location     Type
  9200 ;;		None               void
  9201 ;; Registers used:
  9202 ;;		wreg, status,2, status,0
  9203 ;; Tracked objects:
  9204 ;;		On entry : 0/0
  9205 ;;		On exit  : 0/0
  9206 ;;		Unchanged: 0/0
  9207 ;; Data sizes:     COMMON   BANK0   BANK1   BANK3   BANK2
  9208 ;;      Params:         8       0       0       0       0
  9209 ;;      Locals:         0       0       0       0       0
  9210 ;;      Temps:          0       4       0       0       0
  9211 ;;      Totals:         8       4       0       0       0
  9212 ;;Total ram usage:       12 bytes
  9213 ;; Hardware stack levels used: 1
  9214 ;; Hardware stack levels required when called: 1
  9215 ;; This function calls:
  9216 ;;		Nothing
  9217 ;; This function is called by:
  9218 ;;		_log
  9219 ;;		_ldexp
  9220 ;;		_pow
  9221 ;;		_exp
  9222 ;;		_floor
  9223 ;; This function uses a non-reentrant model
  9224 ;;
  9225                           
  9226     1275                     ___flge:	
  9227                           ;psect for function ___flge
  9228                           
  9229     1275                     l2117:	
  9230                           ;incstack = 0
  9231                           ; Regs used in ___flge: [wreg+status,2+status,0]
  9232                           
  9233     1275  3000               	movlw	0
  9234     1276  0572               	andwf	___flge@ff1,w
  9235     1277  1283               	bcf	3,5	;RP0=0, select bank0
  9236     1278  1303               	bcf	3,6	;RP1=0, select bank0
  9237     1279  00A0               	movwf	??___flge
  9238     127A  3000               	movlw	0
  9239     127B  0573               	andwf	___flge@ff1+1,w
  9240     127C  00A1               	movwf	??___flge+1
  9241     127D  3080               	movlw	128
  9242     127E  0574               	andwf	___flge@ff1+2,w
  9243     127F  00A2               	movwf	??___flge+2
  9244     1280  307F               	movlw	127
  9245     1281  0575               	andwf	___flge@ff1+3,w
  9246     1282  00A3               	movwf	??___flge+3
  9247     1283  0823               	movf	??___flge+3,w
  9248     1284  0422               	iorwf	??___flge+2,w
  9249     1285  0421               	iorwf	??___flge+1,w
  9250     1286  0420               	iorwf	??___flge,w
  9251     1287  1D03               	skipz
  9252     1288  2A8A               	goto	u2391
  9253     1289  2A8B               	goto	u2390
  9254     128A                     u2391:
  9255     128A  2A93               	goto	l422
  9256     128B                     u2390:
  9257     128B                     l2119:
  9258     128B  3000               	movlw	0
  9259     128C  00F5               	movwf	___flge@ff1+3
  9260     128D  3000               	movlw	0
  9261     128E  00F4               	movwf	___flge@ff1+2
  9262     128F  3000               	movlw	0
  9263     1290  00F3               	movwf	___flge@ff1+1
  9264     1291  3000               	movlw	0
  9265     1292  00F2               	movwf	___flge@ff1
  9266     1293                     l422:
  9267     1293  3000               	movlw	0
  9268     1294  0576               	andwf	___flge@ff2,w
  9269     1295  00A0               	movwf	??___flge
  9270     1296  3000               	movlw	0
  9271     1297  0577               	andwf	___flge@ff2+1,w
  9272     1298  00A1               	movwf	??___flge+1
  9273     1299  3080               	movlw	128
  9274     129A  0578               	andwf	___flge@ff2+2,w
  9275     129B  00A2               	movwf	??___flge+2
  9276     129C  307F               	movlw	127
  9277     129D  0579               	andwf	___flge@ff2+3,w
  9278     129E  00A3               	movwf	??___flge+3
  9279     129F  0823               	movf	??___flge+3,w
  9280     12A0  0422               	iorwf	??___flge+2,w
  9281     12A1  0421               	iorwf	??___flge+1,w
  9282     12A2  0420               	iorwf	??___flge,w
  9283     12A3  1D03               	skipz
  9284     12A4  2AA6               	goto	u2401
  9285     12A5  2AA7               	goto	u2400
  9286     12A6                     u2401:
  9287     12A6  2AAF               	goto	l2123
  9288     12A7                     u2400:
  9289     12A7                     l2121:
  9290     12A7  3000               	movlw	0
  9291     12A8  00F9               	movwf	___flge@ff2+3
  9292     12A9  3000               	movlw	0
  9293     12AA  00F8               	movwf	___flge@ff2+2
  9294     12AB  3000               	movlw	0
  9295     12AC  00F7               	movwf	___flge@ff2+1
  9296     12AD  3000               	movlw	0
  9297     12AE  00F6               	movwf	___flge@ff2
  9298     12AF                     l2123:
  9299     12AF  1FF5               	btfss	___flge@ff1+3,7
  9300     12B0  2AB2               	goto	u2411
  9301     12B1  2AB3               	goto	u2410
  9302     12B2                     u2411:
  9303     12B2  2AD7               	goto	l2127
  9304     12B3                     u2410:
  9305     12B3                     l2125:
  9306     12B3  3000               	movlw	0
  9307     12B4  00A0               	movwf	??___flge
  9308     12B5  3000               	movlw	0
  9309     12B6  00A1               	movwf	??___flge+1
  9310     12B7  3000               	movlw	0
  9311     12B8  00A2               	movwf	??___flge+2
  9312     12B9  3080               	movlw	128
  9313     12BA  00A3               	movwf	??___flge+3
  9314     12BB  0872               	movf	___flge@ff1,w
  9315     12BC  02A0               	subwf	??___flge,f
  9316     12BD  0873               	movf	___flge@ff1+1,w
  9317     12BE  1C03               	skipc
  9318     12BF  0F73               	incfsz	___flge@ff1+1,w
  9319     12C0  2AC2               	goto	u2421
  9320     12C1  2AC3               	goto	u2422
  9321     12C2                     u2421:
  9322     12C2  02A1               	subwf	??___flge+1,f
  9323     12C3                     u2422:
  9324     12C3  0874               	movf	___flge@ff1+2,w
  9325     12C4  1C03               	skipc
  9326     12C5  0F74               	incfsz	___flge@ff1+2,w
  9327     12C6  2AC8               	goto	u2423
  9328     12C7  2AC9               	goto	u2424
  9329     12C8                     u2423:
  9330     12C8  02A2               	subwf	??___flge+2,f
  9331     12C9                     u2424:
  9332     12C9  0875               	movf	___flge@ff1+3,w
  9333     12CA  1C03               	skipc
  9334     12CB  0F75               	incfsz	___flge@ff1+3,w
  9335     12CC  2ACE               	goto	u2425
  9336     12CD  2ACF               	goto	u2426
  9337     12CE                     u2425:
  9338     12CE  02A3               	subwf	??___flge+3,f
  9339     12CF                     u2426:
  9340     12CF  0823               	movf	??___flge+3,w
  9341     12D0  00F5               	movwf	___flge@ff1+3
  9342     12D1  0822               	movf	??___flge+2,w
  9343     12D2  00F4               	movwf	___flge@ff1+2
  9344     12D3  0821               	movf	??___flge+1,w
  9345     12D4  00F3               	movwf	___flge@ff1+1
  9346     12D5  0820               	movf	??___flge,w
  9347     12D6  00F2               	movwf	___flge@ff1
  9348     12D7                     l2127:
  9349     12D7  1FF9               	btfss	___flge@ff2+3,7
  9350     12D8  2ADA               	goto	u2431
  9351     12D9  2ADB               	goto	u2430
  9352     12DA                     u2431:
  9353     12DA  2AFF               	goto	l425
  9354     12DB                     u2430:
  9355     12DB                     l2129:
  9356     12DB  3000               	movlw	0
  9357     12DC  00A0               	movwf	??___flge
  9358     12DD  3000               	movlw	0
  9359     12DE  00A1               	movwf	??___flge+1
  9360     12DF  3000               	movlw	0
  9361     12E0  00A2               	movwf	??___flge+2
  9362     12E1  3080               	movlw	128
  9363     12E2  00A3               	movwf	??___flge+3
  9364     12E3  0876               	movf	___flge@ff2,w
  9365     12E4  02A0               	subwf	??___flge,f
  9366     12E5  0877               	movf	___flge@ff2+1,w
  9367     12E6  1C03               	skipc
  9368     12E7  0F77               	incfsz	___flge@ff2+1,w
  9369     12E8  2AEA               	goto	u2441
  9370     12E9  2AEB               	goto	u2442
  9371     12EA                     u2441:
  9372     12EA  02A1               	subwf	??___flge+1,f
  9373     12EB                     u2442:
  9374     12EB  0878               	movf	___flge@ff2+2,w
  9375     12EC  1C03               	skipc
  9376     12ED  0F78               	incfsz	___flge@ff2+2,w
  9377     12EE  2AF0               	goto	u2443
  9378     12EF  2AF1               	goto	u2444
  9379     12F0                     u2443:
  9380     12F0  02A2               	subwf	??___flge+2,f
  9381     12F1                     u2444:
  9382     12F1  0879               	movf	___flge@ff2+3,w
  9383     12F2  1C03               	skipc
  9384     12F3  0F79               	incfsz	___flge@ff2+3,w
  9385     12F4  2AF6               	goto	u2445
  9386     12F5  2AF7               	goto	u2446
  9387     12F6                     u2445:
  9388     12F6  02A3               	subwf	??___flge+3,f
  9389     12F7                     u2446:
  9390     12F7  0823               	movf	??___flge+3,w
  9391     12F8  00F9               	movwf	___flge@ff2+3
  9392     12F9  0822               	movf	??___flge+2,w
  9393     12FA  00F8               	movwf	___flge@ff2+2
  9394     12FB  0821               	movf	??___flge+1,w
  9395     12FC  00F7               	movwf	___flge@ff2+1
  9396     12FD  0820               	movf	??___flge,w
  9397     12FE  00F6               	movwf	___flge@ff2
  9398     12FF                     l425:
  9399     12FF  3080               	movlw	128
  9400     1300  06F5               	xorwf	___flge@ff1+3,f
  9401     1301  3080               	movlw	128
  9402     1302  06F9               	xorwf	___flge@ff2+3,f
  9403     1303  0879               	movf	___flge@ff2+3,w
  9404     1304  0275               	subwf	___flge@ff1+3,w
  9405     1305  1D03               	skipz
  9406     1306  2B11               	goto	u2455
  9407     1307  0878               	movf	___flge@ff2+2,w
  9408     1308  0274               	subwf	___flge@ff1+2,w
  9409     1309  1D03               	skipz
  9410     130A  2B11               	goto	u2455
  9411     130B  0877               	movf	___flge@ff2+1,w
  9412     130C  0273               	subwf	___flge@ff1+1,w
  9413     130D  1D03               	skipz
  9414     130E  2B11               	goto	u2455
  9415     130F  0876               	movf	___flge@ff2,w
  9416     1310  0272               	subwf	___flge@ff1,w
  9417     1311                     u2455:
  9418     1311  1803               	skipnc
  9419     1312  2B14               	goto	u2451
  9420     1313  2B15               	goto	u2450
  9421     1314                     u2451:
  9422     1314  2B17               	goto	l2133
  9423     1315                     u2450:
  9424     1315                     l2131:
  9425     1315  1003               	clrc
  9426     1316  2B18               	goto	l426
  9427     1317                     l2133:
  9428     1317  1403               	setc
  9429     1318                     l426:
  9430     1318  0008               	return
  9431     1319                     __end_of___flge:
  9432                           
  9433                           	psect	text30
  9434     1DB2                     __ptext30:	
  9435 ;; *************** function _converteLeituraAnParaVolts *****************
  9436 ;; Defined at:
  9437 ;;		line 212 in file "newmain.c"
  9438 ;; Parameters:    Size  Location     Type
  9439 ;;  leitura         2   22[BANK0 ] int 
  9440 ;; Auto vars:     Size  Location     Type
  9441 ;;		None
  9442 ;; Return value:  Size  Location     Type
  9443 ;;                  4   22[BANK0 ] float 
  9444 ;; Registers used:
  9445 ;;		wreg, status,2, status,0, btemp+1, pclath, cstack
  9446 ;; Tracked objects:
  9447 ;;		On entry : 0/0
  9448 ;;		On exit  : 0/0
  9449 ;;		Unchanged: 0/0
  9450 ;; Data sizes:     COMMON   BANK0   BANK1   BANK3   BANK2
  9451 ;;      Params:         0       4       0       0       0
  9452 ;;      Locals:         0       0       0       0       0
  9453 ;;      Temps:          0       0       0       0       0
  9454 ;;      Totals:         0       4       0       0       0
  9455 ;;Total ram usage:        4 bytes
  9456 ;; Hardware stack levels used: 1
  9457 ;; Hardware stack levels required when called: 2
  9458 ;; This function calls:
  9459 ;;		___awdiv
  9460 ;;		___wmul
  9461 ;;		___xxtofl
  9462 ;; This function is called by:
  9463 ;;		_main
  9464 ;; This function uses a non-reentrant model
  9465 ;;
  9466                           
  9467     1DB2                     _converteLeituraAnParaVolts:	
  9468                           ;psect for function _converteLeituraAnParaVolts
  9469                           
  9470     1DB2                     l4009:	
  9471                           ;incstack = 0
  9472                           ; Regs used in _converteLeituraAnParaVolts: [wreg+status,2+status,0+btemp+1+pclath+cstac
      +                          k]
  9473                           
  9474                           
  9475                           ;newmain.c: 212: float converteLeituraAnParaVolts(int leitura);newmain.c: 213: {;newmain
      +                          .c: 214:     return leitura * 5/255;
  9476     1DB2  3005               	movlw	5
  9477     1DB3  00F4               	movwf	___wmul@multiplicand
  9478     1DB4  3000               	movlw	0
  9479     1DB5  00F5               	movwf	___wmul@multiplicand+1
  9480     1DB6  1283               	bcf	3,5	;RP0=0, select bank0
  9481     1DB7  1303               	bcf	3,6	;RP1=0, select bank0
  9482     1DB8  0837               	movf	converteLeituraAnParaVolts@leitura+1,w
  9483     1DB9  00F3               	movwf	___wmul@multiplier+1
  9484     1DBA  0836               	movf	converteLeituraAnParaVolts@leitura,w
  9485     1DBB  00F2               	movwf	___wmul@multiplier
  9486     1DBC  160A  158A  2523  160A  158A  	fcall	___wmul
  9487     1DC1  0873               	movf	?___wmul+1,w
  9488     1DC2  1283               	bcf	3,5	;RP0=0, select bank0
  9489     1DC3  1303               	bcf	3,6	;RP1=0, select bank0
  9490     1DC4  00A3               	movwf	___awdiv@dividend+1
  9491     1DC5  0872               	movf	?___wmul,w
  9492     1DC6  00A2               	movwf	___awdiv@dividend
  9493     1DC7  30FF               	movlw	255
  9494     1DC8  00A0               	movwf	___awdiv@divisor
  9495     1DC9  3000               	movlw	0
  9496     1DCA  00A1               	movwf	___awdiv@divisor+1
  9497     1DCB  120A  158A  2005  160A  158A  	fcall	___awdiv
  9498     1DD0  1283               	bcf	3,5	;RP0=0, select bank0
  9499     1DD1  1303               	bcf	3,6	;RP1=0, select bank0
  9500     1DD2  0820               	movf	?___awdiv,w
  9501     1DD3  00A8               	movwf	___xxtofl@val
  9502     1DD4  0821               	movf	?___awdiv+1,w
  9503     1DD5  00A9               	movwf	___xxtofl@val+1
  9504     1DD6  3000               	movlw	0
  9505     1DD7  1BA9               	btfsc	___xxtofl@val+1,7
  9506     1DD8  30FF               	movlw	255
  9507     1DD9  00AA               	movwf	___xxtofl@val+2
  9508     1DDA  00AB               	movwf	___xxtofl@val+3
  9509     1DDB  3001               	movlw	1
  9510     1DDC  160A  118A  2319  160A  158A  	fcall	___xxtofl
  9511     1DE1  1283               	bcf	3,5	;RP0=0, select bank0
  9512     1DE2  1303               	bcf	3,6	;RP1=0, select bank0
  9513     1DE3  082B               	movf	?___xxtofl+3,w
  9514     1DE4  00B9               	movwf	?_converteLeituraAnParaVolts+3
  9515     1DE5  082A               	movf	?___xxtofl+2,w
  9516     1DE6  00B8               	movwf	?_converteLeituraAnParaVolts+2
  9517     1DE7  0829               	movf	?___xxtofl+1,w
  9518     1DE8  00B7               	movwf	?_converteLeituraAnParaVolts+1
  9519     1DE9  0828               	movf	?___xxtofl,w
  9520     1DEA  00B6               	movwf	?_converteLeituraAnParaVolts
  9521     1DEB                     l151:
  9522     1DEB  0008               	return
  9523     1DEC                     __end_of_converteLeituraAnParaVolts:
  9524                           
  9525                           	psect	text31
  9526     1319                     __ptext31:	
  9527 ;; *************** function ___xxtofl *****************
  9528 ;; Defined at:
  9529 ;;		line 10 in file "C:\Program Files\Microchip\xc8\v2.41\pic\sources\c90\common\xxtofl.c"
  9530 ;; Parameters:    Size  Location     Type
  9531 ;;  sign            1    wreg     unsigned char 
  9532 ;;  val             4    8[BANK0 ] long 
  9533 ;; Auto vars:     Size  Location     Type
  9534 ;;  sign            1   16[BANK0 ] unsigned char 
  9535 ;;  arg             4   18[BANK0 ] unsigned long 
  9536 ;;  exp             1   17[BANK0 ] unsigned char 
  9537 ;; Return value:  Size  Location     Type
  9538 ;;                  4    8[BANK0 ] unsigned char 
  9539 ;; Registers used:
  9540 ;;		wreg, status,2, status,0, btemp+1
  9541 ;; Tracked objects:
  9542 ;;		On entry : 0/0
  9543 ;;		On exit  : 0/0
  9544 ;;		Unchanged: 0/0
  9545 ;; Data sizes:     COMMON   BANK0   BANK1   BANK3   BANK2
  9546 ;;      Params:         0       4       0       0       0
  9547 ;;      Locals:         0       6       0       0       0
  9548 ;;      Temps:          0       4       0       0       0
  9549 ;;      Totals:         0      14       0       0       0
  9550 ;;Total ram usage:       14 bytes
  9551 ;; Hardware stack levels used: 1
  9552 ;; Hardware stack levels required when called: 1
  9553 ;; This function calls:
  9554 ;;		Nothing
  9555 ;; This function is called by:
  9556 ;;		_converteLeituraAnParaVolts
  9557 ;;		_log
  9558 ;;		_pow
  9559 ;;		_exp
  9560 ;;		_floor
  9561 ;; This function uses a non-reentrant model
  9562 ;;
  9563                           
  9564     1319                     ___xxtofl:	
  9565                           ;psect for function ___xxtofl
  9566                           
  9567                           
  9568                           ;incstack = 0
  9569                           ; Regs used in ___xxtofl: [wreg+status,2+status,0+btemp+1]
  9570                           ;___xxtofl@sign stored from wreg
  9571     1319  1283               	bcf	3,5	;RP0=0, select bank0
  9572     131A  1303               	bcf	3,6	;RP1=0, select bank0
  9573     131B  00B0               	movwf	___xxtofl@sign
  9574     131C                     l2517:
  9575     131C  0830               	movf	___xxtofl@sign,w
  9576     131D  1903               	btfsc	3,2
  9577     131E  2B20               	goto	u3391
  9578     131F  2B21               	goto	u3390
  9579     1320                     u3391:
  9580     1320  2B35               	goto	l2523
  9581     1321                     u3390:
  9582     1321                     l2519:
  9583     1321  1FAB               	btfss	___xxtofl@val+3,7
  9584     1322  2B24               	goto	u3401
  9585     1323  2B25               	goto	u3400
  9586     1324                     u3401:
  9587     1324  2B35               	goto	l2523
  9588     1325                     u3400:
  9589     1325                     l2521:
  9590     1325  0928               	comf	___xxtofl@val,w
  9591     1326  00B2               	movwf	___xxtofl@arg
  9592     1327  0929               	comf	___xxtofl@val+1,w
  9593     1328  00B3               	movwf	___xxtofl@arg+1
  9594     1329  092A               	comf	___xxtofl@val+2,w
  9595     132A  00B4               	movwf	___xxtofl@arg+2
  9596     132B  092B               	comf	___xxtofl@val+3,w
  9597     132C  00B5               	movwf	___xxtofl@arg+3
  9598     132D  0AB2               	incf	___xxtofl@arg,f
  9599     132E  1903               	skipnz
  9600     132F  0AB3               	incf	___xxtofl@arg+1,f
  9601     1330  1903               	skipnz
  9602     1331  0AB4               	incf	___xxtofl@arg+2,f
  9603     1332  1903               	skipnz
  9604     1333  0AB5               	incf	___xxtofl@arg+3,f
  9605     1334  2B3D               	goto	l681
  9606     1335                     l2523:
  9607     1335  082B               	movf	___xxtofl@val+3,w
  9608     1336  00B5               	movwf	___xxtofl@arg+3
  9609     1337  082A               	movf	___xxtofl@val+2,w
  9610     1338  00B4               	movwf	___xxtofl@arg+2
  9611     1339  0829               	movf	___xxtofl@val+1,w
  9612     133A  00B3               	movwf	___xxtofl@arg+1
  9613     133B  0828               	movf	___xxtofl@val,w
  9614     133C  00B2               	movwf	___xxtofl@arg
  9615     133D                     l681:
  9616     133D  082B               	movf	___xxtofl@val+3,w
  9617     133E  042A               	iorwf	___xxtofl@val+2,w
  9618     133F  0429               	iorwf	___xxtofl@val+1,w
  9619     1340  0428               	iorwf	___xxtofl@val,w
  9620     1341  1D03               	skipz
  9621     1342  2B44               	goto	u3411
  9622     1343  2B45               	goto	u3410
  9623     1344                     u3411:
  9624     1344  2B4E               	goto	l2529
  9625     1345                     u3410:
  9626     1345                     l2525:
  9627     1345  3000               	movlw	0
  9628     1346  00AB               	movwf	?___xxtofl+3
  9629     1347  3000               	movlw	0
  9630     1348  00AA               	movwf	?___xxtofl+2
  9631     1349  3000               	movlw	0
  9632     134A  00A9               	movwf	?___xxtofl+1
  9633     134B  3000               	movlw	0
  9634     134C  00A8               	movwf	?___xxtofl
  9635     134D  2BD2               	goto	l683
  9636     134E                     l2529:
  9637     134E  3096               	movlw	150
  9638     134F  00B1               	movwf	___xxtofl@exp
  9639     1350  2B5E               	goto	l2535
  9640     1351                     l2531:
  9641     1351  3001               	movlw	1
  9642     1352  00FF               	movwf	btemp+1
  9643     1353  087F               	movf	btemp+1,w
  9644     1354  07B1               	addwf	___xxtofl@exp,f
  9645     1355                     l2533:
  9646     1355  3001               	movlw	1
  9647     1356                     u3425:
  9648     1356  1003               	clrc
  9649     1357  0CB5               	rrf	___xxtofl@arg+3,f
  9650     1358  0CB4               	rrf	___xxtofl@arg+2,f
  9651     1359  0CB3               	rrf	___xxtofl@arg+1,f
  9652     135A  0CB2               	rrf	___xxtofl@arg,f
  9653     135B  3EFF               	addlw	-1
  9654     135C  1D03               	skipz
  9655     135D  2B56               	goto	u3425
  9656     135E                     l2535:
  9657     135E  30FE               	movlw	254
  9658     135F  0535               	andwf	___xxtofl@arg+3,w
  9659     1360  1D03               	btfss	3,2
  9660     1361  2B63               	goto	u3431
  9661     1362  2B64               	goto	u3430
  9662     1363                     u3431:
  9663     1363  2B51               	goto	l2531
  9664     1364                     u3430:
  9665     1364  2B80               	goto	l2543
  9666     1365                     l2537:
  9667     1365  3001               	movlw	1
  9668     1366  00FF               	movwf	btemp+1
  9669     1367  087F               	movf	btemp+1,w
  9670     1368  07B1               	addwf	___xxtofl@exp,f
  9671     1369                     l2539:
  9672     1369  3001               	movlw	1
  9673     136A  07B2               	addwf	___xxtofl@arg,f
  9674     136B  3000               	movlw	0
  9675     136C  1803               	skipnc
  9676     136D  3001               	movlw	1
  9677     136E  07B3               	addwf	___xxtofl@arg+1,f
  9678     136F  3000               	movlw	0
  9679     1370  1803               	skipnc
  9680     1371  3001               	movlw	1
  9681     1372  07B4               	addwf	___xxtofl@arg+2,f
  9682     1373  3000               	movlw	0
  9683     1374  1803               	skipnc
  9684     1375  3001               	movlw	1
  9685     1376  07B5               	addwf	___xxtofl@arg+3,f
  9686     1377                     l2541:
  9687     1377  3001               	movlw	1
  9688     1378                     u3445:
  9689     1378  1003               	clrc
  9690     1379  0CB5               	rrf	___xxtofl@arg+3,f
  9691     137A  0CB4               	rrf	___xxtofl@arg+2,f
  9692     137B  0CB3               	rrf	___xxtofl@arg+1,f
  9693     137C  0CB2               	rrf	___xxtofl@arg,f
  9694     137D  3EFF               	addlw	-1
  9695     137E  1D03               	skipz
  9696     137F  2B78               	goto	u3445
  9697     1380                     l2543:
  9698     1380  30FF               	movlw	255
  9699     1381  0535               	andwf	___xxtofl@arg+3,w
  9700     1382  1D03               	btfss	3,2
  9701     1383  2B85               	goto	u3451
  9702     1384  2B86               	goto	u3450
  9703     1385                     u3451:
  9704     1385  2B65               	goto	l2537
  9705     1386                     u3450:
  9706     1386  2B92               	goto	l2547
  9707     1387                     l2545:
  9708     1387  3001               	movlw	1
  9709     1388  02B1               	subwf	___xxtofl@exp,f
  9710     1389  3001               	movlw	1
  9711     138A  00AC               	movwf	??___xxtofl
  9712     138B                     u3465:
  9713     138B  1003               	clrc
  9714     138C  0DB2               	rlf	___xxtofl@arg,f
  9715     138D  0DB3               	rlf	___xxtofl@arg+1,f
  9716     138E  0DB4               	rlf	___xxtofl@arg+2,f
  9717     138F  0DB5               	rlf	___xxtofl@arg+3,f
  9718     1390  0BAC               	decfsz	??___xxtofl,f
  9719     1391  2B8B               	goto	u3465
  9720     1392                     l2547:
  9721     1392  1BB4               	btfsc	___xxtofl@arg+2,7
  9722     1393  2B95               	goto	u3471
  9723     1394  2B96               	goto	u3470
  9724     1395                     u3471:
  9725     1395  2B9C               	goto	l694
  9726     1396                     u3470:
  9727     1396                     l2549:
  9728     1396  3002               	movlw	2
  9729     1397  0231               	subwf	___xxtofl@exp,w
  9730     1398  1803               	skipnc
  9731     1399  2B9B               	goto	u3481
  9732     139A  2B9C               	goto	u3480
  9733     139B                     u3481:
  9734     139B  2B87               	goto	l2545
  9735     139C                     u3480:
  9736     139C                     l694:
  9737     139C  1831               	btfsc	___xxtofl@exp,0
  9738     139D  2B9F               	goto	u3491
  9739     139E  2BA0               	goto	u3490
  9740     139F                     u3491:
  9741     139F  2BA8               	goto	l695
  9742     13A0                     u3490:
  9743     13A0                     l2551:
  9744     13A0  30FF               	movlw	255
  9745     13A1  05B2               	andwf	___xxtofl@arg,f
  9746     13A2  30FF               	movlw	255
  9747     13A3  05B3               	andwf	___xxtofl@arg+1,f
  9748     13A4  307F               	movlw	127
  9749     13A5  05B4               	andwf	___xxtofl@arg+2,f
  9750     13A6  30FF               	movlw	255
  9751     13A7  05B5               	andwf	___xxtofl@arg+3,f
  9752     13A8                     l695:
  9753     13A8  1003               	clrc
  9754     13A9  0CB1               	rrf	___xxtofl@exp,f
  9755     13AA                     l2553:
  9756     13AA  0831               	movf	___xxtofl@exp,w
  9757     13AB  00AC               	movwf	??___xxtofl
  9758     13AC  01AD               	clrf	??___xxtofl+1
  9759     13AD  01AE               	clrf	??___xxtofl+2
  9760     13AE  01AF               	clrf	??___xxtofl+3
  9761     13AF  3018               	movlw	24
  9762     13B0                     u3505:
  9763     13B0  1003               	clrc
  9764     13B1  0DAC               	rlf	??___xxtofl,f
  9765     13B2  0DAD               	rlf	??___xxtofl+1,f
  9766     13B3  0DAE               	rlf	??___xxtofl+2,f
  9767     13B4  0DAF               	rlf	??___xxtofl+3,f
  9768     13B5                     u3500:
  9769     13B5  3EFF               	addlw	-1
  9770     13B6  1D03               	skipz
  9771     13B7  2BB0               	goto	u3505
  9772     13B8  082C               	movf	??___xxtofl,w
  9773     13B9  04B2               	iorwf	___xxtofl@arg,f
  9774     13BA  082D               	movf	??___xxtofl+1,w
  9775     13BB  04B3               	iorwf	___xxtofl@arg+1,f
  9776     13BC  082E               	movf	??___xxtofl+2,w
  9777     13BD  04B4               	iorwf	___xxtofl@arg+2,f
  9778     13BE  082F               	movf	??___xxtofl+3,w
  9779     13BF  04B5               	iorwf	___xxtofl@arg+3,f
  9780     13C0                     l2555:
  9781     13C0  0830               	movf	___xxtofl@sign,w
  9782     13C1  1903               	btfsc	3,2
  9783     13C2  2BC4               	goto	u3511
  9784     13C3  2BC5               	goto	u3510
  9785     13C4                     u3511:
  9786     13C4  2BCA               	goto	l2561
  9787     13C5                     u3510:
  9788     13C5                     l2557:
  9789     13C5  1FAB               	btfss	___xxtofl@val+3,7
  9790     13C6  2BC8               	goto	u3521
  9791     13C7  2BC9               	goto	u3520
  9792     13C8                     u3521:
  9793     13C8  2BCA               	goto	l2561
  9794     13C9                     u3520:
  9795     13C9                     l2559:
  9796     13C9  17B5               	bsf	___xxtofl@arg+3,7
  9797     13CA                     l2561:
  9798     13CA  0835               	movf	___xxtofl@arg+3,w
  9799     13CB  00AB               	movwf	?___xxtofl+3
  9800     13CC  0834               	movf	___xxtofl@arg+2,w
  9801     13CD  00AA               	movwf	?___xxtofl+2
  9802     13CE  0833               	movf	___xxtofl@arg+1,w
  9803     13CF  00A9               	movwf	?___xxtofl+1
  9804     13D0  0832               	movf	___xxtofl@arg,w
  9805     13D1  00A8               	movwf	?___xxtofl
  9806     13D2                     l683:
  9807     13D2  0008               	return
  9808     13D3                     __end_of___xxtofl:
  9809                           
  9810                           	psect	text32
  9811     1D23                     __ptext32:	
  9812 ;; *************** function ___wmul *****************
  9813 ;; Defined at:
  9814 ;;		line 15 in file "C:\Program Files\Microchip\xc8\v2.41\pic\sources\c90\common\Umul16.c"
  9815 ;; Parameters:    Size  Location     Type
  9816 ;;  multiplier      2    2[COMMON] unsigned int 
  9817 ;;  multiplicand    2    4[COMMON] unsigned int 
  9818 ;; Auto vars:     Size  Location     Type
  9819 ;;  product         2    6[COMMON] unsigned int 
  9820 ;; Return value:  Size  Location     Type
  9821 ;;                  2    2[COMMON] unsigned int 
  9822 ;; Registers used:
  9823 ;;		wreg, status,2, status,0
  9824 ;; Tracked objects:
  9825 ;;		On entry : 0/0
  9826 ;;		On exit  : 0/0
  9827 ;;		Unchanged: 0/0
  9828 ;; Data sizes:     COMMON   BANK0   BANK1   BANK3   BANK2
  9829 ;;      Params:         4       0       0       0       0
  9830 ;;      Locals:         2       0       0       0       0
  9831 ;;      Temps:          0       0       0       0       0
  9832 ;;      Totals:         6       0       0       0       0
  9833 ;;Total ram usage:        6 bytes
  9834 ;; Hardware stack levels used: 1
  9835 ;; Hardware stack levels required when called: 1
  9836 ;; This function calls:
  9837 ;;		Nothing
  9838 ;; This function is called by:
  9839 ;;		_converteLeituraAnParaVolts
  9840 ;; This function uses a non-reentrant model
  9841 ;;
  9842                           
  9843     1D23                     ___wmul:	
  9844                           ;psect for function ___wmul
  9845                           
  9846     1D23                     l3033:	
  9847                           ;incstack = 0
  9848                           ; Regs used in ___wmul: [wreg+status,2+status,0]
  9849                           
  9850     1D23  01F6               	clrf	___wmul@product
  9851     1D24  01F7               	clrf	___wmul@product+1
  9852     1D25                     l3035:
  9853     1D25  1C72               	btfss	___wmul@multiplier,0
  9854     1D26  2D28               	goto	u4271
  9855     1D27  2D29               	goto	u4270
  9856     1D28                     u4271:
  9857     1D28  2D2F               	goto	l248
  9858     1D29                     u4270:
  9859     1D29                     l3037:
  9860     1D29  0874               	movf	___wmul@multiplicand,w
  9861     1D2A  07F6               	addwf	___wmul@product,f
  9862     1D2B  1803               	skipnc
  9863     1D2C  0AF7               	incf	___wmul@product+1,f
  9864     1D2D  0875               	movf	___wmul@multiplicand+1,w
  9865     1D2E  07F7               	addwf	___wmul@product+1,f
  9866     1D2F                     l248:
  9867     1D2F  3001               	movlw	1
  9868     1D30                     u4285:
  9869     1D30  1003               	clrc
  9870     1D31  0DF4               	rlf	___wmul@multiplicand,f
  9871     1D32  0DF5               	rlf	___wmul@multiplicand+1,f
  9872     1D33  3EFF               	addlw	-1
  9873     1D34  1D03               	skipz
  9874     1D35  2D30               	goto	u4285
  9875     1D36                     l3039:
  9876     1D36  3001               	movlw	1
  9877     1D37                     u4295:
  9878     1D37  1003               	clrc
  9879     1D38  0CF3               	rrf	___wmul@multiplier+1,f
  9880     1D39  0CF2               	rrf	___wmul@multiplier,f
  9881     1D3A  3EFF               	addlw	-1
  9882     1D3B  1D03               	skipz
  9883     1D3C  2D37               	goto	u4295
  9884     1D3D                     l3041:
  9885     1D3D  0872               	movf	___wmul@multiplier,w
  9886     1D3E  0473               	iorwf	___wmul@multiplier+1,w
  9887     1D3F  1D03               	btfss	3,2
  9888     1D40  2D42               	goto	u4301
  9889     1D41  2D43               	goto	u4300
  9890     1D42                     u4301:
  9891     1D42  2D25               	goto	l3035
  9892     1D43                     u4300:
  9893     1D43                     l3043:
  9894     1D43  0877               	movf	___wmul@product+1,w
  9895     1D44  00F3               	movwf	?___wmul+1
  9896     1D45  0876               	movf	___wmul@product,w
  9897     1D46  00F2               	movwf	?___wmul
  9898     1D47                     l250:
  9899     1D47  0008               	return
  9900     1D48                     __end_of___wmul:
  9901                           
  9902                           	psect	text33
  9903     0805                     __ptext33:	
  9904 ;; *************** function ___awdiv *****************
  9905 ;; Defined at:
  9906 ;;		line 5 in file "C:\Program Files\Microchip\xc8\v2.41\pic\sources\c90\common\awdiv.c"
  9907 ;; Parameters:    Size  Location     Type
  9908 ;;  divisor         2    0[BANK0 ] int 
  9909 ;;  dividend        2    2[BANK0 ] int 
  9910 ;; Auto vars:     Size  Location     Type
  9911 ;;  quotient        2    6[BANK0 ] int 
  9912 ;;  sign            1    5[BANK0 ] unsigned char 
  9913 ;;  counter         1    4[BANK0 ] unsigned char 
  9914 ;; Return value:  Size  Location     Type
  9915 ;;                  2    0[BANK0 ] int 
  9916 ;; Registers used:
  9917 ;;		wreg, status,2, status,0, btemp+1
  9918 ;; Tracked objects:
  9919 ;;		On entry : 0/0
  9920 ;;		On exit  : 0/0
  9921 ;;		Unchanged: 0/0
  9922 ;; Data sizes:     COMMON   BANK0   BANK1   BANK3   BANK2
  9923 ;;      Params:         0       4       0       0       0
  9924 ;;      Locals:         0       4       0       0       0
  9925 ;;      Temps:          0       0       0       0       0
  9926 ;;      Totals:         0       8       0       0       0
  9927 ;;Total ram usage:        8 bytes
  9928 ;; Hardware stack levels used: 1
  9929 ;; Hardware stack levels required when called: 1
  9930 ;; This function calls:
  9931 ;;		Nothing
  9932 ;; This function is called by:
  9933 ;;		_intToASCIIinCustomBase
  9934 ;;		_converteLeituraAnParaVolts
  9935 ;; This function uses a non-reentrant model
  9936 ;;
  9937                           
  9938     0805                     ___awdiv:	
  9939                           ;psect for function ___awdiv
  9940                           
  9941     0805                     l3901:	
  9942                           ;incstack = 0
  9943                           ; Regs used in ___awdiv: [wreg+status,2+status,0+btemp+1]
  9944                           
  9945     0805  1283               	bcf	3,5	;RP0=0, select bank0
  9946     0806  1303               	bcf	3,6	;RP1=0, select bank0
  9947     0807  01A5               	clrf	___awdiv@sign
  9948     0808                     l3903:
  9949     0808  1FA1               	btfss	___awdiv@divisor+1,7
  9950     0809  280B               	goto	u5861
  9951     080A  280C               	goto	u5860
  9952     080B                     u5861:
  9953     080B  2813               	goto	l3909
  9954     080C                     u5860:
  9955     080C                     l3905:
  9956     080C  09A0               	comf	___awdiv@divisor,f
  9957     080D  09A1               	comf	___awdiv@divisor+1,f
  9958     080E  0AA0               	incf	___awdiv@divisor,f
  9959     080F  1903               	skipnz
  9960     0810  0AA1               	incf	___awdiv@divisor+1,f
  9961     0811                     l3907:
  9962     0811  01A5               	clrf	___awdiv@sign
  9963     0812  0AA5               	incf	___awdiv@sign,f
  9964     0813                     l3909:
  9965     0813  1FA3               	btfss	___awdiv@dividend+1,7
  9966     0814  2816               	goto	u5871
  9967     0815  2817               	goto	u5870
  9968     0816                     u5871:
  9969     0816  2820               	goto	l3915
  9970     0817                     u5870:
  9971     0817                     l3911:
  9972     0817  09A2               	comf	___awdiv@dividend,f
  9973     0818  09A3               	comf	___awdiv@dividend+1,f
  9974     0819  0AA2               	incf	___awdiv@dividend,f
  9975     081A  1903               	skipnz
  9976     081B  0AA3               	incf	___awdiv@dividend+1,f
  9977     081C                     l3913:
  9978     081C  3001               	movlw	1
  9979     081D  00FF               	movwf	btemp+1
  9980     081E  087F               	movf	btemp+1,w
  9981     081F  06A5               	xorwf	___awdiv@sign,f
  9982     0820                     l3915:
  9983     0820  01A6               	clrf	___awdiv@quotient
  9984     0821  01A7               	clrf	___awdiv@quotient+1
  9985     0822                     l3917:
  9986     0822  0820               	movf	___awdiv@divisor,w
  9987     0823  0421               	iorwf	___awdiv@divisor+1,w
  9988     0824  1903               	btfsc	3,2
  9989     0825  2827               	goto	u5881
  9990     0826  2828               	goto	u5880
  9991     0827                     u5881:
  9992     0827  285F               	goto	l3937
  9993     0828                     u5880:
  9994     0828                     l3919:
  9995     0828  01A4               	clrf	___awdiv@counter
  9996     0829  0AA4               	incf	___awdiv@counter,f
  9997     082A  2836               	goto	l3925
  9998     082B                     l3921:
  9999     082B  3001               	movlw	1
 10000     082C                     u5895:
 10001     082C  1003               	clrc
 10002     082D  0DA0               	rlf	___awdiv@divisor,f
 10003     082E  0DA1               	rlf	___awdiv@divisor+1,f
 10004     082F  3EFF               	addlw	-1
 10005     0830  1D03               	skipz
 10006     0831  282C               	goto	u5895
 10007     0832                     l3923:
 10008     0832  3001               	movlw	1
 10009     0833  00FF               	movwf	btemp+1
 10010     0834  087F               	movf	btemp+1,w
 10011     0835  07A4               	addwf	___awdiv@counter,f
 10012     0836                     l3925:
 10013     0836  1FA1               	btfss	___awdiv@divisor+1,7
 10014     0837  2839               	goto	u5901
 10015     0838  283A               	goto	u5900
 10016     0839                     u5901:
 10017     0839  282B               	goto	l3921
 10018     083A                     u5900:
 10019     083A                     l3927:
 10020     083A  3001               	movlw	1
 10021     083B                     u5915:
 10022     083B  1003               	clrc
 10023     083C  0DA6               	rlf	___awdiv@quotient,f
 10024     083D  0DA7               	rlf	___awdiv@quotient+1,f
 10025     083E  3EFF               	addlw	-1
 10026     083F  1D03               	skipz
 10027     0840  283B               	goto	u5915
 10028     0841  0821               	movf	___awdiv@divisor+1,w
 10029     0842  0223               	subwf	___awdiv@dividend+1,w
 10030     0843  1D03               	skipz
 10031     0844  2847               	goto	u5925
 10032     0845  0820               	movf	___awdiv@divisor,w
 10033     0846  0222               	subwf	___awdiv@dividend,w
 10034     0847                     u5925:
 10035     0847  1C03               	skipc
 10036     0848  284A               	goto	u5921
 10037     0849  284B               	goto	u5920
 10038     084A                     u5921:
 10039     084A  2852               	goto	l3933
 10040     084B                     u5920:
 10041     084B                     l3929:
 10042     084B  0820               	movf	___awdiv@divisor,w
 10043     084C  02A2               	subwf	___awdiv@dividend,f
 10044     084D  0821               	movf	___awdiv@divisor+1,w
 10045     084E  1C03               	skipc
 10046     084F  03A3               	decf	___awdiv@dividend+1,f
 10047     0850  02A3               	subwf	___awdiv@dividend+1,f
 10048     0851                     l3931:
 10049     0851  1426               	bsf	___awdiv@quotient,0
 10050     0852                     l3933:
 10051     0852  3001               	movlw	1
 10052     0853                     u5935:
 10053     0853  1003               	clrc
 10054     0854  0CA1               	rrf	___awdiv@divisor+1,f
 10055     0855  0CA0               	rrf	___awdiv@divisor,f
 10056     0856  3EFF               	addlw	-1
 10057     0857  1D03               	skipz
 10058     0858  2853               	goto	u5935
 10059     0859                     l3935:
 10060     0859  3001               	movlw	1
 10061     085A  02A4               	subwf	___awdiv@counter,f
 10062     085B  1D03               	btfss	3,2
 10063     085C  285E               	goto	u5941
 10064     085D  285F               	goto	u5940
 10065     085E                     u5941:
 10066     085E  283A               	goto	l3927
 10067     085F                     u5940:
 10068     085F                     l3937:
 10069     085F  0825               	movf	___awdiv@sign,w
 10070     0860  1903               	btfsc	3,2
 10071     0861  2863               	goto	u5951
 10072     0862  2864               	goto	u5950
 10073     0863                     u5951:
 10074     0863  2869               	goto	l3941
 10075     0864                     u5950:
 10076     0864                     l3939:
 10077     0864  09A6               	comf	___awdiv@quotient,f
 10078     0865  09A7               	comf	___awdiv@quotient+1,f
 10079     0866  0AA6               	incf	___awdiv@quotient,f
 10080     0867  1903               	skipnz
 10081     0868  0AA7               	incf	___awdiv@quotient+1,f
 10082     0869                     l3941:
 10083     0869  0827               	movf	___awdiv@quotient+1,w
 10084     086A  00A1               	movwf	?___awdiv+1
 10085     086B  0826               	movf	___awdiv@quotient,w
 10086     086C  00A0               	movwf	?___awdiv
 10087     086D                     l401:
 10088     086D  0008               	return
 10089     086E                     __end_of___awdiv:
 10090                           
 10091                           	psect	text34
 10092     1C76                     __ptext34:	
 10093 ;; *************** function _configPWMRegs *****************
 10094 ;; Defined at:
 10095 ;;		line 110 in file "newmain.c"
 10096 ;; Parameters:    Size  Location     Type
 10097 ;;		None
 10098 ;; Auto vars:     Size  Location     Type
 10099 ;;		None
 10100 ;; Return value:  Size  Location     Type
 10101 ;;                  1    wreg      void 
 10102 ;; Registers used:
 10103 ;;		wreg
 10104 ;; Tracked objects:
 10105 ;;		On entry : 0/0
 10106 ;;		On exit  : 0/0
 10107 ;;		Unchanged: 0/0
 10108 ;; Data sizes:     COMMON   BANK0   BANK1   BANK3   BANK2
 10109 ;;      Params:         0       0       0       0       0
 10110 ;;      Locals:         0       0       0       0       0
 10111 ;;      Temps:          0       0       0       0       0
 10112 ;;      Totals:         0       0       0       0       0
 10113 ;;Total ram usage:        0 bytes
 10114 ;; Hardware stack levels used: 1
 10115 ;; Hardware stack levels required when called: 1
 10116 ;; This function calls:
 10117 ;;		Nothing
 10118 ;; This function is called by:
 10119 ;;		_main
 10120 ;; This function uses a non-reentrant model
 10121 ;;
 10122                           
 10123     1C76                     _configPWMRegs:	
 10124                           ;psect for function _configPWMRegs
 10125                           
 10126     1C76                     l3203:	
 10127                           ;incstack = 0
 10128                           ; Regs used in _configPWMRegs: [wreg]
 10129                           
 10130                           
 10131                           ;newmain.c: 111:     CCP1CON = 0x0F;
 10132     1C76  300F               	movlw	15
 10133     1C77  1283               	bcf	3,5	;RP0=0, select bank0
 10134     1C78  1303               	bcf	3,6	;RP1=0, select bank0
 10135     1C79  0097               	movwf	23	;volatile
 10136                           
 10137                           ;newmain.c: 112:     PR2 = 100;
 10138     1C7A  3064               	movlw	100
 10139     1C7B  1683               	bsf	3,5	;RP0=1, select bank1
 10140     1C7C  1303               	bcf	3,6	;RP1=0, select bank1
 10141     1C7D  0092               	movwf	18	;volatile
 10142                           
 10143                           ;newmain.c: 113:     CCPR1L = porcentagem_PWM;
 10144     1C7E  3032               	movlw	50
 10145     1C7F  1283               	bcf	3,5	;RP0=0, select bank0
 10146     1C80  1303               	bcf	3,6	;RP1=0, select bank0
 10147     1C81  0095               	movwf	21	;volatile
 10148     1C82                     l3205:
 10149                           
 10150                           ;newmain.c: 114:     TMR2ON = 1;
 10151     1C82  1512               	bsf	18,2	;volatile
 10152     1C83                     l112:
 10153     1C83  0008               	return
 10154     1C84                     __end_of_configPWMRegs:
 10155                           
 10156                           	psect	text35
 10157     1C57                     __ptext35:	
 10158 ;; *************** function _configIntExterns *****************
 10159 ;; Defined at:
 10160 ;;		line 203 in file "newmain.c"
 10161 ;; Parameters:    Size  Location     Type
 10162 ;;		None
 10163 ;; Auto vars:     Size  Location     Type
 10164 ;;		None
 10165 ;; Return value:  Size  Location     Type
 10166 ;;                  1    wreg      void 
 10167 ;; Registers used:
 10168 ;;		None
 10169 ;; Tracked objects:
 10170 ;;		On entry : 0/0
 10171 ;;		On exit  : 0/0
 10172 ;;		Unchanged: 0/0
 10173 ;; Data sizes:     COMMON   BANK0   BANK1   BANK3   BANK2
 10174 ;;      Params:         0       0       0       0       0
 10175 ;;      Locals:         0       0       0       0       0
 10176 ;;      Temps:          0       0       0       0       0
 10177 ;;      Totals:         0       0       0       0       0
 10178 ;;Total ram usage:        0 bytes
 10179 ;; Hardware stack levels used: 1
 10180 ;; Hardware stack levels required when called: 1
 10181 ;; This function calls:
 10182 ;;		Nothing
 10183 ;; This function is called by:
 10184 ;;		_main
 10185 ;; This function uses a non-reentrant model
 10186 ;;
 10187                           
 10188     1C57                     _configIntExterns:	
 10189                           ;psect for function _configIntExterns
 10190                           
 10191     1C57                     l3215:	
 10192                           ;incstack = 0
 10193                           ; Regs used in _configIntExterns: []
 10194                           
 10195                           
 10196                           ;newmain.c: 205:     OPTION_REGbits.INTEDG = 0;
 10197     1C57  1683               	bsf	3,5	;RP0=1, select bank1
 10198     1C58  1303               	bcf	3,6	;RP1=0, select bank1
 10199     1C59  1301               	bcf	1,6	;volatile
 10200                           
 10201                           ;newmain.c: 206:     INTCONbits.GIE = 1;
 10202     1C5A  178B               	bsf	11,7	;volatile
 10203                           
 10204                           ;newmain.c: 207:     INTCONbits.INTE = 1;
 10205     1C5B  160B               	bsf	11,4	;volatile
 10206                           
 10207                           ;newmain.c: 208:     INTCONbits.INTF = 0;
 10208     1C5C  108B               	bcf	11,1	;volatile
 10209     1C5D                     l148:	
 10210                           ;newmain.c: 209:     return;
 10211                           
 10212     1C5D  0008               	return
 10213     1C5E                     __end_of_configIntExterns:
 10214                           
 10215                           	psect	text36
 10216     1C99                     __ptext36:	
 10217 ;; *************** function _configADC *****************
 10218 ;; Defined at:
 10219 ;;		line 38 in file "newmain.c"
 10220 ;; Parameters:    Size  Location     Type
 10221 ;;		None
 10222 ;; Auto vars:     Size  Location     Type
 10223 ;;		None
 10224 ;; Return value:  Size  Location     Type
 10225 ;;                  1    wreg      void 
 10226 ;; Registers used:
 10227 ;;		status,2
 10228 ;; Tracked objects:
 10229 ;;		On entry : 0/0
 10230 ;;		On exit  : 0/0
 10231 ;;		Unchanged: 0/0
 10232 ;; Data sizes:     COMMON   BANK0   BANK1   BANK3   BANK2
 10233 ;;      Params:         0       0       0       0       0
 10234 ;;      Locals:         0       0       0       0       0
 10235 ;;      Temps:          0       0       0       0       0
 10236 ;;      Totals:         0       0       0       0       0
 10237 ;;Total ram usage:        0 bytes
 10238 ;; Hardware stack levels used: 1
 10239 ;; Hardware stack levels required when called: 1
 10240 ;; This function calls:
 10241 ;;		Nothing
 10242 ;; This function is called by:
 10243 ;;		_main
 10244 ;; This function uses a non-reentrant model
 10245 ;;
 10246                           
 10247     1C99                     _configADC:	
 10248                           ;psect for function _configADC
 10249                           
 10250     1C99                     l3139:	
 10251                           ;incstack = 0
 10252                           ; Regs used in _configADC: [status,2]
 10253                           
 10254                           
 10255                           ;newmain.c: 40:     ADCON1bits.PCFG0 = 0;
 10256     1C99  1683               	bsf	3,5	;RP0=1, select bank1
 10257     1C9A  1303               	bcf	3,6	;RP1=0, select bank1
 10258     1C9B  101F               	bcf	31,0	;volatile
 10259                           
 10260                           ;newmain.c: 41:     ADCON1bits.PCFG1 = 1;
 10261     1C9C  149F               	bsf	31,1	;volatile
 10262                           
 10263                           ;newmain.c: 42:     ADCON1bits.PCFG2 = 1;
 10264     1C9D  151F               	bsf	31,2	;volatile
 10265                           
 10266                           ;newmain.c: 43:     ADCON1bits.PCFG3 = 1;
 10267     1C9E  159F               	bsf	31,3	;volatile
 10268                           
 10269                           ;newmain.c: 47:     ADCON0bits.ADCS0 = 0;
 10270     1C9F  1283               	bcf	3,5	;RP0=0, select bank0
 10271     1CA0  1303               	bcf	3,6	;RP1=0, select bank0
 10272     1CA1  131F               	bcf	31,6	;volatile
 10273                           
 10274                           ;newmain.c: 48:     ADCON0bits.ADCS1 = 0;
 10275     1CA2  139F               	bcf	31,7	;volatile
 10276                           
 10277                           ;newmain.c: 49:     ADCON1bits.ADCS2 = 0;
 10278     1CA3  1683               	bsf	3,5	;RP0=1, select bank1
 10279     1CA4  1303               	bcf	3,6	;RP1=0, select bank1
 10280     1CA5  131F               	bcf	31,6	;volatile
 10281                           
 10282                           ;newmain.c: 53:     ADCON1bits.ADFM = 0;
 10283     1CA6  139F               	bcf	31,7	;volatile
 10284     1CA7                     l3141:
 10285                           
 10286                           ;newmain.c: 56:     ADRESL = 0x00;
 10287     1CA7  019E               	clrf	30	;volatile
 10288                           
 10289                           ;newmain.c: 57:     ADRESH = 0X00;
 10290     1CA8  1283               	bcf	3,5	;RP0=0, select bank0
 10291     1CA9  1303               	bcf	3,6	;RP1=0, select bank0
 10292     1CAA  019E               	clrf	30	;volatile
 10293     1CAB                     l3143:
 10294                           
 10295                           ;newmain.c: 61:     ADCON0bits.ADON = 1;
 10296     1CAB  141F               	bsf	31,0	;volatile
 10297     1CAC                     l3145:
 10298                           
 10299                           ;newmain.c: 64:     ADCON0bits.CHS0 = 0;
 10300     1CAC  119F               	bcf	31,3	;volatile
 10301     1CAD                     l3147:
 10302                           
 10303                           ;newmain.c: 65:     ADCON0bits.CHS1 = 0;
 10304     1CAD  121F               	bcf	31,4	;volatile
 10305     1CAE                     l3149:
 10306                           
 10307                           ;newmain.c: 66:     ADCON0bits.CHS2 = 0;
 10308     1CAE  129F               	bcf	31,5	;volatile
 10309     1CAF                     l92:
 10310     1CAF  0008               	return
 10311     1CB0                     __end_of_configADC:
 10312                           
 10313                           	psect	text37
 10314     1108                     __ptext37:	
 10315 ;; *************** function _Lcd_Init *****************
 10316 ;; Defined at:
 10317 ;;		line 62 in file "./lcd.h"
 10318 ;; Parameters:    Size  Location     Type
 10319 ;;		None
 10320 ;; Auto vars:     Size  Location     Type
 10321 ;;		None
 10322 ;; Return value:  Size  Location     Type
 10323 ;;                  1    wreg      void 
 10324 ;; Registers used:
 10325 ;;		wreg, status,2, status,0, pclath, cstack
 10326 ;; Tracked objects:
 10327 ;;		On entry : 0/0
 10328 ;;		On exit  : 0/0
 10329 ;;		Unchanged: 0/0
 10330 ;; Data sizes:     COMMON   BANK0   BANK1   BANK3   BANK2
 10331 ;;      Params:         0       0       0       0       0
 10332 ;;      Locals:         0       0       0       0       0
 10333 ;;      Temps:          2       0       0       0       0
 10334 ;;      Totals:         2       0       0       0       0
 10335 ;;Total ram usage:        2 bytes
 10336 ;; Hardware stack levels used: 1
 10337 ;; Hardware stack levels required when called: 3
 10338 ;; This function calls:
 10339 ;;		_Lcd_Cmd
 10340 ;;		_Lcd_Port
 10341 ;; This function is called by:
 10342 ;;		_main
 10343 ;; This function uses a non-reentrant model
 10344 ;;
 10345                           
 10346     1108                     _Lcd_Init:	
 10347                           ;psect for function _Lcd_Init
 10348                           
 10349     1108                     l3945:	
 10350                           ;incstack = 0
 10351                           ; Regs used in _Lcd_Init: [wreg+status,2+status,0+pclath+cstack]
 10352                           
 10353                           
 10354                           ;./lcd.h: 64:   Lcd_Port(0x00);
 10355     1108  3000               	movlw	0
 10356     1109  160A  158A  2501  160A  118A  	fcall	_Lcd_Port
 10357     110E                     l3947:
 10358                           
 10359                           ;./lcd.h: 65:    _delay((unsigned long)((20)*(4000000/4000.0)));
 10360     110E  301A               	movlw	26
 10361     110F  00F7               	movwf	??_Lcd_Init+1
 10362     1110  30F8               	movlw	248
 10363     1111  00F6               	movwf	??_Lcd_Init
 10364     1112                     u6057:
 10365     1112  0BF6               	decfsz	??_Lcd_Init,f
 10366     1113  2912               	goto	u6057
 10367     1114  0BF7               	decfsz	??_Lcd_Init+1,f
 10368     1115  2912               	goto	u6057
 10369     1116  0000               	nop
 10370     1117                     l3949:
 10371                           
 10372                           ;./lcd.h: 66:   Lcd_Cmd(0x03);
 10373     1117  3003               	movlw	3
 10374     1118  160A  158A  24C9  160A  118A  	fcall	_Lcd_Cmd
 10375                           
 10376                           ;./lcd.h: 67:  _delay((unsigned long)((5)*(4000000/4000.0)));
 10377     111D  3007               	movlw	7
 10378     111E  00F7               	movwf	??_Lcd_Init+1
 10379     111F  307D               	movlw	125
 10380     1120  00F6               	movwf	??_Lcd_Init
 10381     1121                     u6067:
 10382     1121  0BF6               	decfsz	??_Lcd_Init,f
 10383     1122  2921               	goto	u6067
 10384     1123  0BF7               	decfsz	??_Lcd_Init+1,f
 10385     1124  2921               	goto	u6067
 10386     1125                     l3951:
 10387                           
 10388                           ;./lcd.h: 68:   Lcd_Cmd(0x03);
 10389     1125  3003               	movlw	3
 10390     1126  160A  158A  24C9  160A  118A  	fcall	_Lcd_Cmd
 10391     112B                     l3953:
 10392                           
 10393                           ;./lcd.h: 69:  _delay((unsigned long)((11)*(4000000/4000.0)));
 10394     112B  300F               	movlw	15
 10395     112C  00F7               	movwf	??_Lcd_Init+1
 10396     112D  3047               	movlw	71
 10397     112E  00F6               	movwf	??_Lcd_Init
 10398     112F                     u6077:
 10399     112F  0BF6               	decfsz	??_Lcd_Init,f
 10400     1130  292F               	goto	u6077
 10401     1131  0BF7               	decfsz	??_Lcd_Init+1,f
 10402     1132  292F               	goto	u6077
 10403     1133  2934               	nop2
 10404                           
 10405                           ;./lcd.h: 70:   Lcd_Cmd(0x03);
 10406     1134  3003               	movlw	3
 10407     1135  160A  158A  24C9  160A  118A  	fcall	_Lcd_Cmd
 10408                           
 10409                           ;./lcd.h: 72:   Lcd_Cmd(0x02);
 10410     113A  3002               	movlw	2
 10411     113B  160A  158A  24C9  160A  118A  	fcall	_Lcd_Cmd
 10412                           
 10413                           ;./lcd.h: 73:   Lcd_Cmd(0x02);
 10414     1140  3002               	movlw	2
 10415     1141  160A  158A  24C9  160A  118A  	fcall	_Lcd_Cmd
 10416                           
 10417                           ;./lcd.h: 74:   Lcd_Cmd(0x08);
 10418     1146  3008               	movlw	8
 10419     1147  160A  158A  24C9  160A  118A  	fcall	_Lcd_Cmd
 10420                           
 10421                           ;./lcd.h: 75:   Lcd_Cmd(0x00);
 10422     114C  3000               	movlw	0
 10423     114D  160A  158A  24C9  160A  118A  	fcall	_Lcd_Cmd
 10424                           
 10425                           ;./lcd.h: 76:   Lcd_Cmd(0x0C);
 10426     1152  300C               	movlw	12
 10427     1153  160A  158A  24C9  160A  118A  	fcall	_Lcd_Cmd
 10428                           
 10429                           ;./lcd.h: 77:   Lcd_Cmd(0x00);
 10430     1158  3000               	movlw	0
 10431     1159  160A  158A  24C9  160A  118A  	fcall	_Lcd_Cmd
 10432                           
 10433                           ;./lcd.h: 78:   Lcd_Cmd(0x06);
 10434     115E  3006               	movlw	6
 10435     115F  160A  158A  24C9  160A  118A  	fcall	_Lcd_Cmd
 10436     1164                     l64:
 10437     1164  0008               	return
 10438     1165                     __end_of_Lcd_Init:
 10439                           
 10440                           	psect	text38
 10441     1CC9                     __ptext38:	
 10442 ;; *************** function _Lcd_Cmd *****************
 10443 ;; Defined at:
 10444 ;;		line 26 in file "./lcd.h"
 10445 ;; Parameters:    Size  Location     Type
 10446 ;;  a               1    wreg     unsigned char 
 10447 ;; Auto vars:     Size  Location     Type
 10448 ;;  a               1    5[COMMON] unsigned char 
 10449 ;; Return value:  Size  Location     Type
 10450 ;;                  1    wreg      void 
 10451 ;; Registers used:
 10452 ;;		wreg, status,2, status,0, pclath, cstack
 10453 ;; Tracked objects:
 10454 ;;		On entry : 0/0
 10455 ;;		On exit  : 0/0
 10456 ;;		Unchanged: 0/0
 10457 ;; Data sizes:     COMMON   BANK0   BANK1   BANK3   BANK2
 10458 ;;      Params:         0       0       0       0       0
 10459 ;;      Locals:         1       0       0       0       0
 10460 ;;      Temps:          2       0       0       0       0
 10461 ;;      Totals:         3       0       0       0       0
 10462 ;;Total ram usage:        3 bytes
 10463 ;; Hardware stack levels used: 1
 10464 ;; Hardware stack levels required when called: 2
 10465 ;; This function calls:
 10466 ;;		_Lcd_Port
 10467 ;; This function is called by:
 10468 ;;		_Lcd_Clear
 10469 ;;		_Lcd_Set_Cursor
 10470 ;;		_Lcd_Init
 10471 ;;		_Lcd_Shift_Right
 10472 ;;		_Lcd_Shift_Left
 10473 ;; This function uses a non-reentrant model
 10474 ;;
 10475                           
 10476     1CC9                     _Lcd_Cmd:	
 10477                           ;psect for function _Lcd_Cmd
 10478                           
 10479                           
 10480                           ;incstack = 0
 10481                           ; Regs used in _Lcd_Cmd: [wreg+status,2+status,0+pclath+cstack]
 10482                           ;Lcd_Cmd@a stored from wreg
 10483     1CC9  00F5               	movwf	Lcd_Cmd@a
 10484     1CCA                     l3673:
 10485                           
 10486                           ;./lcd.h: 26: void Lcd_Cmd(char a);./lcd.h: 27: {;./lcd.h: 28:  PORTDbits.RD2 = 0;
 10487     1CCA  1283               	bcf	3,5	;RP0=0, select bank0
 10488     1CCB  1303               	bcf	3,6	;RP1=0, select bank0
 10489     1CCC  1108               	bcf	8,2	;volatile
 10490     1CCD                     l3675:
 10491                           
 10492                           ;./lcd.h: 29:  Lcd_Port(a);
 10493     1CCD  0875               	movf	Lcd_Cmd@a,w
 10494     1CCE  160A  158A  2501  160A  158A  	fcall	_Lcd_Port
 10495     1CD3                     l3677:
 10496                           
 10497                           ;./lcd.h: 30:  PORTDbits.RD3 = 1;
 10498     1CD3  1283               	bcf	3,5	;RP0=0, select bank0
 10499     1CD4  1303               	bcf	3,6	;RP1=0, select bank0
 10500     1CD5  1588               	bsf	8,3	;volatile
 10501     1CD6                     l3679:
 10502                           
 10503                           ;./lcd.h: 31:         _delay((unsigned long)((4)*(4000000/4000.0)));
 10504     1CD6  3006               	movlw	6
 10505     1CD7  00F4               	movwf	??_Lcd_Cmd+1
 10506     1CD8  3030               	movlw	48
 10507     1CD9  00F3               	movwf	??_Lcd_Cmd
 10508     1CDA                     u6087:
 10509     1CDA  0BF3               	decfsz	??_Lcd_Cmd,f
 10510     1CDB  2CDA               	goto	u6087
 10511     1CDC  0BF4               	decfsz	??_Lcd_Cmd+1,f
 10512     1CDD  2CDA               	goto	u6087
 10513     1CDE  0000               	nop
 10514     1CDF                     l3681:
 10515                           
 10516                           ;./lcd.h: 32:         PORTDbits.RD3 = 0;
 10517     1CDF  1283               	bcf	3,5	;RP0=0, select bank0
 10518     1CE0  1303               	bcf	3,6	;RP1=0, select bank0
 10519     1CE1  1188               	bcf	8,3	;volatile
 10520     1CE2                     l52:
 10521     1CE2  0008               	return
 10522     1CE3                     __end_of_Lcd_Cmd:
 10523                           
 10524                           	psect	text39
 10525     1D01                     __ptext39:	
 10526 ;; *************** function _Lcd_Port *****************
 10527 ;; Defined at:
 10528 ;;		line 4 in file "./lcd.h"
 10529 ;; Parameters:    Size  Location     Type
 10530 ;;  a               1    wreg     unsigned char 
 10531 ;; Auto vars:     Size  Location     Type
 10532 ;;  a               1    2[COMMON] unsigned char 
 10533 ;; Return value:  Size  Location     Type
 10534 ;;                  1    wreg      void 
 10535 ;; Registers used:
 10536 ;;		wreg
 10537 ;; Tracked objects:
 10538 ;;		On entry : 0/0
 10539 ;;		On exit  : 0/0
 10540 ;;		Unchanged: 0/0
 10541 ;; Data sizes:     COMMON   BANK0   BANK1   BANK3   BANK2
 10542 ;;      Params:         0       0       0       0       0
 10543 ;;      Locals:         1       0       0       0       0
 10544 ;;      Temps:          0       0       0       0       0
 10545 ;;      Totals:         1       0       0       0       0
 10546 ;;Total ram usage:        1 bytes
 10547 ;; Hardware stack levels used: 1
 10548 ;; Hardware stack levels required when called: 1
 10549 ;; This function calls:
 10550 ;;		Nothing
 10551 ;; This function is called by:
 10552 ;;		_Lcd_Cmd
 10553 ;;		_Lcd_Init
 10554 ;;		_Lcd_Write_Char
 10555 ;; This function uses a non-reentrant model
 10556 ;;
 10557                           
 10558     1D01                     _Lcd_Port:	
 10559                           ;psect for function _Lcd_Port
 10560                           
 10561                           
 10562                           ;incstack = 0
 10563                           ; Regs used in _Lcd_Port: [wreg]
 10564                           ;Lcd_Port@a stored from wreg
 10565     1D01  00F2               	movwf	Lcd_Port@a
 10566     1D02                     l3283:
 10567                           
 10568                           ;./lcd.h: 4: void Lcd_Port(char a);./lcd.h: 5: {;./lcd.h: 6:  if(a & 1)
 10569     1D02  1C72               	btfss	Lcd_Port@a,0
 10570     1D03  2D05               	goto	u4581
 10571     1D04  2D06               	goto	u4580
 10572     1D05                     u4581:
 10573     1D05  2D0A               	goto	l41
 10574     1D06                     u4580:
 10575     1D06                     l3285:
 10576                           
 10577                           ;./lcd.h: 7:   PORTDbits.RD4 = 1;
 10578     1D06  1283               	bcf	3,5	;RP0=0, select bank0
 10579     1D07  1303               	bcf	3,6	;RP1=0, select bank0
 10580     1D08  1608               	bsf	8,4	;volatile
 10581     1D09  2D0D               	goto	l42
 10582     1D0A                     l41:	
 10583                           ;./lcd.h: 8:  else
 10584                           
 10585                           
 10586                           ;./lcd.h: 9:   PORTDbits.RD4 = 0;
 10587     1D0A  1283               	bcf	3,5	;RP0=0, select bank0
 10588     1D0B  1303               	bcf	3,6	;RP1=0, select bank0
 10589     1D0C  1208               	bcf	8,4	;volatile
 10590     1D0D                     l42:
 10591                           
 10592                           ;./lcd.h: 11:  if(a & 2)
 10593     1D0D  1CF2               	btfss	Lcd_Port@a,1
 10594     1D0E  2D10               	goto	u4591
 10595     1D0F  2D11               	goto	u4590
 10596     1D10                     u4591:
 10597     1D10  2D13               	goto	l43
 10598     1D11                     u4590:
 10599     1D11                     l3287:
 10600                           
 10601                           ;./lcd.h: 12:   PORTDbits.RD5 = 1;
 10602     1D11  1688               	bsf	8,5	;volatile
 10603     1D12  2D14               	goto	l44
 10604     1D13                     l43:	
 10605                           ;./lcd.h: 13:  else
 10606                           
 10607                           
 10608                           ;./lcd.h: 14:   PORTDbits.RD5 = 0;
 10609     1D13  1288               	bcf	8,5	;volatile
 10610     1D14                     l44:
 10611                           
 10612                           ;./lcd.h: 16:  if(a & 4)
 10613     1D14  1D72               	btfss	Lcd_Port@a,2
 10614     1D15  2D17               	goto	u4601
 10615     1D16  2D18               	goto	u4600
 10616     1D17                     u4601:
 10617     1D17  2D1A               	goto	l45
 10618     1D18                     u4600:
 10619     1D18                     l3289:
 10620                           
 10621                           ;./lcd.h: 17:   PORTDbits.RD6 = 1;
 10622     1D18  1708               	bsf	8,6	;volatile
 10623     1D19  2D1B               	goto	l46
 10624     1D1A                     l45:	
 10625                           ;./lcd.h: 18:  else
 10626                           
 10627                           
 10628                           ;./lcd.h: 19:   PORTDbits.RD6 = 0;
 10629     1D1A  1308               	bcf	8,6	;volatile
 10630     1D1B                     l46:
 10631                           
 10632                           ;./lcd.h: 21:  if(a & 8)
 10633     1D1B  1DF2               	btfss	Lcd_Port@a,3
 10634     1D1C  2D1E               	goto	u4611
 10635     1D1D  2D1F               	goto	u4610
 10636     1D1E                     u4611:
 10637     1D1E  2D21               	goto	l47
 10638     1D1F                     u4610:
 10639     1D1F                     l3291:
 10640                           
 10641                           ;./lcd.h: 22:   PORTDbits.RD7 = 1;
 10642     1D1F  1788               	bsf	8,7	;volatile
 10643     1D20  2D22               	goto	l49
 10644     1D21                     l47:	
 10645                           ;./lcd.h: 23:  else
 10646                           
 10647                           
 10648                           ;./lcd.h: 24:   PORTDbits.RD7 = 0;
 10649     1D21  1388               	bcf	8,7	;volatile
 10650     1D22                     l49:
 10651     1D22  0008               	return
 10652     1D23                     __end_of_Lcd_Port:
 10653                           
 10654                           	psect	text40
 10655     1CB0                     __ptext40:	
 10656 ;; *************** function _interrupcao *****************
 10657 ;; Defined at:
 10658 ;;		line 158 in file "newmain.c"
 10659 ;; Parameters:    Size  Location     Type
 10660 ;;		None
 10661 ;; Auto vars:     Size  Location     Type
 10662 ;;		None
 10663 ;; Return value:  Size  Location     Type
 10664 ;;                  1    wreg      void 
 10665 ;; Registers used:
 10666 ;;		wreg, status,2, status,0
 10667 ;; Tracked objects:
 10668 ;;		On entry : 0/0
 10669 ;;		On exit  : 0/0
 10670 ;;		Unchanged: 0/0
 10671 ;; Data sizes:     COMMON   BANK0   BANK1   BANK3   BANK2
 10672 ;;      Params:         0       0       0       0       0
 10673 ;;      Locals:         0       0       0       0       0
 10674 ;;      Temps:          2       0       0       0       0
 10675 ;;      Totals:         2       0       0       0       0
 10676 ;;Total ram usage:        2 bytes
 10677 ;; Hardware stack levels used: 1
 10678 ;; This function calls:
 10679 ;;		Nothing
 10680 ;; This function is called by:
 10681 ;;		Interrupt level 1
 10682 ;; This function uses a non-reentrant model
 10683 ;;
 10684                           
 10685     1CB0                     _interrupcao:	
 10686                           ;psect for function _interrupcao
 10687                           
 10688     1CB0                     i1l2033:
 10689                           
 10690                           ;newmain.c: 160:     if(INTF){
 10691     1CB0  1C8B               	btfss	11,1	;volatile
 10692     1CB1  2CB3               	goto	u227_21
 10693     1CB2  2CB4               	goto	u227_20
 10694     1CB3                     u227_21:
 10695     1CB3  2CC2               	goto	i1l136
 10696     1CB4                     u227_20:
 10697     1CB4                     i1l2035:
 10698                           
 10699                           ;newmain.c: 161:         if(menu_ativo){
 10700     1CB4  087A               	movf	_menu_ativo,w
 10701     1CB5  047B               	iorwf	_menu_ativo+1,w
 10702     1CB6  1903               	btfsc	3,2
 10703     1CB7  2CB9               	goto	u228_21
 10704     1CB8  2CBA               	goto	u228_20
 10705     1CB9                     u228_21:
 10706     1CB9  2CBD               	goto	i1l2039
 10707     1CBA                     u228_20:
 10708     1CBA                     i1l2037:
 10709                           
 10710                           ;newmain.c: 162:             menu_ativo = 0;
 10711     1CBA  01FA               	clrf	_menu_ativo
 10712     1CBB  01FB               	clrf	_menu_ativo+1
 10713                           
 10714                           ;newmain.c: 163:         }
 10715     1CBC  2CC1               	goto	i1l2041
 10716     1CBD                     i1l2039:
 10717                           
 10718                           ;newmain.c: 165:         menu_ativo = 1;
 10719     1CBD  3001               	movlw	1
 10720     1CBE  00FA               	movwf	_menu_ativo
 10721     1CBF  3000               	movlw	0
 10722     1CC0  00FB               	movwf	_menu_ativo+1
 10723     1CC1                     i1l2041:
 10724                           
 10725                           ;newmain.c: 168:         INTCONbits.INTF = 0;
 10726     1CC1  108B               	bcf	11,1	;volatile
 10727     1CC2                     i1l136:
 10728     1CC2  0871               	movf	??_interrupcao+1,w
 10729     1CC3  008A               	movwf	10
 10730     1CC4  0E70               	swapf	??_interrupcao,w
 10731     1CC5  0083               	movwf	3
 10732     1CC6  0EFE               	swapf	btemp,f
 10733     1CC7  0E7E               	swapf	btemp,w
 10734     1CC8  0009               	retfie
 10735     1CC9                     __end_of_interrupcao:
 10736     007E                     btemp	set	126	;btemp
 10737     007E                     wtemp0	set	126
 10738                           
 10739                           	psect	intentry
 10740     0004                     __pintentry:	
 10741                           ;incstack = 0
 10742                           ; Regs used in _interrupcao: [wreg+status,2+status,0]
 10743                           
 10744     0004                     interrupt_function:
 10745     007E                     saved_w	set	btemp
 10746     0004  00FE               	movwf	btemp
 10747     0005  0E03               	swapf	3,w
 10748     0006  00F0               	movwf	??_interrupcao
 10749     0007  080A               	movf	10,w
 10750     0008  00F1               	movwf	??_interrupcao+1
 10751     0009  160A  158A  2CB0   	ljmp	_interrupcao

Data Sizes:
    Strings     37
    Constant    76
    Data        4
    BSS         8
    Persistent  0
    Stack       0

Auto Spaces:
    Space          Size  Autos    Used
    COMMON           14     10      12
    BANK0            80     79      79
    BANK1            80     76      78
    BANK3            96     81      89
    BANK2            96      0       0

Pointer List with Targets:

    frexp@eptr	PTR int  size(1) Largest target is 2
		 -> floor@expon(BANK1[2]), log@exponent(BANK1[2]), 

    eval_poly@d	PTR const  size(1) Largest target is 40
		 -> exp@coeff(CODE[40]), log@coeff(CODE[36]), 

    main@texto_menu	PTR unsigned char  size(1) Largest target is 13
		 -> STR_3(CODE[13]), 

    escreveLCD@linha2	PTR unsigned char  size(2) Largest target is 16
		 -> main@texto_luminosidade(BANK3[16]), STR_2(CODE[8]), 

    escreveLCD@linha1	PTR unsigned char  size(1) Largest target is 16
		 -> STR_3(CODE[13]), STR_1(CODE[16]), 

    intToASCIIinCustomBase@resultado	PTR unsigned char  size(1) Largest target is 16
		 -> main@texto_luminosidade(BANK3[16]), 

    Lcd_Write_String@a	PTR unsigned char  size(2) Largest target is 16
		 -> main@texto_luminosidade(BANK3[16]), STR_3(CODE[13]), STR_2(CODE[8]), STR_1(CODE[16]), 


Critical Paths under _main in COMMON

    _main->_escreveLCD
    _main->_intToASCIIinCustomBase
    _intToASCIIinCustomBase->___awmod
    _handleSetupMenu->_escreveLCD
    _escreveLCD->_Lcd_Write_String
    _Lcd_Write_String->_Lcd_Write_Char
    _Lcd_Write_Char->_Lcd_Port
    _Lcd_Set_Cursor->_Lcd_Cmd
    _Lcd_Clear->_Lcd_Cmd
    _converteVoltsParaLux->___fltol
    _pow->___flge
    _pow->___fltol
    _exp->___flge
    _exp->___fltol
    _ldexp->___flge
    _floor->___flge
    _floor->___fltol
    _log->___flge
    ___xxtofl->___fltol
    ___awdiv->___wmul
    _Lcd_Init->_Lcd_Cmd
    _Lcd_Cmd->_Lcd_Port

Critical Paths under _interrupcao in COMMON

    None.

Critical Paths under _main in BANK0

    _intToASCIIinCustomBase->___awdiv
    _handleSetupMenu->_escreveLCD
    _escreveLCD->_Lcd_Write_String
    _converteVoltsParaLux->___fladd
    _floor->___fladd
    ___flsub->___fladd
    ___fldiv->___fladd
    _log->___fladd
    _frexp->___fleq
    ___fleq->___xxtofl
    _eval_poly->___fladd
    ___flmul->_frexp
    ___fladd->___flmul
    _converteLeituraAnParaVolts->___xxtofl
    ___xxtofl->___awdiv

Critical Paths under _interrupcao in BANK0

    None.

Critical Paths under _main in BANK1

    _pow->_exp
    _exp->___fldiv
    _ldexp->_eval_poly
    _floor->___fladd
    ___flsub->_log10
    ___fldiv->___flsub
    _log10->_log
    _log->_eval_poly
    _eval_poly->___fladd

Critical Paths under _interrupcao in BANK1

    None.

Critical Paths under _main in BANK3

    _main->_converteVoltsParaLux
    _converteVoltsParaLux->_pow
    _pow->_exp

Critical Paths under _interrupcao in BANK3

    None.

Critical Paths under _main in BANK2

    None.

Critical Paths under _interrupcao in BANK2

    None.

Call Graph Tables:

 ---------------------------------------------------------------------------------
 (Depth) Function   	        Calls       Base Space   Used Autos Params    Refs
 ---------------------------------------------------------------------------------
 (0) _main                                                25    25      0  128561
                                             56 BANK3     25    25      0
                           _Lcd_Init
                          _configADC
                   _configIntExterns
                      _configPWMRegs
         _converteLeituraAnParaVolts
               _converteVoltsParaLux
                         _escreveLCD
                        _getValorADC
                    _handleSetupMenu
             _intToASCIIinCustomBase
 ---------------------------------------------------------------------------------
 (1) _intToASCIIinCustomBase                              18    13      5    2489
                                              8 COMMON     2     2      0
                                              8 BANK0     16    11      5
                            ___awdiv
                            ___awmod
 ---------------------------------------------------------------------------------
 (2) ___awmod                                              6     2      4     448
                                              2 COMMON     6     2      4
 ---------------------------------------------------------------------------------
 (1) _handleSetupMenu                                      0     0      0    1758
                         _escreveLCD
                    _verificaBtnMais
                   _verificaBtnMenos
 ---------------------------------------------------------------------------------
 (2) _verificaBtnMenos                                     0     0      0       0
 ---------------------------------------------------------------------------------
 (2) _verificaBtnMais                                      0     0      0       0
 ---------------------------------------------------------------------------------
 (2) _escreveLCD                                           5     3      2    1758
                                              9 COMMON     1     1      0
                                              5 BANK0      4     2      2
                          _Lcd_Clear
                     _Lcd_Set_Cursor
                   _Lcd_Write_String
 ---------------------------------------------------------------------------------
 (3) _Lcd_Write_String                                     7     5      2     564
                                              7 COMMON     2     0      2
                                              0 BANK0      5     5      0
                     _Lcd_Write_Char
 ---------------------------------------------------------------------------------
 (4) _Lcd_Write_Char                                       4     4      0     254
                                              3 COMMON     4     4      0
                           _Lcd_Port
 ---------------------------------------------------------------------------------
 (3) _Lcd_Set_Cursor                                       6     5      1     725
                                              6 COMMON     2     1      1
                                              0 BANK0      4     4      0
                            _Lcd_Cmd
 ---------------------------------------------------------------------------------
 (3) _Lcd_Clear                                            0     0      0     155
                            _Lcd_Cmd
 ---------------------------------------------------------------------------------
 (1) _getValorADC                                          6     4      2      23
                                              2 COMMON     6     4      2
 ---------------------------------------------------------------------------------
 (1) _converteVoltsParaLux                                28    24      4  120136
                                             28 BANK3     28    24      4
                            ___fladd
                            ___fldiv
                            ___flmul
                            ___flsub
                            ___fltol
                              _log10
                                _pow
 ---------------------------------------------------------------------------------
 (2) _pow                                                 21    13      8   73635
                                              7 BANK3     21    13      8
                             ___fleq
                             ___flge
                            ___flmul
                            ___flneg
                            ___fltol
                           ___xxtofl
                                _exp
                                _log
 ---------------------------------------------------------------------------------
 (3) _exp                                                 11     7      4   39011
                                             72 BANK1      4     0      4
                                              0 BANK3      7     7      0
                            ___fldiv
                             ___fleq
                             ___flge
                            ___flmul
                            ___flneg
                            ___flsub
                            ___fltol
                           ___xxtofl
                          _eval_poly
                              _floor
                              _ldexp
                                _log (ARG)
 ---------------------------------------------------------------------------------
 (4) _ldexp                                                8     2      6    3256
                                             24 BANK1      8     2      6
                             ___fleq
                             ___flge
                          _eval_poly (ARG)
 ---------------------------------------------------------------------------------
 (4) _floor                                               10     6      4    9443
                                              8 BANK1     10     6      4
                            ___fladd
                             ___flge
                            ___fltol
                           ___xxtofl
                              _frexp
 ---------------------------------------------------------------------------------
 (5) ___fltol                                             10     6      4     697
                                              2 COMMON     8     4      4
                                              0 BANK0      2     2      0
 ---------------------------------------------------------------------------------
 (4) ___flsub                                              8     0      8    4987
                                             38 BANK1      8     0      8
                            ___fladd
                            ___flmul (ARG)
                           ___xxtofl (ARG)
                              _log10 (ARG)
 ---------------------------------------------------------------------------------
 (4) ___flneg                                              4     0      4     273
                                              2 COMMON     4     0      4
 ---------------------------------------------------------------------------------
 (4) ___fldiv                                             26    18      8    1577
                                             46 BANK1     26    18      8
                            ___fladd (ARG)
                            ___flmul (ARG)
                            ___flsub (ARG)
                              _log10 (ARG)
 ---------------------------------------------------------------------------------
 (2) _log10                                                8     4      4   29824
                                             30 BANK1      8     4      4
                            ___flmul
                                _log
 ---------------------------------------------------------------------------------
 (3) _log                                                  6     2      4   24606
                                             24 BANK1      6     2      4
                            ___fladd
                             ___fleq
                             ___flge
                            ___flmul
                           ___xxtofl
                          _eval_poly
                              _frexp
 ---------------------------------------------------------------------------------
 (4) _frexp                                                7     2      5    1834
                                             34 BANK0      7     2      5
                             ___fleq
 ---------------------------------------------------------------------------------
 (5) ___fleq                                              12     4      8    1306
                                             22 BANK0     12     4      8
                           ___xxtofl (ARG)
 ---------------------------------------------------------------------------------
 (4) _eval_poly                                           16     9      7    9789
                                              8 BANK1     16     9      7
                            ___fladd
                            ___flmul
 ---------------------------------------------------------------------------------
 (5) ___flmul                                             26    18      8    4793
                                             41 BANK0     26    18      8
                          __Umul8_16
                           ___xxtofl (ARG)
                              _frexp (ARG)
 ---------------------------------------------------------------------------------
 (6) __Umul8_16                                            9     7      2     980
                                              2 COMMON     4     2      2
                                              0 BANK0      5     5      0
 ---------------------------------------------------------------------------------
 (5) ___fladd                                             20    12      8    4202
                                             67 BANK0     12     4      8
                                              0 BANK1      8     8      0
                            ___flmul (ARG)
                           ___xxtofl (ARG)
                              _frexp (ARG)
 ---------------------------------------------------------------------------------
 (4) ___flge                                              12     4      8    1550
                                              2 COMMON     8     0      8
                                              0 BANK0      4     4      0
 ---------------------------------------------------------------------------------
 (1) _converteLeituraAnParaVolts                           4     0      4    1872
                                             22 BANK0      4     0      4
                            ___awdiv
                             ___wmul
                           ___xxtofl
 ---------------------------------------------------------------------------------
 (4) ___xxtofl                                            14    10      4     702
                                              8 BANK0     14    10      4
                            ___awdiv (ARG)
                            ___fltol (ARG)
                             ___wmul (ARG)
 ---------------------------------------------------------------------------------
 (2) ___wmul                                               6     2      4     244
                                              2 COMMON     6     2      4
 ---------------------------------------------------------------------------------
 (2) ___awdiv                                              8     4      4     805
                                              0 BANK0      8     4      4
                             ___wmul (ARG)
 ---------------------------------------------------------------------------------
 (1) _configPWMRegs                                        0     0      0       0
 ---------------------------------------------------------------------------------
 (1) _configIntExterns                                     0     0      0       0
 ---------------------------------------------------------------------------------
 (1) _configADC                                            0     0      0       0
 ---------------------------------------------------------------------------------
 (1) _Lcd_Init                                             2     2      0     279
                                              6 COMMON     2     2      0
                            _Lcd_Cmd
                           _Lcd_Port
 ---------------------------------------------------------------------------------
 (4) _Lcd_Cmd                                              3     3      0     155
                                              3 COMMON     3     3      0
                           _Lcd_Port
 ---------------------------------------------------------------------------------
 (5) _Lcd_Port                                             1     1      0     124
                                              2 COMMON     1     1      0
 ---------------------------------------------------------------------------------
 Estimated maximum stack depth 6
 ---------------------------------------------------------------------------------
 (Depth) Function   	        Calls       Base Space   Used Autos Params    Refs
 ---------------------------------------------------------------------------------
 (7) _interrupcao                                          2     2      0       0
                                              0 COMMON     2     2      0
 ---------------------------------------------------------------------------------
 Estimated maximum stack depth 7
 ---------------------------------------------------------------------------------

 Call Graph Graphs:

 _main (ROOT)
   _Lcd_Init
     _Lcd_Cmd
       _Lcd_Port
     _Lcd_Port
   _configADC
   _configIntExterns
   _configPWMRegs
   _converteLeituraAnParaVolts
     ___awdiv
       ___wmul (ARG)
     ___wmul
     ___xxtofl
       ___awdiv (ARG)
       ___fltol (ARG)
       ___wmul (ARG)
   _converteVoltsParaLux
     ___fladd
       ___flmul (ARG)
         __Umul8_16
         ___xxtofl (ARG)
         _frexp (ARG)
           ___fleq
             ___xxtofl (ARG)
       ___xxtofl (ARG)
       _frexp (ARG)
     ___fldiv
       ___fladd (ARG)
       ___flmul (ARG)
       ___flsub (ARG)
         ___fladd
         ___flmul (ARG)
         ___xxtofl (ARG)
         _log10 (ARG)
           ___flmul
           _log
             ___fladd
             ___fleq
             ___flge
             ___flmul
             ___xxtofl
             _eval_poly
               ___fladd
               ___flmul
             _frexp
       _log10 (ARG)
     ___flmul
     ___flsub
     ___fltol
     _log10
     _pow
       ___fleq
       ___flge
       ___flmul
       ___flneg
       ___fltol
       ___xxtofl
       _exp
         ___fldiv
         ___fleq
         ___flge
         ___flmul
         ___flneg
         ___flsub
         ___fltol
         ___xxtofl
         _eval_poly
         _floor
           ___fladd
           ___flge
           ___fltol
           ___xxtofl
           _frexp
         _ldexp
           ___fleq
           ___flge
           _eval_poly (ARG)
         _log (ARG)
       _log
   _escreveLCD
     _Lcd_Clear
       _Lcd_Cmd
     _Lcd_Set_Cursor
       _Lcd_Cmd
     _Lcd_Write_String
       _Lcd_Write_Char
         _Lcd_Port
   _getValorADC
   _handleSetupMenu
     _escreveLCD
     _verificaBtnMais
     _verificaBtnMenos
   _intToASCIIinCustomBase
     ___awdiv
     ___awmod

 _interrupcao (ROOT)

 Address spaces:
Name               Size   Autos  Total    Cost      Usage
BANK3               60     51      59       9       92.7%
BITBANK3            60      0       0       8        0.0%
SFR3                 0      0       0       4        0.0%
BITSFR3              0      0       0       4        0.0%
BANK2               60      0       0      11        0.0%
BITBANK2            60      0       0      10        0.0%
SFR2                 0      0       0       5        0.0%
BITSFR2              0      0       0       5        0.0%
BANK1               50     4C      4E       7       97.5%
BITBANK1            50      0       0       6        0.0%
SFR1                 0      0       0       2        0.0%
BITSFR1              0      0       0       2        0.0%
BANK0               50     4F      4F       5       98.8%
BITBANK0            50      0       0       4        0.0%
SFR0                 0      0       0       1        0.0%
BITSFR0              0      0       0       1        0.0%
COMMON               E      A       C       1       85.7%
BITCOMMON            E      0       0       0        0.0%
CODE                 0      0       0       0        0.0%
DATA                 0      0     102      12        0.0%
ABS                  0      0     102       3        0.0%
NULL                 0      0       0       0        0.0%
STACK                0      0       0       2        0.0%
EEDATA             100      0       0       0        0.0%


Microchip Technology PIC Macro Assembler V2.41 build 20230208172133 
Symbol Table                                                                                   Sun Jun 25 14:26:44 2023

                      ___fldiv@aexp 00E7                        ___fldiv@bexp 00E6  
                                 pc 0002                        ___fldiv@sign 00DF  
                  getValorADC@valor 0076                                  l41 1D0A  
                                l42 1D0D                                  l43 1D13  
                                l44 1D14                                  l52 1CE2  
                                l45 1D1A                                  l61 07FF  
                                l46 1D1B                                  l47 1D21  
                                l55 1C75                                  l64 1164  
                                l49 1D22                                  l73 1EAD  
                                l67 1D7A                                  l92 1CAF  
                                l95 1C98                                  l99 1556  
                      ___awdiv@sign 0025                                  fsr 0004  
               ___wmul@multiplicand 0074                 __Umul8_16@word_mpld 0022  
                               l112 1C83                                 l120 1E29  
                               l115 1E1F                                 l123 1E5D  
                               l151 1DEB                                 l128 1E67  
                               l401 086D                                 l145 1D00  
                               l250 1D47                                 l154 0FFF  
                               l139 1DB1                                 l148 1C5D  
                               l422 1293                                 l430 1C68  
                               l414 1FFF                                 l248 1D2F  
                               l425 12FF                                 l417 1ECC  
                               l441 11C7                                 l426 1318  
                               l418 1EE8                                 l434 11DC  
                               l419 1EFD                                 l444 11DC  
                               l541 03E1                                 l613 1779  
                               l720 1630                                 l712 1FA6  
                               l545 0476                                 l562 057F  
                               l554 0657                                 l730 1492  
                               l547 0443                                 l643 02ED  
                               l619 17EB                                 l572 05CD  
                               l708 07B3                                 l637 037D  
                               l566 05AB                                 l726 1107  
                               l751 0B65                                 l584 0657  
                               l656 1099                                 l681 133D  
                               l658 10AB                                 l746 09B0  
                               l683 13D2                                 l587 1F4D  
                               l747 0B65                                 l597 1687  
                               l765 0D80                                 l694 139C  
                               l695 13A8                                 l599 17FF  
                               l777 0964                                 l769 0D80  
                               _PR2 0092                                 _exp 0B66  
                               _log 0658                                 _pow 0965  
                               fsr0 0004                                 indf 0000  
                      ___awmod@sign 0077                        ___flmul@aexp 0057  
                      ___flmul@bexp 005C                        ___flmul@sign 0056  
                      ___flmul@temp 0061                        ___flmul@prod 005D  
                      ___fltol@exp1 0021                                l2121 12A7  
                              l2131 1315                                l2123 12AF  
                              l2133 1317                                l2125 12B3  
                              l2117 1275                                l3101 1FB7  
                              l2127 12D7                                l2119 128B  
                              l3111 1FD0                                l3103 1FBC  
                              l3041 1D3D                                l3033 1D23  
                              l2129 12DB                                l2081 1EAE  
                              l4001 1CE3                                l3113 1FD4  
                              l3105 1FC2                                l3121 1FF1  
                              l3203 1C76                                l3043 1D43  
                              l3035 1D25                                l2083 1EC4  
                              l4003 1CE4                                l3123 1FF6  
                              l3115 1FDE                                l3107 1FC5  
                              l3141 1CA7                                l3205 1C82  
                              l3037 1D29                                l2085 1EE0  
                              l3301 118C                                l4021 0FA1  
                              l4013 0D81                                l4005 1CEE  
                              l3125 1FFB                                l3117 1FE4  
                              l3109 1FCC                                l3143 1CAB  
                              l3215 1C57                                l3039 1D36  
                              l2087 1EFA                                l3303 118D  
                              l4023 0FEC                                l4015 0E0C  
                              l3151 1C84                                l4007 1CFA  
                              l3119 1FEB                                l4031 11DD  
                              l3145 1CAC                                l2521 1325  
                              l4009 1DB2                                l3401 0405  
                              l2089 1EFC                                l3305 1195  
                              l4017 0E59                                l3153 1C87  
                              l4041 11F0                                l4033 11E0  
                              l3147 1CAD                                l3139 1C99  
                              l2531 1351                                l2523 1335  
                              l3411 040E                                l3403 0407  
                              l3331 037E                                l3315 11A3  
                              l3307 1197                                l4019 0F3B  
                              l3091 1FA7                                l4051 1230  
                              l4043 11F5                                l4035 11E1  
                              l3149 1CAE                                l2541 1377  
                              l2533 1355                                l2525 1345  
                              l2517 131C                                l3501 05D7  
                              l3421 0458                                l3413 042B  
                              l3405 0409                                l3341 0395  
                              l3333 0383                                l2701 16FE  
                              l3325 11BC                                l3317 11AC  
                              l3309 119B                                l3093 1FA8  
                              l4053 1243                                l4045 11F9  
                              l4037 11E3                                l2551 13A0  
                              l2543 1380                                l2535 135E  
                              l2519 1321                                l3511 062C  
                              l3503 05E5                                l3431 047F  
                              l3423 0459                                l3415 0447  
                              l3407 040B                                l3351 03AD  
                              l3343 039A                                l3335 038B  
                              l3271 1088                                l2703 1707  
                              l2711 172C                                l2631 1636  
                              l2615 1C5E                                l3327 11CC  
                              l3319 11B5                                l3095 1FAC  
                              l4055 1248                                l4047 11FE  
                              l4039 11E8                                l2561 13CA  
                              l2553 13AA                                l2545 1387  
                              l2537 1365                                l2529 134E  
                              l3521 0643                                l3513 0631  
                              l3505 05E9                                l3441 04A7  
                              l3425 0468                                l3417 0452  
                              l3409 040D                                l3361 03C3  
                              l3353 03B0                                l3345 03A2  
                              l3337 038F                                l3273 108F  
                              l3601 01CA                                l2721 1749  
                              l2713 1732                                l2705 1719  
                              l2641 1649                                l2633 163A  
                              l2617 1C66                                l3329 11D1  
                              l2801 1436                                l3097 1FB1  
                              l4057 124C                                l4049 1209  
                              l3291 1D1F                                l3283 1D02  
                              l2555 13C0                                l2547 1392  
                              l2539 1369                                l3523 0645  
                              l3515 0639                                l3507 0623  
                              l3451 04C8                                l3443 04B2  
                              l3435 0488                                l3419 0454  
                              l3427 046E                                l3371 03D7  
                              l3363 03C4                                l3355 03B6  
                              l3347 03A3                                l3339 0390  
                              l3275 1093                                l3611 0271  
                              l3603 01E7                                l3531 0039  
                              l2731 175E                                l2723 174A  
                              l2715 173A                                l2707 171A  
                              l2651 1661                                l2643 1651  
                              l2635 163E                                l2619 1C68  
                              l2803 1443                                l3099 1FB3  
                              l4059 1263                                l3285 1D06  
                              l2557 13C5                                l2549 1396  
                              l3525 0649                                l3517 063E  
                              l3509 0627                                l3461 055D  
                              l3445 04B4                                l3437 049F  
                              l3429 047A                                l3453 04CF  
                              l3381 03F1                                l3365 03C9  
                              l3373 03D9                                l3357 03B7  
                              l3349 03A5                                l3277 10A2  
                              l3269 1086                                l3621 02BD  
                              l3613 0299                                l3605 0212  
                              l3541 004C                                l3533 003E  
                              l2581 1107                                l2573 10D8  
                              l2565 10AC                                l2741 1783  
                              l2733 1762                                l2725 1753  
                              l2717 173C                                l2709 1728  
                              l2661 1674                                l2653 1665  
                              l2645 1652                                l2637 163F  
                              l2629 1631                                l3293 1165  
                              l2813 146F                                l2805 1449  
                              l3701 1D77                                l3287 1D11  
                              l2559 13C9                                l3527 0652  
                              l3519 063F                                l3463 0562  
                              l3455 04E5                                l3447 04B8  
                              l3439 04A3                                l3391 03FB  
                              l3383 03F3                                l3375 03E7  
                              l3367 03CE                                l3359 03BF  
                              l3279 10A7                                l3631 02D2  
                              l3623 02BE                                l3615 02A2  
                              l3607 0220                                l3551 0068  
                              l3543 0051                                l3535 0042  
                              l3711 1586                                l2575 10F5  
                              l2567 10C7                                l2751 17C1  
                              l2743 1791                                l2735 1776  
                              l2719 1745                                l2727 1759  
                              l2671 169B                                l2663 167C  
                              l2655 1669                                l2639 1644  
                              l2647 1654                                l3703 1EFE  
                              l3295 1170                                l2807 1464  
                              l3289 1D18                                l3529 0656  
                              l3481 05B2                                l3473 0595  
                              l3457 0557                                l3465 0571  
                              l3449 04B9                                l3393 03FD  
                              l3385 03F5                                l3377 03EB  
                              l3369 03D6                                l3641 02F7  
                              l3633 02D6                                l3625 02C7  
                              l3617 02B0                                l3609 024B  
                              l3561 007B                                l3553 006C  
                              l3545 0059                                l3537 0046  
                              l3713 1622                                l2577 1102  
                              l2569 10CF                                l2761 17EF  
                              l2753 17CF                                l2745 1795  
                              l2729 175D                                l2673 169F  
                              l2665 167D                                l2657 166A  
                              l2649 165C                                l3705 1F02  
                              l3721 088D                                l2817 147A  
                              l3801 0B66                                l3491 05C0  
                              l3483 05B4                                l3475 05A4  
                              l3467 0587                                l3459 055B  
                              l3395 03FF                                l3387 03F7  
                              l3379 03EF                                l3651 0335  
                              l3643 0305                                l3635 02EA  
                              l3619 02B9                                l3627 02CD  
                              l3571 0097                                l3563 0083  
                              l3555 0070                                l3547 005B  
                              l3539 0047                                l3715 1628  
                              l2579 1106                                l2763 17F3  
                              l2755 17DE                                l2747 17AE  
                              l2739 177E                                l2691 16E0  
                              l2683 16B6                                l2659 166F  
                              l2667 167F                                l3299 1179  
                              l3723 0893                                l2819 1492  
                              l3803 0B8F                                l3901 0805  
                              l3493 05C4                                l3485 05B9  
                              l3477 05AA                                l3469 058C  
                              l3397 0401                                l3389 03F9  
                              l3661 0367                                l3653 0340  
                              l3645 0309                                l3629 02D1  
                              l3581 00D6                                l3565 0085  
                              l3557 0071                                l3549 0063  
                              l3709 1557                                l2765 17F5  
                              l2757 17E2                                l2749 17B4  
                              l2693 16E2                                l2685 16C8  
                              l2669 168F                                l2677 16A8  
                              l3741 091A                                l3725 08AC  
                              l3733 08C2                                l3821 0C12  
                              l3813 0BC6                                l3911 0817  
                              l3903 0808                                l3495 05CA  
                              l3479 05AF                                l3487 05BB  
                              l3399 0403                                l3663 036B  
                              l3655 034F                                l3647 0322  
                              l3639 02F2                                l3591 015D  
                              l3583 00F2                                l3575 00A0  
                              l3567 008D                                l3559 0076  
                              l2767 17F9                                l2759 17EA  
                              l2695 16E7                                l2687 16D0  
                              l2679 16AD                                l3735 08CB  
                              l3719 086E                                l2791 1407  
                              l3831 0CA7                                l3823 0C17  
                              l3815 0BE1                                l3807 0B9A  
                              l3751 07B7                                l2951 1DEC  
                              l3681 1CDF                                l3673 1CCA  
                              l3921 082B                                l3913 081C  
                              l3905 080C                                l3489 05BF  
                              l3665 036C                                l3657 0359  
                              l3649 0328                                l3593 016B  
                              l3585 011C                                l3577 00AE  
                              l3569 0092                                l2697 16F9  
                              l2689 16D8                                l3745 095A  
                              l3737 08CC                                l3729 08B7  
                              l2793 1421                                l2785 13D3  
                              l3833 0CEB                                l3825 0C30  
                              l3809 0BB5                                l3753 07BC  
                              l3761 07DB                                l2961 1E18  
                              l2953 1DF4                                l3675 1CCD  
                              l3931 0851                                l3923 0832  
                              l3915 0820                                l3907 0811  
                              l3499 05D2                                l3659 035B  
                              l3667 0371                                l3595 0188  
                              l3587 0138                                l3579 00BB  
                              l2699 16FD                                l3739 0901  
                              l2795 1425                                l2787 13FC  
                              l3843 0D5E                                l3835 0D23  
                              l3827 0C6F                                l3819 0BF2  
                              l3763 07E1                                l3755 07C9  
                              l3691 1D63                                l3683 1D49  
                              l3771 1E68                                l3851 1D94  
                              l2963 1E25                                l2955 1DFA  
                              l2971 1E3E                                l3677 1CD3  
                              l3941 0869                                l3933 0852  
                              l3925 0836                                l3917 0822  
                              l3909 0813                                l3669 0375  
                              l3597 0196                                l3589 0154  
                              l3781 0673                                l3837 0D2A  
                              l3829 0C94                                l3861 0965  
                              l3749 1C69                                l3765 07EE  
                              l3757 07CC                                l3693 1D67  
                              l3685 1D4F                                l3773 1E6D  
                              l3853 1DA7                                l2957 1E00  
                              l2973 1E4D                                l2965 1E2A  
                              l3679 1CD6                                l3951 1125  
                              l3935 0859                                l3927 083A  
                              l3919 0828                                l3599 01B3  
                              l3791 06BE                                l3855 1F4E  
                              l3839 0D53                                l3871 09BB  
                              l3863 0968                                l3767 07F1  
                              l3759 07D2                                l3695 1D6A  
                              l3687 1D52                                l3775 1E89  
                              l3847 1D7C                                l2959 1E0F  
                              l2975 1E56                                l2967 1E32  
                              l3953 112B                                l3945 1108  
                              l3929 084B                                l3937 085F  
                              l3793 0725                                l3785 0684  
                              l3857 1F67                                l3881 0A6A  
                              l3873 09E4                                l3865 098F  
                              l3769 07F7                                l3697 1D70  
                              l3689 1D60                                l3777 1E91  
                              l3849 1D89                                l2977 1E63  
                              l2969 1E38                                l3961 14A2  
                              l3947 110E                                l3939 0864  
                              l3795 072B                                l3787 06AD  
                              l3779 0658                                l3891 0ACA  
                              l3867 09AA                                l3699 1D73  
                              l3971 14CF                                l3963 14A8  
                              l3955 1493                                ?_exp 00E8  
                              l3949 1117                                l3797 0748  
                              l3893 0B15                                l3885 0A79  
                              l3877 09EF                                l3973 14DA  
                              l3981 1505                                l3957 1497  
                              ?_log 00B8                                l3895 0B48  
                              l3887 0A7E                                l3879 0A0A  
                              l3991 1527                                l3983 150B  
                              l3975 14E4                                l3967 14AF  
                              l3959 149D                                l3897 0B4D  
                              l3889 0A95                                l3993 1535  
                              l3985 1512                                l3977 14EC  
                              l3969 14C2                                l3995 153C  
                              l3987 1514                                l3979 14F2  
                              l3997 1542                                l3989 151D  
                              l3999 1548                                ?_pow 0197  
                              STR_1 105C                                STR_2 1079  
                              STR_3 106C                                u2300 1EE0  
                              u2301 1EDF                                u2310 1EFA  
                              u2311 1EF9                                u2400 12A7  
                              u2401 12A6                                u2410 12B3  
                              u2411 12B2                                u2315 1EF6  
                              u2421 12C2                                u2430 12DB  
                              u2422 12C3                                u2431 12DA  
                              u2423 12C8                                u3400 1325  
                              u2424 12C9                                u5000 058C  
                              u4200 1E63                                u3401 1324  
                              u2441 12EA                                u2425 12CE  
                              u5001 058B                                u4201 1E62  
                              u3410 1345                                u2450 1315  
                              u2442 12EB                                u2426 12CF  
                              u2290 1EC4                                u4130 1DF4  
                              u3411 1344                                u2451 1314  
                              u2443 12F0                                u2291 1EC3  
                              u4131 1DF3                                u4300 1D43  
                              u3500 13B5                                u2444 12F1  
                              u5100 05E9                                u5020 05AA  
                              u4140 1DFA                                u4301 1D42  
                              u2445 12F6                                u5101 05E8  
                              u5021 05A9                                u4141 1DF9  
                              u3510 13C5                                u3430 1364  
                              u2446 12F7                                u2390 128B  
                              u5110 0606                                u5030 05AF  
                              u4150 1E0F                                u3511 13C4  
                              u3431 1363                                u2455 1311  
                              u2391 128A                                u5031 05AE  
                              u5015 0599                                u4151 1E0E  
                              u3520 13C9                                u5120 0623  
                              u5040 05B9                                u5200 0051  
                              u3600 166F                                u4160 1E25  
                              u6000 1D00                                u3521 13C8  
                              u3505 13B0                                u3425 1356  
                              u5121 0622                                u5041 05B8  
                              u5201 0050                                u3601 166E  
                              u4161 1E24                                u6001 1CFF  
                              u3450 1386                                u5130 062C  
                              u5050 05BF                                u5210 0070  
                              u3530 10C7                                u3610 1674  
                              u4170 1E32                                u4410 1FAC  
                              u3451 1385                                u5131 062B  
                              u5115 0601                                u5051 05BE  
                              u5211 006F                                u3531 10C6  
                              u3611 1673                                u4155 1E0B  
                              u4171 1E31                                u4411 1FAB  
                              u5140 0631                                u5060 05C4  
                              u5220 0076                                u3700 1732  
                              u3620 168F                                u4180 1E38  
                              u4420 1FB7                                u3445 1378  
                              u5141 0630                                u5061 05C3  
                              u5221 0075                                u3701 1731  
                              u3621 168E                                u4181 1E37  
                              u4421 1FB6                                u4270 1D29  
                              u3470 1396                                u3390 1321  
                              u5150 063E                                u5070 05CA  
                              u5230 007B                                u3710 173A  
                              u3630 16AD                                u3550 1C66  
                              u4190 1E4D                                u4430 1FC2  
                              u4271 1D28                                u3471 1395  
                              u3391 1320                                u5151 063D  
                              u5071 05C9                                u5311 017A  
                              u5231 007A                                u3711 1739  
                              u3631 16AC                                u3551 1C65  
                              u4191 1E4C                                u4431 1FC1  
                              u4600 1D18                                u3480 139C  
                              u5160 0643                                u5080 05D1  
                              u5312 0181                                u5240 0092  
                              u3800 1795                                u3640 16E7  
                              u3560 163E                                u4601 1D17  
                              u3481 139B                                u3465 138B  
                              u5161 0642                                u5081 05D0  
                              u5401 028B                                u5321 01A5  
                              u5313 0188                                u5305 0156  
                              u5241 0091                                u3801 1794  
                              u3641 16E6                                u3561 163D  
                              u6017 1DAD                                u4610 1D1F  
                              u3490 13A0                                u5170 0656  
                              u5090 05D7                                u5402 0292  
                              u5322 01AC                                u5250 0097  
                              u3810 17A4                                u3730 1749  
                              u3570 1644                                u4450 1FD4  
                              u4611 1D1E                                u3491 139F  
                              u5171 0655                                u5091 05D6  
                              u5403 0299                                u5323 01B3  
                              u5251 0096                                u3731 1748  
                              u3571 1643                                u6027 1D65  
                              u4195 1E49                                u4451 1FD3  
                              u5500 0309                                u5180 0046  
                              u3820 17C1                                u3580 1649  
                              u4700 11CC                                u4620 1170  
                              u3900 1443                                u4460 1FDE  
                              u4285 1D30                                u5501 0308  
                              u5341 01D9                                u5261 00E4  
                              u5181 0045                                u3821 17C0  
                              u3725 173E                                u3581 1648  
                              u4701 11CB                                u4621 116F  
                              u3901 1442                                u6037 1D75  
                              u4461 1FDD                                u4445 1FC6  
                              u4550 1093                                u5510 0318  
                              u5430 02BD                                u5342 01E0  
                              u5262 00EB                                u5190 004C  
                              u3830 17DE                                u3750 175D  
                              u3670 16FD                                u3590 1669  
                              u4710 11D1                                u4630 1187  
                              u3910 1464                                _INTF 0059  
                              u4295 1D37                                u4551 1092  
                              u5431 02BC                                u5415 029B  
                              u5351 0204                                u5343 01E7  
                              u5335 01B5                                u5271 0100  
                              u5263 00F2                                u5191 004B  
                              u3831 17DD                                u3815 179F  
                              u3751 175C                                u3671 16FC  
                              u3655 16E9                                u3591 1668  
                              u4711 11D0                                u3911 1463  
                              u6047 1C89                                u4800 03EB  
                              u4720 038F                                u5520 0335  
                              u5352 020B                                u5272 0107  
                              u3840 17F3                                u3760 1762  
                              u4640 119B                                u5600 08AC  
                              u4480 1FF1                                u6057 1112  
                              u4801 03EA                                u4721 038E  
                              u5521 0334                                u5425 02B2  
                              u5361 022F                                u5353 0212  
                              u5281 012A                                u5273 010E  
                              u3841 17F2                                u3825 17BD  
                              u3761 1761                                u3745 174C  
                              u3665 16F2                                u4641 119A  
                              u5601 08AB                                u3905 143F  
                              u4481 1FF0                                u4465 1FDA  
                              u4810 042B                                u4730 0395  
                              u4570 10A7                                u5530 034F  
                              u5450 02D1                                u5370 0257  
                              u5362 0236                                u5282 0131  
                              u3770 1776                                u3690 1719  
                              u4650 11A2                                u5610 08CB  
                              u4490 1FF6                                u6067 1121  
                              u4811 042A                                u4731 0394  
                              u4571 10A6                                u5531 034E  
                              u5515 0313                                u5451 02D0  
                              u5363 023D                                u5291 0146  
                              u5283 0138                                u3835 17DA  
                              u3771 1775                                u3691 1718  
                              u4651 11A1                                u4635 1182  
                              u5611 08CA                                u4491 1FF5  
                              u4475 1FE5                                u4580 1D06  
                              u4820 0436                                u4740 039A  
                              u5540 036B                                u5460 02D6  
                              u5292 014D                                u5700 0673  
                              u3780 177D                                u5620 091A  
                              u4581 1D05                                u6077 112F  
                              u4901 0491                                u4821 0434  
                              u4741 0399                                u4565 109A  
                              u5541 036A                                u5525 0331  
                              u5461 02D5                                u5445 02C0  
                              u5381 0263                                u5293 0154  
                              u5701 0672                                u3781 177C  
                              u3685 1700                                u5621 0919  
                              u4590 1D11                                u4910 04A3  
                              u4902 0498                                u4830 0437  
                              u4750 03B6                                u5470 02EA  
                              u5390 027F                                u5382 026A  
                              u5710 06AD                                u3790 1783  
                              u4670 11B4                                u5630 07BC  
                              u4591 1D10                                u6087 1CDA  
                              u4911 04A2                                u4903 049F  
                              u4815 0427                                u4751 03B5  
                              u5535 034B                                u5471 02E9  
                              u5383 0271                                u5375 0252  
                              u5711 06AC                                u3791 1782  
                              u3695 1715                                u4671 11B3  
                              u5631 07BB                                u4920 04A7  
                              u4840 0447                                u4760 03C3  
                              u5480 02F1                                u4680 11BB  
                              u3880 13FC                                u5720 0B8F  
                              u5800 098F                                u4921 04A6  
                              u4841 0446                                u4761 03C2  
                              u5481 02F0                                u4681 11BA  
                              u4665 11A4                                u3881 13FB  
                              u5721 0B8E                                u5801 098E  
                              u4930 04B8                                u4850 0458  
                              u4770 03C9                                u5490 02F7  
                              u3890 1425                                u5730 0BB5  
                              u5810 09AA                                u5650 07E1  
                              u4931 04B7                                u4851 0457  
                              u4771 03C8                                u5491 02F6  
                              u5395 027A                                u3891 1424  
                              u5731 0BB4                                u5811 09A9  
                              u5651 07E0                                u5555 1D55  
                              u5900 083A                                u4780 03CE  
                              u5580 1628                                u5740 0BE1  
                              u5820 09E4                                u5901 0839  
                              u4781 03CD                                u5581 1627  
                              u5565 155C                                u5741 0BE0  
                              u5821 09E3                                u5645 07C2  
                  ?_verificaBtnMais 0070                                u4950 04E5  
                              u4870 0476                                u4790 03E7  
                              u5590 0893                                u5750 0C0E  
                              u5830 0A0A                                u5670 1E77  
                              u4951 04E4                                u4871 0475  
                              u4791 03E6                                u5575 158F  
                              u4695 11BE                                u5591 0892  
                              u5751 0C0C                                u5831 0A09  
                              u5920 084B                                u4880 047A  
                              u5760 0C0F                                u5840 0A6A  
                              u5680 1E9B                                u5921 084A  
                              u4961 0514                                u4953 04E1  
                              u4945 04BD                                u4881 0479  
                              u4865 045D                                u5841 0A69  
                              u5665 07E7                                u4970 0536  
                              u4962 0517                                u4890 047F  
                              u5770 0C17                                u5850 0B4D  
                              u5690 1EAD                                u5915 083B  
                              u4971 0537                                u4963 051E  
                              u4891 047E                                u5771 0C16  
                              u5851 0B4C                                u5691 1EAC  
                              u5940 085F                                u5860 080C  
                              u4980 0562                                u4972 053C  
                              u4964 0521                                u5780 0D2A  
                              u5941 085E                                u5925 0847  
                              u5861 080B                                u4981 0561  
                              u4973 053D                                u4965 0528  
                              u5781 0D29                                u5950 0864  
                              u5870 0817                                u4990 0587  
                              u4966 052B                                u5790 0D53  
                              u5951 0863                                u5935 0853  
                              u5871 0816                                u4991 0586  
                              u5791 0D52                                u5880 0828  
                              u5960 149D                                u5881 0827  
                              u5961 149C                                u5970 14CF  
                              u5971 14CE                                u5980 150B  
                              u5981 150A                                u5990 1556  
                              u5895 082C                                u5991 1555  
                              u5975 14CB                                u5995 1552  
                       main@leitura 01DC                   ?_Lcd_Write_String 0077  
                              _main 11DD                                btemp 007E  
                              exp@x 00E8                                log@x 00B8  
                              pow@x 0197                                pow@y 019B  
                              start 000C                  ??_Lcd_Write_String 0020  
                   ___fldiv@new_exp 00E0                     __end_of_Lcd_Cmd 1CE3  
           intToASCIIinCustomBase@i 0032             intToASCIIinCustomBase@j 0034  
                             ??_exp 007A                               ??_log 007A  
                             ??_pow 007A                     ??_configPWMRegs 0072  
            main@luminosidade_atual 01DE                     _handleSetupMenu 1CE3  
                     ___fltol@sign1 0020                     __end_of___fladd 0658  
                             ?_main 0070                     __end_of___fldiv 1800  
                   __end_of___awdiv 086E                     __end_of___flneg 1C69  
                   __end_of___awmod 2000                     __end_of___flmul 037E  
                   __end_of___flsub 1F4E                     __end_of___fltol 11DD  
                   ___awdiv@divisor 0020                               i1l136 1CC2  
                   ___awdiv@counter 0024                   ?_verificaBtnMenos 0070  
                             _TRISB 0086                               _TRISC 0087  
                             _TRISD 0088                  ??_verificaBtnMenos 0072  
                             _log10 1F4E                               _floor 086E  
                             _ldexp 13D3                               _frexp 10AC  
                             _errno 01E1                               pclath 000A  
                             pow@yi 01A8                               status 0003  
                             wtemp0 007E                         exp@exponent 0194  
                  __end_of_Lcd_Init 1165                    __end_of_Lcd_Port 1D23  
                       ldexp@newexp 00BC             ?_intToASCIIinCustomBase 0028  
                   __initialization 000F                        ?_interrupcao 0070  
                       log@exponent 00BC                        __end_of_main 1275  
                            ??_main 007A                              ?_log10 00BE  
                            ?_floor 00A8                              ?_ldexp 00B8  
                            ?_frexp 0042                              _ADRESH 001E  
                            _ADRESL 009E                              _CCPR1L 0015  
                  ___awdiv@dividend 0022                              i1l2041 1CC1  
                            i1l2033 1CB0                              i1l2035 1CB4  
                            i1l2037 1CBA                              i1l2039 1CBD  
                            u227_20 1CB4                              u227_21 1CB3  
                            u228_20 1CBA                              u228_21 1CB9  
                         ??_Lcd_Cmd 0073                              _TMR2ON 0092  
            main@texto_luminosidade 01C8                    __end_of___xxtofl 13D3  
    __end_of_intToASCIIinCustomBase 1557             __end_of_handleSetupMenu 1D01  
                            ___flge 1275                              ___fleq 1EAE  
                         ??___fladd 00A0                              ___wmul 1D23  
                         ??___fldiv 00D6                           ??___awdiv 0078  
                         ??___flneg 0076                           ??___awmod 0076  
                         ??___flmul 0051                           ??___flsub 007A  
                         ??___fltol 0076         ?_converteLeituraAnParaVolts 0036  
                  ___awdiv@quotient 0026                              log10@x 00BE  
                   ___awmod@divisor 0072                     ___awmod@counter 0076  
                            floor@i 00AC                              floor@x 00A8  
                            saved_w 007E                    _configIntExterns 1C57  
                   Lcd_Set_Cursor@a 0020                     Lcd_Set_Cursor@b 0076  
                   Lcd_Set_Cursor@y 0022                     Lcd_Set_Cursor@z 0021  
                        ___flge@ff1 0072                          ___flge@ff2 0076  
                      ___xxtofl@arg 0032                    __end_ofexp@coeff 1038  
                      ___xxtofl@exp 0031                        ___xxtofl@val 0028  
                        ___fleq@ff1 0036                          ___fleq@ff2 003A  
                  __end_oflog@coeff 105C             __end_of__initialization 0035  
                        ___flneg@f1 0072   converteLeituraAnParaVolts@leitura 0036  
                 __end_of_Lcd_Clear 1C76                        eval_poly@res 00B4  
                        ___fltol@f1 0072                      __pcstackCOMMON 0070  
                      __pidataBANK1 0803                        __pidataBANK3 0801  
                     __end_of_log10 1FA7                       __end_of_floor 0965  
                     __end_of_ldexp 1493                       __end_of_frexp 1108  
                    _Lcd_Set_Cursor 07B4                      _OPTION_REGbits 0081  
                         ?_Lcd_Init 0070                           ?_Lcd_Port 0070  
                           ??_log10 007A           converteVoltsParaLux@l_ldr 01B4  
                           ??_floor 007A                             ??_ldexp 00BE  
                           ??_frexp 0047           converteVoltsParaLux@r_ldr 01B0  
         converteVoltsParaLux@v_ldr 01AC                          _log10$1073 00C2  
                        __pbssBANK3 01E1          intToASCIIinCustomBase@base 002B  
        intToASCIIinCustomBase@temp 002D                   __end_of__Umul8_16 10AC  
                        __pmaintext 11DD                    ?_handleSetupMenu 0070  
                           ?___flge 0072                             ?___fleq 0036  
                           ?___wmul 0072                          __pintentry 0004  
                           _CCP1CON 0017              __end_of_Lcd_Set_Cursor 0800  
                         ?___xxtofl 0028                          ??_Lcd_Init 0076  
                        ??_Lcd_Port 0072                          __stringtab 1000  
                    _Lcd_Write_Char 1D48                             _Lcd_Cmd 1CC9  
                        _escreveLCD 1D7B                   __end_of_configADC 1CB0  
                           ___fladd 037E                             ___fldiv 1631  
                           ___awdiv 0805                             ___flneg 1C5E  
                           ___awmod 1FA7                             ___flmul 0039  
                           ___flsub 1EFE                             ___fltol 1165  
                 __end_of_eval_poly 1631                     ?_Lcd_Set_Cursor 0076  
             __end_of_configPWMRegs 1C84                             __ptext1 1493  
                           __ptext2 1FA7                             __ptext3 1CE3  
                           __ptext4 1E2A                             __ptext5 1DEC  
                           __ptext6 1D7B                             __ptext7 1E68  
                           __ptext8 1D48                             __ptext9 07B4  
                        _menu_ativo 007A                          ??___xxtofl 002C  
                  ___awmod@dividend 0074              __end_of_Lcd_Write_Char 1D7B  
              end_of_initialization 0035                             exp@sign 0196  
                   _porcentagem_PWM 01E7                             pow@sign 01A7  
             _luminosidade_desejada 00EC            __end_of_configIntExterns 1C5E  
                    main@texto_menu 01E0                           Lcd_Port@a 0072  
                         _PORTBbits 0006                           _PORTDbits 0008  
                      _btn_mais_aux 01E5                         ___fladd@grs 006E  
                     ___xxtofl@sign 0030                       ??_getValorADC 0074  
                       ___fldiv@grs 00E2                         ___fldiv@rem 00DB  
                   ?_Lcd_Write_Char 0070                   Lcd_Write_String@a 0077  
                 Lcd_Write_String@i 0023                         ___flmul@grs 0058  
                       ?_escreveLCD 0025        __end_of_converteVoltsParaLux 1000  
                         _Lcd_Clear 1C69                      __end_of___flge 1319  
                    __end_of___fleq 1EFE                      __end_of___wmul 1D48  
                  _Lcd_Write_String 1E68                   ??_verificaBtnMais 0072  
                        floor@expon 00B0                 start_initialization 000F  
                        eval_poly@d 00AC                          eval_poly@n 00AD  
                        eval_poly@x 00A8                          ldexp@value 00B8  
                       __end_of_exp 0D81                         __end_of_log 07B4  
                       __end_of_pow 0B66                 __end_of_getValorADC 1C99  
                        frexp@value 0042                    _verificaBtnMenos 1E2A  
                        ?_Lcd_Clear 0070                            ??___flge 0020  
                          ??___fleq 003E                            ??___wmul 0076  
                         __Umul8_16 1083                         __pdataBANK1 00EC  
                       __pdataBANK3 01E7                     Lcd_Write_Char@a 0076  
                   Lcd_Write_Char@y 0075                           ___fladd@a 0067  
                         ___fladd@b 0063                           ___fldiv@a 00CE  
                         ___fldiv@b 00D2                           ___flmul@a 004D  
                         ___flmul@b 0049                         __pbssCOMMON 007A  
                         ___flsub@a 00C6                           ___flsub@b 00CA  
                         ___latbits 0002                       __pcstackBANK0 0020  
                     __pcstackBANK1 00A0                       __pcstackBANK3 0190  
          ??_intToASCIIinCustomBase 0078         intToASCIIinCustomBase@resto 0030  
                          ?_Lcd_Cmd 0070                       ??_interrupcao 0070  
                  ??_Lcd_Set_Cursor 0077                            ?___fladd 0063  
                          ?___fldiv 00CE                            ?___awdiv 0020  
                          ?___flneg 0072                            ?___awmod 0072  
                          ?___flmul 0049                            ?___flsub 00C6  
                          ?___fltol 0072                          ?__Umul8_16 0072  
                         _configADC 1C99                           __pstrings 1000  
   intToASCIIinCustomBase@resultado 002A                _converteVoltsParaLux 0D81  
                         _eval_poly 1557                         _getValorADC 1C84  
                 interrupt_function 0004                      ___wmul@product 0076  
                          Lcd_Cmd@a 0075                         ??_Lcd_Clear 0076  
                 ?_configIntExterns 0070                          ?_configADC 0070  
                ??_configIntExterns 0072        ??_converteLeituraAnParaVolts 007A  
               __end_of_interrupcao 1CC9                          _ADCON0bits 001F  
                       __stringbase 100F                          _ADCON1bits 009F  
                 ___wmul@multiplier 0072                    escreveLCD@linha1 0079  
                  escreveLCD@linha2 0025               ?_converteVoltsParaLux 01AC  
                  ??_Lcd_Write_Char 0073                          ?_eval_poly 00A8  
                         main@v_ldr 01D8                            _Lcd_Init 1108  
                          _Lcd_Port 1D01            __end_of_Lcd_Write_String 1EAE  
        _intToASCIIinCustomBase$285 002E                        ??_escreveLCD 0027  
                         frexp@eptr 0046                     _verificaBtnMais 1DEC  
         _converteVoltsParaLux$1070 01C4           _converteVoltsParaLux$1071 01B8  
         _converteVoltsParaLux$1072 01BC                         ??__Umul8_16 0074  
                __end_of__stringtab 1010            __end_of_verificaBtnMenos 1E68  
                          _exp$1076 0190                            ___xxtofl 1319  
                __end_of_escreveLCD 1DB2                            __ptext10 1C69  
                          __ptext11 1C84                            __ptext20 1631  
                          __ptext12 0D81                            __ptext21 1F4E  
                          __ptext13 0965                            __ptext30 1DB2  
                          __ptext22 0658                            __ptext14 0B66  
                          __ptext31 1319                            __ptext23 10AC  
                          __ptext15 13D3                            __ptext40 1CB0  
                          __ptext32 1D23                            __ptext24 1EAE  
                          __ptext16 086E                            __ptext33 0805  
                          __ptext25 1557                            __ptext17 1165  
                          __ptext34 1C76                            __ptext26 0039  
                          __ptext18 1EFE                            __ptext35 1C57  
                          __ptext27 1083                            __ptext19 1C5E  
                          __ptext36 1C99                            __ptext28 037E  
                          __ptext37 1108                            __ptext29 1275  
                          __ptext38 1CC9                            __ptext39 1D01  
                 ??_handleSetupMenu 007A                            _pow$1074 019F  
                          _pow$1075 01A3                         _interrupcao 1CB0  
            _intToASCIIinCustomBase 1493                         ??_configADC 0072  
      intToASCIIinCustomBase@indice 0036              ??_converteVoltsParaLux 007A  
      intToASCIIinCustomBase@numero 0028                            exp@coeff 1010  
                          log@coeff 1038                       _configPWMRegs 1C76  
                        _INTCONbits 000B                         ??_eval_poly 00AF  
                Lcd_Write_Char@temp 0074             __end_of_verificaBtnMais 1E2A  
                          intlevel1 0000               converteVoltsParaLux@b 01C0  
                         stringcode 100A  __end_of_converteLeituraAnParaVolts 1DEC  
        _converteLeituraAnParaVolts 1DB2                  Lcd_Set_Cursor@temp 0023  
                    ?_configPWMRegs 0070              __Umul8_16@multiplicand 0072  
                          stringdir 100A                            stringtab 1000  
                      ?_getValorADC 0072                       ___fladd@signs 006B  
                      ___fladd@aexp 006C                        ___fladd@bexp 006D  
              __Umul8_16@multiplier 0024                   __Umul8_16@product 0020  
                     _btn_menos_aux 01E3  
