

Microchip MPLAB XC8 Assembler V2.41 build 20230208172133 
                                                                                               Sun Jun 25 17:44:32 2023

Microchip MPLAB XC8 C Compiler v2.41 (Free license) build 20230208172133 Og1 
     1                           	processor	16F877A
     2                           	pagewidth 120
     3                           	opt	flic
     4                           	psect	idataCOMMON,global,class=CODE,delta=2,noexec
     5                           	psect	idataBANK3,global,class=CODE,delta=2,noexec
     6                           	psect	strings,global,class=STRING,delta=2,noexec
     7                           	psect	cinit,global,class=CODE,merge=1,delta=2
     8                           	psect	dataCOMMON,global,class=COMMON,space=1,delta=1,noexec
     9                           	psect	bssBANK1,global,class=BANK1,space=1,delta=1,noexec
    10                           	psect	bssBANK3,global,class=BANK3,space=1,delta=1,noexec
    11                           	psect	dataBANK3,global,class=BANK3,space=1,delta=1,noexec
    12                           	psect	cstackBANK3,global,class=BANK3,space=1,delta=1,noexec
    13                           	psect	cstackBANK1,global,class=BANK1,space=1,delta=1,noexec
    14                           	psect	cstackCOMMON,global,class=COMMON,space=1,delta=1,noexec
    15                           	psect	cstackBANK0,global,class=BANK0,space=1,delta=1,noexec
    16                           	psect	maintext,global,class=CODE,split=1,delta=2
    17                           	psect	text1,local,class=CODE,merge=1,delta=2
    18                           	psect	text2,local,class=CODE,merge=1,delta=2
    19                           	psect	text3,local,class=CODE,merge=1,delta=2
    20                           	psect	text4,local,class=CODE,merge=1,delta=2
    21                           	psect	text5,local,class=CODE,merge=1,delta=2,group=1
    22                           	psect	text6,local,class=CODE,merge=1,delta=2,group=1
    23                           	psect	text7,local,class=CODE,merge=1,delta=2
    24                           	psect	text8,local,class=CODE,merge=1,delta=2
    25                           	psect	text9,local,class=CODE,merge=1,delta=2
    26                           	psect	text10,local,class=CODE,merge=1,delta=2
    27                           	psect	text11,local,class=CODE,merge=1,delta=2
    28                           	psect	text12,local,class=CODE,merge=1,delta=2
    29                           	psect	text13,local,class=CODE,merge=1,delta=2
    30                           	psect	text14,local,class=CODE,merge=1,delta=2,group=2
    31                           	psect	text15,local,class=CODE,merge=1,delta=2,group=2
    32                           	psect	text16,local,class=CODE,merge=1,delta=2,group=2
    33                           	psect	text17,local,class=CODE,merge=1,delta=2,group=1
    34                           	psect	text18,local,class=CODE,merge=1,delta=2,group=2
    35                           	psect	text19,local,class=CODE,merge=1,delta=2,group=1
    36                           	psect	text20,local,class=CODE,merge=1,delta=2,group=1
    37                           	psect	text21,local,class=CODE,merge=1,delta=2,group=1
    38                           	psect	text22,local,class=CODE,merge=1,delta=2,group=1
    39                           	psect	text23,local,class=CODE,merge=1,delta=2,group=1
    40                           	psect	text24,local,class=CODE,merge=1,delta=2
    41                           	psect	text25,local,class=CODE,merge=1,delta=2,group=1
    42                           	psect	text26,local,class=CODE,merge=1,delta=2,group=1
    43                           	psect	text27,local,class=CODE,merge=1,delta=2,group=1
    44                           	psect	text28,local,class=CODE,merge=1,delta=2
    45                           	psect	text29,local,class=CODE,merge=1,delta=2
    46                           	psect	text30,local,class=CODE,merge=1,delta=2
    47                           	psect	text31,local,class=CODE,merge=1,delta=2
    48                           	psect	text32,local,class=CODE,merge=1,delta=2
    49                           	psect	text33,local,class=CODE,merge=1,delta=2
    50                           	psect	text34,local,class=CODE,merge=1,delta=2
    51                           	psect	intentry,global,class=CODE,delta=2
    52                           	dabs	1,0x7E,2
    53     0000                     
    54                           ; Version 2.20
    55                           ; Generated 12/02/2020 GMT
    56                           ; 
    57                           ; Copyright © 2020, Microchip Technology Inc. and its subsidiaries ("Microchip")
    58                           ; All rights reserved.
    59                           ; 
    60                           ; This software is developed by Microchip Technology Inc. and its subsidiaries ("Microch
      +                          ip").
    61                           ; 
    62                           ; Redistribution and use in source and binary forms, with or without modification, are
    63                           ; permitted provided that the following conditions are met:
    64                           ; 
    65                           ;     1. Redistributions of source code must retain the above copyright notice, this lis
      +                          t of
    66                           ;        conditions and the following disclaimer.
    67                           ; 
    68                           ;     2. Redistributions in binary form must reproduce the above copyright notice, this 
      +                          list
    69                           ;        of conditions and the following disclaimer in the documentation and/or other
    70                           ;        materials provided with the distribution.
    71                           ; 
    72                           ;     3. Microchip's name may not be used to endorse or promote products derived from th
      +                          is
    73                           ;        software without specific prior written permission.
    74                           ; 
    75                           ; THIS SOFTWARE IS PROVIDED BY MICROCHIP "AS IS" AND ANY EXPRESS OR IMPLIED WARRANTIES,
    76                           ; INCLUDING, BUT NOT LIMITED TO, THE IMPLIED WARRANTIES OF MERCHANTABILITY AND FITNESS F
      +                          OR
    77                           ; PURPOSE ARE DISCLAIMED.  IN NO EVENT SHALL MICROCHIP BE LIABLE FOR ANY DIRECT, INDIREC
      +                          T,
    78                           ; INCIDENTAL, SPECIAL, EXEMPLARY, OR CONSEQUENTIAL DAMAGES (INCLUDING BUT NOT LIMITED TO
    79                           ; PROCUREMENT OF SUBSTITUTE GOODS OR SERVICES; LOSS OF USE, DATA OR PROFITS; OR BUSINESS
    80                           ; INTERRUPTION) HOWSOEVER CAUSED AND ON ANY THEORY OF LIABILITY, WHETHER IN CONTRACT, ST
      +                          RICT
    81                           ; LIABILITY, OR TORT (INCLUDING NEGLIGENCE OR OTHERWISE) ARISING IN ANY WAY OUT OF THE U
      +                          SE OF
    82                           ; THIS SOFTWARE, EVEN IF ADVISED OF THE POSSIBILITY OF SUCH DAMAGE.
    83                           ; 
    84                           ; 
    85                           ; Code-generator required, PIC16F877A Definitions
    86                           ; 
    87                           ; SFR Addresses
    88     0000                     	;# 
    89     0001                     	;# 
    90     0002                     	;# 
    91     0003                     	;# 
    92     0004                     	;# 
    93     0005                     	;# 
    94     0006                     	;# 
    95     0007                     	;# 
    96     0008                     	;# 
    97     0009                     	;# 
    98     000A                     	;# 
    99     000B                     	;# 
   100     000C                     	;# 
   101     000D                     	;# 
   102     000E                     	;# 
   103     000E                     	;# 
   104     000F                     	;# 
   105     0010                     	;# 
   106     0011                     	;# 
   107     0012                     	;# 
   108     0013                     	;# 
   109     0014                     	;# 
   110     0015                     	;# 
   111     0015                     	;# 
   112     0016                     	;# 
   113     0017                     	;# 
   114     0018                     	;# 
   115     0019                     	;# 
   116     001A                     	;# 
   117     001B                     	;# 
   118     001B                     	;# 
   119     001C                     	;# 
   120     001D                     	;# 
   121     001E                     	;# 
   122     001F                     	;# 
   123     0081                     	;# 
   124     0085                     	;# 
   125     0086                     	;# 
   126     0087                     	;# 
   127     0088                     	;# 
   128     0089                     	;# 
   129     008C                     	;# 
   130     008D                     	;# 
   131     008E                     	;# 
   132     0091                     	;# 
   133     0092                     	;# 
   134     0093                     	;# 
   135     0094                     	;# 
   136     0098                     	;# 
   137     0099                     	;# 
   138     009C                     	;# 
   139     009D                     	;# 
   140     009E                     	;# 
   141     009F                     	;# 
   142     010C                     	;# 
   143     010D                     	;# 
   144     010E                     	;# 
   145     010F                     	;# 
   146     018C                     	;# 
   147     018D                     	;# 
   148     0000                     	;# 
   149     0001                     	;# 
   150     0002                     	;# 
   151     0003                     	;# 
   152     0004                     	;# 
   153     0005                     	;# 
   154     0006                     	;# 
   155     0007                     	;# 
   156     0008                     	;# 
   157     0009                     	;# 
   158     000A                     	;# 
   159     000B                     	;# 
   160     000C                     	;# 
   161     000D                     	;# 
   162     000E                     	;# 
   163     000E                     	;# 
   164     000F                     	;# 
   165     0010                     	;# 
   166     0011                     	;# 
   167     0012                     	;# 
   168     0013                     	;# 
   169     0014                     	;# 
   170     0015                     	;# 
   171     0015                     	;# 
   172     0016                     	;# 
   173     0017                     	;# 
   174     0018                     	;# 
   175     0019                     	;# 
   176     001A                     	;# 
   177     001B                     	;# 
   178     001B                     	;# 
   179     001C                     	;# 
   180     001D                     	;# 
   181     001E                     	;# 
   182     001F                     	;# 
   183     0081                     	;# 
   184     0085                     	;# 
   185     0086                     	;# 
   186     0087                     	;# 
   187     0088                     	;# 
   188     0089                     	;# 
   189     008C                     	;# 
   190     008D                     	;# 
   191     008E                     	;# 
   192     0091                     	;# 
   193     0092                     	;# 
   194     0093                     	;# 
   195     0094                     	;# 
   196     0098                     	;# 
   197     0099                     	;# 
   198     009C                     	;# 
   199     009D                     	;# 
   200     009E                     	;# 
   201     009F                     	;# 
   202     010C                     	;# 
   203     010D                     	;# 
   204     010E                     	;# 
   205     010F                     	;# 
   206     018C                     	;# 
   207     018D                     	;# 
   208                           
   209                           	psect	idataCOMMON
   210     07FE                     __pidataCOMMON:
   211                           
   212                           ;initializer for _luminosidade_desejada
   213     07FE  3490               	retlw	144
   214     07FF  3401               	retlw	1
   215                           
   216                           	psect	idataBANK3
   217     0801                     __pidataBANK3:
   218                           
   219                           ;initializer for _porcentagem_PWM
   220     0801  3432               	retlw	50
   221     0802  3400               	retlw	0
   222                           
   223                           	psect	strings
   224     1000                     __pstrings:
   225     1000                     stringtab:
   226     1000                     __stringtab:
   227                           
   228                           ;	String table - string pointers are 1 byte each
   229     1000  1BFF               	btfsc	btemp+1,7
   230     1001  280A               	ljmp	stringcode
   231     1002  1383               	bcf	3,7
   232     1003  187F               	btfsc	btemp+1,0
   233     1004  1783               	bsf	3,7
   234     1005  0800               	movf	0,w
   235     1006  0A84               	incf	4,f
   236     1007  1903               	skipnz
   237     1008  0AFF               	incf	btemp+1,f
   238     1009  0008               	return
   239     100A                     stringcode:
   240     100A                     stringdir:
   241     100A  3010               	movlw	high stringdir
   242     100B  008A               	movwf	10
   243     100C  0804               	movf	4,w
   244     100D  0A84               	incf	4,f
   245     100E  0782               	addwf	2,f
   246     100F                     __stringbase:
   247     100F  3400               	retlw	0
   248     1010                     __end_of__stringtab:
   249     1010                     log@coeff:
   250     1010  3400               	retlw	0
   251     1011  3400               	retlw	0
   252     1012  3400               	retlw	0
   253     1013  3400               	retlw	0
   254     1014  34C4               	retlw	196
   255     1015  34FF               	retlw	255
   256     1016  347F               	retlw	127
   257     1017  343F               	retlw	63
   258     1018  3480               	retlw	128
   259     1019  34EF               	retlw	239
   260     101A  34FF               	retlw	255
   261     101B  34BE               	retlw	190
   262     101C  3490               	retlw	144
   263     101D  34E1               	retlw	225
   264     101E  34A9               	retlw	169
   265     101F  343E               	retlw	62
   266     1020  34EC               	retlw	236
   267     1021  3482               	retlw	130
   268     1022  3476               	retlw	118
   269     1023  34BE               	retlw	190
   270     1024  3482               	retlw	130
   271     1025  34AD               	retlw	173
   272     1026  342B               	retlw	43
   273     1027  343E               	retlw	62
   274     1028  340E               	retlw	14
   275     1029  343C               	retlw	60
   276     102A  34C3               	retlw	195
   277     102B  34BD               	retlw	189
   278     102C  3487               	retlw	135
   279     102D  34D1               	retlw	209
   280     102E  3413               	retlw	19
   281     102F  343D               	retlw	61
   282     1030  3441               	retlw	65
   283     1031  3478               	retlw	120
   284     1032  34D3               	retlw	211
   285     1033  34BB               	retlw	187
   286     1034                     __end_oflog@coeff:
   287     000B                     _INTCONbits	set	11
   288     0006                     _PORTBbits	set	6
   289     0015                     _CCPR1L	set	21
   290     0017                     _CCP1CON	set	23
   291     001E                     _ADRESH	set	30
   292     001F                     _ADCON0bits	set	31
   293     0008                     _PORTDbits	set	8
   294     0059                     _INTF	set	89
   295     0092                     _TMR2ON	set	146
   296     0088                     _TRISD	set	136
   297     0086                     _TRISB	set	134
   298     0087                     _TRISC	set	135
   299     0081                     _OPTION_REGbits	set	129
   300     0092                     _PR2	set	146
   301     009E                     _ADRESL	set	158
   302     009F                     _ADCON1bits	set	159
   303     1034                     STR_2:
   304     1034  344C               	retlw	76	;'L'
   305     1035  3455               	retlw	85	;'U'
   306     1036  344D               	retlw	77	;'M'
   307     1037  3449               	retlw	73	;'I'
   308     1038  344E               	retlw	78	;'N'
   309     1039  344F               	retlw	79	;'O'
   310     103A  3453               	retlw	83	;'S'
   311     103B  3449               	retlw	73	;'I'
   312     103C  3444               	retlw	68	;'D'
   313     103D  3441               	retlw	65	;'A'
   314     103E  3444               	retlw	68	;'D'
   315     103F  3445               	retlw	69	;'E'
   316     1040  3420               	retlw	32	;' '
   317     1041  3441               	retlw	65	;'A'
   318     1042  3454               	retlw	84	;'T'
   319     1043  3455               	retlw	85	;'U'
   320     1044  3441               	retlw	65	;'A'
   321     1045  344C               	retlw	76	;'L'
   322     1046  343A               	retlw	58	;':'
   323     1047  3400               	retlw	0
   324     1048                     STR_1:
   325     1048  344D               	retlw	77	;'M'
   326     1049  3445               	retlw	69	;'E'
   327     104A  344E               	retlw	78	;'N'
   328     104B  3455               	retlw	85	;'U'
   329     104C  3420               	retlw	32	;' '
   330     104D  342D               	retlw	45	;'-'
   331     104E  3420               	retlw	32	;' '
   332     104F  344F               	retlw	79	;'O'
   333     1050  3442               	retlw	66	;'B'
   334     1051  344A               	retlw	74	;'J'
   335     1052  3445               	retlw	69	;'E'
   336     1053  3454               	retlw	84	;'T'
   337     1054  3449               	retlw	73	;'I'
   338     1055  3456               	retlw	86	;'V'
   339     1056  344F               	retlw	79	;'O'
   340     1057  3400               	retlw	0
   341                           
   342                           	psect	cinit
   343     000F                     start_initialization:	
   344                           ; #config settings
   345                           
   346     000F                     __initialization:
   347                           
   348                           ; Initialize objects allocated to BANK3
   349     000F  1683               	bsf	3,5	;RP0=1, select bank3
   350     0010  1703               	bsf	3,6	;RP1=1, select bank3
   351     0011  120A  158A  2001  120A  118A  	fcall	__pidataBANK3	;fetch initializer
   352     0016  00B4               	movwf	__pdataBANK3& (0+127)
   353     0017  120A  158A  2002  120A  118A  	fcall	__pidataBANK3+1	;fetch initializer
   354     001C  00B5               	movwf	(__pdataBANK3+1)& (0+127)
   355                           
   356                           ; Initialize objects allocated to COMMON
   357     001D  120A  118A  27FE  120A  118A  	fcall	__pidataCOMMON	;fetch initializer
   358     0022  00FA               	movwf	__pdataCOMMON& (0+127)
   359     0023  120A  118A  27FF  120A  118A  	fcall	__pidataCOMMON+1	;fetch initializer
   360     0028  00FB               	movwf	(__pdataCOMMON+1)& (0+127)
   361                           
   362                           ; Clear objects allocated to BANK3
   363     0029  01AA               	clrf	__pbssBANK3& (0+127)
   364     002A  01AB               	clrf	(__pbssBANK3+1)& (0+127)
   365     002B  01AC               	clrf	(__pbssBANK3+2)& (0+127)
   366     002C  01AD               	clrf	(__pbssBANK3+3)& (0+127)
   367     002D  01AE               	clrf	(__pbssBANK3+4)& (0+127)
   368     002E  01AF               	clrf	(__pbssBANK3+5)& (0+127)
   369     002F  01B0               	clrf	(__pbssBANK3+6)& (0+127)
   370     0030  01B1               	clrf	(__pbssBANK3+7)& (0+127)
   371     0031  01B2               	clrf	(__pbssBANK3+8)& (0+127)
   372     0032  01B3               	clrf	(__pbssBANK3+9)& (0+127)
   373                           
   374                           ; Clear objects allocated to BANK1
   375     0033  1683               	bsf	3,5	;RP0=1, select bank1
   376     0034  1303               	bcf	3,6	;RP1=0, select bank1
   377     0035  01E9               	clrf	__pbssBANK1& (0+127)
   378     0036  01EA               	clrf	(__pbssBANK1+1)& (0+127)
   379     0037  01EB               	clrf	(__pbssBANK1+2)& (0+127)
   380     0038  01EC               	clrf	(__pbssBANK1+3)& (0+127)
   381     0039  01ED               	clrf	(__pbssBANK1+4)& (0+127)
   382     003A  01EE               	clrf	(__pbssBANK1+5)& (0+127)
   383     003B                     end_of_initialization:	
   384                           ;End of C runtime variable initialization code
   385                           
   386     003B                     __end_of__initialization:
   387     003B  0183               	clrf	3
   388     003C  120A  158A  2A65   	ljmp	_main	;jump to C main() function
   389                           
   390                           	psect	dataCOMMON
   391     007A                     __pdataCOMMON:
   392     007A                     _luminosidade_desejada:
   393     007A                     	ds	2
   394                           
   395                           	psect	bssBANK1
   396     00E9                     __pbssBANK1:
   397     00E9                     _menu_ativo:
   398     00E9                     	ds	2
   399     00EB                     _btn_menos_aux:
   400     00EB                     	ds	2
   401     00ED                     _btn_mais_aux:
   402     00ED                     	ds	2
   403                           
   404                           	psect	bssBANK3
   405     01AA                     __pbssBANK3:
   406     01AA                     _v_ldr:
   407     01AA                     	ds	4
   408     01AE                     _errno:
   409     01AE                     	ds	2
   410     01B0                     _luminosidade_atual:
   411     01B0                     	ds	2
   412     01B2                     _leitura:
   413     01B2                     	ds	2
   414                           
   415                           	psect	dataBANK3
   416     01B4                     __pdataBANK3:
   417     01B4                     _porcentagem_PWM:
   418     01B4                     	ds	2
   419                           
   420                           	psect	cstackBANK3
   421     0190                     __pcstackBANK3:
   422     0190                     converteVoltsParaLux@l_ldr:
   423                           
   424                           ; 4 bytes @ 0x0
   425     0190                     	ds	4
   426     0194                     _converteVoltsParaLux$1034:
   427                           
   428                           ; 4 bytes @ 0x4
   429     0194                     	ds	4
   430     0198                     _converteVoltsParaLux$1035:
   431                           
   432                           ; 4 bytes @ 0x8
   433     0198                     	ds	4
   434     019C                     _converteVoltsParaLux$1036:
   435                           
   436                           ; 4 bytes @ 0xC
   437     019C                     	ds	4
   438     01A0                     _converteVoltsParaLux$1037:
   439                           
   440                           ; 4 bytes @ 0x10
   441     01A0                     	ds	4
   442     01A4                     converteVoltsParaLux@r_ldr:
   443                           
   444                           ; 2 bytes @ 0x14
   445     01A4                     	ds	2
   446     01A6                     converteVoltsParaLux@b:
   447                           
   448                           ; 4 bytes @ 0x16
   449     01A6                     	ds	4
   450                           
   451                           	psect	cstackBANK1
   452     00A0                     __pcstackBANK1:
   453     00A0                     ?_log10:
   454     00A0                     log10@x:	
   455                           ; 4 bytes @ 0x0
   456                           
   457                           
   458                           ; 4 bytes @ 0x0
   459     00A0                     	ds	4
   460     00A4                     _log10$1038:
   461                           
   462                           ; 4 bytes @ 0x4
   463     00A4                     	ds	4
   464     00A8                     ?___flsub:
   465     00A8                     ___flsub@a:	
   466                           ; 4 bytes @ 0x8
   467                           
   468                           
   469                           ; 4 bytes @ 0x8
   470     00A8                     	ds	4
   471     00AC                     ___flsub@b:
   472                           
   473                           ; 4 bytes @ 0xC
   474     00AC                     	ds	4
   475     00B0                     ?___fldiv:
   476     00B0                     ___fldiv@a:	
   477                           ; 4 bytes @ 0x10
   478                           
   479                           
   480                           ; 4 bytes @ 0x10
   481     00B0                     	ds	4
   482     00B4                     ___fldiv@b:
   483                           
   484                           ; 4 bytes @ 0x14
   485     00B4                     	ds	4
   486     00B8                     ??___fldiv:
   487                           
   488                           ; 1 bytes @ 0x18
   489     00B8                     	ds	5
   490     00BD                     ___fldiv@rem:
   491                           
   492                           ; 4 bytes @ 0x1D
   493     00BD                     	ds	4
   494     00C1                     ___fldiv@sign:
   495                           
   496                           ; 1 bytes @ 0x21
   497     00C1                     	ds	1
   498     00C2                     ___fldiv@new_exp:
   499                           
   500                           ; 2 bytes @ 0x22
   501     00C2                     	ds	2
   502     00C4                     ___fldiv@grs:
   503                           
   504                           ; 4 bytes @ 0x24
   505     00C4                     	ds	4
   506     00C8                     ___fldiv@bexp:
   507                           
   508                           ; 1 bytes @ 0x28
   509     00C8                     	ds	1
   510     00C9                     ___fldiv@aexp:
   511                           
   512                           ; 1 bytes @ 0x29
   513     00C9                     	ds	1
   514     00CA                     ?_converteLeituraAnParaVolts:
   515     00CA                     ?___fltol:	
   516                           ; 4 bytes @ 0x2A
   517                           
   518     00CA                     converteLeituraAnParaVolts@leitura:	
   519                           ; 4 bytes @ 0x2A
   520                           
   521     00CA                     ___fltol@f1:	
   522                           ; 4 bytes @ 0x2A
   523                           
   524                           
   525                           ; 4 bytes @ 0x2A
   526     00CA                     	ds	4
   527     00CE                     ??___fltol:
   528                           
   529                           ; 1 bytes @ 0x2E
   530     00CE                     	ds	4
   531     00D2                     ___fltol@sign1:
   532                           
   533                           ; 1 bytes @ 0x32
   534     00D2                     	ds	1
   535     00D3                     ___fltol@exp1:
   536                           
   537                           ; 1 bytes @ 0x33
   538     00D3                     	ds	1
   539     00D4                     ?_converteVoltsParaLux:
   540     00D4                     converteVoltsParaLux@v_ldr:	
   541                           ; 2 bytes @ 0x34
   542                           
   543                           
   544                           ; 4 bytes @ 0x34
   545     00D4                     	ds	4
   546     00D8                     main@texto_luminosidade:
   547                           
   548                           ; 16 bytes @ 0x38
   549     00D8                     	ds	16
   550     00E8                     main@texto_menu:
   551                           
   552                           ; 1 bytes @ 0x48
   553     00E8                     	ds	1
   554                           
   555                           	psect	cstackCOMMON
   556     0070                     __pcstackCOMMON:
   557     0070                     ?_Lcd_Port:
   558     0070                     ?_Lcd_Cmd:	
   559                           ; 1 bytes @ 0x0
   560                           
   561     0070                     ?_Lcd_Clear:	
   562                           ; 1 bytes @ 0x0
   563                           
   564     0070                     ?_Lcd_Init:	
   565                           ; 1 bytes @ 0x0
   566                           
   567     0070                     ?_Lcd_Write_Char:	
   568                           ; 1 bytes @ 0x0
   569                           
   570     0070                     ?_configADC:	
   571                           ; 1 bytes @ 0x0
   572                           
   573     0070                     ?_configPWMRegs:	
   574                           ; 1 bytes @ 0x0
   575                           
   576     0070                     ?_verificaBtnMais:	
   577                           ; 1 bytes @ 0x0
   578                           
   579     0070                     ?_verificaBtnMenos:	
   580                           ; 1 bytes @ 0x0
   581                           
   582     0070                     ?_interrupcao:	
   583                           ; 1 bytes @ 0x0
   584                           
   585     0070                     ??_interrupcao:	
   586                           ; 1 bytes @ 0x0
   587                           
   588     0070                     ?_handleSetupMenu:	
   589                           ; 1 bytes @ 0x0
   590                           
   591     0070                     ?_configIntExterns:	
   592                           ; 1 bytes @ 0x0
   593                           
   594     0070                     ?_main:	
   595                           ; 1 bytes @ 0x0
   596                           
   597                           
   598                           ; 1 bytes @ 0x0
   599     0070                     	ds	2
   600     0072                     ?___fleq:
   601     0072                     ?___flge:	
   602                           ; 1 bit 
   603                           
   604     0072                     ??_Lcd_Port:	
   605                           ; 1 bit 
   606                           
   607     0072                     ??_configADC:	
   608                           ; 1 bytes @ 0x2
   609                           
   610     0072                     ??_configPWMRegs:	
   611                           ; 1 bytes @ 0x2
   612                           
   613     0072                     ??_verificaBtnMais:	
   614                           ; 1 bytes @ 0x2
   615                           
   616     0072                     ??_verificaBtnMenos:	
   617                           ; 1 bytes @ 0x2
   618                           
   619     0072                     ??_configIntExterns:	
   620                           ; 1 bytes @ 0x2
   621                           
   622     0072                     ?__Umul8_16:	
   623                           ; 1 bytes @ 0x2
   624                           
   625     0072                     ?_getValorADC:	
   626                           ; 2 bytes @ 0x2
   627                           
   628     0072                     ?___awdiv:	
   629                           ; 2 bytes @ 0x2
   630                           
   631     0072                     ?___awmod:	
   632                           ; 2 bytes @ 0x2
   633                           
   634     0072                     ?___xxtofl:	
   635                           ; 2 bytes @ 0x2
   636                           
   637     0072                     Lcd_Port@a:	
   638                           ; 4 bytes @ 0x2
   639                           
   640     0072                     __Umul8_16@multiplicand:	
   641                           ; 1 bytes @ 0x2
   642                           
   643     0072                     ___awdiv@divisor:	
   644                           ; 1 bytes @ 0x2
   645                           
   646     0072                     ___awmod@divisor:	
   647                           ; 2 bytes @ 0x2
   648                           
   649     0072                     ___fleq@ff1:	
   650                           ; 2 bytes @ 0x2
   651                           
   652     0072                     ___flge@ff1:	
   653                           ; 4 bytes @ 0x2
   654                           
   655     0072                     ___xxtofl@val:	
   656                           ; 4 bytes @ 0x2
   657                           
   658                           
   659                           ; 4 bytes @ 0x2
   660     0072                     	ds	1
   661     0073                     ??_Lcd_Cmd:
   662     0073                     ??_Lcd_Write_Char:	
   663                           ; 1 bytes @ 0x3
   664                           
   665                           
   666                           ; 1 bytes @ 0x3
   667     0073                     	ds	1
   668     0074                     ??__Umul8_16:
   669     0074                     ??_getValorADC:	
   670                           ; 1 bytes @ 0x4
   671                           
   672     0074                     Lcd_Write_Char@temp:	
   673                           ; 1 bytes @ 0x4
   674                           
   675     0074                     ___awdiv@dividend:	
   676                           ; 1 bytes @ 0x4
   677                           
   678     0074                     ___awmod@dividend:	
   679                           ; 2 bytes @ 0x4
   680                           
   681                           
   682                           ; 2 bytes @ 0x4
   683     0074                     	ds	1
   684     0075                     Lcd_Cmd@a:
   685     0075                     Lcd_Write_Char@y:	
   686                           ; 1 bytes @ 0x5
   687                           
   688                           
   689                           ; 1 bytes @ 0x5
   690     0075                     	ds	1
   691     0076                     ??_Lcd_Clear:
   692     0076                     ?_Lcd_Set_Cursor:	
   693                           ; 1 bytes @ 0x6
   694                           
   695     0076                     ??_Lcd_Init:	
   696                           ; 1 bytes @ 0x6
   697                           
   698     0076                     ??___awdiv:	
   699                           ; 1 bytes @ 0x6
   700                           
   701     0076                     ??___awmod:	
   702                           ; 1 bytes @ 0x6
   703                           
   704     0076                     ??___xxtofl:	
   705                           ; 1 bytes @ 0x6
   706                           
   707     0076                     Lcd_Set_Cursor@b:	
   708                           ; 1 bytes @ 0x6
   709                           
   710     0076                     Lcd_Write_Char@a:	
   711                           ; 1 bytes @ 0x6
   712                           
   713     0076                     ___awdiv@counter:	
   714                           ; 1 bytes @ 0x6
   715                           
   716     0076                     ___awmod@counter:	
   717                           ; 1 bytes @ 0x6
   718                           
   719     0076                     getValorADC@valor:	
   720                           ; 1 bytes @ 0x6
   721                           
   722     0076                     ___fleq@ff2:	
   723                           ; 2 bytes @ 0x6
   724                           
   725     0076                     ___flge@ff2:	
   726                           ; 4 bytes @ 0x6
   727                           
   728                           
   729                           ; 4 bytes @ 0x6
   730     0076                     	ds	1
   731     0077                     ??_Lcd_Set_Cursor:
   732     0077                     ?_Lcd_Write_String:	
   733                           ; 1 bytes @ 0x7
   734                           
   735     0077                     ___awdiv@sign:	
   736                           ; 1 bytes @ 0x7
   737                           
   738     0077                     ___awmod@sign:	
   739                           ; 1 bytes @ 0x7
   740                           
   741     0077                     Lcd_Write_String@a:	
   742                           ; 1 bytes @ 0x7
   743                           
   744                           
   745                           ; 2 bytes @ 0x7
   746     0077                     	ds	1
   747     0078                     ___awdiv@quotient:
   748                           
   749                           ; 2 bytes @ 0x8
   750     0078                     	ds	1
   751     0079                     escreveLCD@linha1:
   752                           
   753                           ; 1 bytes @ 0x9
   754     0079                     	ds	1
   755     007A                     ??_log10:
   756     007A                     ??_handleSetupMenu:	
   757                           ; 1 bytes @ 0xA
   758                           
   759     007A                     ??_converteLeituraAnParaVolts:	
   760                           ; 1 bytes @ 0xA
   761                           
   762     007A                     ??_converteVoltsParaLux:	
   763                           ; 1 bytes @ 0xA
   764                           
   765     007A                     ??_main:	
   766                           ; 1 bytes @ 0xA
   767                           
   768     007A                     ??___flsub:	
   769                           ; 1 bytes @ 0xA
   770                           
   771     007A                     ??_log:	
   772                           ; 1 bytes @ 0xA
   773                           
   774                           
   775                           	psect	cstackBANK0
   776     0020                     __pcstackBANK0:	
   777                           ; 1 bytes @ 0xA
   778                           
   779     0020                     ??_Lcd_Write_String:
   780     0020                     ?_intToASCIIinCustomBase:	
   781                           ; 1 bytes @ 0x0
   782                           
   783     0020                     ??___fleq:	
   784                           ; 1 bytes @ 0x0
   785                           
   786     0020                     ??___flge:	
   787                           ; 1 bytes @ 0x0
   788                           
   789     0020                     Lcd_Set_Cursor@a:	
   790                           ; 1 bytes @ 0x0
   791                           
   792     0020                     ___xxtofl@sign:	
   793                           ; 1 bytes @ 0x0
   794                           
   795     0020                     intToASCIIinCustomBase@numero:	
   796                           ; 1 bytes @ 0x0
   797                           
   798     0020                     __Umul8_16@product:	
   799                           ; 2 bytes @ 0x0
   800                           
   801                           
   802                           ; 2 bytes @ 0x0
   803     0020                     	ds	1
   804     0021                     Lcd_Set_Cursor@z:
   805     0021                     ___xxtofl@exp:	
   806                           ; 1 bytes @ 0x1
   807                           
   808                           
   809                           ; 1 bytes @ 0x1
   810     0021                     	ds	1
   811     0022                     Lcd_Set_Cursor@y:
   812     0022                     intToASCIIinCustomBase@resultado:	
   813                           ; 1 bytes @ 0x2
   814                           
   815     0022                     __Umul8_16@word_mpld:	
   816                           ; 1 bytes @ 0x2
   817                           
   818     0022                     ___xxtofl@arg:	
   819                           ; 2 bytes @ 0x2
   820                           
   821                           
   822                           ; 4 bytes @ 0x2
   823     0022                     	ds	1
   824     0023                     Lcd_Set_Cursor@temp:
   825     0023                     Lcd_Write_String@i:	
   826                           ; 1 bytes @ 0x3
   827                           
   828     0023                     intToASCIIinCustomBase@base:	
   829                           ; 2 bytes @ 0x3
   830                           
   831                           
   832                           ; 2 bytes @ 0x3
   833     0023                     	ds	1
   834     0024                     ?_frexp:
   835     0024                     __Umul8_16@multiplier:	
   836                           ; 4 bytes @ 0x4
   837                           
   838     0024                     frexp@value:	
   839                           ; 1 bytes @ 0x4
   840                           
   841                           
   842                           ; 4 bytes @ 0x4
   843     0024                     	ds	1
   844     0025                     ??_intToASCIIinCustomBase:
   845     0025                     ?_escreveLCD:	
   846                           ; 1 bytes @ 0x5
   847                           
   848     0025                     escreveLCD@linha2:	
   849                           ; 1 bytes @ 0x5
   850                           
   851                           
   852                           ; 1 bytes @ 0x5
   853     0025                     	ds	1
   854     0026                     ??_escreveLCD:
   855                           
   856                           ; 1 bytes @ 0x6
   857     0026                     	ds	1
   858     0027                     intToASCIIinCustomBase@temp:
   859                           
   860                           ; 1 bytes @ 0x7
   861     0027                     	ds	1
   862     0028                     frexp@eptr:
   863     0028                     _intToASCIIinCustomBase$279:	
   864                           ; 1 bytes @ 0x8
   865                           
   866                           
   867                           ; 2 bytes @ 0x8
   868     0028                     	ds	1
   869     0029                     ??_frexp:
   870                           
   871                           ; 1 bytes @ 0x9
   872     0029                     	ds	1
   873     002A                     intToASCIIinCustomBase@resto:
   874                           
   875                           ; 2 bytes @ 0xA
   876     002A                     	ds	1
   877     002B                     ?___flmul:
   878     002B                     ___flmul@b:	
   879                           ; 4 bytes @ 0xB
   880                           
   881                           
   882                           ; 4 bytes @ 0xB
   883     002B                     	ds	1
   884     002C                     intToASCIIinCustomBase@i:
   885                           
   886                           ; 2 bytes @ 0xC
   887     002C                     	ds	2
   888     002E                     intToASCIIinCustomBase@j:
   889                           
   890                           ; 2 bytes @ 0xE
   891     002E                     	ds	1
   892     002F                     ___flmul@a:
   893                           
   894                           ; 4 bytes @ 0xF
   895     002F                     	ds	1
   896     0030                     intToASCIIinCustomBase@indice:
   897                           
   898                           ; 2 bytes @ 0x10
   899     0030                     	ds	2
   900     0032                     handleSetupMenu@texto_luminosidade_desejada:
   901                           
   902                           ; 16 bytes @ 0x12
   903     0032                     	ds	1
   904     0033                     ??___flmul:
   905                           
   906                           ; 1 bytes @ 0x13
   907     0033                     	ds	5
   908     0038                     ___flmul@sign:
   909                           
   910                           ; 1 bytes @ 0x18
   911     0038                     	ds	1
   912     0039                     ___flmul@aexp:
   913                           
   914                           ; 1 bytes @ 0x19
   915     0039                     	ds	1
   916     003A                     ___flmul@grs:
   917                           
   918                           ; 4 bytes @ 0x1A
   919     003A                     	ds	4
   920     003E                     ___flmul@bexp:
   921                           
   922                           ; 1 bytes @ 0x1E
   923     003E                     	ds	1
   924     003F                     ___flmul@prod:
   925                           
   926                           ; 4 bytes @ 0x1F
   927     003F                     	ds	4
   928     0043                     ___flmul@temp:
   929                           
   930                           ; 2 bytes @ 0x23
   931     0043                     	ds	2
   932     0045                     ?___fladd:
   933     0045                     ___fladd@b:	
   934                           ; 4 bytes @ 0x25
   935                           
   936                           
   937                           ; 4 bytes @ 0x25
   938     0045                     	ds	4
   939     0049                     ___fladd@a:
   940                           
   941                           ; 4 bytes @ 0x29
   942     0049                     	ds	4
   943     004D                     ??___fladd:
   944                           
   945                           ; 1 bytes @ 0x2D
   946     004D                     	ds	8
   947     0055                     ___fladd@signs:
   948                           
   949                           ; 1 bytes @ 0x35
   950     0055                     	ds	1
   951     0056                     ___fladd@aexp:
   952                           
   953                           ; 1 bytes @ 0x36
   954     0056                     	ds	1
   955     0057                     ___fladd@bexp:
   956                           
   957                           ; 1 bytes @ 0x37
   958     0057                     	ds	1
   959     0058                     ___fladd@grs:
   960                           
   961                           ; 1 bytes @ 0x38
   962     0058                     	ds	1
   963     0059                     ?_eval_poly:
   964     0059                     eval_poly@x:	
   965                           ; 4 bytes @ 0x39
   966                           
   967                           
   968                           ; 4 bytes @ 0x39
   969     0059                     	ds	4
   970     005D                     eval_poly@d:
   971                           
   972                           ; 1 bytes @ 0x3D
   973     005D                     	ds	1
   974     005E                     eval_poly@n:
   975                           
   976                           ; 2 bytes @ 0x3E
   977     005E                     	ds	2
   978     0060                     ??_eval_poly:
   979                           
   980                           ; 1 bytes @ 0x40
   981     0060                     	ds	5
   982     0065                     eval_poly@res:
   983                           
   984                           ; 4 bytes @ 0x45
   985     0065                     	ds	4
   986     0069                     ?_log:
   987     0069                     log@x:	
   988                           ; 4 bytes @ 0x49
   989                           
   990                           
   991                           ; 4 bytes @ 0x49
   992     0069                     	ds	4
   993     006D                     log@exponent:
   994                           
   995                           ; 2 bytes @ 0x4D
   996     006D                     	ds	2
   997                           
   998                           	psect	maintext
   999     0A65                     __pmaintext:	
  1000 ;;
  1001 ;;Main: autosize = 0, tempsize = 0, incstack = 0, save=0
  1002 ;;
  1003 ;; *************** function _main *****************
  1004 ;; Defined at:
  1005 ;;		line 239 in file "newmain.c"
  1006 ;; Parameters:    Size  Location     Type
  1007 ;;		None
  1008 ;; Auto vars:     Size  Location     Type
  1009 ;;  texto_lumino   16   56[BANK1 ] unsigned char [16]
  1010 ;;  texto_menu      1   72[BANK1 ] PTR unsigned char 
  1011 ;;		 -> STR_2(20), 
  1012 ;; Return value:  Size  Location     Type
  1013 ;;                  1    wreg      void 
  1014 ;; Registers used:
  1015 ;;		wreg, fsr0l, fsr0h, status,2, status,0, btemp+1, pclath, cstack
  1016 ;; Tracked objects:
  1017 ;;		On entry : B00/0
  1018 ;;		On exit  : 0/0
  1019 ;;		Unchanged: 0/0
  1020 ;; Data sizes:     COMMON   BANK0   BANK1   BANK3   BANK2
  1021 ;;      Params:         0       0       0       0       0
  1022 ;;      Locals:         0       0      17       0       0
  1023 ;;      Temps:          0       0       0       0       0
  1024 ;;      Totals:         0       0      17       0       0
  1025 ;;Total ram usage:       17 bytes
  1026 ;; Hardware stack levels required when called: 7
  1027 ;; This function calls:
  1028 ;;		_Lcd_Init
  1029 ;;		___xxtofl
  1030 ;;		_configADC
  1031 ;;		_configIntExterns
  1032 ;;		_configPWMRegs
  1033 ;;		_converteLeituraAnParaVolts
  1034 ;;		_converteVoltsParaLux
  1035 ;;		_escreveLCD
  1036 ;;		_getValorADC
  1037 ;;		_handleSetupMenu
  1038 ;;		_intToASCIIinCustomBase
  1039 ;; This function is called by:
  1040 ;;		Startup code after reset
  1041 ;; This function uses a non-reentrant model
  1042 ;;
  1043                           
  1044     0A65                     _main:	
  1045                           ;psect for function _main
  1046                           
  1047     0A65                     l3256:	
  1048                           ;incstack = 0
  1049                           ; Regs used in _main: [wreg-fsr0h+status,2+status,0+btemp+1+pclath+cstack]
  1050                           
  1051                           
  1052                           ;newmain.c: 241:     TRISC = 0x00;
  1053     0A65  1683               	bsf	3,5	;RP0=1, select bank1
  1054     0A66  1303               	bcf	3,6	;RP1=0, select bank1
  1055     0A67  0187               	clrf	7	;volatile
  1056     0A68                     l3258:
  1057                           
  1058                           ;newmain.c: 243:     OPTION_REGbits.INTEDG = 1;
  1059     0A68  1701               	bsf	1,6	;volatile
  1060     0A69                     l3260:
  1061                           
  1062                           ;newmain.c: 244:     TRISB = 1;
  1063     0A69  3001               	movlw	1
  1064     0A6A  0086               	movwf	6	;volatile
  1065     0A6B                     l3262:
  1066                           
  1067                           ;newmain.c: 246:     configADC();
  1068     0A6B  160A  118A  2391  120A  158A  	fcall	_configADC
  1069     0A70                     l3264:
  1070                           
  1071                           ;newmain.c: 247:     configPWMRegs();
  1072     0A70  120A  118A  27F0  120A  158A  	fcall	_configPWMRegs
  1073                           
  1074                           ;newmain.c: 250:     TRISD = 0;
  1075     0A75  1683               	bsf	3,5	;RP0=1, select bank1
  1076     0A76  1303               	bcf	3,6	;RP1=0, select bank1
  1077     0A77  0188               	clrf	8	;volatile
  1078     0A78                     l3266:
  1079                           
  1080                           ;newmain.c: 251:     Lcd_Init();
  1081     0A78  160A  118A  273C  120A  158A  	fcall	_Lcd_Init
  1082     0A7D                     l3268:
  1083                           
  1084                           ;newmain.c: 253:     char* texto_menu;;newmain.c: 255:     texto_menu = "LUMINOSIDADE AT
      +                          UAL:";
  1085     0A7D  3025               	movlw	(low ((STR_2-__stringbase)| (0+32768)))& (0+255)
  1086     0A7E  1683               	bsf	3,5	;RP0=1, select bank1
  1087     0A7F  1303               	bcf	3,6	;RP1=0, select bank1
  1088     0A80  00E8               	movwf	main@texto_menu^(0+128)
  1089     0A81                     l3270:
  1090                           
  1091                           ;newmain.c: 258:     configIntExterns();
  1092     0A81  160A  118A  2368  120A  158A  	fcall	_configIntExterns
  1093     0A86                     l3272:
  1094                           
  1095                           ;newmain.c: 260:     {;newmain.c: 261:         leitura = getValorADC();
  1096     0A86  160A  118A  237C  120A  158A  	fcall	_getValorADC
  1097     0A8B  0873               	movf	?_getValorADC+1,w
  1098     0A8C  1683               	bsf	3,5	;RP0=1, select bank3
  1099     0A8D  1703               	bsf	3,6	;RP1=1, select bank3
  1100     0A8E  00B3               	movwf	(_leitura+1)^(0+384)
  1101     0A8F  0872               	movf	?_getValorADC,w
  1102     0A90  00B2               	movwf	_leitura^(0+384)
  1103     0A91                     l3274:
  1104                           
  1105                           ;newmain.c: 262:         v_ldr = converteLeituraAnParaVolts(leitura);
  1106     0A91  0832               	movf	_leitura^(0+384),w
  1107     0A92  00F2               	movwf	___xxtofl@val
  1108     0A93  0833               	movf	(_leitura+1)^(0+384),w
  1109     0A94  00F3               	movwf	___xxtofl@val+1
  1110     0A95  3000               	movlw	0
  1111     0A96  1BF3               	btfsc	___xxtofl@val+1,7
  1112     0A97  30FF               	movlw	255
  1113     0A98  00F4               	movwf	___xxtofl@val+2
  1114     0A99  00F5               	movwf	___xxtofl@val+3
  1115     0A9A  3001               	movlw	1
  1116     0A9B  120A  158A  231E  120A  158A  	fcall	___xxtofl
  1117     0AA0  0875               	movf	?___xxtofl+3,w
  1118     0AA1  1683               	bsf	3,5	;RP0=1, select bank1
  1119     0AA2  1303               	bcf	3,6	;RP1=0, select bank1
  1120     0AA3  00CD               	movwf	(converteLeituraAnParaVolts@leitura+3)^(0+128)
  1121     0AA4  0874               	movf	?___xxtofl+2,w
  1122     0AA5  00CC               	movwf	(converteLeituraAnParaVolts@leitura+2)^(0+128)
  1123     0AA6  0873               	movf	?___xxtofl+1,w
  1124     0AA7  00CB               	movwf	(converteLeituraAnParaVolts@leitura+1)^(0+128)
  1125     0AA8  0872               	movf	?___xxtofl,w
  1126     0AA9  00CA               	movwf	converteLeituraAnParaVolts@leitura^(0+128)
  1127     0AAA  160A  118A  262E  120A  158A  	fcall	_converteLeituraAnParaVolts
  1128     0AAF  1683               	bsf	3,5	;RP0=1, select bank1
  1129     0AB0  1303               	bcf	3,6	;RP1=0, select bank1
  1130     0AB1  084D               	movf	(?_converteLeituraAnParaVolts+3)^(0+128),w
  1131     0AB2  1683               	bsf	3,5	;RP0=1, select bank3
  1132     0AB3  1703               	bsf	3,6	;RP1=1, select bank3
  1133     0AB4  00AD               	movwf	(_v_ldr+3)^(0+384)
  1134     0AB5  1683               	bsf	3,5	;RP0=1, select bank1
  1135     0AB6  1303               	bcf	3,6	;RP1=0, select bank1
  1136     0AB7  084C               	movf	(?_converteLeituraAnParaVolts+2)^(0+128),w
  1137     0AB8  1683               	bsf	3,5	;RP0=1, select bank3
  1138     0AB9  1703               	bsf	3,6	;RP1=1, select bank3
  1139     0ABA  00AC               	movwf	(_v_ldr+2)^(0+384)
  1140     0ABB  1683               	bsf	3,5	;RP0=1, select bank1
  1141     0ABC  1303               	bcf	3,6	;RP1=0, select bank1
  1142     0ABD  084B               	movf	(?_converteLeituraAnParaVolts+1)^(0+128),w
  1143     0ABE  1683               	bsf	3,5	;RP0=1, select bank3
  1144     0ABF  1703               	bsf	3,6	;RP1=1, select bank3
  1145     0AC0  00AB               	movwf	(_v_ldr+1)^(0+384)
  1146     0AC1  1683               	bsf	3,5	;RP0=1, select bank1
  1147     0AC2  1303               	bcf	3,6	;RP1=0, select bank1
  1148     0AC3  084A               	movf	?_converteLeituraAnParaVolts^(0+128),w
  1149     0AC4  1683               	bsf	3,5	;RP0=1, select bank3
  1150     0AC5  1703               	bsf	3,6	;RP1=1, select bank3
  1151     0AC6  00AA               	movwf	_v_ldr^(0+384)
  1152     0AC7                     l3276:
  1153                           
  1154                           ;newmain.c: 263:         luminosidade_atual = converteVoltsParaLux(v_ldr);
  1155     0AC7  082D               	movf	(_v_ldr+3)^(0+384),w
  1156     0AC8  1683               	bsf	3,5	;RP0=1, select bank1
  1157     0AC9  1303               	bcf	3,6	;RP1=0, select bank1
  1158     0ACA  00D7               	movwf	(converteVoltsParaLux@v_ldr+3)^(0+128)
  1159     0ACB  1683               	bsf	3,5	;RP0=1, select bank3
  1160     0ACC  1703               	bsf	3,6	;RP1=1, select bank3
  1161     0ACD  082C               	movf	(_v_ldr+2)^(0+384),w
  1162     0ACE  1683               	bsf	3,5	;RP0=1, select bank1
  1163     0ACF  1303               	bcf	3,6	;RP1=0, select bank1
  1164     0AD0  00D6               	movwf	(converteVoltsParaLux@v_ldr+2)^(0+128)
  1165     0AD1  1683               	bsf	3,5	;RP0=1, select bank3
  1166     0AD2  1703               	bsf	3,6	;RP1=1, select bank3
  1167     0AD3  082B               	movf	(_v_ldr+1)^(0+384),w
  1168     0AD4  1683               	bsf	3,5	;RP0=1, select bank1
  1169     0AD5  1303               	bcf	3,6	;RP1=0, select bank1
  1170     0AD6  00D5               	movwf	(converteVoltsParaLux@v_ldr+1)^(0+128)
  1171     0AD7  1683               	bsf	3,5	;RP0=1, select bank3
  1172     0AD8  1703               	bsf	3,6	;RP1=1, select bank3
  1173     0AD9  082A               	movf	_v_ldr^(0+384),w
  1174     0ADA  1683               	bsf	3,5	;RP0=1, select bank1
  1175     0ADB  1303               	bcf	3,6	;RP1=0, select bank1
  1176     0ADC  00D4               	movwf	converteVoltsParaLux@v_ldr^(0+128)
  1177     0ADD  120A  118A  2384  120A  158A  	fcall	_converteVoltsParaLux
  1178     0AE2  1683               	bsf	3,5	;RP0=1, select bank1
  1179     0AE3  1303               	bcf	3,6	;RP1=0, select bank1
  1180     0AE4  0855               	movf	(?_converteVoltsParaLux+1)^(0+128),w
  1181     0AE5  1683               	bsf	3,5	;RP0=1, select bank3
  1182     0AE6  1703               	bsf	3,6	;RP1=1, select bank3
  1183     0AE7  00B1               	movwf	(_luminosidade_atual+1)^(0+384)
  1184     0AE8  1683               	bsf	3,5	;RP0=1, select bank1
  1185     0AE9  1303               	bcf	3,6	;RP1=0, select bank1
  1186     0AEA  0854               	movf	?_converteVoltsParaLux^(0+128),w
  1187     0AEB  1683               	bsf	3,5	;RP0=1, select bank3
  1188     0AEC  1703               	bsf	3,6	;RP1=1, select bank3
  1189     0AED  00B0               	movwf	_luminosidade_atual^(0+384)
  1190     0AEE                     l3278:
  1191                           
  1192                           ;newmain.c: 264:         handleSetupMenu();
  1193     0AEE  160A  118A  2428  120A  158A  	fcall	_handleSetupMenu
  1194     0AF3                     l3280:
  1195                           
  1196                           ;newmain.c: 265:         CCPR1L = porcentagem_PWM;
  1197     0AF3  3032               	movlw	50
  1198     0AF4  1283               	bcf	3,5	;RP0=0, select bank0
  1199     0AF5  1303               	bcf	3,6	;RP1=0, select bank0
  1200     0AF6  0095               	movwf	21	;volatile
  1201     0AF7                     l3282:
  1202                           
  1203                           ;newmain.c: 266:         char texto_luminosidade [16];;newmain.c: 267:         intToASCI
      +                          IinCustomBase (luminosidade_atual , texto_luminosidade, 10);
  1204     0AF7  1683               	bsf	3,5	;RP0=1, select bank3
  1205     0AF8  1703               	bsf	3,6	;RP1=1, select bank3
  1206     0AF9  0831               	movf	(_luminosidade_atual+1)^(0+384),w
  1207     0AFA  1283               	bcf	3,5	;RP0=0, select bank0
  1208     0AFB  1303               	bcf	3,6	;RP1=0, select bank0
  1209     0AFC  00A1               	movwf	intToASCIIinCustomBase@numero+1
  1210     0AFD  1683               	bsf	3,5	;RP0=1, select bank3
  1211     0AFE  1703               	bsf	3,6	;RP1=1, select bank3
  1212     0AFF  0830               	movf	_luminosidade_atual^(0+384),w
  1213     0B00  1283               	bcf	3,5	;RP0=0, select bank0
  1214     0B01  1303               	bcf	3,6	;RP1=0, select bank0
  1215     0B02  00A0               	movwf	intToASCIIinCustomBase@numero
  1216     0B03  30D8               	movlw	(low (main@texto_luminosidade| 0))& (0+255)
  1217     0B04  00A2               	movwf	intToASCIIinCustomBase@resultado
  1218     0B05  300A               	movlw	10
  1219     0B06  00A3               	movwf	intToASCIIinCustomBase@base
  1220     0B07  3000               	movlw	0
  1221     0B08  00A4               	movwf	intToASCIIinCustomBase@base+1
  1222     0B09  120A  158A  23D8  120A  158A  	fcall	_intToASCIIinCustomBase
  1223     0B0E                     l3284:
  1224                           
  1225                           ;newmain.c: 269:         escreveLCD(texto_menu, texto_luminosidade);
  1226     0B0E  30D8               	movlw	(low (main@texto_luminosidade| 0))& (0+255)
  1227     0B0F  1283               	bcf	3,5	;RP0=0, select bank0
  1228     0B10  1303               	bcf	3,6	;RP1=0, select bank0
  1229     0B11  00A5               	movwf	escreveLCD@linha2
  1230     0B12  1683               	bsf	3,5	;RP0=1, select bank1
  1231     0B13  1303               	bcf	3,6	;RP1=0, select bank1
  1232     0B14  0868               	movf	main@texto_menu^(0+128),w
  1233     0B15  160A  118A  2457  120A  158A  	fcall	_escreveLCD
  1234     0B1A  2A86               	goto	l3272
  1235     0B1B  120A  118A  280C   	ljmp	start
  1236     0B1E                     __end_of_main:
  1237                           
  1238                           	psect	text1
  1239     1428                     __ptext1:	
  1240 ;; *************** function _handleSetupMenu *****************
  1241 ;; Defined at:
  1242 ;;		line 190 in file "newmain.c"
  1243 ;; Parameters:    Size  Location     Type
  1244 ;;		None
  1245 ;; Auto vars:     Size  Location     Type
  1246 ;;  texto_lumino   16   18[BANK0 ] unsigned char [16]
  1247 ;; Return value:  Size  Location     Type
  1248 ;;                  1    wreg      void 
  1249 ;; Registers used:
  1250 ;;		wreg, fsr0l, fsr0h, status,2, status,0, btemp+1, pclath, cstack
  1251 ;; Tracked objects:
  1252 ;;		On entry : 0/0
  1253 ;;		On exit  : 0/0
  1254 ;;		Unchanged: 0/0
  1255 ;; Data sizes:     COMMON   BANK0   BANK1   BANK3   BANK2
  1256 ;;      Params:         0       0       0       0       0
  1257 ;;      Locals:         0      16       0       0       0
  1258 ;;      Temps:          0       0       0       0       0
  1259 ;;      Totals:         0      16       0       0       0
  1260 ;;Total ram usage:       16 bytes
  1261 ;; Hardware stack levels used: 1
  1262 ;; Hardware stack levels required when called: 5
  1263 ;; This function calls:
  1264 ;;		_escreveLCD
  1265 ;;		_intToASCIIinCustomBase
  1266 ;;		_verificaBtnMais
  1267 ;;		_verificaBtnMenos
  1268 ;; This function is called by:
  1269 ;;		_main
  1270 ;; This function uses a non-reentrant model
  1271 ;;
  1272                           
  1273     1428                     _handleSetupMenu:	
  1274                           ;psect for function _handleSetupMenu
  1275                           
  1276     1428                     l3226:	
  1277                           ;incstack = 0
  1278                           ; Regs used in _handleSetupMenu: [wreg-fsr0h+status,2+status,0+btemp+1+pclath+cstack]
  1279                           
  1280                           
  1281                           ;newmain.c: 192:     while (menu_ativo)
  1282     1428  2C4E               	goto	l3234
  1283     1429                     l3228:
  1284                           
  1285                           ;newmain.c: 193:     {;newmain.c: 196:         verificaBtnMais();
  1286     1429  160A  118A  248E  160A  118A  	fcall	_verificaBtnMais
  1287                           
  1288                           ;newmain.c: 197:         verificaBtnMenos();
  1289     142E  160A  118A  24C5  160A  118A  	fcall	_verificaBtnMenos
  1290     1433                     l3230:
  1291                           
  1292                           ;newmain.c: 198:         char texto_luminosidade_desejada [16];;newmain.c: 199:         
      +                          intToASCIIinCustomBase (luminosidade_desejada , texto_luminosidade_desejada, 10);
  1293     1433  087B               	movf	_luminosidade_desejada+1,w
  1294     1434  1283               	bcf	3,5	;RP0=0, select bank0
  1295     1435  1303               	bcf	3,6	;RP1=0, select bank0
  1296     1436  00A1               	movwf	intToASCIIinCustomBase@numero+1
  1297     1437  087A               	movf	_luminosidade_desejada,w
  1298     1438  00A0               	movwf	intToASCIIinCustomBase@numero
  1299     1439  3032               	movlw	(low (handleSetupMenu@texto_luminosidade_desejada| 0))& (0+255)
  1300     143A  00A2               	movwf	intToASCIIinCustomBase@resultado
  1301     143B  300A               	movlw	10
  1302     143C  00A3               	movwf	intToASCIIinCustomBase@base
  1303     143D  3000               	movlw	0
  1304     143E  00A4               	movwf	intToASCIIinCustomBase@base+1
  1305     143F  120A  158A  23D8  160A  118A  	fcall	_intToASCIIinCustomBase
  1306     1444                     l3232:
  1307                           
  1308                           ;newmain.c: 200:         escreveLCD("MENU - OBJETIVO", texto_luminosidade_desejada);
  1309     1444  3032               	movlw	(low (handleSetupMenu@texto_luminosidade_desejada| 0))& (0+255)
  1310     1445  1283               	bcf	3,5	;RP0=0, select bank0
  1311     1446  1303               	bcf	3,6	;RP1=0, select bank0
  1312     1447  00A5               	movwf	escreveLCD@linha2
  1313     1448  3039               	movlw	(low ((STR_1-__stringbase)| (0+32768)))& (0+255)
  1314     1449  160A  118A  2457  160A  118A  	fcall	_escreveLCD
  1315     144E                     l3234:
  1316                           
  1317                           ;newmain.c: 192:     while (menu_ativo)
  1318     144E  1683               	bsf	3,5	;RP0=1, select bank1
  1319     144F  1303               	bcf	3,6	;RP1=0, select bank1
  1320     1450  0869               	movf	_menu_ativo^(0+128),w
  1321     1451  046A               	iorwf	(_menu_ativo+1)^(0+128),w
  1322     1452  1D03               	btfss	3,2
  1323     1453  2C55               	goto	u4661
  1324     1454  2C56               	goto	u4660
  1325     1455                     u4661:
  1326     1455  2C29               	goto	l3228
  1327     1456                     u4660:
  1328     1456                     l143:
  1329     1456  0008               	return
  1330     1457                     __end_of_handleSetupMenu:
  1331                           
  1332                           	psect	text2
  1333     14C5                     __ptext2:	
  1334 ;; *************** function _verificaBtnMenos *****************
  1335 ;; Defined at:
  1336 ;;		line 139 in file "newmain.c"
  1337 ;; Parameters:    Size  Location     Type
  1338 ;;		None
  1339 ;; Auto vars:     Size  Location     Type
  1340 ;;		None
  1341 ;; Return value:  Size  Location     Type
  1342 ;;                  1    wreg      void 
  1343 ;; Registers used:
  1344 ;;		wreg, status,2, status,0, btemp+1
  1345 ;; Tracked objects:
  1346 ;;		On entry : 0/0
  1347 ;;		On exit  : 0/0
  1348 ;;		Unchanged: 0/0
  1349 ;; Data sizes:     COMMON   BANK0   BANK1   BANK3   BANK2
  1350 ;;      Params:         0       0       0       0       0
  1351 ;;      Locals:         0       0       0       0       0
  1352 ;;      Temps:          0       0       0       0       0
  1353 ;;      Totals:         0       0       0       0       0
  1354 ;;Total ram usage:        0 bytes
  1355 ;; Hardware stack levels used: 1
  1356 ;; Hardware stack levels required when called: 1
  1357 ;; This function calls:
  1358 ;;		Nothing
  1359 ;; This function is called by:
  1360 ;;		_handleSetupMenu
  1361 ;; This function uses a non-reentrant model
  1362 ;;
  1363                           
  1364     14C5                     _verificaBtnMenos:	
  1365                           ;psect for function _verificaBtnMenos
  1366                           
  1367     14C5                     l2556:	
  1368                           ;incstack = 0
  1369                           ; Regs used in _verificaBtnMenos: [wreg+status,2+status,0+btemp+1]
  1370                           
  1371                           
  1372                           ;newmain.c: 141:     if(!btn_menos_aux && !PORTBbits.RB3){
  1373     14C5  1683               	bsf	3,5	;RP0=1, select bank1
  1374     14C6  1303               	bcf	3,6	;RP1=0, select bank1
  1375     14C7  086B               	movf	_btn_menos_aux^(0+128),w
  1376     14C8  046C               	iorwf	(_btn_menos_aux+1)^(0+128),w
  1377     14C9  1D03               	btfss	3,2
  1378     14CA  2CCC               	goto	u3581
  1379     14CB  2CCD               	goto	u3580
  1380     14CC                     u3581:
  1381     14CC  2CF2               	goto	l121
  1382     14CD                     u3580:
  1383     14CD                     l2558:
  1384     14CD  1283               	bcf	3,5	;RP0=0, select bank0
  1385     14CE  1303               	bcf	3,6	;RP1=0, select bank0
  1386     14CF  1986               	btfsc	6,3	;volatile
  1387     14D0  2CD2               	goto	u3591
  1388     14D1  2CD3               	goto	u3590
  1389     14D2                     u3591:
  1390     14D2  2CF2               	goto	l121
  1391     14D3                     u3590:
  1392     14D3                     l2560:
  1393                           
  1394                           ;newmain.c: 142:         btn_menos_aux = 1;
  1395     14D3  3001               	movlw	1
  1396     14D4  1683               	bsf	3,5	;RP0=1, select bank1
  1397     14D5  1303               	bcf	3,6	;RP1=0, select bank1
  1398     14D6  00EB               	movwf	_btn_menos_aux^(0+128)
  1399     14D7  3000               	movlw	0
  1400     14D8  00EC               	movwf	(_btn_menos_aux^(0+128)+1)
  1401     14D9                     l2562:
  1402                           
  1403                           ;newmain.c: 143:         if(luminosidade_desejada>10){
  1404     14D9  087B               	movf	_luminosidade_desejada+1,w
  1405     14DA  3A80               	xorlw	128
  1406     14DB  00FF               	movwf	btemp+1
  1407     14DC  3080               	movlw	128
  1408     14DD  027F               	subwf	btemp+1,w
  1409     14DE  1D03               	skipz
  1410     14DF  2CE2               	goto	u3605
  1411     14E0  300B               	movlw	11
  1412     14E1  027A               	subwf	_luminosidade_desejada,w
  1413     14E2                     u3605:
  1414     14E2  1C03               	skipc
  1415     14E3  2CE5               	goto	u3601
  1416     14E4  2CE6               	goto	u3600
  1417     14E5                     u3601:
  1418     14E5  2CED               	goto	l2566
  1419     14E6                     u3600:
  1420     14E6                     l2564:
  1421                           
  1422                           ;newmain.c: 144:             luminosidade_desejada-=10;
  1423     14E6  30F6               	movlw	246
  1424     14E7  07FA               	addwf	_luminosidade_desejada,f
  1425     14E8  1803               	skipnc
  1426     14E9  0AFB               	incf	_luminosidade_desejada+1,f
  1427     14EA  30FF               	movlw	255
  1428     14EB  07FB               	addwf	_luminosidade_desejada+1,f
  1429                           
  1430                           ;newmain.c: 145:         }
  1431     14EC  2CFB               	goto	l126
  1432     14ED                     l2566:
  1433                           
  1434                           ;newmain.c: 147:             luminosidade_desejada = 10;
  1435     14ED  300A               	movlw	10
  1436     14EE  00FA               	movwf	_luminosidade_desejada
  1437     14EF  3000               	movlw	0
  1438     14F0  00FB               	movwf	_luminosidade_desejada+1
  1439     14F1  2CFB               	goto	l126
  1440     14F2                     l121:	
  1441                           ;newmain.c: 150:     else{
  1442                           
  1443                           
  1444                           ;newmain.c: 151:         if(PORTBbits.RB3){
  1445     14F2  1283               	bcf	3,5	;RP0=0, select bank0
  1446     14F3  1D86               	btfss	6,3	;volatile
  1447     14F4  2CF6               	goto	u3611
  1448     14F5  2CF7               	goto	u3610
  1449     14F6                     u3611:
  1450     14F6  2CFB               	goto	l126
  1451     14F7                     u3610:
  1452     14F7                     l2568:
  1453                           
  1454                           ;newmain.c: 152:             btn_menos_aux = 0;
  1455     14F7  1683               	bsf	3,5	;RP0=1, select bank1
  1456     14F8  1303               	bcf	3,6	;RP1=0, select bank1
  1457     14F9  01EB               	clrf	_btn_menos_aux^(0+128)
  1458     14FA  01EC               	clrf	(_btn_menos_aux+1)^(0+128)
  1459     14FB                     l126:
  1460     14FB  0008               	return
  1461     14FC                     __end_of_verificaBtnMenos:
  1462                           
  1463                           	psect	text3
  1464     148E                     __ptext3:	
  1465 ;; *************** function _verificaBtnMais *****************
  1466 ;; Defined at:
  1467 ;;		line 119 in file "newmain.c"
  1468 ;; Parameters:    Size  Location     Type
  1469 ;;		None
  1470 ;; Auto vars:     Size  Location     Type
  1471 ;;		None
  1472 ;; Return value:  Size  Location     Type
  1473 ;;                  1    wreg      void 
  1474 ;; Registers used:
  1475 ;;		wreg, status,2, status,0, btemp+1
  1476 ;; Tracked objects:
  1477 ;;		On entry : 0/0
  1478 ;;		On exit  : 0/0
  1479 ;;		Unchanged: 0/0
  1480 ;; Data sizes:     COMMON   BANK0   BANK1   BANK3   BANK2
  1481 ;;      Params:         0       0       0       0       0
  1482 ;;      Locals:         0       0       0       0       0
  1483 ;;      Temps:          0       0       0       0       0
  1484 ;;      Totals:         0       0       0       0       0
  1485 ;;Total ram usage:        0 bytes
  1486 ;; Hardware stack levels used: 1
  1487 ;; Hardware stack levels required when called: 1
  1488 ;; This function calls:
  1489 ;;		Nothing
  1490 ;; This function is called by:
  1491 ;;		_handleSetupMenu
  1492 ;; This function uses a non-reentrant model
  1493 ;;
  1494                           
  1495     148E                     _verificaBtnMais:	
  1496                           ;psect for function _verificaBtnMais
  1497                           
  1498     148E                     l2542:	
  1499                           ;incstack = 0
  1500                           ; Regs used in _verificaBtnMais: [wreg+status,2+status,0+btemp+1]
  1501                           
  1502                           
  1503                           ;newmain.c: 122:     if(!btn_mais_aux && !PORTBbits.RB2){
  1504     148E  1683               	bsf	3,5	;RP0=1, select bank1
  1505     148F  1303               	bcf	3,6	;RP1=0, select bank1
  1506     1490  086D               	movf	_btn_mais_aux^(0+128),w
  1507     1491  046E               	iorwf	(_btn_mais_aux+1)^(0+128),w
  1508     1492  1D03               	btfss	3,2
  1509     1493  2C95               	goto	u3541
  1510     1494  2C96               	goto	u3540
  1511     1495                     u3541:
  1512     1495  2CBB               	goto	l113
  1513     1496                     u3540:
  1514     1496                     l2544:
  1515     1496  1283               	bcf	3,5	;RP0=0, select bank0
  1516     1497  1303               	bcf	3,6	;RP1=0, select bank0
  1517     1498  1906               	btfsc	6,2	;volatile
  1518     1499  2C9B               	goto	u3551
  1519     149A  2C9C               	goto	u3550
  1520     149B                     u3551:
  1521     149B  2CBB               	goto	l113
  1522     149C                     u3550:
  1523     149C                     l2546:
  1524                           
  1525                           ;newmain.c: 123:         btn_mais_aux = 1;
  1526     149C  3001               	movlw	1
  1527     149D  1683               	bsf	3,5	;RP0=1, select bank1
  1528     149E  1303               	bcf	3,6	;RP1=0, select bank1
  1529     149F  00ED               	movwf	_btn_mais_aux^(0+128)
  1530     14A0  3000               	movlw	0
  1531     14A1  00EE               	movwf	(_btn_mais_aux^(0+128)+1)
  1532     14A2                     l2548:
  1533                           
  1534                           ;newmain.c: 124:         if(luminosidade_desejada<1000){
  1535     14A2  087B               	movf	_luminosidade_desejada+1,w
  1536     14A3  3A80               	xorlw	128
  1537     14A4  00FF               	movwf	btemp+1
  1538     14A5  3083               	movlw	131
  1539     14A6  027F               	subwf	btemp+1,w
  1540     14A7  1D03               	skipz
  1541     14A8  2CAB               	goto	u3565
  1542     14A9  30E8               	movlw	232
  1543     14AA  027A               	subwf	_luminosidade_desejada,w
  1544     14AB                     u3565:
  1545     14AB  1803               	skipnc
  1546     14AC  2CAE               	goto	u3561
  1547     14AD  2CAF               	goto	u3560
  1548     14AE                     u3561:
  1549     14AE  2CB6               	goto	l2552
  1550     14AF                     u3560:
  1551     14AF                     l2550:
  1552                           
  1553                           ;newmain.c: 125:             luminosidade_desejada+=10;
  1554     14AF  300A               	movlw	10
  1555     14B0  07FA               	addwf	_luminosidade_desejada,f
  1556     14B1  1803               	skipnc
  1557     14B2  0AFB               	incf	_luminosidade_desejada+1,f
  1558     14B3  3000               	movlw	0
  1559     14B4  07FB               	addwf	_luminosidade_desejada+1,f
  1560                           
  1561                           ;newmain.c: 126:         }
  1562     14B5  2CC4               	goto	l118
  1563     14B6                     l2552:
  1564                           
  1565                           ;newmain.c: 128:             luminosidade_desejada = 1000;
  1566     14B6  30E8               	movlw	232
  1567     14B7  00FA               	movwf	_luminosidade_desejada
  1568     14B8  3003               	movlw	3
  1569     14B9  00FB               	movwf	_luminosidade_desejada+1
  1570     14BA  2CC4               	goto	l118
  1571     14BB                     l113:	
  1572                           ;newmain.c: 131:     else{
  1573                           
  1574                           
  1575                           ;newmain.c: 132:         if(PORTBbits.RB2){
  1576     14BB  1283               	bcf	3,5	;RP0=0, select bank0
  1577     14BC  1D06               	btfss	6,2	;volatile
  1578     14BD  2CBF               	goto	u3571
  1579     14BE  2CC0               	goto	u3570
  1580     14BF                     u3571:
  1581     14BF  2CC4               	goto	l118
  1582     14C0                     u3570:
  1583     14C0                     l2554:
  1584                           
  1585                           ;newmain.c: 133:             btn_mais_aux = 0;
  1586     14C0  1683               	bsf	3,5	;RP0=1, select bank1
  1587     14C1  1303               	bcf	3,6	;RP1=0, select bank1
  1588     14C2  01ED               	clrf	_btn_mais_aux^(0+128)
  1589     14C3  01EE               	clrf	(_btn_mais_aux+1)^(0+128)
  1590     14C4                     l118:
  1591     14C4  0008               	return
  1592     14C5                     __end_of_verificaBtnMais:
  1593                           
  1594                           	psect	text4
  1595     0BD8                     __ptext4:	
  1596 ;; *************** function _intToASCIIinCustomBase *****************
  1597 ;; Defined at:
  1598 ;;		line 86 in file "newmain.c"
  1599 ;; Parameters:    Size  Location     Type
  1600 ;;  numero          2    0[BANK0 ] int 
  1601 ;;  resultado       1    2[BANK0 ] PTR unsigned char 
  1602 ;;		 -> main@texto_luminosidade(16), handleSetupMenu@texto_luminosidade_desejada(16), 
  1603 ;;  base            2    3[BANK0 ] int 
  1604 ;; Auto vars:     Size  Location     Type
  1605 ;;  temp            1    7[BANK0 ] unsigned char 
  1606 ;;  indice          2   16[BANK0 ] int 
  1607 ;;  j               2   14[BANK0 ] int 
  1608 ;;  i               2   12[BANK0 ] int 
  1609 ;;  resto           2   10[BANK0 ] int 
  1610 ;; Return value:  Size  Location     Type
  1611 ;;                  1    wreg      void 
  1612 ;; Registers used:
  1613 ;;		wreg, fsr0l, fsr0h, status,2, status,0, btemp+1, pclath, cstack
  1614 ;; Tracked objects:
  1615 ;;		On entry : 0/0
  1616 ;;		On exit  : 0/0
  1617 ;;		Unchanged: 0/0
  1618 ;; Data sizes:     COMMON   BANK0   BANK1   BANK3   BANK2
  1619 ;;      Params:         0       5       0       0       0
  1620 ;;      Locals:         0      11       0       0       0
  1621 ;;      Temps:          0       2       0       0       0
  1622 ;;      Totals:         0      18       0       0       0
  1623 ;;Total ram usage:       18 bytes
  1624 ;; Hardware stack levels used: 1
  1625 ;; Hardware stack levels required when called: 2
  1626 ;; This function calls:
  1627 ;;		___awdiv
  1628 ;;		___awmod
  1629 ;; This function is called by:
  1630 ;;		_handleSetupMenu
  1631 ;;		_main
  1632 ;; This function uses a non-reentrant model
  1633 ;;
  1634                           
  1635     0BD8                     _intToASCIIinCustomBase:	
  1636                           ;psect for function _intToASCIIinCustomBase
  1637                           
  1638     0BD8                     l3156:	
  1639                           ;incstack = 0
  1640                           ; Regs used in _intToASCIIinCustomBase: [wreg-fsr0h+status,2+status,0+btemp+1+pclath+cst
      +                          ack]
  1641                           
  1642                           
  1643                           ;newmain.c: 87:     int indice = 0;
  1644     0BD8  1283               	bcf	3,5	;RP0=0, select bank0
  1645     0BD9  1303               	bcf	3,6	;RP1=0, select bank0
  1646     0BDA  01B0               	clrf	intToASCIIinCustomBase@indice
  1647     0BDB  01B1               	clrf	intToASCIIinCustomBase@indice+1
  1648     0BDC                     l3158:
  1649                           
  1650                           ;newmain.c: 88:     int resto;;newmain.c: 89:     if (numero == 0) {
  1651     0BDC  0820               	movf	intToASCIIinCustomBase@numero,w
  1652     0BDD  0421               	iorwf	intToASCIIinCustomBase@numero+1,w
  1653     0BDE  1D03               	btfss	3,2
  1654     0BDF  2BE1               	goto	u4621
  1655     0BE0  2BE2               	goto	u4620
  1656     0BE1                     u4621:
  1657     0BE1  2C4A               	goto	l3182
  1658     0BE2                     u4620:
  1659     0BE2                     l3160:
  1660                           
  1661                           ;newmain.c: 90:         resultado[indice++] = '0';
  1662     0BE2  0822               	movf	intToASCIIinCustomBase@resultado,w
  1663     0BE3  0084               	movwf	4
  1664     0BE4  3030               	movlw	48
  1665     0BE5  1383               	bcf	3,7	;select IRP bank0
  1666     0BE6  0080               	movwf	0
  1667     0BE7                     l3162:
  1668     0BE7  3001               	movlw	1
  1669     0BE8  07B0               	addwf	intToASCIIinCustomBase@indice,f
  1670     0BE9  1803               	skipnc
  1671     0BEA  0AB1               	incf	intToASCIIinCustomBase@indice+1,f
  1672     0BEB  3000               	movlw	0
  1673     0BEC  07B1               	addwf	intToASCIIinCustomBase@indice+1,f
  1674     0BED                     l3164:
  1675                           
  1676                           ;newmain.c: 91:         resultado[indice] = '\0';
  1677     0BED  0830               	movf	intToASCIIinCustomBase@indice,w
  1678     0BEE  0722               	addwf	intToASCIIinCustomBase@resultado,w
  1679     0BEF  00A5               	movwf	??_intToASCIIinCustomBase
  1680     0BF0  0825               	movf	??_intToASCIIinCustomBase,w
  1681     0BF1  0084               	movwf	4
  1682     0BF2  0180               	clrf	0
  1683     0BF3  2C9B               	goto	l97
  1684     0BF4                     l3168:
  1685                           
  1686                           ;newmain.c: 95:         resto = numero % base;
  1687     0BF4  0824               	movf	intToASCIIinCustomBase@base+1,w
  1688     0BF5  00F3               	movwf	___awmod@divisor+1
  1689     0BF6  0823               	movf	intToASCIIinCustomBase@base,w
  1690     0BF7  00F2               	movwf	___awmod@divisor
  1691     0BF8  0821               	movf	intToASCIIinCustomBase@numero+1,w
  1692     0BF9  00F5               	movwf	___awmod@dividend+1
  1693     0BFA  0820               	movf	intToASCIIinCustomBase@numero,w
  1694     0BFB  00F4               	movwf	___awmod@dividend
  1695     0BFC  160A  118A  2687  120A  158A  	fcall	___awmod
  1696     0C01  0873               	movf	?___awmod+1,w
  1697     0C02  1283               	bcf	3,5	;RP0=0, select bank0
  1698     0C03  1303               	bcf	3,6	;RP1=0, select bank0
  1699     0C04  00AB               	movwf	intToASCIIinCustomBase@resto+1
  1700     0C05  0872               	movf	?___awmod,w
  1701     0C06  00AA               	movwf	intToASCIIinCustomBase@resto
  1702     0C07                     l3170:
  1703                           
  1704                           ;newmain.c: 96:         resultado[indice++] = (resto > 9) ? (resto - 10) + 'A' : resto +
      +                           '0';
  1705     0C07  082B               	movf	intToASCIIinCustomBase@resto+1,w
  1706     0C08  3A80               	xorlw	128
  1707     0C09  00FF               	movwf	btemp+1
  1708     0C0A  3080               	movlw	128
  1709     0C0B  027F               	subwf	btemp+1,w
  1710     0C0C  1D03               	skipz
  1711     0C0D  2C10               	goto	u4635
  1712     0C0E  300A               	movlw	10
  1713     0C0F  022A               	subwf	intToASCIIinCustomBase@resto,w
  1714     0C10                     u4635:
  1715     0C10  1803               	skipnc
  1716     0C11  2C13               	goto	u4631
  1717     0C12  2C14               	goto	u4630
  1718     0C13                     u4631:
  1719     0C13  2C1F               	goto	l3174
  1720     0C14                     u4630:
  1721     0C14                     l3172:
  1722     0C14  1283               	bcf	3,5	;RP0=0, select bank0
  1723     0C15  1303               	bcf	3,6	;RP1=0, select bank0
  1724     0C16  082A               	movf	intToASCIIinCustomBase@resto,w
  1725     0C17  3E30               	addlw	48
  1726     0C18  00A8               	movwf	_intToASCIIinCustomBase$279
  1727     0C19  082B               	movf	intToASCIIinCustomBase@resto+1,w
  1728     0C1A  1803               	skipnc
  1729     0C1B  3E01               	addlw	1
  1730     0C1C  3E00               	addlw	0
  1731     0C1D  00A9               	movwf	_intToASCIIinCustomBase$279+1
  1732     0C1E  2C29               	goto	l3176
  1733     0C1F                     l3174:
  1734     0C1F  1283               	bcf	3,5	;RP0=0, select bank0
  1735     0C20  1303               	bcf	3,6	;RP1=0, select bank0
  1736     0C21  082A               	movf	intToASCIIinCustomBase@resto,w
  1737     0C22  3E37               	addlw	55
  1738     0C23  00A8               	movwf	_intToASCIIinCustomBase$279
  1739     0C24  082B               	movf	intToASCIIinCustomBase@resto+1,w
  1740     0C25  1803               	skipnc
  1741     0C26  3E01               	addlw	1
  1742     0C27  3E00               	addlw	0
  1743     0C28  00A9               	movwf	_intToASCIIinCustomBase$279+1
  1744     0C29                     l3176:
  1745     0C29  0830               	movf	intToASCIIinCustomBase@indice,w
  1746     0C2A  0722               	addwf	intToASCIIinCustomBase@resultado,w
  1747     0C2B  00A5               	movwf	??_intToASCIIinCustomBase
  1748     0C2C  0825               	movf	??_intToASCIIinCustomBase,w
  1749     0C2D  0084               	movwf	4
  1750     0C2E  0828               	movf	_intToASCIIinCustomBase$279,w
  1751     0C2F  1383               	bcf	3,7	;select IRP bank0
  1752     0C30  0080               	movwf	0
  1753     0C31                     l3178:
  1754     0C31  3001               	movlw	1
  1755     0C32  07B0               	addwf	intToASCIIinCustomBase@indice,f
  1756     0C33  1803               	skipnc
  1757     0C34  0AB1               	incf	intToASCIIinCustomBase@indice+1,f
  1758     0C35  3000               	movlw	0
  1759     0C36  07B1               	addwf	intToASCIIinCustomBase@indice+1,f
  1760     0C37                     l3180:
  1761                           
  1762                           ;newmain.c: 97:         numero /= base;
  1763     0C37  0824               	movf	intToASCIIinCustomBase@base+1,w
  1764     0C38  00F3               	movwf	___awdiv@divisor+1
  1765     0C39  0823               	movf	intToASCIIinCustomBase@base,w
  1766     0C3A  00F2               	movwf	___awdiv@divisor
  1767     0C3B  0821               	movf	intToASCIIinCustomBase@numero+1,w
  1768     0C3C  00F5               	movwf	___awdiv@dividend+1
  1769     0C3D  0820               	movf	intToASCIIinCustomBase@numero,w
  1770     0C3E  00F4               	movwf	___awdiv@dividend
  1771     0C3F  160A  118A  2799  120A  158A  	fcall	___awdiv
  1772     0C44  0873               	movf	?___awdiv+1,w
  1773     0C45  1283               	bcf	3,5	;RP0=0, select bank0
  1774     0C46  1303               	bcf	3,6	;RP1=0, select bank0
  1775     0C47  00A1               	movwf	intToASCIIinCustomBase@numero+1
  1776     0C48  0872               	movf	?___awdiv,w
  1777     0C49  00A0               	movwf	intToASCIIinCustomBase@numero
  1778     0C4A                     l3182:
  1779                           
  1780                           ;newmain.c: 94:     while (numero != 0) {
  1781     0C4A  0820               	movf	intToASCIIinCustomBase@numero,w
  1782     0C4B  0421               	iorwf	intToASCIIinCustomBase@numero+1,w
  1783     0C4C  1D03               	btfss	3,2
  1784     0C4D  2C4F               	goto	u4641
  1785     0C4E  2C50               	goto	u4640
  1786     0C4F                     u4641:
  1787     0C4F  2BF4               	goto	l3168
  1788     0C50                     u4640:
  1789     0C50                     l3184:
  1790                           
  1791                           ;newmain.c: 99:     resultado[indice] = '\0';
  1792     0C50  0830               	movf	intToASCIIinCustomBase@indice,w
  1793     0C51  0722               	addwf	intToASCIIinCustomBase@resultado,w
  1794     0C52  00A5               	movwf	??_intToASCIIinCustomBase
  1795     0C53  0825               	movf	??_intToASCIIinCustomBase,w
  1796     0C54  0084               	movwf	4
  1797     0C55  1383               	bcf	3,7	;select IRP bank0
  1798     0C56  0180               	clrf	0
  1799     0C57                     l3186:
  1800                           
  1801                           ;newmain.c: 102:     int i, j;;newmain.c: 103:     for (i = 0, j = indice - 1; i < j; i+
      +                          +, j--) {
  1802     0C57  01AC               	clrf	intToASCIIinCustomBase@i
  1803     0C58  01AD               	clrf	intToASCIIinCustomBase@i+1
  1804     0C59                     l3188:
  1805     0C59  0830               	movf	intToASCIIinCustomBase@indice,w
  1806     0C5A  3EFF               	addlw	255
  1807     0C5B  00AE               	movwf	intToASCIIinCustomBase@j
  1808     0C5C  0831               	movf	intToASCIIinCustomBase@indice+1,w
  1809     0C5D  1803               	skipnc
  1810     0C5E  3E01               	addlw	1
  1811     0C5F  3EFF               	addlw	255
  1812     0C60  00AF               	movwf	intToASCIIinCustomBase@j+1
  1813     0C61  2C8D               	goto	l3200
  1814     0C62                     l3190:
  1815                           
  1816                           ;newmain.c: 104:         char temp = resultado[i];
  1817     0C62  1283               	bcf	3,5	;RP0=0, select bank0
  1818     0C63  1303               	bcf	3,6	;RP1=0, select bank0
  1819     0C64  082C               	movf	intToASCIIinCustomBase@i,w
  1820     0C65  0722               	addwf	intToASCIIinCustomBase@resultado,w
  1821     0C66  00A5               	movwf	??_intToASCIIinCustomBase
  1822     0C67  0825               	movf	??_intToASCIIinCustomBase,w
  1823     0C68  0084               	movwf	4
  1824     0C69  1383               	bcf	3,7	;select IRP bank0
  1825     0C6A  0800               	movf	0,w
  1826     0C6B  00A7               	movwf	intToASCIIinCustomBase@temp
  1827     0C6C                     l3192:
  1828                           
  1829                           ;newmain.c: 105:         resultado[i] = resultado[j];
  1830     0C6C  082E               	movf	intToASCIIinCustomBase@j,w
  1831     0C6D  0722               	addwf	intToASCIIinCustomBase@resultado,w
  1832     0C6E  00A5               	movwf	??_intToASCIIinCustomBase
  1833     0C6F  0825               	movf	??_intToASCIIinCustomBase,w
  1834     0C70  0084               	movwf	4
  1835     0C71  0800               	movf	0,w
  1836     0C72  00FF               	movwf	btemp+1
  1837     0C73  082C               	movf	intToASCIIinCustomBase@i,w
  1838     0C74  0722               	addwf	intToASCIIinCustomBase@resultado,w
  1839     0C75  00A6               	movwf	??_intToASCIIinCustomBase+1
  1840     0C76  0826               	movf	??_intToASCIIinCustomBase+1,w
  1841     0C77  0084               	movwf	4
  1842     0C78  087F               	movf	btemp+1,w
  1843     0C79  0080               	movwf	0
  1844     0C7A                     l3194:
  1845                           
  1846                           ;newmain.c: 106:         resultado[j] = temp;
  1847     0C7A  082E               	movf	intToASCIIinCustomBase@j,w
  1848     0C7B  0722               	addwf	intToASCIIinCustomBase@resultado,w
  1849     0C7C  00A5               	movwf	??_intToASCIIinCustomBase
  1850     0C7D  0825               	movf	??_intToASCIIinCustomBase,w
  1851     0C7E  0084               	movwf	4
  1852     0C7F  0827               	movf	intToASCIIinCustomBase@temp,w
  1853     0C80  0080               	movwf	0
  1854     0C81                     l3196:
  1855                           
  1856                           ;newmain.c: 107:     }
  1857     0C81  3001               	movlw	1
  1858     0C82  07AC               	addwf	intToASCIIinCustomBase@i,f
  1859     0C83  1803               	skipnc
  1860     0C84  0AAD               	incf	intToASCIIinCustomBase@i+1,f
  1861     0C85  3000               	movlw	0
  1862     0C86  07AD               	addwf	intToASCIIinCustomBase@i+1,f
  1863     0C87                     l3198:
  1864     0C87  30FF               	movlw	255
  1865     0C88  07AE               	addwf	intToASCIIinCustomBase@j,f
  1866     0C89  1803               	skipnc
  1867     0C8A  0AAF               	incf	intToASCIIinCustomBase@j+1,f
  1868     0C8B  30FF               	movlw	255
  1869     0C8C  07AF               	addwf	intToASCIIinCustomBase@j+1,f
  1870     0C8D                     l3200:
  1871     0C8D  082D               	movf	intToASCIIinCustomBase@i+1,w
  1872     0C8E  3A80               	xorlw	128
  1873     0C8F  00A5               	movwf	??_intToASCIIinCustomBase
  1874     0C90  082F               	movf	intToASCIIinCustomBase@j+1,w
  1875     0C91  3A80               	xorlw	128
  1876     0C92  0225               	subwf	??_intToASCIIinCustomBase,w
  1877     0C93  1D03               	skipz
  1878     0C94  2C97               	goto	u4655
  1879     0C95  082E               	movf	intToASCIIinCustomBase@j,w
  1880     0C96  022C               	subwf	intToASCIIinCustomBase@i,w
  1881     0C97                     u4655:
  1882     0C97  1C03               	skipc
  1883     0C98  2C9A               	goto	u4651
  1884     0C99  2C9B               	goto	u4650
  1885     0C9A                     u4651:
  1886     0C9A  2C62               	goto	l3190
  1887     0C9B                     u4650:
  1888     0C9B                     l97:
  1889     0C9B  0008               	return
  1890     0C9C                     __end_of_intToASCIIinCustomBase:
  1891                           
  1892                           	psect	text5
  1893     1687                     __ptext5:	
  1894 ;; *************** function ___awmod *****************
  1895 ;; Defined at:
  1896 ;;		line 5 in file "C:\Program Files\Microchip\xc8\v2.41\pic\sources\c90\common\awmod.c"
  1897 ;; Parameters:    Size  Location     Type
  1898 ;;  divisor         2    2[COMMON] int 
  1899 ;;  dividend        2    4[COMMON] int 
  1900 ;; Auto vars:     Size  Location     Type
  1901 ;;  sign            1    7[COMMON] unsigned char 
  1902 ;;  counter         1    6[COMMON] unsigned char 
  1903 ;; Return value:  Size  Location     Type
  1904 ;;                  2    2[COMMON] int 
  1905 ;; Registers used:
  1906 ;;		wreg, status,2, status,0, btemp+1
  1907 ;; Tracked objects:
  1908 ;;		On entry : 0/0
  1909 ;;		On exit  : 0/0
  1910 ;;		Unchanged: 0/0
  1911 ;; Data sizes:     COMMON   BANK0   BANK1   BANK3   BANK2
  1912 ;;      Params:         4       0       0       0       0
  1913 ;;      Locals:         2       0       0       0       0
  1914 ;;      Temps:          0       0       0       0       0
  1915 ;;      Totals:         6       0       0       0       0
  1916 ;;Total ram usage:        6 bytes
  1917 ;; Hardware stack levels used: 1
  1918 ;; Hardware stack levels required when called: 1
  1919 ;; This function calls:
  1920 ;;		Nothing
  1921 ;; This function is called by:
  1922 ;;		_intToASCIIinCustomBase
  1923 ;; This function uses a non-reentrant model
  1924 ;;
  1925                           
  1926     1687                     ___awmod:	
  1927                           ;psect for function ___awmod
  1928                           
  1929     1687                     l2436:	
  1930                           ;incstack = 0
  1931                           ; Regs used in ___awmod: [wreg+status,2+status,0+btemp+1]
  1932                           
  1933     1687  01F7               	clrf	___awmod@sign
  1934     1688                     l2438:
  1935     1688  1FF5               	btfss	___awmod@dividend+1,7
  1936     1689  2E8B               	goto	u3391
  1937     168A  2E8C               	goto	u3390
  1938     168B                     u3391:
  1939     168B  2E93               	goto	l2444
  1940     168C                     u3390:
  1941     168C                     l2440:
  1942     168C  09F4               	comf	___awmod@dividend,f
  1943     168D  09F5               	comf	___awmod@dividend+1,f
  1944     168E  0AF4               	incf	___awmod@dividend,f
  1945     168F  1903               	skipnz
  1946     1690  0AF5               	incf	___awmod@dividend+1,f
  1947     1691                     l2442:
  1948     1691  01F7               	clrf	___awmod@sign
  1949     1692  0AF7               	incf	___awmod@sign,f
  1950     1693                     l2444:
  1951     1693  1FF3               	btfss	___awmod@divisor+1,7
  1952     1694  2E96               	goto	u3401
  1953     1695  2E97               	goto	u3400
  1954     1696                     u3401:
  1955     1696  2E9C               	goto	l2448
  1956     1697                     u3400:
  1957     1697                     l2446:
  1958     1697  09F2               	comf	___awmod@divisor,f
  1959     1698  09F3               	comf	___awmod@divisor+1,f
  1960     1699  0AF2               	incf	___awmod@divisor,f
  1961     169A  1903               	skipnz
  1962     169B  0AF3               	incf	___awmod@divisor+1,f
  1963     169C                     l2448:
  1964     169C  0872               	movf	___awmod@divisor,w
  1965     169D  0473               	iorwf	___awmod@divisor+1,w
  1966     169E  1903               	btfsc	3,2
  1967     169F  2EA1               	goto	u3411
  1968     16A0  2EA2               	goto	u3410
  1969     16A1                     u3411:
  1970     16A1  2ED1               	goto	l2466
  1971     16A2                     u3410:
  1972     16A2                     l2450:
  1973     16A2  01F6               	clrf	___awmod@counter
  1974     16A3  0AF6               	incf	___awmod@counter,f
  1975     16A4  2EB0               	goto	l2456
  1976     16A5                     l2452:
  1977     16A5  3001               	movlw	1
  1978     16A6                     u3425:
  1979     16A6  1003               	clrc
  1980     16A7  0DF2               	rlf	___awmod@divisor,f
  1981     16A8  0DF3               	rlf	___awmod@divisor+1,f
  1982     16A9  3EFF               	addlw	-1
  1983     16AA  1D03               	skipz
  1984     16AB  2EA6               	goto	u3425
  1985     16AC                     l2454:
  1986     16AC  3001               	movlw	1
  1987     16AD  00FF               	movwf	btemp+1
  1988     16AE  087F               	movf	btemp+1,w
  1989     16AF  07F6               	addwf	___awmod@counter,f
  1990     16B0                     l2456:
  1991     16B0  1FF3               	btfss	___awmod@divisor+1,7
  1992     16B1  2EB3               	goto	u3431
  1993     16B2  2EB4               	goto	u3430
  1994     16B3                     u3431:
  1995     16B3  2EA5               	goto	l2452
  1996     16B4                     u3430:
  1997     16B4                     l2458:
  1998     16B4  0873               	movf	___awmod@divisor+1,w
  1999     16B5  0275               	subwf	___awmod@dividend+1,w
  2000     16B6  1D03               	skipz
  2001     16B7  2EBA               	goto	u3445
  2002     16B8  0872               	movf	___awmod@divisor,w
  2003     16B9  0274               	subwf	___awmod@dividend,w
  2004     16BA                     u3445:
  2005     16BA  1C03               	skipc
  2006     16BB  2EBD               	goto	u3441
  2007     16BC  2EBE               	goto	u3440
  2008     16BD                     u3441:
  2009     16BD  2EC4               	goto	l2462
  2010     16BE                     u3440:
  2011     16BE                     l2460:
  2012     16BE  0872               	movf	___awmod@divisor,w
  2013     16BF  02F4               	subwf	___awmod@dividend,f
  2014     16C0  0873               	movf	___awmod@divisor+1,w
  2015     16C1  1C03               	skipc
  2016     16C2  03F5               	decf	___awmod@dividend+1,f
  2017     16C3  02F5               	subwf	___awmod@dividend+1,f
  2018     16C4                     l2462:
  2019     16C4  3001               	movlw	1
  2020     16C5                     u3455:
  2021     16C5  1003               	clrc
  2022     16C6  0CF3               	rrf	___awmod@divisor+1,f
  2023     16C7  0CF2               	rrf	___awmod@divisor,f
  2024     16C8  3EFF               	addlw	-1
  2025     16C9  1D03               	skipz
  2026     16CA  2EC5               	goto	u3455
  2027     16CB                     l2464:
  2028     16CB  3001               	movlw	1
  2029     16CC  02F6               	subwf	___awmod@counter,f
  2030     16CD  1D03               	btfss	3,2
  2031     16CE  2ED0               	goto	u3461
  2032     16CF  2ED1               	goto	u3460
  2033     16D0                     u3461:
  2034     16D0  2EB4               	goto	l2458
  2035     16D1                     u3460:
  2036     16D1                     l2466:
  2037     16D1  0877               	movf	___awmod@sign,w
  2038     16D2  1903               	btfsc	3,2
  2039     16D3  2ED5               	goto	u3471
  2040     16D4  2ED6               	goto	u3470
  2041     16D5                     u3471:
  2042     16D5  2EDB               	goto	l2470
  2043     16D6                     u3470:
  2044     16D6                     l2468:
  2045     16D6  09F4               	comf	___awmod@dividend,f
  2046     16D7  09F5               	comf	___awmod@dividend+1,f
  2047     16D8  0AF4               	incf	___awmod@dividend,f
  2048     16D9  1903               	skipnz
  2049     16DA  0AF5               	incf	___awmod@dividend+1,f
  2050     16DB                     l2470:
  2051     16DB  0875               	movf	___awmod@dividend+1,w
  2052     16DC  00F3               	movwf	?___awmod+1
  2053     16DD  0874               	movf	___awmod@dividend,w
  2054     16DE  00F2               	movwf	?___awmod
  2055     16DF                     l418:
  2056     16DF  0008               	return
  2057     16E0                     __end_of___awmod:
  2058                           
  2059                           	psect	text6
  2060     1799                     __ptext6:	
  2061 ;; *************** function ___awdiv *****************
  2062 ;; Defined at:
  2063 ;;		line 5 in file "C:\Program Files\Microchip\xc8\v2.41\pic\sources\c90\common\awdiv.c"
  2064 ;; Parameters:    Size  Location     Type
  2065 ;;  divisor         2    2[COMMON] int 
  2066 ;;  dividend        2    4[COMMON] int 
  2067 ;; Auto vars:     Size  Location     Type
  2068 ;;  quotient        2    8[COMMON] int 
  2069 ;;  sign            1    7[COMMON] unsigned char 
  2070 ;;  counter         1    6[COMMON] unsigned char 
  2071 ;; Return value:  Size  Location     Type
  2072 ;;                  2    2[COMMON] int 
  2073 ;; Registers used:
  2074 ;;		wreg, status,2, status,0, btemp+1
  2075 ;; Tracked objects:
  2076 ;;		On entry : 0/0
  2077 ;;		On exit  : 0/0
  2078 ;;		Unchanged: 0/0
  2079 ;; Data sizes:     COMMON   BANK0   BANK1   BANK3   BANK2
  2080 ;;      Params:         4       0       0       0       0
  2081 ;;      Locals:         4       0       0       0       0
  2082 ;;      Temps:          0       0       0       0       0
  2083 ;;      Totals:         8       0       0       0       0
  2084 ;;Total ram usage:        8 bytes
  2085 ;; Hardware stack levels used: 1
  2086 ;; Hardware stack levels required when called: 1
  2087 ;; This function calls:
  2088 ;;		Nothing
  2089 ;; This function is called by:
  2090 ;;		_intToASCIIinCustomBase
  2091 ;; This function uses a non-reentrant model
  2092 ;;
  2093                           
  2094     1799                     ___awdiv:	
  2095                           ;psect for function ___awdiv
  2096                           
  2097     1799                     l2392:	
  2098                           ;incstack = 0
  2099                           ; Regs used in ___awdiv: [wreg+status,2+status,0+btemp+1]
  2100                           
  2101     1799  01F7               	clrf	___awdiv@sign
  2102     179A                     l2394:
  2103     179A  1FF3               	btfss	___awdiv@divisor+1,7
  2104     179B  2F9D               	goto	u3291
  2105     179C  2F9E               	goto	u3290
  2106     179D                     u3291:
  2107     179D  2FA5               	goto	l2400
  2108     179E                     u3290:
  2109     179E                     l2396:
  2110     179E  09F2               	comf	___awdiv@divisor,f
  2111     179F  09F3               	comf	___awdiv@divisor+1,f
  2112     17A0  0AF2               	incf	___awdiv@divisor,f
  2113     17A1  1903               	skipnz
  2114     17A2  0AF3               	incf	___awdiv@divisor+1,f
  2115     17A3                     l2398:
  2116     17A3  01F7               	clrf	___awdiv@sign
  2117     17A4  0AF7               	incf	___awdiv@sign,f
  2118     17A5                     l2400:
  2119     17A5  1FF5               	btfss	___awdiv@dividend+1,7
  2120     17A6  2FA8               	goto	u3301
  2121     17A7  2FA9               	goto	u3300
  2122     17A8                     u3301:
  2123     17A8  2FB2               	goto	l2406
  2124     17A9                     u3300:
  2125     17A9                     l2402:
  2126     17A9  09F4               	comf	___awdiv@dividend,f
  2127     17AA  09F5               	comf	___awdiv@dividend+1,f
  2128     17AB  0AF4               	incf	___awdiv@dividend,f
  2129     17AC  1903               	skipnz
  2130     17AD  0AF5               	incf	___awdiv@dividend+1,f
  2131     17AE                     l2404:
  2132     17AE  3001               	movlw	1
  2133     17AF  00FF               	movwf	btemp+1
  2134     17B0  087F               	movf	btemp+1,w
  2135     17B1  06F7               	xorwf	___awdiv@sign,f
  2136     17B2                     l2406:
  2137     17B2  01F8               	clrf	___awdiv@quotient
  2138     17B3  01F9               	clrf	___awdiv@quotient+1
  2139     17B4                     l2408:
  2140     17B4  0872               	movf	___awdiv@divisor,w
  2141     17B5  0473               	iorwf	___awdiv@divisor+1,w
  2142     17B6  1903               	btfsc	3,2
  2143     17B7  2FB9               	goto	u3311
  2144     17B8  2FBA               	goto	u3310
  2145     17B9                     u3311:
  2146     17B9  2FF1               	goto	l2428
  2147     17BA                     u3310:
  2148     17BA                     l2410:
  2149     17BA  01F6               	clrf	___awdiv@counter
  2150     17BB  0AF6               	incf	___awdiv@counter,f
  2151     17BC  2FC8               	goto	l2416
  2152     17BD                     l2412:
  2153     17BD  3001               	movlw	1
  2154     17BE                     u3325:
  2155     17BE  1003               	clrc
  2156     17BF  0DF2               	rlf	___awdiv@divisor,f
  2157     17C0  0DF3               	rlf	___awdiv@divisor+1,f
  2158     17C1  3EFF               	addlw	-1
  2159     17C2  1D03               	skipz
  2160     17C3  2FBE               	goto	u3325
  2161     17C4                     l2414:
  2162     17C4  3001               	movlw	1
  2163     17C5  00FF               	movwf	btemp+1
  2164     17C6  087F               	movf	btemp+1,w
  2165     17C7  07F6               	addwf	___awdiv@counter,f
  2166     17C8                     l2416:
  2167     17C8  1FF3               	btfss	___awdiv@divisor+1,7
  2168     17C9  2FCB               	goto	u3331
  2169     17CA  2FCC               	goto	u3330
  2170     17CB                     u3331:
  2171     17CB  2FBD               	goto	l2412
  2172     17CC                     u3330:
  2173     17CC                     l2418:
  2174     17CC  3001               	movlw	1
  2175     17CD                     u3345:
  2176     17CD  1003               	clrc
  2177     17CE  0DF8               	rlf	___awdiv@quotient,f
  2178     17CF  0DF9               	rlf	___awdiv@quotient+1,f
  2179     17D0  3EFF               	addlw	-1
  2180     17D1  1D03               	skipz
  2181     17D2  2FCD               	goto	u3345
  2182     17D3  0873               	movf	___awdiv@divisor+1,w
  2183     17D4  0275               	subwf	___awdiv@dividend+1,w
  2184     17D5  1D03               	skipz
  2185     17D6  2FD9               	goto	u3355
  2186     17D7  0872               	movf	___awdiv@divisor,w
  2187     17D8  0274               	subwf	___awdiv@dividend,w
  2188     17D9                     u3355:
  2189     17D9  1C03               	skipc
  2190     17DA  2FDC               	goto	u3351
  2191     17DB  2FDD               	goto	u3350
  2192     17DC                     u3351:
  2193     17DC  2FE4               	goto	l2424
  2194     17DD                     u3350:
  2195     17DD                     l2420:
  2196     17DD  0872               	movf	___awdiv@divisor,w
  2197     17DE  02F4               	subwf	___awdiv@dividend,f
  2198     17DF  0873               	movf	___awdiv@divisor+1,w
  2199     17E0  1C03               	skipc
  2200     17E1  03F5               	decf	___awdiv@dividend+1,f
  2201     17E2  02F5               	subwf	___awdiv@dividend+1,f
  2202     17E3                     l2422:
  2203     17E3  1478               	bsf	___awdiv@quotient,0
  2204     17E4                     l2424:
  2205     17E4  3001               	movlw	1
  2206     17E5                     u3365:
  2207     17E5  1003               	clrc
  2208     17E6  0CF3               	rrf	___awdiv@divisor+1,f
  2209     17E7  0CF2               	rrf	___awdiv@divisor,f
  2210     17E8  3EFF               	addlw	-1
  2211     17E9  1D03               	skipz
  2212     17EA  2FE5               	goto	u3365
  2213     17EB                     l2426:
  2214     17EB  3001               	movlw	1
  2215     17EC  02F6               	subwf	___awdiv@counter,f
  2216     17ED  1D03               	btfss	3,2
  2217     17EE  2FF0               	goto	u3371
  2218     17EF  2FF1               	goto	u3370
  2219     17F0                     u3371:
  2220     17F0  2FCC               	goto	l2418
  2221     17F1                     u3370:
  2222     17F1                     l2428:
  2223     17F1  0877               	movf	___awdiv@sign,w
  2224     17F2  1903               	btfsc	3,2
  2225     17F3  2FF5               	goto	u3381
  2226     17F4  2FF6               	goto	u3380
  2227     17F5                     u3381:
  2228     17F5  2FFB               	goto	l2432
  2229     17F6                     u3380:
  2230     17F6                     l2430:
  2231     17F6  09F8               	comf	___awdiv@quotient,f
  2232     17F7  09F9               	comf	___awdiv@quotient+1,f
  2233     17F8  0AF8               	incf	___awdiv@quotient,f
  2234     17F9  1903               	skipnz
  2235     17FA  0AF9               	incf	___awdiv@quotient+1,f
  2236     17FB                     l2432:
  2237     17FB  0879               	movf	___awdiv@quotient+1,w
  2238     17FC  00F3               	movwf	?___awdiv+1
  2239     17FD  0878               	movf	___awdiv@quotient,w
  2240     17FE  00F2               	movwf	?___awdiv
  2241     17FF                     l405:
  2242     17FF  0008               	return
  2243     1800                     __end_of___awdiv:
  2244                           
  2245                           	psect	text7
  2246     1457                     __ptext7:	
  2247 ;; *************** function _escreveLCD *****************
  2248 ;; Defined at:
  2249 ;;		line 175 in file "newmain.c"
  2250 ;; Parameters:    Size  Location     Type
  2251 ;;  linha1          1    wreg     PTR unsigned char 
  2252 ;;		 -> STR_2(20), STR_1(16), 
  2253 ;;  linha2          1    5[BANK0 ] PTR unsigned char 
  2254 ;;		 -> main@texto_luminosidade(16), handleSetupMenu@texto_luminosidade_desejada(16), 
  2255 ;; Auto vars:     Size  Location     Type
  2256 ;;  linha1          1    9[COMMON] PTR unsigned char 
  2257 ;;		 -> STR_2(20), STR_1(16), 
  2258 ;; Return value:  Size  Location     Type
  2259 ;;                  1    wreg      void 
  2260 ;; Registers used:
  2261 ;;		wreg, fsr0l, fsr0h, status,2, status,0, btemp+1, pclath, cstack
  2262 ;; Tracked objects:
  2263 ;;		On entry : 0/0
  2264 ;;		On exit  : 0/0
  2265 ;;		Unchanged: 0/0
  2266 ;; Data sizes:     COMMON   BANK0   BANK1   BANK3   BANK2
  2267 ;;      Params:         0       1       0       0       0
  2268 ;;      Locals:         1       0       0       0       0
  2269 ;;      Temps:          0       2       0       0       0
  2270 ;;      Totals:         1       3       0       0       0
  2271 ;;Total ram usage:        4 bytes
  2272 ;; Hardware stack levels used: 1
  2273 ;; Hardware stack levels required when called: 4
  2274 ;; This function calls:
  2275 ;;		_Lcd_Clear
  2276 ;;		_Lcd_Set_Cursor
  2277 ;;		_Lcd_Write_String
  2278 ;; This function is called by:
  2279 ;;		_handleSetupMenu
  2280 ;;		_main
  2281 ;; This function uses a non-reentrant model
  2282 ;;
  2283                           
  2284     1457                     _escreveLCD:	
  2285                           ;psect for function _escreveLCD
  2286                           
  2287                           
  2288                           ;incstack = 0
  2289                           ; Regs used in _escreveLCD: [wreg-fsr0h+status,2+status,0+btemp+1+pclath+cstack]
  2290                           ;escreveLCD@linha1 stored from wreg
  2291     1457  00F9               	movwf	escreveLCD@linha1
  2292     1458                     l3202:
  2293                           
  2294                           ;newmain.c: 175: void escreveLCD(char* linha1, char* linha2);newmain.c: 176: {;newmain.c
      +                          : 178:     Lcd_Clear();
  2295     1458  160A  118A  236F  160A  118A  	fcall	_Lcd_Clear
  2296                           
  2297                           ;newmain.c: 179:     Lcd_Set_Cursor(1,1);
  2298     145D  01F6               	clrf	Lcd_Set_Cursor@b
  2299     145E  0AF6               	incf	Lcd_Set_Cursor@b,f
  2300     145F  3001               	movlw	1
  2301     1460  160A  118A  2542  160A  118A  	fcall	_Lcd_Set_Cursor
  2302     1465                     l3204:
  2303                           
  2304                           ;newmain.c: 180:     Lcd_Write_String(linha1);
  2305     1465  0879               	movf	escreveLCD@linha1,w
  2306     1466  00F7               	movwf	Lcd_Write_String@a
  2307     1467  3000               	movlw	0
  2308     1468  1D03               	btfss	3,2
  2309     1469  3080               	movlw	128
  2310     146A  00F8               	movwf	Lcd_Write_String@a+1
  2311     146B  160A  118A  24FC  160A  118A  	fcall	_Lcd_Write_String
  2312     1470                     l3206:
  2313                           
  2314                           ;newmain.c: 182:     Lcd_Set_Cursor(2,1);
  2315     1470  01F6               	clrf	Lcd_Set_Cursor@b
  2316     1471  0AF6               	incf	Lcd_Set_Cursor@b,f
  2317     1472  3002               	movlw	2
  2318     1473  160A  118A  2542  160A  118A  	fcall	_Lcd_Set_Cursor
  2319                           
  2320                           ;newmain.c: 183:     Lcd_Write_String(linha2);
  2321     1478  1283               	bcf	3,5	;RP0=0, select bank0
  2322     1479  1303               	bcf	3,6	;RP1=0, select bank0
  2323     147A  0825               	movf	escreveLCD@linha2,w
  2324     147B  00F7               	movwf	Lcd_Write_String@a
  2325     147C  3000               	movlw	0
  2326     147D  00F8               	movwf	Lcd_Write_String@a+1
  2327     147E  160A  118A  24FC  160A  118A  	fcall	_Lcd_Write_String
  2328     1483                     l3208:
  2329                           
  2330                           ;newmain.c: 185:     _delay((unsigned long)((100)*(4000000/4000.0)));
  2331     1483  3082               	movlw	130
  2332     1484  1283               	bcf	3,5	;RP0=0, select bank0
  2333     1485  1303               	bcf	3,6	;RP1=0, select bank0
  2334     1486  00A7               	movwf	??_escreveLCD+1
  2335     1487  30DD               	movlw	221
  2336     1488  00A6               	movwf	??_escreveLCD
  2337     1489                     u4677:
  2338     1489  0BA6               	decfsz	??_escreveLCD,f
  2339     148A  2C89               	goto	u4677
  2340     148B  0BA7               	decfsz	??_escreveLCD+1,f
  2341     148C  2C89               	goto	u4677
  2342     148D                     l137:
  2343     148D  0008               	return
  2344     148E                     __end_of_escreveLCD:
  2345                           
  2346                           	psect	text8
  2347     14FC                     __ptext8:	
  2348 ;; *************** function _Lcd_Write_String *****************
  2349 ;; Defined at:
  2350 ;;		line 97 in file "./lcd.h"
  2351 ;; Parameters:    Size  Location     Type
  2352 ;;  a               2    7[COMMON] PTR unsigned char 
  2353 ;;		 -> main@texto_luminosidade(16), STR_2(20), STR_1(16), handleSetupMenu@texto_luminosidade_desejada(16), 
  2354 ;; Auto vars:     Size  Location     Type
  2355 ;;  i               2    3[BANK0 ] int 
  2356 ;; Return value:  Size  Location     Type
  2357 ;;                  1    wreg      void 
  2358 ;; Registers used:
  2359 ;;		wreg, fsr0l, fsr0h, status,2, status,0, btemp+1, pclath, cstack
  2360 ;; Tracked objects:
  2361 ;;		On entry : 0/0
  2362 ;;		On exit  : 0/0
  2363 ;;		Unchanged: 0/0
  2364 ;; Data sizes:     COMMON   BANK0   BANK1   BANK3   BANK2
  2365 ;;      Params:         2       0       0       0       0
  2366 ;;      Locals:         0       2       0       0       0
  2367 ;;      Temps:          0       3       0       0       0
  2368 ;;      Totals:         2       5       0       0       0
  2369 ;;Total ram usage:        7 bytes
  2370 ;; Hardware stack levels used: 1
  2371 ;; Hardware stack levels required when called: 3
  2372 ;; This function calls:
  2373 ;;		_Lcd_Write_Char
  2374 ;; This function is called by:
  2375 ;;		_escreveLCD
  2376 ;; This function uses a non-reentrant model
  2377 ;;
  2378                           
  2379     14FC                     _Lcd_Write_String:	
  2380                           ;psect for function _Lcd_Write_String
  2381                           
  2382     14FC                     l3126:	
  2383                           ;incstack = 0
  2384                           ; Regs used in _Lcd_Write_String: [wreg-fsr0h+status,2+status,0+btemp+1+pclath+cstack]
  2385                           
  2386                           
  2387                           ;./lcd.h: 97: void Lcd_Write_String(char *a);./lcd.h: 98: {;./lcd.h: 99:  int i;;./lcd.h
      +                          : 100:  for(i=0;a[i]!='\0';i++)
  2388     14FC  1283               	bcf	3,5	;RP0=0, select bank0
  2389     14FD  1303               	bcf	3,6	;RP1=0, select bank0
  2390     14FE  01A3               	clrf	Lcd_Write_String@i
  2391     14FF  01A4               	clrf	Lcd_Write_String@i+1
  2392     1500  2D25               	goto	l3132
  2393     1501                     l3128:
  2394                           
  2395                           ;./lcd.h: 101:     Lcd_Write_Char(a[i]);
  2396     1501  0823               	movf	Lcd_Write_String@i,w
  2397     1502  0777               	addwf	Lcd_Write_String@a,w
  2398     1503  00A1               	movwf	??_Lcd_Write_String+1
  2399     1504  0878               	movf	Lcd_Write_String@a+1,w
  2400     1505  00A0               	movwf	??_Lcd_Write_String
  2401     1506  1803               	skipnc
  2402     1507  0AA0               	incf	??_Lcd_Write_String,f
  2403     1508  1FA3               	btfss	Lcd_Write_String@i,7
  2404     1509  2D0B               	goto	u4570
  2405     150A  03A0               	decf	??_Lcd_Write_String,f
  2406     150B                     u4570:
  2407     150B  1283               	bcf	3,5	;RP0=0, select bank0
  2408     150C  1303               	bcf	3,6	;RP1=0, select bank0
  2409     150D  0820               	movf	??_Lcd_Write_String,w
  2410     150E  00A2               	movwf	??_Lcd_Write_String+2
  2411     150F  0822               	movf	??_Lcd_Write_String+2,w
  2412     1510  00FF               	movwf	btemp+1
  2413     1511  0821               	movf	??_Lcd_Write_String+1,w
  2414     1512  0084               	movwf	4
  2415     1513  160A  118A  2000  160A  118A  	fcall	stringtab
  2416     1518  120A  158A  2003  160A  118A  	fcall	_Lcd_Write_Char
  2417     151D                     l3130:
  2418     151D  3001               	movlw	1
  2419     151E  1283               	bcf	3,5	;RP0=0, select bank0
  2420     151F  1303               	bcf	3,6	;RP1=0, select bank0
  2421     1520  07A3               	addwf	Lcd_Write_String@i,f
  2422     1521  1803               	skipnc
  2423     1522  0AA4               	incf	Lcd_Write_String@i+1,f
  2424     1523  3000               	movlw	0
  2425     1524  07A4               	addwf	Lcd_Write_String@i+1,f
  2426     1525                     l3132:
  2427     1525  0823               	movf	Lcd_Write_String@i,w
  2428     1526  0777               	addwf	Lcd_Write_String@a,w
  2429     1527  00A1               	movwf	??_Lcd_Write_String+1
  2430     1528  0878               	movf	Lcd_Write_String@a+1,w
  2431     1529  00A0               	movwf	??_Lcd_Write_String
  2432     152A  1803               	skipnc
  2433     152B  0AA0               	incf	??_Lcd_Write_String,f
  2434     152C  1FA3               	btfss	Lcd_Write_String@i,7
  2435     152D  2D2F               	goto	u4580
  2436     152E  03A0               	decf	??_Lcd_Write_String,f
  2437     152F                     u4580:
  2438     152F  1283               	bcf	3,5	;RP0=0, select bank0
  2439     1530  1303               	bcf	3,6	;RP1=0, select bank0
  2440     1531  0820               	movf	??_Lcd_Write_String,w
  2441     1532  00A2               	movwf	??_Lcd_Write_String+2
  2442     1533  0822               	movf	??_Lcd_Write_String+2,w
  2443     1534  00FF               	movwf	btemp+1
  2444     1535  0821               	movf	??_Lcd_Write_String+1,w
  2445     1536  0084               	movwf	4
  2446     1537  160A  118A  2000  160A  118A  	fcall	stringtab
  2447     153C  3A00               	xorlw	0
  2448     153D  1D03               	skipz
  2449     153E  2D40               	goto	u4591
  2450     153F  2D41               	goto	u4590
  2451     1540                     u4591:
  2452     1540  2D01               	goto	l3128
  2453     1541                     u4590:
  2454     1541                     l71:
  2455     1541  0008               	return
  2456     1542                     __end_of_Lcd_Write_String:
  2457                           
  2458                           	psect	text9
  2459     0803                     __ptext9:	
  2460 ;; *************** function _Lcd_Write_Char *****************
  2461 ;; Defined at:
  2462 ;;		line 81 in file "./lcd.h"
  2463 ;; Parameters:    Size  Location     Type
  2464 ;;  a               1    wreg     unsigned char 
  2465 ;; Auto vars:     Size  Location     Type
  2466 ;;  a               1    6[COMMON] unsigned char 
  2467 ;;  y               1    5[COMMON] unsigned char 
  2468 ;;  temp            1    4[COMMON] unsigned char 
  2469 ;; Return value:  Size  Location     Type
  2470 ;;                  1    wreg      void 
  2471 ;; Registers used:
  2472 ;;		wreg, status,2, status,0, pclath, cstack
  2473 ;; Tracked objects:
  2474 ;;		On entry : 0/0
  2475 ;;		On exit  : 0/0
  2476 ;;		Unchanged: 0/0
  2477 ;; Data sizes:     COMMON   BANK0   BANK1   BANK3   BANK2
  2478 ;;      Params:         0       0       0       0       0
  2479 ;;      Locals:         3       0       0       0       0
  2480 ;;      Temps:          1       0       0       0       0
  2481 ;;      Totals:         4       0       0       0       0
  2482 ;;Total ram usage:        4 bytes
  2483 ;; Hardware stack levels used: 1
  2484 ;; Hardware stack levels required when called: 2
  2485 ;; This function calls:
  2486 ;;		_Lcd_Port
  2487 ;; This function is called by:
  2488 ;;		_Lcd_Write_String
  2489 ;; This function uses a non-reentrant model
  2490 ;;
  2491                           
  2492     0803                     _Lcd_Write_Char:	
  2493                           ;psect for function _Lcd_Write_Char
  2494                           
  2495                           
  2496                           ;incstack = 0
  2497                           ; Regs used in _Lcd_Write_Char: [wreg+status,2+status,0+pclath+cstack]
  2498                           ;Lcd_Write_Char@a stored from wreg
  2499     0803  00F6               	movwf	Lcd_Write_Char@a
  2500     0804                     l3054:
  2501                           
  2502                           ;./lcd.h: 81: void Lcd_Write_Char(char a);./lcd.h: 82: {;./lcd.h: 83:    char temp,y;;./
      +                          lcd.h: 84:    temp = a&0x0F;
  2503     0804  0876               	movf	Lcd_Write_Char@a,w
  2504     0805  390F               	andlw	15
  2505     0806  00F4               	movwf	Lcd_Write_Char@temp
  2506                           
  2507                           ;./lcd.h: 85:    y = a&0xF0;
  2508     0807  0876               	movf	Lcd_Write_Char@a,w
  2509     0808  39F0               	andlw	240
  2510     0809  00F5               	movwf	Lcd_Write_Char@y
  2511     080A                     l3056:
  2512                           
  2513                           ;./lcd.h: 86:    PORTDbits.RD2 = 1;
  2514     080A  1283               	bcf	3,5	;RP0=0, select bank0
  2515     080B  1303               	bcf	3,6	;RP1=0, select bank0
  2516     080C  1508               	bsf	8,2	;volatile
  2517     080D                     l3058:
  2518                           
  2519                           ;./lcd.h: 87:    Lcd_Port(y>>4);
  2520     080D  0875               	movf	Lcd_Write_Char@y,w
  2521     080E  00F3               	movwf	??_Lcd_Write_Char
  2522     080F  3004               	movlw	4
  2523     0810                     u4485:
  2524     0810  1003               	clrc
  2525     0811  0CF3               	rrf	??_Lcd_Write_Char,f
  2526     0812  3EFF               	addlw	-1
  2527     0813  1D03               	skipz
  2528     0814  2810               	goto	u4485
  2529     0815  0873               	movf	??_Lcd_Write_Char,w
  2530     0816  160A  118A  23DD  120A  158A  	fcall	_Lcd_Port
  2531     081B                     l3060:
  2532                           
  2533                           ;./lcd.h: 88:    PORTDbits.RD3 = 1;
  2534     081B  1283               	bcf	3,5	;RP0=0, select bank0
  2535     081C  1303               	bcf	3,6	;RP1=0, select bank0
  2536     081D  1588               	bsf	8,3	;volatile
  2537     081E                     l3062:
  2538                           
  2539                           ;./lcd.h: 89:    _delay((unsigned long)((40)*(4000000/4000000.0)));
  2540     081E  300D               	movlw	13
  2541     081F  00F3               	movwf	??_Lcd_Write_Char
  2542     0820                     u4687:
  2543     0820  0BF3               	decfsz	??_Lcd_Write_Char,f
  2544     0821  2820               	goto	u4687
  2545     0822                     l3064:
  2546                           
  2547                           ;./lcd.h: 90:    PORTDbits.RD3 = 0;
  2548     0822  1283               	bcf	3,5	;RP0=0, select bank0
  2549     0823  1303               	bcf	3,6	;RP1=0, select bank0
  2550     0824  1188               	bcf	8,3	;volatile
  2551     0825                     l3066:
  2552                           
  2553                           ;./lcd.h: 91:    Lcd_Port(temp);
  2554     0825  0874               	movf	Lcd_Write_Char@temp,w
  2555     0826  160A  118A  23DD  120A  158A  	fcall	_Lcd_Port
  2556     082B                     l3068:
  2557                           
  2558                           ;./lcd.h: 92:    PORTDbits.RD3 = 1;
  2559     082B  1283               	bcf	3,5	;RP0=0, select bank0
  2560     082C  1303               	bcf	3,6	;RP1=0, select bank0
  2561     082D  1588               	bsf	8,3	;volatile
  2562     082E                     l3070:
  2563                           
  2564                           ;./lcd.h: 93:    _delay((unsigned long)((40)*(4000000/4000000.0)));
  2565     082E  300D               	movlw	13
  2566     082F  00F3               	movwf	??_Lcd_Write_Char
  2567     0830                     u4697:
  2568     0830  0BF3               	decfsz	??_Lcd_Write_Char,f
  2569     0831  2830               	goto	u4697
  2570     0832                     l3072:
  2571                           
  2572                           ;./lcd.h: 94:    PORTDbits.RD3 = 0;
  2573     0832  1283               	bcf	3,5	;RP0=0, select bank0
  2574     0833  1303               	bcf	3,6	;RP1=0, select bank0
  2575     0834  1188               	bcf	8,3	;volatile
  2576     0835                     l65:
  2577     0835  0008               	return
  2578     0836                     __end_of_Lcd_Write_Char:
  2579                           
  2580                           	psect	text10
  2581     1542                     __ptext10:	
  2582 ;; *************** function _Lcd_Set_Cursor *****************
  2583 ;; Defined at:
  2584 ;;		line 41 in file "./lcd.h"
  2585 ;; Parameters:    Size  Location     Type
  2586 ;;  a               1    wreg     unsigned char 
  2587 ;;  b               1    6[COMMON] unsigned char 
  2588 ;; Auto vars:     Size  Location     Type
  2589 ;;  a               1    0[BANK0 ] unsigned char 
  2590 ;;  temp            1    3[BANK0 ] unsigned char 
  2591 ;;  y               1    2[BANK0 ] unsigned char 
  2592 ;;  z               1    1[BANK0 ] unsigned char 
  2593 ;; Return value:  Size  Location     Type
  2594 ;;                  1    wreg      void 
  2595 ;; Registers used:
  2596 ;;		wreg, status,2, status,0, pclath, cstack
  2597 ;; Tracked objects:
  2598 ;;		On entry : 0/0
  2599 ;;		On exit  : 0/0
  2600 ;;		Unchanged: 0/0
  2601 ;; Data sizes:     COMMON   BANK0   BANK1   BANK3   BANK2
  2602 ;;      Params:         1       0       0       0       0
  2603 ;;      Locals:         0       4       0       0       0
  2604 ;;      Temps:          1       0       0       0       0
  2605 ;;      Totals:         2       4       0       0       0
  2606 ;;Total ram usage:        6 bytes
  2607 ;; Hardware stack levels used: 1
  2608 ;; Hardware stack levels required when called: 3
  2609 ;; This function calls:
  2610 ;;		_Lcd_Cmd
  2611 ;; This function is called by:
  2612 ;;		_escreveLCD
  2613 ;; This function uses a non-reentrant model
  2614 ;;
  2615                           
  2616     1542                     _Lcd_Set_Cursor:	
  2617                           ;psect for function _Lcd_Set_Cursor
  2618                           
  2619                           
  2620                           ;incstack = 0
  2621                           ; Regs used in _Lcd_Set_Cursor: [wreg+status,2+status,0+pclath+cstack]
  2622                           ;Lcd_Set_Cursor@a stored from wreg
  2623     1542  1283               	bcf	3,5	;RP0=0, select bank0
  2624     1543  1303               	bcf	3,6	;RP1=0, select bank0
  2625     1544  00A0               	movwf	Lcd_Set_Cursor@a
  2626     1545                     l3106:
  2627                           
  2628                           ;./lcd.h: 41: void Lcd_Set_Cursor(char a, char b);./lcd.h: 42: {;./lcd.h: 43:  char temp
      +                          ,z,y;;./lcd.h: 44:  if(a == 1)
  2629     1545  0320               	decf	Lcd_Set_Cursor@a,w
  2630     1546  1D03               	btfss	3,2
  2631     1547  2D49               	goto	u4531
  2632     1548  2D4A               	goto	u4530
  2633     1549                     u4531:
  2634     1549  2D69               	goto	l3116
  2635     154A                     u4530:
  2636     154A                     l3108:
  2637                           
  2638                           ;./lcd.h: 45:  {;./lcd.h: 46:    temp = 0x80 + b - 1;
  2639     154A  0876               	movf	Lcd_Set_Cursor@b,w
  2640     154B  3E7F               	addlw	127
  2641     154C  00A3               	movwf	Lcd_Set_Cursor@temp
  2642                           
  2643                           ;./lcd.h: 47:   z = temp>>4;
  2644     154D  0823               	movf	Lcd_Set_Cursor@temp,w
  2645     154E  00F7               	movwf	??_Lcd_Set_Cursor
  2646     154F  3004               	movlw	4
  2647     1550                     u4545:
  2648     1550  1003               	clrc
  2649     1551  0CF7               	rrf	??_Lcd_Set_Cursor,f
  2650     1552  3EFF               	addlw	-1
  2651     1553  1D03               	skipz
  2652     1554  2D50               	goto	u4545
  2653     1555  0877               	movf	??_Lcd_Set_Cursor,w
  2654     1556  00A1               	movwf	Lcd_Set_Cursor@z
  2655     1557                     l3110:
  2656                           
  2657                           ;./lcd.h: 48:   y = temp & 0x0F;
  2658     1557  0823               	movf	Lcd_Set_Cursor@temp,w
  2659     1558  390F               	andlw	15
  2660     1559  00A2               	movwf	Lcd_Set_Cursor@y
  2661     155A                     l3112:
  2662                           
  2663                           ;./lcd.h: 49:   Lcd_Cmd(z);
  2664     155A  0821               	movf	Lcd_Set_Cursor@z,w
  2665     155B  160A  118A  23A8  160A  118A  	fcall	_Lcd_Cmd
  2666     1560                     l3114:
  2667                           
  2668                           ;./lcd.h: 50:   Lcd_Cmd(y);
  2669     1560  1283               	bcf	3,5	;RP0=0, select bank0
  2670     1561  1303               	bcf	3,6	;RP1=0, select bank0
  2671     1562  0822               	movf	Lcd_Set_Cursor@y,w
  2672     1563  160A  118A  23A8  160A  118A  	fcall	_Lcd_Cmd
  2673                           
  2674                           ;./lcd.h: 51:  }
  2675     1568  2D8D               	goto	l59
  2676     1569                     l3116:
  2677     1569  3002               	movlw	2
  2678     156A  0620               	xorwf	Lcd_Set_Cursor@a,w
  2679     156B  1D03               	btfss	3,2
  2680     156C  2D6E               	goto	u4551
  2681     156D  2D6F               	goto	u4550
  2682     156E                     u4551:
  2683     156E  2D8D               	goto	l59
  2684     156F                     u4550:
  2685     156F                     l3118:
  2686                           
  2687                           ;./lcd.h: 53:  {;./lcd.h: 54:   temp = 0xC0 + b - 1;
  2688     156F  0876               	movf	Lcd_Set_Cursor@b,w
  2689     1570  3EBF               	addlw	191
  2690     1571  00A3               	movwf	Lcd_Set_Cursor@temp
  2691                           
  2692                           ;./lcd.h: 55:   z = temp>>4;
  2693     1572  0823               	movf	Lcd_Set_Cursor@temp,w
  2694     1573  00F7               	movwf	??_Lcd_Set_Cursor
  2695     1574  3004               	movlw	4
  2696     1575                     u4565:
  2697     1575  1003               	clrc
  2698     1576  0CF7               	rrf	??_Lcd_Set_Cursor,f
  2699     1577  3EFF               	addlw	-1
  2700     1578  1D03               	skipz
  2701     1579  2D75               	goto	u4565
  2702     157A  0877               	movf	??_Lcd_Set_Cursor,w
  2703     157B  00A1               	movwf	Lcd_Set_Cursor@z
  2704     157C                     l3120:
  2705                           
  2706                           ;./lcd.h: 56:   y = temp & 0x0F;
  2707     157C  0823               	movf	Lcd_Set_Cursor@temp,w
  2708     157D  390F               	andlw	15
  2709     157E  00A2               	movwf	Lcd_Set_Cursor@y
  2710     157F                     l3122:
  2711                           
  2712                           ;./lcd.h: 57:   Lcd_Cmd(z);
  2713     157F  0821               	movf	Lcd_Set_Cursor@z,w
  2714     1580  160A  118A  23A8  160A  118A  	fcall	_Lcd_Cmd
  2715     1585                     l3124:
  2716                           
  2717                           ;./lcd.h: 58:   Lcd_Cmd(y);
  2718     1585  1283               	bcf	3,5	;RP0=0, select bank0
  2719     1586  1303               	bcf	3,6	;RP1=0, select bank0
  2720     1587  0822               	movf	Lcd_Set_Cursor@y,w
  2721     1588  160A  118A  23A8  160A  118A  	fcall	_Lcd_Cmd
  2722     158D                     l59:
  2723     158D  0008               	return
  2724     158E                     __end_of_Lcd_Set_Cursor:
  2725                           
  2726                           	psect	text11
  2727     136F                     __ptext11:	
  2728 ;; *************** function _Lcd_Clear *****************
  2729 ;; Defined at:
  2730 ;;		line 35 in file "./lcd.h"
  2731 ;; Parameters:    Size  Location     Type
  2732 ;;		None
  2733 ;; Auto vars:     Size  Location     Type
  2734 ;;		None
  2735 ;; Return value:  Size  Location     Type
  2736 ;;                  1    wreg      void 
  2737 ;; Registers used:
  2738 ;;		wreg, status,2, status,0, pclath, cstack
  2739 ;; Tracked objects:
  2740 ;;		On entry : 0/0
  2741 ;;		On exit  : 0/0
  2742 ;;		Unchanged: 0/0
  2743 ;; Data sizes:     COMMON   BANK0   BANK1   BANK3   BANK2
  2744 ;;      Params:         0       0       0       0       0
  2745 ;;      Locals:         0       0       0       0       0
  2746 ;;      Temps:          0       0       0       0       0
  2747 ;;      Totals:         0       0       0       0       0
  2748 ;;Total ram usage:        0 bytes
  2749 ;; Hardware stack levels used: 1
  2750 ;; Hardware stack levels required when called: 3
  2751 ;; This function calls:
  2752 ;;		_Lcd_Cmd
  2753 ;; This function is called by:
  2754 ;;		_escreveLCD
  2755 ;; This function uses a non-reentrant model
  2756 ;;
  2757                           
  2758     136F                     _Lcd_Clear:	
  2759                           ;psect for function _Lcd_Clear
  2760                           
  2761     136F                     l3104:	
  2762                           ;incstack = 0
  2763                           ; Regs used in _Lcd_Clear: [wreg+status,2+status,0+pclath+cstack]
  2764                           
  2765                           
  2766                           ;./lcd.h: 37:  Lcd_Cmd(0);
  2767     136F  3000               	movlw	0
  2768     1370  160A  118A  23A8  160A  118A  	fcall	_Lcd_Cmd
  2769                           
  2770                           ;./lcd.h: 38:  Lcd_Cmd(1);
  2771     1375  3001               	movlw	1
  2772     1376  160A  118A  23A8  160A  118A  	fcall	_Lcd_Cmd
  2773     137B                     l53:
  2774     137B  0008               	return
  2775     137C                     __end_of_Lcd_Clear:
  2776                           
  2777                           	psect	text12
  2778     137C                     __ptext12:	
  2779 ;; *************** function _getValorADC *****************
  2780 ;; Defined at:
  2781 ;;		line 70 in file "newmain.c"
  2782 ;; Parameters:    Size  Location     Type
  2783 ;;		None
  2784 ;; Auto vars:     Size  Location     Type
  2785 ;;  valor           2    6[COMMON] int 
  2786 ;; Return value:  Size  Location     Type
  2787 ;;                  2    2[COMMON] int 
  2788 ;; Registers used:
  2789 ;;		wreg
  2790 ;; Tracked objects:
  2791 ;;		On entry : 0/0
  2792 ;;		On exit  : 0/0
  2793 ;;		Unchanged: 0/0
  2794 ;; Data sizes:     COMMON   BANK0   BANK1   BANK3   BANK2
  2795 ;;      Params:         2       0       0       0       0
  2796 ;;      Locals:         2       0       0       0       0
  2797 ;;      Temps:          2       0       0       0       0
  2798 ;;      Totals:         6       0       0       0       0
  2799 ;;Total ram usage:        6 bytes
  2800 ;; Hardware stack levels used: 1
  2801 ;; Hardware stack levels required when called: 1
  2802 ;; This function calls:
  2803 ;;		Nothing
  2804 ;; This function is called by:
  2805 ;;		_main
  2806 ;; This function uses a non-reentrant model
  2807 ;;
  2808                           
  2809     137C                     _getValorADC:	
  2810                           ;psect for function _getValorADC
  2811                           
  2812     137C                     l2796:	
  2813                           ;incstack = 0
  2814                           ; Regs used in _getValorADC: [wreg]
  2815                           
  2816                           
  2817                           ;newmain.c: 71:     int valor;;newmain.c: 74:     ADCON0bits.GO = 1;
  2818     137C  1283               	bcf	3,5	;RP0=0, select bank0
  2819     137D  1303               	bcf	3,6	;RP1=0, select bank0
  2820     137E  151F               	bsf	31,2	;volatile
  2821     137F                     l2798:
  2822                           
  2823                           ;newmain.c: 78:     _delay((unsigned long)((10)*(4000000/4000000.0)));
  2824     137F  3003               	movlw	3
  2825     1380  00F4               	movwf	??_getValorADC
  2826     1381                     u4707:
  2827     1381  0BF4               	decfsz	??_getValorADC,f
  2828     1382  2B81               	goto	u4707
  2829                           
  2830                           ;newmain.c: 82:     valor = ADRESH;
  2831     1383  1283               	bcf	3,5	;RP0=0, select bank0
  2832     1384  1303               	bcf	3,6	;RP1=0, select bank0
  2833     1385  081E               	movf	30,w	;volatile
  2834     1386  00F4               	movwf	??_getValorADC
  2835     1387  01F5               	clrf	??_getValorADC+1
  2836     1388  0874               	movf	??_getValorADC,w
  2837     1389  00F6               	movwf	getValorADC@valor
  2838     138A  0875               	movf	??_getValorADC+1,w
  2839     138B  00F7               	movwf	getValorADC@valor+1
  2840                           
  2841                           ;newmain.c: 83:     return valor;
  2842     138C  0877               	movf	getValorADC@valor+1,w
  2843     138D  00F3               	movwf	?_getValorADC+1
  2844     138E  0876               	movf	getValorADC@valor,w
  2845     138F  00F2               	movwf	?_getValorADC
  2846     1390                     l93:
  2847     1390  0008               	return
  2848     1391                     __end_of_getValorADC:
  2849                           
  2850                           	psect	text13
  2851     0384                     __ptext13:	
  2852 ;; *************** function _converteVoltsParaLux *****************
  2853 ;; Defined at:
  2854 ;;		line 219 in file "newmain.c"
  2855 ;; Parameters:    Size  Location     Type
  2856 ;;  v_ldr           4   52[BANK1 ] float 
  2857 ;; Auto vars:     Size  Location     Type
  2858 ;;  b               4   22[BANK3 ] float 
  2859 ;;  l_ldr           4    0[BANK3 ] float 
  2860 ;;  r_ldr           2   20[BANK3 ] int 
  2861 ;; Return value:  Size  Location     Type
  2862 ;;                  2   52[BANK1 ] int 
  2863 ;; Registers used:
  2864 ;;		wreg, fsr0l, fsr0h, status,2, status,0, btemp+1, pclath, cstack
  2865 ;; Tracked objects:
  2866 ;;		On entry : 0/0
  2867 ;;		On exit  : 0/0
  2868 ;;		Unchanged: 0/0
  2869 ;; Data sizes:     COMMON   BANK0   BANK1   BANK3   BANK2
  2870 ;;      Params:         0       0       4       0       0
  2871 ;;      Locals:         0       0       0      26       0
  2872 ;;      Temps:          0       0       0       0       0
  2873 ;;      Totals:         0       0       4      26       0
  2874 ;;Total ram usage:       30 bytes
  2875 ;; Hardware stack levels used: 1
  2876 ;; Hardware stack levels required when called: 6
  2877 ;; This function calls:
  2878 ;;		___fladd
  2879 ;;		___fldiv
  2880 ;;		___flmul
  2881 ;;		___flsub
  2882 ;;		___fltol
  2883 ;;		___xxtofl
  2884 ;;		_log10
  2885 ;; This function is called by:
  2886 ;;		_main
  2887 ;; This function uses a non-reentrant model
  2888 ;;
  2889                           
  2890     0384                     _converteVoltsParaLux:	
  2891                           ;psect for function _converteVoltsParaLux
  2892                           
  2893     0384                     l3240:	
  2894                           ;incstack = 0
  2895                           ; Regs used in _converteVoltsParaLux: [wreg-fsr0h+status,2+status,0+btemp+1+pclath+cstac
      +                          k]
  2896                           
  2897                           
  2898                           ;newmain.c: 220:     int r_ldr = (10000*v_ldr)/(5-v_ldr);
  2899     0384  1683               	bsf	3,5	;RP0=1, select bank1
  2900     0385  1303               	bcf	3,6	;RP1=0, select bank1
  2901     0386  0857               	movf	(converteVoltsParaLux@v_ldr+3)^(0+128),w
  2902     0387  1283               	bcf	3,5	;RP0=0, select bank0
  2903     0388  1303               	bcf	3,6	;RP1=0, select bank0
  2904     0389  00B2               	movwf	___flmul@a+3
  2905     038A  1683               	bsf	3,5	;RP0=1, select bank1
  2906     038B  1303               	bcf	3,6	;RP1=0, select bank1
  2907     038C  0856               	movf	(converteVoltsParaLux@v_ldr+2)^(0+128),w
  2908     038D  1283               	bcf	3,5	;RP0=0, select bank0
  2909     038E  1303               	bcf	3,6	;RP1=0, select bank0
  2910     038F  00B1               	movwf	___flmul@a+2
  2911     0390  1683               	bsf	3,5	;RP0=1, select bank1
  2912     0391  1303               	bcf	3,6	;RP1=0, select bank1
  2913     0392  0855               	movf	(converteVoltsParaLux@v_ldr+1)^(0+128),w
  2914     0393  1283               	bcf	3,5	;RP0=0, select bank0
  2915     0394  1303               	bcf	3,6	;RP1=0, select bank0
  2916     0395  00B0               	movwf	___flmul@a+1
  2917     0396  1683               	bsf	3,5	;RP0=1, select bank1
  2918     0397  1303               	bcf	3,6	;RP1=0, select bank1
  2919     0398  0854               	movf	converteVoltsParaLux@v_ldr^(0+128),w
  2920     0399  1283               	bcf	3,5	;RP0=0, select bank0
  2921     039A  1303               	bcf	3,6	;RP1=0, select bank0
  2922     039B  00AF               	movwf	___flmul@a
  2923     039C  3046               	movlw	70
  2924     039D  00AE               	movwf	___flmul@b+3
  2925     039E  301C               	movlw	28
  2926     039F  00AD               	movwf	___flmul@b+2
  2927     03A0  3040               	movlw	64
  2928     03A1  00AC               	movwf	___flmul@b+1
  2929     03A2  3000               	movlw	0
  2930     03A3  00AB               	movwf	___flmul@b
  2931     03A4  120A  118A  203F  120A  118A  	fcall	___flmul
  2932     03A9  1283               	bcf	3,5	;RP0=0, select bank0
  2933     03AA  1303               	bcf	3,6	;RP1=0, select bank0
  2934     03AB  082E               	movf	?___flmul+3,w
  2935     03AC  1683               	bsf	3,5	;RP0=1, select bank1
  2936     03AD  1303               	bcf	3,6	;RP1=0, select bank1
  2937     03AE  00B7               	movwf	(___fldiv@b+3)^(0+128)
  2938     03AF  1283               	bcf	3,5	;RP0=0, select bank0
  2939     03B0  1303               	bcf	3,6	;RP1=0, select bank0
  2940     03B1  082D               	movf	?___flmul+2,w
  2941     03B2  1683               	bsf	3,5	;RP0=1, select bank1
  2942     03B3  1303               	bcf	3,6	;RP1=0, select bank1
  2943     03B4  00B6               	movwf	(___fldiv@b+2)^(0+128)
  2944     03B5  1283               	bcf	3,5	;RP0=0, select bank0
  2945     03B6  1303               	bcf	3,6	;RP1=0, select bank0
  2946     03B7  082C               	movf	?___flmul+1,w
  2947     03B8  1683               	bsf	3,5	;RP0=1, select bank1
  2948     03B9  1303               	bcf	3,6	;RP1=0, select bank1
  2949     03BA  00B5               	movwf	(___fldiv@b+1)^(0+128)
  2950     03BB  1283               	bcf	3,5	;RP0=0, select bank0
  2951     03BC  1303               	bcf	3,6	;RP1=0, select bank0
  2952     03BD  082B               	movf	?___flmul,w
  2953     03BE  1683               	bsf	3,5	;RP0=1, select bank1
  2954     03BF  1303               	bcf	3,6	;RP1=0, select bank1
  2955     03C0  00B4               	movwf	___fldiv@b^(0+128)
  2956     03C1  3040               	movlw	64
  2957     03C2  00AF               	movwf	(___flsub@b+3)^(0+128)
  2958     03C3  30A0               	movlw	160
  2959     03C4  00AE               	movwf	(___flsub@b+2)^(0+128)
  2960     03C5  3000               	movlw	0
  2961     03C6  00AD               	movwf	(___flsub@b+1)^(0+128)
  2962     03C7  3000               	movlw	0
  2963     03C8  00AC               	movwf	___flsub@b^(0+128)
  2964     03C9  0857               	movf	(converteVoltsParaLux@v_ldr+3)^(0+128),w
  2965     03CA  00AB               	movwf	(___flsub@a+3)^(0+128)
  2966     03CB  0856               	movf	(converteVoltsParaLux@v_ldr+2)^(0+128),w
  2967     03CC  00AA               	movwf	(___flsub@a+2)^(0+128)
  2968     03CD  0855               	movf	(converteVoltsParaLux@v_ldr+1)^(0+128),w
  2969     03CE  00A9               	movwf	(___flsub@a+1)^(0+128)
  2970     03CF  0854               	movf	converteVoltsParaLux@v_ldr^(0+128),w
  2971     03D0  00A8               	movwf	___flsub@a^(0+128)
  2972     03D1  160A  118A  258E  120A  118A  	fcall	___flsub
  2973     03D6  1683               	bsf	3,5	;RP0=1, select bank1
  2974     03D7  1303               	bcf	3,6	;RP1=0, select bank1
  2975     03D8  082B               	movf	(?___flsub+3)^(0+128),w
  2976     03D9  00B3               	movwf	(___fldiv@a+3)^(0+128)
  2977     03DA  082A               	movf	(?___flsub+2)^(0+128),w
  2978     03DB  00B2               	movwf	(___fldiv@a+2)^(0+128)
  2979     03DC  0829               	movf	(?___flsub+1)^(0+128),w
  2980     03DD  00B1               	movwf	(___fldiv@a+1)^(0+128)
  2981     03DE  0828               	movf	?___flsub^(0+128),w
  2982     03DF  00B0               	movwf	___fldiv@a^(0+128)
  2983     03E0  120A  118A  2621  120A  118A  	fcall	___fldiv
  2984     03E5  1683               	bsf	3,5	;RP0=1, select bank1
  2985     03E6  1303               	bcf	3,6	;RP1=0, select bank1
  2986     03E7  0833               	movf	(?___fldiv+3)^(0+128),w
  2987     03E8  00CD               	movwf	(___fltol@f1+3)^(0+128)
  2988     03E9  0832               	movf	(?___fldiv+2)^(0+128),w
  2989     03EA  00CC               	movwf	(___fltol@f1+2)^(0+128)
  2990     03EB  0831               	movf	(?___fldiv+1)^(0+128),w
  2991     03EC  00CB               	movwf	(___fltol@f1+1)^(0+128)
  2992     03ED  0830               	movf	?___fldiv^(0+128),w
  2993     03EE  00CA               	movwf	___fltol@f1^(0+128)
  2994     03EF  120A  158A  20AB  120A  118A  	fcall	___fltol
  2995     03F4  1683               	bsf	3,5	;RP0=1, select bank1
  2996     03F5  1303               	bcf	3,6	;RP1=0, select bank1
  2997     03F6  084B               	movf	(?___fltol+1)^(0+128),w
  2998     03F7  1683               	bsf	3,5	;RP0=1, select bank3
  2999     03F8  1703               	bsf	3,6	;RP1=1, select bank3
  3000     03F9  00A5               	movwf	(converteVoltsParaLux@r_ldr+1)^(0+384)
  3001     03FA  1683               	bsf	3,5	;RP0=1, select bank1
  3002     03FB  1303               	bcf	3,6	;RP1=0, select bank1
  3003     03FC  084A               	movf	?___fltol^(0+128),w
  3004     03FD  1683               	bsf	3,5	;RP0=1, select bank3
  3005     03FE  1703               	bsf	3,6	;RP1=1, select bank3
  3006     03FF  00A4               	movwf	converteVoltsParaLux@r_ldr^(0+384)
  3007     0400                     l3242:
  3008                           
  3009                           ;newmain.c: 221:     float b = ((log10(4) - log10(9)) - 1)/990;
  3010     0400  3041               	movlw	65
  3011     0401  1683               	bsf	3,5	;RP0=1, select bank1
  3012     0402  1303               	bcf	3,6	;RP1=0, select bank1
  3013     0403  00A3               	movwf	(log10@x+3)^(0+128)
  3014     0404  3010               	movlw	16
  3015     0405  00A2               	movwf	(log10@x+2)^(0+128)
  3016     0406  3000               	movlw	0
  3017     0407  00A1               	movwf	(log10@x+1)^(0+128)
  3018     0408  3000               	movlw	0
  3019     0409  00A0               	movwf	log10@x^(0+128)
  3020     040A  120A  158A  2036  120A  118A  	fcall	_log10
  3021     040F  1683               	bsf	3,5	;RP0=1, select bank1
  3022     0410  1303               	bcf	3,6	;RP1=0, select bank1
  3023     0411  0823               	movf	(?_log10+3)^(0+128),w
  3024     0412  00AB               	movwf	(___flsub@a+3)^(0+128)
  3025     0413  0822               	movf	(?_log10+2)^(0+128),w
  3026     0414  00AA               	movwf	(___flsub@a+2)^(0+128)
  3027     0415  0821               	movf	(?_log10+1)^(0+128),w
  3028     0416  00A9               	movwf	(___flsub@a+1)^(0+128)
  3029     0417  0820               	movf	?_log10^(0+128),w
  3030     0418  00A8               	movwf	___flsub@a^(0+128)
  3031     0419  3040               	movlw	64
  3032     041A  00A3               	movwf	(log10@x+3)^(0+128)
  3033     041B  3080               	movlw	128
  3034     041C  00A2               	movwf	(log10@x+2)^(0+128)
  3035     041D  3000               	movlw	0
  3036     041E  00A1               	movwf	(log10@x+1)^(0+128)
  3037     041F  3000               	movlw	0
  3038     0420  00A0               	movwf	log10@x^(0+128)
  3039     0421  120A  158A  2036  120A  118A  	fcall	_log10
  3040     0426  1683               	bsf	3,5	;RP0=1, select bank1
  3041     0427  1303               	bcf	3,6	;RP1=0, select bank1
  3042     0428  0823               	movf	(?_log10+3)^(0+128),w
  3043     0429  00AF               	movwf	(___flsub@b+3)^(0+128)
  3044     042A  0822               	movf	(?_log10+2)^(0+128),w
  3045     042B  00AE               	movwf	(___flsub@b+2)^(0+128)
  3046     042C  0821               	movf	(?_log10+1)^(0+128),w
  3047     042D  00AD               	movwf	(___flsub@b+1)^(0+128)
  3048     042E  0820               	movf	?_log10^(0+128),w
  3049     042F  00AC               	movwf	___flsub@b^(0+128)
  3050     0430  160A  118A  258E  120A  118A  	fcall	___flsub
  3051     0435  1683               	bsf	3,5	;RP0=1, select bank1
  3052     0436  1303               	bcf	3,6	;RP1=0, select bank1
  3053     0437  082B               	movf	(?___flsub+3)^(0+128),w
  3054     0438  1683               	bsf	3,5	;RP0=1, select bank3
  3055     0439  1703               	bsf	3,6	;RP1=1, select bank3
  3056     043A  0097               	movwf	(_converteVoltsParaLux$1034+3)^(0+384)
  3057     043B  1683               	bsf	3,5	;RP0=1, select bank1
  3058     043C  1303               	bcf	3,6	;RP1=0, select bank1
  3059     043D  082A               	movf	(?___flsub+2)^(0+128),w
  3060     043E  1683               	bsf	3,5	;RP0=1, select bank3
  3061     043F  1703               	bsf	3,6	;RP1=1, select bank3
  3062     0440  0096               	movwf	(_converteVoltsParaLux$1034+2)^(0+384)
  3063     0441  1683               	bsf	3,5	;RP0=1, select bank1
  3064     0442  1303               	bcf	3,6	;RP1=0, select bank1
  3065     0443  0829               	movf	(?___flsub+1)^(0+128),w
  3066     0444  1683               	bsf	3,5	;RP0=1, select bank3
  3067     0445  1703               	bsf	3,6	;RP1=1, select bank3
  3068     0446  0095               	movwf	(_converteVoltsParaLux$1034+1)^(0+384)
  3069     0447  1683               	bsf	3,5	;RP0=1, select bank1
  3070     0448  1303               	bcf	3,6	;RP1=0, select bank1
  3071     0449  0828               	movf	?___flsub^(0+128),w
  3072     044A  1683               	bsf	3,5	;RP0=1, select bank3
  3073     044B  1703               	bsf	3,6	;RP1=1, select bank3
  3074     044C  0094               	movwf	_converteVoltsParaLux$1034^(0+384)
  3075     044D                     l3244:
  3076                           
  3077                           ;newmain.c: 221:     float b = ((log10(4) - log10(9)) - 1)/990;
  3078     044D  3044               	movlw	68
  3079     044E  1683               	bsf	3,5	;RP0=1, select bank1
  3080     044F  1303               	bcf	3,6	;RP1=0, select bank1
  3081     0450  00B3               	movwf	(___fldiv@a+3)^(0+128)
  3082     0451  3077               	movlw	119
  3083     0452  00B2               	movwf	(___fldiv@a+2)^(0+128)
  3084     0453  3080               	movlw	128
  3085     0454  00B1               	movwf	(___fldiv@a+1)^(0+128)
  3086     0455  3000               	movlw	0
  3087     0456  00B0               	movwf	___fldiv@a^(0+128)
  3088     0457  30BF               	movlw	191
  3089     0458  1283               	bcf	3,5	;RP0=0, select bank0
  3090     0459  1303               	bcf	3,6	;RP1=0, select bank0
  3091     045A  00C8               	movwf	___fladd@b+3
  3092     045B  3080               	movlw	128
  3093     045C  00C7               	movwf	___fladd@b+2
  3094     045D  3000               	movlw	0
  3095     045E  00C6               	movwf	___fladd@b+1
  3096     045F  3000               	movlw	0
  3097     0460  00C5               	movwf	___fladd@b
  3098     0461  1683               	bsf	3,5	;RP0=1, select bank3
  3099     0462  1703               	bsf	3,6	;RP1=1, select bank3
  3100     0463  0817               	movf	(_converteVoltsParaLux$1034+3)^(0+384),w
  3101     0464  1283               	bcf	3,5	;RP0=0, select bank0
  3102     0465  1303               	bcf	3,6	;RP1=0, select bank0
  3103     0466  00CC               	movwf	___fladd@a+3
  3104     0467  1683               	bsf	3,5	;RP0=1, select bank3
  3105     0468  1703               	bsf	3,6	;RP1=1, select bank3
  3106     0469  0816               	movf	(_converteVoltsParaLux$1034+2)^(0+384),w
  3107     046A  1283               	bcf	3,5	;RP0=0, select bank0
  3108     046B  1303               	bcf	3,6	;RP1=0, select bank0
  3109     046C  00CB               	movwf	___fladd@a+2
  3110     046D  1683               	bsf	3,5	;RP0=1, select bank3
  3111     046E  1703               	bsf	3,6	;RP1=1, select bank3
  3112     046F  0815               	movf	(_converteVoltsParaLux$1034+1)^(0+384),w
  3113     0470  1283               	bcf	3,5	;RP0=0, select bank0
  3114     0471  1303               	bcf	3,6	;RP1=0, select bank0
  3115     0472  00CA               	movwf	___fladd@a+1
  3116     0473  1683               	bsf	3,5	;RP0=1, select bank3
  3117     0474  1703               	bsf	3,6	;RP1=1, select bank3
  3118     0475  0814               	movf	_converteVoltsParaLux$1034^(0+384),w
  3119     0476  1283               	bcf	3,5	;RP0=0, select bank0
  3120     0477  1303               	bcf	3,6	;RP1=0, select bank0
  3121     0478  00C9               	movwf	___fladd@a
  3122     0479  120A  158A  25A8  120A  118A  	fcall	___fladd
  3123     047E  1283               	bcf	3,5	;RP0=0, select bank0
  3124     047F  1303               	bcf	3,6	;RP1=0, select bank0
  3125     0480  0848               	movf	?___fladd+3,w
  3126     0481  1683               	bsf	3,5	;RP0=1, select bank1
  3127     0482  1303               	bcf	3,6	;RP1=0, select bank1
  3128     0483  00B7               	movwf	(___fldiv@b+3)^(0+128)
  3129     0484  1283               	bcf	3,5	;RP0=0, select bank0
  3130     0485  1303               	bcf	3,6	;RP1=0, select bank0
  3131     0486  0847               	movf	?___fladd+2,w
  3132     0487  1683               	bsf	3,5	;RP0=1, select bank1
  3133     0488  1303               	bcf	3,6	;RP1=0, select bank1
  3134     0489  00B6               	movwf	(___fldiv@b+2)^(0+128)
  3135     048A  1283               	bcf	3,5	;RP0=0, select bank0
  3136     048B  1303               	bcf	3,6	;RP1=0, select bank0
  3137     048C  0846               	movf	?___fladd+1,w
  3138     048D  1683               	bsf	3,5	;RP0=1, select bank1
  3139     048E  1303               	bcf	3,6	;RP1=0, select bank1
  3140     048F  00B5               	movwf	(___fldiv@b+1)^(0+128)
  3141     0490  1283               	bcf	3,5	;RP0=0, select bank0
  3142     0491  1303               	bcf	3,6	;RP1=0, select bank0
  3143     0492  0845               	movf	?___fladd,w
  3144     0493  1683               	bsf	3,5	;RP0=1, select bank1
  3145     0494  1303               	bcf	3,6	;RP1=0, select bank1
  3146     0495  00B4               	movwf	___fldiv@b^(0+128)
  3147     0496  120A  118A  2621  120A  118A  	fcall	___fldiv
  3148     049B  1683               	bsf	3,5	;RP0=1, select bank1
  3149     049C  1303               	bcf	3,6	;RP1=0, select bank1
  3150     049D  0833               	movf	(?___fldiv+3)^(0+128),w
  3151     049E  1683               	bsf	3,5	;RP0=1, select bank3
  3152     049F  1703               	bsf	3,6	;RP1=1, select bank3
  3153     04A0  00A9               	movwf	(converteVoltsParaLux@b+3)^(0+384)
  3154     04A1  1683               	bsf	3,5	;RP0=1, select bank1
  3155     04A2  1303               	bcf	3,6	;RP1=0, select bank1
  3156     04A3  0832               	movf	(?___fldiv+2)^(0+128),w
  3157     04A4  1683               	bsf	3,5	;RP0=1, select bank3
  3158     04A5  1703               	bsf	3,6	;RP1=1, select bank3
  3159     04A6  00A8               	movwf	(converteVoltsParaLux@b+2)^(0+384)
  3160     04A7  1683               	bsf	3,5	;RP0=1, select bank1
  3161     04A8  1303               	bcf	3,6	;RP1=0, select bank1
  3162     04A9  0831               	movf	(?___fldiv+1)^(0+128),w
  3163     04AA  1683               	bsf	3,5	;RP0=1, select bank3
  3164     04AB  1703               	bsf	3,6	;RP1=1, select bank3
  3165     04AC  00A7               	movwf	(converteVoltsParaLux@b+1)^(0+384)
  3166     04AD  1683               	bsf	3,5	;RP0=1, select bank1
  3167     04AE  1303               	bcf	3,6	;RP1=0, select bank1
  3168     04AF  0830               	movf	?___fldiv^(0+128),w
  3169     04B0  1683               	bsf	3,5	;RP0=1, select bank3
  3170     04B1  1703               	bsf	3,6	;RP1=1, select bank3
  3171     04B2  00A6               	movwf	converteVoltsParaLux@b^(0+384)
  3172     04B3                     l3246:
  3173                           
  3174                           ;newmain.c: 222:     float l_ldr =
  3175     04B3  0824               	movf	converteVoltsParaLux@r_ldr^(0+384),w
  3176     04B4  00F2               	movwf	___xxtofl@val
  3177     04B5  0825               	movf	(converteVoltsParaLux@r_ldr+1)^(0+384),w
  3178     04B6  00F3               	movwf	___xxtofl@val+1
  3179     04B7  3000               	movlw	0
  3180     04B8  1BF3               	btfsc	___xxtofl@val+1,7
  3181     04B9  30FF               	movlw	255
  3182     04BA  00F4               	movwf	___xxtofl@val+2
  3183     04BB  00F5               	movwf	___xxtofl@val+3
  3184     04BC  3001               	movlw	1
  3185     04BD  120A  158A  231E  120A  118A  	fcall	___xxtofl
  3186     04C2  0875               	movf	?___xxtofl+3,w
  3187     04C3  1683               	bsf	3,5	;RP0=1, select bank3
  3188     04C4  1703               	bsf	3,6	;RP1=1, select bank3
  3189     04C5  009B               	movwf	(_converteVoltsParaLux$1035+3)^(0+384)
  3190     04C6  0874               	movf	?___xxtofl+2,w
  3191     04C7  009A               	movwf	(_converteVoltsParaLux$1035+2)^(0+384)
  3192     04C8  0873               	movf	?___xxtofl+1,w
  3193     04C9  0099               	movwf	(_converteVoltsParaLux$1035+1)^(0+384)
  3194     04CA  0872               	movf	?___xxtofl,w
  3195     04CB  0098               	movwf	_converteVoltsParaLux$1035^(0+384)
  3196     04CC                     l3248:
  3197                           
  3198                           ;newmain.c: 222:     float l_ldr =
  3199     04CC  3043               	movlw	67
  3200     04CD  1683               	bsf	3,5	;RP0=1, select bank1
  3201     04CE  1303               	bcf	3,6	;RP1=0, select bank1
  3202     04CF  00A3               	movwf	(log10@x+3)^(0+128)
  3203     04D0  30C8               	movlw	200
  3204     04D1  00A2               	movwf	(log10@x+2)^(0+128)
  3205     04D2  3000               	movlw	0
  3206     04D3  00A1               	movwf	(log10@x+1)^(0+128)
  3207     04D4  3000               	movlw	0
  3208     04D5  00A0               	movwf	log10@x^(0+128)
  3209     04D6  120A  158A  2036  120A  118A  	fcall	_log10
  3210     04DB  1683               	bsf	3,5	;RP0=1, select bank1
  3211     04DC  1303               	bcf	3,6	;RP1=0, select bank1
  3212     04DD  0823               	movf	(?_log10+3)^(0+128),w
  3213     04DE  00AB               	movwf	(___flsub@a+3)^(0+128)
  3214     04DF  0822               	movf	(?_log10+2)^(0+128),w
  3215     04E0  00AA               	movwf	(___flsub@a+2)^(0+128)
  3216     04E1  0821               	movf	(?_log10+1)^(0+128),w
  3217     04E2  00A9               	movwf	(___flsub@a+1)^(0+128)
  3218     04E3  0820               	movf	?_log10^(0+128),w
  3219     04E4  00A8               	movwf	___flsub@a^(0+128)
  3220     04E5  1683               	bsf	3,5	;RP0=1, select bank3
  3221     04E6  1703               	bsf	3,6	;RP1=1, select bank3
  3222     04E7  081B               	movf	(_converteVoltsParaLux$1035+3)^(0+384),w
  3223     04E8  1683               	bsf	3,5	;RP0=1, select bank1
  3224     04E9  1303               	bcf	3,6	;RP1=0, select bank1
  3225     04EA  00A3               	movwf	(log10@x+3)^(0+128)
  3226     04EB  1683               	bsf	3,5	;RP0=1, select bank3
  3227     04EC  1703               	bsf	3,6	;RP1=1, select bank3
  3228     04ED  081A               	movf	(_converteVoltsParaLux$1035+2)^(0+384),w
  3229     04EE  1683               	bsf	3,5	;RP0=1, select bank1
  3230     04EF  1303               	bcf	3,6	;RP1=0, select bank1
  3231     04F0  00A2               	movwf	(log10@x+2)^(0+128)
  3232     04F1  1683               	bsf	3,5	;RP0=1, select bank3
  3233     04F2  1703               	bsf	3,6	;RP1=1, select bank3
  3234     04F3  0819               	movf	(_converteVoltsParaLux$1035+1)^(0+384),w
  3235     04F4  1683               	bsf	3,5	;RP0=1, select bank1
  3236     04F5  1303               	bcf	3,6	;RP1=0, select bank1
  3237     04F6  00A1               	movwf	(log10@x+1)^(0+128)
  3238     04F7  1683               	bsf	3,5	;RP0=1, select bank3
  3239     04F8  1703               	bsf	3,6	;RP1=1, select bank3
  3240     04F9  0818               	movf	_converteVoltsParaLux$1035^(0+384),w
  3241     04FA  1683               	bsf	3,5	;RP0=1, select bank1
  3242     04FB  1303               	bcf	3,6	;RP1=0, select bank1
  3243     04FC  00A0               	movwf	log10@x^(0+128)
  3244     04FD  120A  158A  2036  120A  118A  	fcall	_log10
  3245     0502  1683               	bsf	3,5	;RP0=1, select bank1
  3246     0503  1303               	bcf	3,6	;RP1=0, select bank1
  3247     0504  0823               	movf	(?_log10+3)^(0+128),w
  3248     0505  00AF               	movwf	(___flsub@b+3)^(0+128)
  3249     0506  0822               	movf	(?_log10+2)^(0+128),w
  3250     0507  00AE               	movwf	(___flsub@b+2)^(0+128)
  3251     0508  0821               	movf	(?_log10+1)^(0+128),w
  3252     0509  00AD               	movwf	(___flsub@b+1)^(0+128)
  3253     050A  0820               	movf	?_log10^(0+128),w
  3254     050B  00AC               	movwf	___flsub@b^(0+128)
  3255     050C  160A  118A  258E  120A  118A  	fcall	___flsub
  3256     0511  1683               	bsf	3,5	;RP0=1, select bank1
  3257     0512  1303               	bcf	3,6	;RP1=0, select bank1
  3258     0513  082B               	movf	(?___flsub+3)^(0+128),w
  3259     0514  1683               	bsf	3,5	;RP0=1, select bank3
  3260     0515  1703               	bsf	3,6	;RP1=1, select bank3
  3261     0516  009F               	movwf	(_converteVoltsParaLux$1036+3)^(0+384)
  3262     0517  1683               	bsf	3,5	;RP0=1, select bank1
  3263     0518  1303               	bcf	3,6	;RP1=0, select bank1
  3264     0519  082A               	movf	(?___flsub+2)^(0+128),w
  3265     051A  1683               	bsf	3,5	;RP0=1, select bank3
  3266     051B  1703               	bsf	3,6	;RP1=1, select bank3
  3267     051C  009E               	movwf	(_converteVoltsParaLux$1036+2)^(0+384)
  3268     051D  1683               	bsf	3,5	;RP0=1, select bank1
  3269     051E  1303               	bcf	3,6	;RP1=0, select bank1
  3270     051F  0829               	movf	(?___flsub+1)^(0+128),w
  3271     0520  1683               	bsf	3,5	;RP0=1, select bank3
  3272     0521  1703               	bsf	3,6	;RP1=1, select bank3
  3273     0522  009D               	movwf	(_converteVoltsParaLux$1036+1)^(0+384)
  3274     0523  1683               	bsf	3,5	;RP0=1, select bank1
  3275     0524  1303               	bcf	3,6	;RP1=0, select bank1
  3276     0525  0828               	movf	?___flsub^(0+128),w
  3277     0526  1683               	bsf	3,5	;RP0=1, select bank3
  3278     0527  1703               	bsf	3,6	;RP1=1, select bank3
  3279     0528  009C               	movwf	_converteVoltsParaLux$1036^(0+384)
  3280                           
  3281                           ;newmain.c: 222:     float l_ldr =
  3282     0529  3044               	movlw	68
  3283     052A  1283               	bcf	3,5	;RP0=0, select bank0
  3284     052B  1303               	bcf	3,6	;RP1=0, select bank0
  3285     052C  00AE               	movwf	___flmul@b+3
  3286     052D  307A               	movlw	122
  3287     052E  00AD               	movwf	___flmul@b+2
  3288     052F  3000               	movlw	0
  3289     0530  00AC               	movwf	___flmul@b+1
  3290     0531  3000               	movlw	0
  3291     0532  00AB               	movwf	___flmul@b
  3292     0533  1683               	bsf	3,5	;RP0=1, select bank3
  3293     0534  1703               	bsf	3,6	;RP1=1, select bank3
  3294     0535  0829               	movf	(converteVoltsParaLux@b+3)^(0+384),w
  3295     0536  1283               	bcf	3,5	;RP0=0, select bank0
  3296     0537  1303               	bcf	3,6	;RP1=0, select bank0
  3297     0538  00B2               	movwf	___flmul@a+3
  3298     0539  1683               	bsf	3,5	;RP0=1, select bank3
  3299     053A  1703               	bsf	3,6	;RP1=1, select bank3
  3300     053B  0828               	movf	(converteVoltsParaLux@b+2)^(0+384),w
  3301     053C  1283               	bcf	3,5	;RP0=0, select bank0
  3302     053D  1303               	bcf	3,6	;RP1=0, select bank0
  3303     053E  00B1               	movwf	___flmul@a+2
  3304     053F  1683               	bsf	3,5	;RP0=1, select bank3
  3305     0540  1703               	bsf	3,6	;RP1=1, select bank3
  3306     0541  0827               	movf	(converteVoltsParaLux@b+1)^(0+384),w
  3307     0542  1283               	bcf	3,5	;RP0=0, select bank0
  3308     0543  1303               	bcf	3,6	;RP1=0, select bank0
  3309     0544  00B0               	movwf	___flmul@a+1
  3310     0545  1683               	bsf	3,5	;RP0=1, select bank3
  3311     0546  1703               	bsf	3,6	;RP1=1, select bank3
  3312     0547  0826               	movf	converteVoltsParaLux@b^(0+384),w
  3313     0548  1283               	bcf	3,5	;RP0=0, select bank0
  3314     0549  1303               	bcf	3,6	;RP1=0, select bank0
  3315     054A  00AF               	movwf	___flmul@a
  3316     054B  120A  118A  203F  120A  118A  	fcall	___flmul
  3317     0550  1283               	bcf	3,5	;RP0=0, select bank0
  3318     0551  1303               	bcf	3,6	;RP1=0, select bank0
  3319     0552  082E               	movf	?___flmul+3,w
  3320     0553  00C8               	movwf	___fladd@b+3
  3321     0554  082D               	movf	?___flmul+2,w
  3322     0555  00C7               	movwf	___fladd@b+2
  3323     0556  082C               	movf	?___flmul+1,w
  3324     0557  00C6               	movwf	___fladd@b+1
  3325     0558  082B               	movf	?___flmul,w
  3326     0559  00C5               	movwf	___fladd@b
  3327     055A  1683               	bsf	3,5	;RP0=1, select bank3
  3328     055B  1703               	bsf	3,6	;RP1=1, select bank3
  3329     055C  081F               	movf	(_converteVoltsParaLux$1036+3)^(0+384),w
  3330     055D  1283               	bcf	3,5	;RP0=0, select bank0
  3331     055E  1303               	bcf	3,6	;RP1=0, select bank0
  3332     055F  00CC               	movwf	___fladd@a+3
  3333     0560  1683               	bsf	3,5	;RP0=1, select bank3
  3334     0561  1703               	bsf	3,6	;RP1=1, select bank3
  3335     0562  081E               	movf	(_converteVoltsParaLux$1036+2)^(0+384),w
  3336     0563  1283               	bcf	3,5	;RP0=0, select bank0
  3337     0564  1303               	bcf	3,6	;RP1=0, select bank0
  3338     0565  00CB               	movwf	___fladd@a+2
  3339     0566  1683               	bsf	3,5	;RP0=1, select bank3
  3340     0567  1703               	bsf	3,6	;RP1=1, select bank3
  3341     0568  081D               	movf	(_converteVoltsParaLux$1036+1)^(0+384),w
  3342     0569  1283               	bcf	3,5	;RP0=0, select bank0
  3343     056A  1303               	bcf	3,6	;RP1=0, select bank0
  3344     056B  00CA               	movwf	___fladd@a+1
  3345     056C  1683               	bsf	3,5	;RP0=1, select bank3
  3346     056D  1703               	bsf	3,6	;RP1=1, select bank3
  3347     056E  081C               	movf	_converteVoltsParaLux$1036^(0+384),w
  3348     056F  1283               	bcf	3,5	;RP0=0, select bank0
  3349     0570  1303               	bcf	3,6	;RP1=0, select bank0
  3350     0571  00C9               	movwf	___fladd@a
  3351     0572  120A  158A  25A8  120A  118A  	fcall	___fladd
  3352     0577  1283               	bcf	3,5	;RP0=0, select bank0
  3353     0578  1303               	bcf	3,6	;RP1=0, select bank0
  3354     0579  0848               	movf	?___fladd+3,w
  3355     057A  1683               	bsf	3,5	;RP0=1, select bank3
  3356     057B  1703               	bsf	3,6	;RP1=1, select bank3
  3357     057C  00A3               	movwf	(_converteVoltsParaLux$1037+3)^(0+384)
  3358     057D  1283               	bcf	3,5	;RP0=0, select bank0
  3359     057E  1303               	bcf	3,6	;RP1=0, select bank0
  3360     057F  0847               	movf	?___fladd+2,w
  3361     0580  1683               	bsf	3,5	;RP0=1, select bank3
  3362     0581  1703               	bsf	3,6	;RP1=1, select bank3
  3363     0582  00A2               	movwf	(_converteVoltsParaLux$1037+2)^(0+384)
  3364     0583  1283               	bcf	3,5	;RP0=0, select bank0
  3365     0584  1303               	bcf	3,6	;RP1=0, select bank0
  3366     0585  0846               	movf	?___fladd+1,w
  3367     0586  1683               	bsf	3,5	;RP0=1, select bank3
  3368     0587  1703               	bsf	3,6	;RP1=1, select bank3
  3369     0588  00A1               	movwf	(_converteVoltsParaLux$1037+1)^(0+384)
  3370     0589  1283               	bcf	3,5	;RP0=0, select bank0
  3371     058A  1303               	bcf	3,6	;RP1=0, select bank0
  3372     058B  0845               	movf	?___fladd,w
  3373     058C  1683               	bsf	3,5	;RP0=1, select bank3
  3374     058D  1703               	bsf	3,6	;RP1=1, select bank3
  3375     058E  00A0               	movwf	_converteVoltsParaLux$1037^(0+384)
  3376                           
  3377                           ;newmain.c: 222:     float l_ldr =
  3378     058F  0829               	movf	(converteVoltsParaLux@b+3)^(0+384),w
  3379     0590  1683               	bsf	3,5	;RP0=1, select bank1
  3380     0591  1303               	bcf	3,6	;RP1=0, select bank1
  3381     0592  00B3               	movwf	(___fldiv@a+3)^(0+128)
  3382     0593  1683               	bsf	3,5	;RP0=1, select bank3
  3383     0594  1703               	bsf	3,6	;RP1=1, select bank3
  3384     0595  0828               	movf	(converteVoltsParaLux@b+2)^(0+384),w
  3385     0596  1683               	bsf	3,5	;RP0=1, select bank1
  3386     0597  1303               	bcf	3,6	;RP1=0, select bank1
  3387     0598  00B2               	movwf	(___fldiv@a+2)^(0+128)
  3388     0599  1683               	bsf	3,5	;RP0=1, select bank3
  3389     059A  1703               	bsf	3,6	;RP1=1, select bank3
  3390     059B  0827               	movf	(converteVoltsParaLux@b+1)^(0+384),w
  3391     059C  1683               	bsf	3,5	;RP0=1, select bank1
  3392     059D  1303               	bcf	3,6	;RP1=0, select bank1
  3393     059E  00B1               	movwf	(___fldiv@a+1)^(0+128)
  3394     059F  1683               	bsf	3,5	;RP0=1, select bank3
  3395     05A0  1703               	bsf	3,6	;RP1=1, select bank3
  3396     05A1  0826               	movf	converteVoltsParaLux@b^(0+384),w
  3397     05A2  1683               	bsf	3,5	;RP0=1, select bank1
  3398     05A3  1303               	bcf	3,6	;RP1=0, select bank1
  3399     05A4  00B0               	movwf	___fldiv@a^(0+128)
  3400     05A5  303F               	movlw	63
  3401     05A6  00B7               	movwf	(___fldiv@b+3)^(0+128)
  3402     05A7  3080               	movlw	128
  3403     05A8  00B6               	movwf	(___fldiv@b+2)^(0+128)
  3404     05A9  3000               	movlw	0
  3405     05AA  00B5               	movwf	(___fldiv@b+1)^(0+128)
  3406     05AB  3000               	movlw	0
  3407     05AC  00B4               	movwf	___fldiv@b^(0+128)
  3408     05AD  120A  118A  2621  120A  118A  	fcall	___fldiv
  3409     05B2  1683               	bsf	3,5	;RP0=1, select bank1
  3410     05B3  1303               	bcf	3,6	;RP1=0, select bank1
  3411     05B4  0833               	movf	(?___fldiv+3)^(0+128),w
  3412     05B5  1283               	bcf	3,5	;RP0=0, select bank0
  3413     05B6  1303               	bcf	3,6	;RP1=0, select bank0
  3414     05B7  00AE               	movwf	___flmul@b+3
  3415     05B8  1683               	bsf	3,5	;RP0=1, select bank1
  3416     05B9  1303               	bcf	3,6	;RP1=0, select bank1
  3417     05BA  0832               	movf	(?___fldiv+2)^(0+128),w
  3418     05BB  1283               	bcf	3,5	;RP0=0, select bank0
  3419     05BC  1303               	bcf	3,6	;RP1=0, select bank0
  3420     05BD  00AD               	movwf	___flmul@b+2
  3421     05BE  1683               	bsf	3,5	;RP0=1, select bank1
  3422     05BF  1303               	bcf	3,6	;RP1=0, select bank1
  3423     05C0  0831               	movf	(?___fldiv+1)^(0+128),w
  3424     05C1  1283               	bcf	3,5	;RP0=0, select bank0
  3425     05C2  1303               	bcf	3,6	;RP1=0, select bank0
  3426     05C3  00AC               	movwf	___flmul@b+1
  3427     05C4  1683               	bsf	3,5	;RP0=1, select bank1
  3428     05C5  1303               	bcf	3,6	;RP1=0, select bank1
  3429     05C6  0830               	movf	?___fldiv^(0+128),w
  3430     05C7  1283               	bcf	3,5	;RP0=0, select bank0
  3431     05C8  1303               	bcf	3,6	;RP1=0, select bank0
  3432     05C9  00AB               	movwf	___flmul@b
  3433     05CA  1683               	bsf	3,5	;RP0=1, select bank3
  3434     05CB  1703               	bsf	3,6	;RP1=1, select bank3
  3435     05CC  0823               	movf	(_converteVoltsParaLux$1037+3)^(0+384),w
  3436     05CD  1283               	bcf	3,5	;RP0=0, select bank0
  3437     05CE  1303               	bcf	3,6	;RP1=0, select bank0
  3438     05CF  00B2               	movwf	___flmul@a+3
  3439     05D0  1683               	bsf	3,5	;RP0=1, select bank3
  3440     05D1  1703               	bsf	3,6	;RP1=1, select bank3
  3441     05D2  0822               	movf	(_converteVoltsParaLux$1037+2)^(0+384),w
  3442     05D3  1283               	bcf	3,5	;RP0=0, select bank0
  3443     05D4  1303               	bcf	3,6	;RP1=0, select bank0
  3444     05D5  00B1               	movwf	___flmul@a+2
  3445     05D6  1683               	bsf	3,5	;RP0=1, select bank3
  3446     05D7  1703               	bsf	3,6	;RP1=1, select bank3
  3447     05D8  0821               	movf	(_converteVoltsParaLux$1037+1)^(0+384),w
  3448     05D9  1283               	bcf	3,5	;RP0=0, select bank0
  3449     05DA  1303               	bcf	3,6	;RP1=0, select bank0
  3450     05DB  00B0               	movwf	___flmul@a+1
  3451     05DC  1683               	bsf	3,5	;RP0=1, select bank3
  3452     05DD  1703               	bsf	3,6	;RP1=1, select bank3
  3453     05DE  0820               	movf	_converteVoltsParaLux$1037^(0+384),w
  3454     05DF  1283               	bcf	3,5	;RP0=0, select bank0
  3455     05E0  1303               	bcf	3,6	;RP1=0, select bank0
  3456     05E1  00AF               	movwf	___flmul@a
  3457     05E2  120A  118A  203F  120A  118A  	fcall	___flmul
  3458     05E7  1283               	bcf	3,5	;RP0=0, select bank0
  3459     05E8  1303               	bcf	3,6	;RP1=0, select bank0
  3460     05E9  082E               	movf	?___flmul+3,w
  3461     05EA  1683               	bsf	3,5	;RP0=1, select bank3
  3462     05EB  1703               	bsf	3,6	;RP1=1, select bank3
  3463     05EC  0093               	movwf	(converteVoltsParaLux@l_ldr+3)^(0+384)
  3464     05ED  1283               	bcf	3,5	;RP0=0, select bank0
  3465     05EE  1303               	bcf	3,6	;RP1=0, select bank0
  3466     05EF  082D               	movf	?___flmul+2,w
  3467     05F0  1683               	bsf	3,5	;RP0=1, select bank3
  3468     05F1  1703               	bsf	3,6	;RP1=1, select bank3
  3469     05F2  0092               	movwf	(converteVoltsParaLux@l_ldr+2)^(0+384)
  3470     05F3  1283               	bcf	3,5	;RP0=0, select bank0
  3471     05F4  1303               	bcf	3,6	;RP1=0, select bank0
  3472     05F5  082C               	movf	?___flmul+1,w
  3473     05F6  1683               	bsf	3,5	;RP0=1, select bank3
  3474     05F7  1703               	bsf	3,6	;RP1=1, select bank3
  3475     05F8  0091               	movwf	(converteVoltsParaLux@l_ldr+1)^(0+384)
  3476     05F9  1283               	bcf	3,5	;RP0=0, select bank0
  3477     05FA  1303               	bcf	3,6	;RP1=0, select bank0
  3478     05FB  082B               	movf	?___flmul,w
  3479     05FC  1683               	bsf	3,5	;RP0=1, select bank3
  3480     05FD  1703               	bsf	3,6	;RP1=1, select bank3
  3481     05FE  0090               	movwf	converteVoltsParaLux@l_ldr^(0+384)
  3482                           
  3483                           ;newmain.c: 234:     return l_ldr;
  3484     05FF  0813               	movf	(converteVoltsParaLux@l_ldr+3)^(0+384),w
  3485     0600  1683               	bsf	3,5	;RP0=1, select bank1
  3486     0601  1303               	bcf	3,6	;RP1=0, select bank1
  3487     0602  00CD               	movwf	(___fltol@f1+3)^(0+128)
  3488     0603  1683               	bsf	3,5	;RP0=1, select bank3
  3489     0604  1703               	bsf	3,6	;RP1=1, select bank3
  3490     0605  0812               	movf	(converteVoltsParaLux@l_ldr+2)^(0+384),w
  3491     0606  1683               	bsf	3,5	;RP0=1, select bank1
  3492     0607  1303               	bcf	3,6	;RP1=0, select bank1
  3493     0608  00CC               	movwf	(___fltol@f1+2)^(0+128)
  3494     0609  1683               	bsf	3,5	;RP0=1, select bank3
  3495     060A  1703               	bsf	3,6	;RP1=1, select bank3
  3496     060B  0811               	movf	(converteVoltsParaLux@l_ldr+1)^(0+384),w
  3497     060C  1683               	bsf	3,5	;RP0=1, select bank1
  3498     060D  1303               	bcf	3,6	;RP1=0, select bank1
  3499     060E  00CB               	movwf	(___fltol@f1+1)^(0+128)
  3500     060F  1683               	bsf	3,5	;RP0=1, select bank3
  3501     0610  1703               	bsf	3,6	;RP1=1, select bank3
  3502     0611  0810               	movf	converteVoltsParaLux@l_ldr^(0+384),w
  3503     0612  1683               	bsf	3,5	;RP0=1, select bank1
  3504     0613  1303               	bcf	3,6	;RP1=0, select bank1
  3505     0614  00CA               	movwf	___fltol@f1^(0+128)
  3506     0615  120A  158A  20AB  120A  118A  	fcall	___fltol
  3507     061A  1683               	bsf	3,5	;RP0=1, select bank1
  3508     061B  1303               	bcf	3,6	;RP1=0, select bank1
  3509     061C  084B               	movf	(?___fltol+1)^(0+128),w
  3510     061D  00D5               	movwf	(?_converteVoltsParaLux+1)^(0+128)
  3511     061E  084A               	movf	?___fltol^(0+128),w
  3512     061F  00D4               	movwf	?_converteVoltsParaLux^(0+128)
  3513     0620                     l152:
  3514     0620  0008               	return
  3515     0621                     __end_of_converteVoltsParaLux:
  3516                           
  3517                           	psect	text14
  3518     0836                     __ptext14:	
  3519 ;; *************** function _log10 *****************
  3520 ;; Defined at:
  3521 ;;		line 39 in file "C:\Program Files\Microchip\xc8\v2.41\pic\sources\c90\common\log.c"
  3522 ;; Parameters:    Size  Location     Type
  3523 ;;  x               4    0[BANK1 ] int 
  3524 ;; Auto vars:     Size  Location     Type
  3525 ;;		None
  3526 ;; Return value:  Size  Location     Type
  3527 ;;                  4    0[BANK1 ] int 
  3528 ;; Registers used:
  3529 ;;		wreg, fsr0l, fsr0h, status,2, status,0, btemp+1, pclath, cstack
  3530 ;; Tracked objects:
  3531 ;;		On entry : 0/0
  3532 ;;		On exit  : 0/0
  3533 ;;		Unchanged: 0/0
  3534 ;; Data sizes:     COMMON   BANK0   BANK1   BANK3   BANK2
  3535 ;;      Params:         0       0       4       0       0
  3536 ;;      Locals:         0       0       4       0       0
  3537 ;;      Temps:          0       0       0       0       0
  3538 ;;      Totals:         0       0       8       0       0
  3539 ;;Total ram usage:        8 bytes
  3540 ;; Hardware stack levels used: 1
  3541 ;; Hardware stack levels required when called: 5
  3542 ;; This function calls:
  3543 ;;		___flmul
  3544 ;;		_log
  3545 ;; This function is called by:
  3546 ;;		_converteVoltsParaLux
  3547 ;; This function uses a non-reentrant model
  3548 ;;
  3549                           
  3550     0836                     _log10:	
  3551                           ;psect for function _log10
  3552                           
  3553     0836                     l3210:	
  3554                           ;incstack = 0
  3555                           ; Regs used in _log10: [wreg-fsr0h+status,2+status,0+btemp+1+pclath+cstack]
  3556                           
  3557     0836  1683               	bsf	3,5	;RP0=1, select bank1
  3558     0837  1303               	bcf	3,6	;RP1=0, select bank1
  3559     0838  0823               	movf	(log10@x+3)^(0+128),w
  3560     0839  1283               	bcf	3,5	;RP0=0, select bank0
  3561     083A  1303               	bcf	3,6	;RP1=0, select bank0
  3562     083B  00EC               	movwf	log@x+3
  3563     083C  1683               	bsf	3,5	;RP0=1, select bank1
  3564     083D  1303               	bcf	3,6	;RP1=0, select bank1
  3565     083E  0822               	movf	(log10@x+2)^(0+128),w
  3566     083F  1283               	bcf	3,5	;RP0=0, select bank0
  3567     0840  1303               	bcf	3,6	;RP1=0, select bank0
  3568     0841  00EB               	movwf	log@x+2
  3569     0842  1683               	bsf	3,5	;RP0=1, select bank1
  3570     0843  1303               	bcf	3,6	;RP1=0, select bank1
  3571     0844  0821               	movf	(log10@x+1)^(0+128),w
  3572     0845  1283               	bcf	3,5	;RP0=0, select bank0
  3573     0846  1303               	bcf	3,6	;RP1=0, select bank0
  3574     0847  00EA               	movwf	log@x+1
  3575     0848  1683               	bsf	3,5	;RP0=1, select bank1
  3576     0849  1303               	bcf	3,6	;RP1=0, select bank1
  3577     084A  0820               	movf	log10@x^(0+128),w
  3578     084B  1283               	bcf	3,5	;RP0=0, select bank0
  3579     084C  1303               	bcf	3,6	;RP1=0, select bank0
  3580     084D  00E9               	movwf	log@x
  3581     084E  120A  158A  249C  120A  158A  	fcall	_log
  3582     0853  1283               	bcf	3,5	;RP0=0, select bank0
  3583     0854  1303               	bcf	3,6	;RP1=0, select bank0
  3584     0855  086C               	movf	?_log+3,w
  3585     0856  1683               	bsf	3,5	;RP0=1, select bank1
  3586     0857  1303               	bcf	3,6	;RP1=0, select bank1
  3587     0858  00A7               	movwf	(_log10$1038+3)^(0+128)
  3588     0859  1283               	bcf	3,5	;RP0=0, select bank0
  3589     085A  1303               	bcf	3,6	;RP1=0, select bank0
  3590     085B  086B               	movf	?_log+2,w
  3591     085C  1683               	bsf	3,5	;RP0=1, select bank1
  3592     085D  1303               	bcf	3,6	;RP1=0, select bank1
  3593     085E  00A6               	movwf	(_log10$1038+2)^(0+128)
  3594     085F  1283               	bcf	3,5	;RP0=0, select bank0
  3595     0860  1303               	bcf	3,6	;RP1=0, select bank0
  3596     0861  086A               	movf	?_log+1,w
  3597     0862  1683               	bsf	3,5	;RP0=1, select bank1
  3598     0863  1303               	bcf	3,6	;RP1=0, select bank1
  3599     0864  00A5               	movwf	(_log10$1038+1)^(0+128)
  3600     0865  1283               	bcf	3,5	;RP0=0, select bank0
  3601     0866  1303               	bcf	3,6	;RP1=0, select bank0
  3602     0867  0869               	movf	?_log,w
  3603     0868  1683               	bsf	3,5	;RP0=1, select bank1
  3604     0869  1303               	bcf	3,6	;RP1=0, select bank1
  3605     086A  00A4               	movwf	_log10$1038^(0+128)
  3606     086B                     l3212:
  3607     086B  303E               	movlw	62
  3608     086C  1283               	bcf	3,5	;RP0=0, select bank0
  3609     086D  1303               	bcf	3,6	;RP1=0, select bank0
  3610     086E  00AE               	movwf	___flmul@b+3
  3611     086F  30DE               	movlw	222
  3612     0870  00AD               	movwf	___flmul@b+2
  3613     0871  305B               	movlw	91
  3614     0872  00AC               	movwf	___flmul@b+1
  3615     0873  30D9               	movlw	217
  3616     0874  00AB               	movwf	___flmul@b
  3617     0875  1683               	bsf	3,5	;RP0=1, select bank1
  3618     0876  1303               	bcf	3,6	;RP1=0, select bank1
  3619     0877  0827               	movf	(_log10$1038+3)^(0+128),w
  3620     0878  1283               	bcf	3,5	;RP0=0, select bank0
  3621     0879  1303               	bcf	3,6	;RP1=0, select bank0
  3622     087A  00B2               	movwf	___flmul@a+3
  3623     087B  1683               	bsf	3,5	;RP0=1, select bank1
  3624     087C  1303               	bcf	3,6	;RP1=0, select bank1
  3625     087D  0826               	movf	(_log10$1038+2)^(0+128),w
  3626     087E  1283               	bcf	3,5	;RP0=0, select bank0
  3627     087F  1303               	bcf	3,6	;RP1=0, select bank0
  3628     0880  00B1               	movwf	___flmul@a+2
  3629     0881  1683               	bsf	3,5	;RP0=1, select bank1
  3630     0882  1303               	bcf	3,6	;RP1=0, select bank1
  3631     0883  0825               	movf	(_log10$1038+1)^(0+128),w
  3632     0884  1283               	bcf	3,5	;RP0=0, select bank0
  3633     0885  1303               	bcf	3,6	;RP1=0, select bank0
  3634     0886  00B0               	movwf	___flmul@a+1
  3635     0887  1683               	bsf	3,5	;RP0=1, select bank1
  3636     0888  1303               	bcf	3,6	;RP1=0, select bank1
  3637     0889  0824               	movf	_log10$1038^(0+128),w
  3638     088A  1283               	bcf	3,5	;RP0=0, select bank0
  3639     088B  1303               	bcf	3,6	;RP1=0, select bank0
  3640     088C  00AF               	movwf	___flmul@a
  3641     088D  120A  118A  203F  120A  158A  	fcall	___flmul
  3642     0892  1283               	bcf	3,5	;RP0=0, select bank0
  3643     0893  1303               	bcf	3,6	;RP1=0, select bank0
  3644     0894  082E               	movf	?___flmul+3,w
  3645     0895  1683               	bsf	3,5	;RP0=1, select bank1
  3646     0896  1303               	bcf	3,6	;RP1=0, select bank1
  3647     0897  00A3               	movwf	(?_log10+3)^(0+128)
  3648     0898  1283               	bcf	3,5	;RP0=0, select bank0
  3649     0899  1303               	bcf	3,6	;RP1=0, select bank0
  3650     089A  082D               	movf	?___flmul+2,w
  3651     089B  1683               	bsf	3,5	;RP0=1, select bank1
  3652     089C  1303               	bcf	3,6	;RP1=0, select bank1
  3653     089D  00A2               	movwf	(?_log10+2)^(0+128)
  3654     089E  1283               	bcf	3,5	;RP0=0, select bank0
  3655     089F  1303               	bcf	3,6	;RP1=0, select bank0
  3656     08A0  082C               	movf	?___flmul+1,w
  3657     08A1  1683               	bsf	3,5	;RP0=1, select bank1
  3658     08A2  1303               	bcf	3,6	;RP1=0, select bank1
  3659     08A3  00A1               	movwf	(?_log10+1)^(0+128)
  3660     08A4  1283               	bcf	3,5	;RP0=0, select bank0
  3661     08A5  1303               	bcf	3,6	;RP1=0, select bank0
  3662     08A6  082B               	movf	?___flmul,w
  3663     08A7  1683               	bsf	3,5	;RP0=1, select bank1
  3664     08A8  1303               	bcf	3,6	;RP1=0, select bank1
  3665     08A9  00A0               	movwf	?_log10^(0+128)
  3666     08AA                     l716:
  3667     08AA  0008               	return
  3668     08AB                     __end_of_log10:
  3669                           
  3670                           	psect	text15
  3671     0C9C                     __ptext15:	
  3672 ;; *************** function _log *****************
  3673 ;; Defined at:
  3674 ;;		line 5 in file "C:\Program Files\Microchip\xc8\v2.41\pic\sources\c90\common\log.c"
  3675 ;; Parameters:    Size  Location     Type
  3676 ;;  x               4   73[BANK0 ] int 
  3677 ;; Auto vars:     Size  Location     Type
  3678 ;;  exponent        2   77[BANK0 ] int 
  3679 ;; Return value:  Size  Location     Type
  3680 ;;                  4   73[BANK0 ] int 
  3681 ;; Registers used:
  3682 ;;		wreg, fsr0l, fsr0h, status,2, status,0, btemp+1, pclath, cstack
  3683 ;; Tracked objects:
  3684 ;;		On entry : 0/0
  3685 ;;		On exit  : 0/0
  3686 ;;		Unchanged: 0/0
  3687 ;; Data sizes:     COMMON   BANK0   BANK1   BANK3   BANK2
  3688 ;;      Params:         0       4       0       0       0
  3689 ;;      Locals:         0       2       0       0       0
  3690 ;;      Temps:          0       0       0       0       0
  3691 ;;      Totals:         0       6       0       0       0
  3692 ;;Total ram usage:        6 bytes
  3693 ;; Hardware stack levels used: 1
  3694 ;; Hardware stack levels required when called: 4
  3695 ;; This function calls:
  3696 ;;		___fladd
  3697 ;;		___fleq
  3698 ;;		___flge
  3699 ;;		___flmul
  3700 ;;		___xxtofl
  3701 ;;		_eval_poly
  3702 ;;		_frexp
  3703 ;; This function is called by:
  3704 ;;		_log10
  3705 ;; This function uses a non-reentrant model
  3706 ;;
  3707                           
  3708     0C9C                     _log:	
  3709                           ;psect for function _log
  3710                           
  3711     0C9C                     l3134:	
  3712                           ;incstack = 0
  3713                           ; Regs used in _log: [wreg-fsr0h+status,2+status,0+btemp+1+pclath+cstack]
  3714                           
  3715     0C9C  1283               	bcf	3,5	;RP0=0, select bank0
  3716     0C9D  1303               	bcf	3,6	;RP1=0, select bank0
  3717     0C9E  086C               	movf	log@x+3,w
  3718     0C9F  00F5               	movwf	___flge@ff1+3
  3719     0CA0  086B               	movf	log@x+2,w
  3720     0CA1  00F4               	movwf	___flge@ff1+2
  3721     0CA2  086A               	movf	log@x+1,w
  3722     0CA3  00F3               	movwf	___flge@ff1+1
  3723     0CA4  0869               	movf	log@x,w
  3724     0CA5  00F2               	movwf	___flge@ff1
  3725     0CA6  3000               	movlw	0
  3726     0CA7  00F9               	movwf	___flge@ff2+3
  3727     0CA8  3000               	movlw	0
  3728     0CA9  00F8               	movwf	___flge@ff2+2
  3729     0CAA  3000               	movlw	0
  3730     0CAB  00F7               	movwf	___flge@ff2+1
  3731     0CAC  3000               	movlw	0
  3732     0CAD  00F6               	movwf	___flge@ff2
  3733     0CAE  120A  158A  21C1  120A  158A  	fcall	___flge
  3734     0CB3  1803               	btfsc	3,0
  3735     0CB4  2CB6               	goto	u4601
  3736     0CB5  2CB7               	goto	u4600
  3737     0CB6                     u4601:
  3738     0CB6  2CC8               	goto	l3140
  3739     0CB7                     u4600:
  3740     0CB7                     l3136:
  3741     0CB7  3021               	movlw	33
  3742     0CB8  1683               	bsf	3,5	;RP0=1, select bank3
  3743     0CB9  1703               	bsf	3,6	;RP1=1, select bank3
  3744     0CBA  00AE               	movwf	_errno^(0+384)
  3745     0CBB  3000               	movlw	0
  3746     0CBC  00AF               	movwf	(_errno^(0+384)+1)
  3747     0CBD  3000               	movlw	0
  3748     0CBE  1283               	bcf	3,5	;RP0=0, select bank0
  3749     0CBF  1303               	bcf	3,6	;RP1=0, select bank0
  3750     0CC0  00EC               	movwf	?_log+3
  3751     0CC1  3000               	movlw	0
  3752     0CC2  00EB               	movwf	?_log+2
  3753     0CC3  3000               	movlw	0
  3754     0CC4  00EA               	movwf	?_log+1
  3755     0CC5  3000               	movlw	0
  3756     0CC6  00E9               	movwf	?_log
  3757     0CC7  2DA7               	goto	l712
  3758     0CC8                     l3140:
  3759     0CC8  1283               	bcf	3,5	;RP0=0, select bank0
  3760     0CC9  1303               	bcf	3,6	;RP1=0, select bank0
  3761     0CCA  086C               	movf	log@x+3,w
  3762     0CCB  00F5               	movwf	___fleq@ff1+3
  3763     0CCC  086B               	movf	log@x+2,w
  3764     0CCD  00F4               	movwf	___fleq@ff1+2
  3765     0CCE  086A               	movf	log@x+1,w
  3766     0CCF  00F3               	movwf	___fleq@ff1+1
  3767     0CD0  0869               	movf	log@x,w
  3768     0CD1  00F2               	movwf	___fleq@ff1
  3769     0CD2  3000               	movlw	0
  3770     0CD3  00F9               	movwf	___fleq@ff2+3
  3771     0CD4  3000               	movlw	0
  3772     0CD5  00F8               	movwf	___fleq@ff2+2
  3773     0CD6  3000               	movlw	0
  3774     0CD7  00F7               	movwf	___fleq@ff2+1
  3775     0CD8  3000               	movlw	0
  3776     0CD9  00F6               	movwf	___fleq@ff2
  3777     0CDA  160A  118A  25DE  120A  158A  	fcall	___fleq
  3778     0CDF  1C03               	btfss	3,0
  3779     0CE0  2CE2               	goto	u4611
  3780     0CE1  2CE3               	goto	u4610
  3781     0CE2                     u4611:
  3782     0CE2  2CF4               	goto	l3146
  3783     0CE3                     u4610:
  3784     0CE3                     l3142:
  3785     0CE3  3022               	movlw	34
  3786     0CE4  1683               	bsf	3,5	;RP0=1, select bank3
  3787     0CE5  1703               	bsf	3,6	;RP1=1, select bank3
  3788     0CE6  00AE               	movwf	_errno^(0+384)
  3789     0CE7  3000               	movlw	0
  3790     0CE8  00AF               	movwf	(_errno^(0+384)+1)
  3791     0CE9  3000               	movlw	0
  3792     0CEA  1283               	bcf	3,5	;RP0=0, select bank0
  3793     0CEB  1303               	bcf	3,6	;RP1=0, select bank0
  3794     0CEC  00EC               	movwf	?_log+3
  3795     0CED  3000               	movlw	0
  3796     0CEE  00EB               	movwf	?_log+2
  3797     0CEF  3000               	movlw	0
  3798     0CF0  00EA               	movwf	?_log+1
  3799     0CF1  3000               	movlw	0
  3800     0CF2  00E9               	movwf	?_log
  3801     0CF3  2DA7               	goto	l712
  3802     0CF4                     l3146:
  3803     0CF4  30BF               	movlw	191
  3804     0CF5  1283               	bcf	3,5	;RP0=0, select bank0
  3805     0CF6  1303               	bcf	3,6	;RP1=0, select bank0
  3806     0CF7  00C8               	movwf	___fladd@b+3
  3807     0CF8  3080               	movlw	128
  3808     0CF9  00C7               	movwf	___fladd@b+2
  3809     0CFA  3000               	movlw	0
  3810     0CFB  00C6               	movwf	___fladd@b+1
  3811     0CFC  3000               	movlw	0
  3812     0CFD  00C5               	movwf	___fladd@b
  3813     0CFE  3040               	movlw	64
  3814     0CFF  00AE               	movwf	___flmul@b+3
  3815     0D00  3000               	movlw	0
  3816     0D01  00AD               	movwf	___flmul@b+2
  3817     0D02  3000               	movlw	0
  3818     0D03  00AC               	movwf	___flmul@b+1
  3819     0D04  3000               	movlw	0
  3820     0D05  00AB               	movwf	___flmul@b
  3821     0D06  306D               	movlw	(low (log@exponent| 0))& (0+255)
  3822     0D07  00A8               	movwf	frexp@eptr
  3823     0D08  086C               	movf	log@x+3,w
  3824     0D09  00A7               	movwf	frexp@value+3
  3825     0D0A  086B               	movf	log@x+2,w
  3826     0D0B  00A6               	movwf	frexp@value+2
  3827     0D0C  086A               	movf	log@x+1,w
  3828     0D0D  00A5               	movwf	frexp@value+1
  3829     0D0E  0869               	movf	log@x,w
  3830     0D0F  00A4               	movwf	frexp@value
  3831     0D10  160A  118A  26E0  120A  158A  	fcall	_frexp
  3832     0D15  1283               	bcf	3,5	;RP0=0, select bank0
  3833     0D16  1303               	bcf	3,6	;RP1=0, select bank0
  3834     0D17  0827               	movf	?_frexp+3,w
  3835     0D18  00B2               	movwf	___flmul@a+3
  3836     0D19  0826               	movf	?_frexp+2,w
  3837     0D1A  00B1               	movwf	___flmul@a+2
  3838     0D1B  0825               	movf	?_frexp+1,w
  3839     0D1C  00B0               	movwf	___flmul@a+1
  3840     0D1D  0824               	movf	?_frexp,w
  3841     0D1E  00AF               	movwf	___flmul@a
  3842     0D1F  120A  118A  203F  120A  158A  	fcall	___flmul
  3843     0D24  1283               	bcf	3,5	;RP0=0, select bank0
  3844     0D25  1303               	bcf	3,6	;RP1=0, select bank0
  3845     0D26  082E               	movf	?___flmul+3,w
  3846     0D27  00CC               	movwf	___fladd@a+3
  3847     0D28  082D               	movf	?___flmul+2,w
  3848     0D29  00CB               	movwf	___fladd@a+2
  3849     0D2A  082C               	movf	?___flmul+1,w
  3850     0D2B  00CA               	movwf	___fladd@a+1
  3851     0D2C  082B               	movf	?___flmul,w
  3852     0D2D  00C9               	movwf	___fladd@a
  3853     0D2E  120A  158A  25A8  120A  158A  	fcall	___fladd
  3854     0D33  1283               	bcf	3,5	;RP0=0, select bank0
  3855     0D34  1303               	bcf	3,6	;RP1=0, select bank0
  3856     0D35  0848               	movf	?___fladd+3,w
  3857     0D36  00EC               	movwf	log@x+3
  3858     0D37  0847               	movf	?___fladd+2,w
  3859     0D38  00EB               	movwf	log@x+2
  3860     0D39  0846               	movf	?___fladd+1,w
  3861     0D3A  00EA               	movwf	log@x+1
  3862     0D3B  0845               	movf	?___fladd,w
  3863     0D3C  00E9               	movwf	log@x
  3864     0D3D                     l3148:
  3865     0D3D  30FF               	movlw	255
  3866     0D3E  07ED               	addwf	log@exponent,f
  3867     0D3F  1803               	skipnc
  3868     0D40  0AEE               	incf	log@exponent+1,f
  3869     0D41  30FF               	movlw	255
  3870     0D42  07EE               	addwf	log@exponent+1,f
  3871     0D43                     l3150:
  3872     0D43  086C               	movf	log@x+3,w
  3873     0D44  00DC               	movwf	eval_poly@x+3
  3874     0D45  086B               	movf	log@x+2,w
  3875     0D46  00DB               	movwf	eval_poly@x+2
  3876     0D47  086A               	movf	log@x+1,w
  3877     0D48  00DA               	movwf	eval_poly@x+1
  3878     0D49  0869               	movf	log@x,w
  3879     0D4A  00D9               	movwf	eval_poly@x
  3880     0D4B  3001               	movlw	(low ((log@coeff-__stringbase)| (0+32768)))& (0+255)
  3881     0D4C  00DD               	movwf	eval_poly@d
  3882     0D4D  3008               	movlw	8
  3883     0D4E  00DE               	movwf	eval_poly@n
  3884     0D4F  3000               	movlw	0
  3885     0D50  00DF               	movwf	eval_poly@n+1
  3886     0D51  120A  158A  2123  120A  158A  	fcall	_eval_poly
  3887     0D56  1283               	bcf	3,5	;RP0=0, select bank0
  3888     0D57  1303               	bcf	3,6	;RP1=0, select bank0
  3889     0D58  085C               	movf	?_eval_poly+3,w
  3890     0D59  00EC               	movwf	log@x+3
  3891     0D5A  085B               	movf	?_eval_poly+2,w
  3892     0D5B  00EB               	movwf	log@x+2
  3893     0D5C  085A               	movf	?_eval_poly+1,w
  3894     0D5D  00EA               	movwf	log@x+1
  3895     0D5E  0859               	movf	?_eval_poly,w
  3896     0D5F  00E9               	movwf	log@x
  3897     0D60                     l3152:
  3898     0D60  086C               	movf	log@x+3,w
  3899     0D61  00C8               	movwf	___fladd@b+3
  3900     0D62  086B               	movf	log@x+2,w
  3901     0D63  00C7               	movwf	___fladd@b+2
  3902     0D64  086A               	movf	log@x+1,w
  3903     0D65  00C6               	movwf	___fladd@b+1
  3904     0D66  0869               	movf	log@x,w
  3905     0D67  00C5               	movwf	___fladd@b
  3906     0D68  303F               	movlw	63
  3907     0D69  00AE               	movwf	___flmul@b+3
  3908     0D6A  3031               	movlw	49
  3909     0D6B  00AD               	movwf	___flmul@b+2
  3910     0D6C  3072               	movlw	114
  3911     0D6D  00AC               	movwf	___flmul@b+1
  3912     0D6E  3018               	movlw	24
  3913     0D6F  00AB               	movwf	___flmul@b
  3914     0D70  086D               	movf	log@exponent,w
  3915     0D71  00F2               	movwf	___xxtofl@val
  3916     0D72  086E               	movf	log@exponent+1,w
  3917     0D73  00F3               	movwf	___xxtofl@val+1
  3918     0D74  3000               	movlw	0
  3919     0D75  1BF3               	btfsc	___xxtofl@val+1,7
  3920     0D76  30FF               	movlw	255
  3921     0D77  00F4               	movwf	___xxtofl@val+2
  3922     0D78  00F5               	movwf	___xxtofl@val+3
  3923     0D79  3001               	movlw	1
  3924     0D7A  120A  158A  231E  120A  158A  	fcall	___xxtofl
  3925     0D7F  0875               	movf	?___xxtofl+3,w
  3926     0D80  1283               	bcf	3,5	;RP0=0, select bank0
  3927     0D81  1303               	bcf	3,6	;RP1=0, select bank0
  3928     0D82  00B2               	movwf	___flmul@a+3
  3929     0D83  0874               	movf	?___xxtofl+2,w
  3930     0D84  00B1               	movwf	___flmul@a+2
  3931     0D85  0873               	movf	?___xxtofl+1,w
  3932     0D86  00B0               	movwf	___flmul@a+1
  3933     0D87  0872               	movf	?___xxtofl,w
  3934     0D88  00AF               	movwf	___flmul@a
  3935     0D89  120A  118A  203F  120A  158A  	fcall	___flmul
  3936     0D8E  1283               	bcf	3,5	;RP0=0, select bank0
  3937     0D8F  1303               	bcf	3,6	;RP1=0, select bank0
  3938     0D90  082E               	movf	?___flmul+3,w
  3939     0D91  00CC               	movwf	___fladd@a+3
  3940     0D92  082D               	movf	?___flmul+2,w
  3941     0D93  00CB               	movwf	___fladd@a+2
  3942     0D94  082C               	movf	?___flmul+1,w
  3943     0D95  00CA               	movwf	___fladd@a+1
  3944     0D96  082B               	movf	?___flmul,w
  3945     0D97  00C9               	movwf	___fladd@a
  3946     0D98  120A  158A  25A8  120A  158A  	fcall	___fladd
  3947     0D9D  1283               	bcf	3,5	;RP0=0, select bank0
  3948     0D9E  1303               	bcf	3,6	;RP1=0, select bank0
  3949     0D9F  0848               	movf	?___fladd+3,w
  3950     0DA0  00EC               	movwf	?_log+3
  3951     0DA1  0847               	movf	?___fladd+2,w
  3952     0DA2  00EB               	movwf	?_log+2
  3953     0DA3  0846               	movf	?___fladd+1,w
  3954     0DA4  00EA               	movwf	?_log+1
  3955     0DA5  0845               	movf	?___fladd,w
  3956     0DA6  00E9               	movwf	?_log
  3957     0DA7                     l712:
  3958     0DA7  0008               	return
  3959     0DA8                     __end_of_log:
  3960                           
  3961                           	psect	text16
  3962     16E0                     __ptext16:	
  3963 ;; *************** function _frexp *****************
  3964 ;; Defined at:
  3965 ;;		line 254 in file "C:\Program Files\Microchip\xc8\v2.41\pic\sources\c90\common\frexp.c"
  3966 ;; Parameters:    Size  Location     Type
  3967 ;;  value           4    4[BANK0 ] int 
  3968 ;;  eptr            1    8[BANK0 ] PTR int 
  3969 ;;		 -> log@exponent(2), 
  3970 ;; Auto vars:     Size  Location     Type
  3971 ;;		None
  3972 ;; Return value:  Size  Location     Type
  3973 ;;                  4    4[BANK0 ] PTR int 
  3974 ;; Registers used:
  3975 ;;		wreg, fsr0l, fsr0h, status,2, status,0, btemp+1, pclath, cstack
  3976 ;; Tracked objects:
  3977 ;;		On entry : 0/0
  3978 ;;		On exit  : 0/0
  3979 ;;		Unchanged: 0/0
  3980 ;; Data sizes:     COMMON   BANK0   BANK1   BANK3   BANK2
  3981 ;;      Params:         0       5       0       0       0
  3982 ;;      Locals:         0       0       0       0       0
  3983 ;;      Temps:          0       2       0       0       0
  3984 ;;      Totals:         0       7       0       0       0
  3985 ;;Total ram usage:        7 bytes
  3986 ;; Hardware stack levels used: 1
  3987 ;; Hardware stack levels required when called: 2
  3988 ;; This function calls:
  3989 ;;		___fleq
  3990 ;; This function is called by:
  3991 ;;		_log
  3992 ;; This function uses a non-reentrant model
  3993 ;;
  3994                           
  3995     16E0                     _frexp:	
  3996                           ;psect for function _frexp
  3997                           
  3998     16E0                     l3074:	
  3999                           ;incstack = 0
  4000                           ; Regs used in _frexp: [wreg-fsr0h+status,2+status,0+btemp+1+pclath+cstack]
  4001                           
  4002     16E0  1283               	bcf	3,5	;RP0=0, select bank0
  4003     16E1  1303               	bcf	3,6	;RP1=0, select bank0
  4004     16E2  0827               	movf	frexp@value+3,w
  4005     16E3  00F5               	movwf	___fleq@ff1+3
  4006     16E4  0826               	movf	frexp@value+2,w
  4007     16E5  00F4               	movwf	___fleq@ff1+2
  4008     16E6  0825               	movf	frexp@value+1,w
  4009     16E7  00F3               	movwf	___fleq@ff1+1
  4010     16E8  0824               	movf	frexp@value,w
  4011     16E9  00F2               	movwf	___fleq@ff1
  4012     16EA  3000               	movlw	0
  4013     16EB  00F9               	movwf	___fleq@ff2+3
  4014     16EC  3000               	movlw	0
  4015     16ED  00F8               	movwf	___fleq@ff2+2
  4016     16EE  3000               	movlw	0
  4017     16EF  00F7               	movwf	___fleq@ff2+1
  4018     16F0  3000               	movlw	0
  4019     16F1  00F6               	movwf	___fleq@ff2
  4020     16F2  160A  118A  25DE  160A  118A  	fcall	___fleq
  4021     16F7  1C03               	btfss	3,0
  4022     16F8  2EFA               	goto	u4491
  4023     16F9  2EFB               	goto	u4490
  4024     16FA                     u4491:
  4025     16FA  2F0C               	goto	l3082
  4026     16FB                     u4490:
  4027     16FB                     l3076:
  4028     16FB  1283               	bcf	3,5	;RP0=0, select bank0
  4029     16FC  1303               	bcf	3,6	;RP1=0, select bank0
  4030     16FD  0828               	movf	frexp@eptr,w
  4031     16FE  0084               	movwf	4
  4032     16FF  1383               	bcf	3,7	;select IRP bank0
  4033     1700  0180               	clrf	0
  4034     1701  0A84               	incf	4,f
  4035     1702  0180               	clrf	0
  4036     1703                     l3078:
  4037     1703  3000               	movlw	0
  4038     1704  00A7               	movwf	?_frexp+3
  4039     1705  3000               	movlw	0
  4040     1706  00A6               	movwf	?_frexp+2
  4041     1707  3000               	movlw	0
  4042     1708  00A5               	movwf	?_frexp+1
  4043     1709  3000               	movlw	0
  4044     170A  00A4               	movwf	?_frexp
  4045     170B  2F3B               	goto	l730
  4046     170C                     l3082:
  4047     170C  1283               	bcf	3,5	;RP0=0, select bank0
  4048     170D  1303               	bcf	3,6	;RP1=0, select bank0
  4049     170E  0827               	movf	frexp@value+3,w
  4050     170F  397F               	andlw	127
  4051     1710  00A9               	movwf	??_frexp
  4052     1711  01AA               	clrf	??_frexp+1
  4053     1712  1003               	clrc
  4054     1713  0DA9               	rlf	??_frexp,f
  4055     1714  0DAA               	rlf	??_frexp+1,f
  4056     1715  0828               	movf	frexp@eptr,w
  4057     1716  0084               	movwf	4
  4058     1717  0829               	movf	??_frexp,w
  4059     1718  1383               	bcf	3,7	;select IRP bank0
  4060     1719  0080               	movwf	0
  4061     171A  0A84               	incf	4,f
  4062     171B  082A               	movf	??_frexp+1,w
  4063     171C  0080               	movwf	0
  4064     171D  0D26               	rlf	frexp@value+2,w
  4065     171E  0D26               	rlf	frexp@value+2,w
  4066     171F  3901               	andlw	1
  4067     1720  00A9               	movwf	??_frexp
  4068     1721  01AA               	clrf	??_frexp+1
  4069     1722  0828               	movf	frexp@eptr,w
  4070     1723  0084               	movwf	4
  4071     1724  0829               	movf	??_frexp,w
  4072     1725  0480               	iorwf	0,f
  4073     1726  0A84               	incf	4,f
  4074     1727  082A               	movf	??_frexp+1,w
  4075     1728  0480               	iorwf	0,f
  4076     1729                     l3084:
  4077     1729  0828               	movf	frexp@eptr,w
  4078     172A  0084               	movwf	4
  4079     172B  3082               	movlw	130
  4080     172C  0780               	addwf	0,f
  4081     172D  0F84               	incfsz	4,f
  4082     172E  0800               	movf	0,w
  4083     172F  1803               	skipnc
  4084     1730  0A00               	incf	0,w
  4085     1731  00FF               	movwf	btemp+1
  4086     1732  30FF               	movlw	255
  4087     1733  077F               	addwf	btemp+1,w
  4088     1734  0080               	movwf	0
  4089     1735  0384               	decf	4,f
  4090     1736                     l3086:
  4091     1736  0827               	movf	frexp@value+3,w
  4092     1737  3980               	andlw	-128
  4093     1738  383F               	iorlw	63
  4094     1739  00A7               	movwf	frexp@value+3
  4095     173A                     l3088:
  4096     173A  13A6               	bcf	frexp@value+2,7
  4097     173B                     l3090:
  4098     173B                     l730:
  4099     173B  0008               	return
  4100     173C                     __end_of_frexp:
  4101                           
  4102                           	psect	text17
  4103     15DE                     __ptext17:	
  4104 ;; *************** function ___fleq *****************
  4105 ;; Defined at:
  4106 ;;		line 4 in file "C:\Program Files\Microchip\xc8\v2.41\pic\sources\c90\common\fleq.c"
  4107 ;; Parameters:    Size  Location     Type
  4108 ;;  ff1             4    2[COMMON] PTR int 
  4109 ;;  ff2             4    6[COMMON] PTR int 
  4110 ;; Auto vars:     Size  Location     Type
  4111 ;;		None
  4112 ;; Return value:  Size  Location     Type
  4113 ;;		None               void
  4114 ;; Registers used:
  4115 ;;		wreg, status,2, status,0
  4116 ;; Tracked objects:
  4117 ;;		On entry : 0/0
  4118 ;;		On exit  : 0/0
  4119 ;;		Unchanged: 0/0
  4120 ;; Data sizes:     COMMON   BANK0   BANK1   BANK3   BANK2
  4121 ;;      Params:         8       0       0       0       0
  4122 ;;      Locals:         0       0       0       0       0
  4123 ;;      Temps:          0       4       0       0       0
  4124 ;;      Totals:         8       4       0       0       0
  4125 ;;Total ram usage:       12 bytes
  4126 ;; Hardware stack levels used: 1
  4127 ;; Hardware stack levels required when called: 1
  4128 ;; This function calls:
  4129 ;;		Nothing
  4130 ;; This function is called by:
  4131 ;;		_log
  4132 ;;		_frexp
  4133 ;; This function uses a non-reentrant model
  4134 ;;
  4135                           
  4136     15DE                     ___fleq:	
  4137                           ;psect for function ___fleq
  4138                           
  4139     15DE                     l1880:	
  4140                           ;incstack = 0
  4141                           ; Regs used in ___fleq: [wreg+status,2+status,0]
  4142                           
  4143     15DE  3000               	movlw	0
  4144     15DF  0572               	andwf	___fleq@ff1,w
  4145     15E0  1283               	bcf	3,5	;RP0=0, select bank0
  4146     15E1  1303               	bcf	3,6	;RP1=0, select bank0
  4147     15E2  00A0               	movwf	??___fleq
  4148     15E3  3000               	movlw	0
  4149     15E4  0573               	andwf	___fleq@ff1+1,w
  4150     15E5  00A1               	movwf	??___fleq+1
  4151     15E6  3080               	movlw	128
  4152     15E7  0574               	andwf	___fleq@ff1+2,w
  4153     15E8  00A2               	movwf	??___fleq+2
  4154     15E9  307F               	movlw	127
  4155     15EA  0575               	andwf	___fleq@ff1+3,w
  4156     15EB  00A3               	movwf	??___fleq+3
  4157     15EC  0823               	movf	??___fleq+3,w
  4158     15ED  0422               	iorwf	??___fleq+2,w
  4159     15EE  0421               	iorwf	??___fleq+1,w
  4160     15EF  0420               	iorwf	??___fleq,w
  4161     15F0  1D03               	skipz
  4162     15F1  2DF3               	goto	u2101
  4163     15F2  2DF4               	goto	u2100
  4164     15F3                     u2101:
  4165     15F3  2DFC               	goto	l421
  4166     15F4                     u2100:
  4167     15F4                     l1882:
  4168     15F4  3000               	movlw	0
  4169     15F5  00F5               	movwf	___fleq@ff1+3
  4170     15F6  3000               	movlw	0
  4171     15F7  00F4               	movwf	___fleq@ff1+2
  4172     15F8  3000               	movlw	0
  4173     15F9  00F3               	movwf	___fleq@ff1+1
  4174     15FA  3000               	movlw	0
  4175     15FB  00F2               	movwf	___fleq@ff1
  4176     15FC                     l421:
  4177     15FC  3000               	movlw	0
  4178     15FD  0576               	andwf	___fleq@ff2,w
  4179     15FE  00A0               	movwf	??___fleq
  4180     15FF  3000               	movlw	0
  4181     1600  0577               	andwf	___fleq@ff2+1,w
  4182     1601  00A1               	movwf	??___fleq+1
  4183     1602  3080               	movlw	128
  4184     1603  0578               	andwf	___fleq@ff2+2,w
  4185     1604  00A2               	movwf	??___fleq+2
  4186     1605  307F               	movlw	127
  4187     1606  0579               	andwf	___fleq@ff2+3,w
  4188     1607  00A3               	movwf	??___fleq+3
  4189     1608  0823               	movf	??___fleq+3,w
  4190     1609  0422               	iorwf	??___fleq+2,w
  4191     160A  0421               	iorwf	??___fleq+1,w
  4192     160B  0420               	iorwf	??___fleq,w
  4193     160C  1D03               	skipz
  4194     160D  2E0F               	goto	u2111
  4195     160E  2E10               	goto	u2110
  4196     160F                     u2111:
  4197     160F  2E18               	goto	l422
  4198     1610                     u2110:
  4199     1610                     l1884:
  4200     1610  3000               	movlw	0
  4201     1611  00F9               	movwf	___fleq@ff2+3
  4202     1612  3000               	movlw	0
  4203     1613  00F8               	movwf	___fleq@ff2+2
  4204     1614  3000               	movlw	0
  4205     1615  00F7               	movwf	___fleq@ff2+1
  4206     1616  3000               	movlw	0
  4207     1617  00F6               	movwf	___fleq@ff2
  4208     1618                     l422:
  4209     1618  0879               	movf	___fleq@ff2+3,w
  4210     1619  0675               	xorwf	___fleq@ff1+3,w
  4211     161A  1D03               	skipz
  4212     161B  2E26               	goto	u2125
  4213     161C  0878               	movf	___fleq@ff2+2,w
  4214     161D  0674               	xorwf	___fleq@ff1+2,w
  4215     161E  1D03               	skipz
  4216     161F  2E26               	goto	u2125
  4217     1620  0877               	movf	___fleq@ff2+1,w
  4218     1621  0673               	xorwf	___fleq@ff1+1,w
  4219     1622  1D03               	skipz
  4220     1623  2E26               	goto	u2125
  4221     1624  0876               	movf	___fleq@ff2,w
  4222     1625  0672               	xorwf	___fleq@ff1,w
  4223     1626                     u2125:
  4224     1626  1903               	skipnz
  4225     1627  2E29               	goto	u2121
  4226     1628  2E2A               	goto	u2120
  4227     1629                     u2121:
  4228     1629  2E2C               	goto	l1888
  4229     162A                     u2120:
  4230     162A                     l1886:
  4231     162A  1003               	clrc
  4232     162B  2E2D               	goto	l423
  4233     162C                     l1888:
  4234     162C  1403               	setc
  4235     162D                     l423:
  4236     162D  0008               	return
  4237     162E                     __end_of___fleq:
  4238                           
  4239                           	psect	text18
  4240     0923                     __ptext18:	
  4241 ;; *************** function _eval_poly *****************
  4242 ;; Defined at:
  4243 ;;		line 4 in file "C:\Program Files\Microchip\xc8\v2.41\pic\sources\c90\common\evalpoly.c"
  4244 ;; Parameters:    Size  Location     Type
  4245 ;;  x               4   57[BANK0 ] PTR int 
  4246 ;;  d               1   61[BANK0 ] PTR const 
  4247 ;;		 -> log@coeff(36), 
  4248 ;;  n               2   62[BANK0 ] int 
  4249 ;; Auto vars:     Size  Location     Type
  4250 ;;  res             4   69[BANK0 ] int 
  4251 ;; Return value:  Size  Location     Type
  4252 ;;                  4   57[BANK0 ] int 
  4253 ;; Registers used:
  4254 ;;		wreg, fsr0l, fsr0h, status,2, status,0, btemp+1, pclath, cstack
  4255 ;; Tracked objects:
  4256 ;;		On entry : 0/0
  4257 ;;		On exit  : 0/0
  4258 ;;		Unchanged: 0/0
  4259 ;; Data sizes:     COMMON   BANK0   BANK1   BANK3   BANK2
  4260 ;;      Params:         0       7       0       0       0
  4261 ;;      Locals:         0       4       0       0       0
  4262 ;;      Temps:          0       5       0       0       0
  4263 ;;      Totals:         0      16       0       0       0
  4264 ;;Total ram usage:       16 bytes
  4265 ;; Hardware stack levels used: 1
  4266 ;; Hardware stack levels required when called: 3
  4267 ;; This function calls:
  4268 ;;		___fladd
  4269 ;;		___flmul
  4270 ;; This function is called by:
  4271 ;;		_log
  4272 ;; This function uses a non-reentrant model
  4273 ;;
  4274                           
  4275     0923                     _eval_poly:	
  4276                           ;psect for function _eval_poly
  4277                           
  4278     0923                     l3094:	
  4279                           ;incstack = 0
  4280                           ; Regs used in _eval_poly: [wreg-fsr0h+status,2+status,0+btemp+1+pclath+cstack]
  4281                           
  4282     0923  1283               	bcf	3,5	;RP0=0, select bank0
  4283     0924  1303               	bcf	3,6	;RP1=0, select bank0
  4284     0925  085E               	movf	eval_poly@n,w
  4285     0926  00E0               	movwf	??_eval_poly
  4286     0927  3001               	movlw	1
  4287     0928                     u4505:
  4288     0928  1003               	clrc
  4289     0929  0DE0               	rlf	??_eval_poly,f
  4290     092A  3EFF               	addlw	-1
  4291     092B  1D03               	skipz
  4292     092C  2928               	goto	u4505
  4293     092D  1003               	clrc
  4294     092E  0D60               	rlf	??_eval_poly,w
  4295     092F  075D               	addwf	eval_poly@d,w
  4296     0930  0084               	movwf	4
  4297     0931  160A  118A  200A  120A  158A  	fcall	stringdir
  4298     0936  00E1               	movwf	??_eval_poly+1
  4299     0937  160A  118A  200A  120A  158A  	fcall	stringdir
  4300     093C  00E2               	movwf	??_eval_poly+2
  4301     093D  160A  118A  200A  120A  158A  	fcall	stringdir
  4302     0942  00E3               	movwf	??_eval_poly+3
  4303     0943  160A  118A  200A  120A  158A  	fcall	stringdir
  4304     0948  00E4               	movwf	??_eval_poly+4
  4305     0949  0864               	movf	??_eval_poly+4,w
  4306     094A  00E8               	movwf	eval_poly@res+3
  4307     094B  0863               	movf	??_eval_poly+3,w
  4308     094C  00E7               	movwf	eval_poly@res+2
  4309     094D  0862               	movf	??_eval_poly+2,w
  4310     094E  00E6               	movwf	eval_poly@res+1
  4311     094F  0861               	movf	??_eval_poly+1,w
  4312     0950  00E5               	movwf	eval_poly@res
  4313     0951  29B2               	goto	l3098
  4314     0952                     l3096:
  4315     0952  30FF               	movlw	255
  4316     0953  07DE               	addwf	eval_poly@n,f
  4317     0954  1803               	skipnc
  4318     0955  0ADF               	incf	eval_poly@n+1,f
  4319     0956  30FF               	movlw	255
  4320     0957  07DF               	addwf	eval_poly@n+1,f
  4321     0958  085E               	movf	eval_poly@n,w
  4322     0959  00E0               	movwf	??_eval_poly
  4323     095A  3001               	movlw	1
  4324     095B                     u4515:
  4325     095B  1003               	clrc
  4326     095C  0DE0               	rlf	??_eval_poly,f
  4327     095D  3EFF               	addlw	-1
  4328     095E  1D03               	skipz
  4329     095F  295B               	goto	u4515
  4330     0960  1003               	clrc
  4331     0961  0D60               	rlf	??_eval_poly,w
  4332     0962  075D               	addwf	eval_poly@d,w
  4333     0963  0084               	movwf	4
  4334     0964  160A  118A  200A  120A  158A  	fcall	stringdir
  4335     0969  00E1               	movwf	??_eval_poly+1
  4336     096A  160A  118A  200A  120A  158A  	fcall	stringdir
  4337     096F  00E2               	movwf	??_eval_poly+2
  4338     0970  160A  118A  200A  120A  158A  	fcall	stringdir
  4339     0975  00E3               	movwf	??_eval_poly+3
  4340     0976  160A  118A  200A  120A  158A  	fcall	stringdir
  4341     097B  00E4               	movwf	??_eval_poly+4
  4342     097C  0864               	movf	??_eval_poly+4,w
  4343     097D  00C8               	movwf	___fladd@b+3
  4344     097E  0863               	movf	??_eval_poly+3,w
  4345     097F  00C7               	movwf	___fladd@b+2
  4346     0980  0862               	movf	??_eval_poly+2,w
  4347     0981  00C6               	movwf	___fladd@b+1
  4348     0982  0861               	movf	??_eval_poly+1,w
  4349     0983  00C5               	movwf	___fladd@b
  4350     0984  0868               	movf	eval_poly@res+3,w
  4351     0985  00AE               	movwf	___flmul@b+3
  4352     0986  0867               	movf	eval_poly@res+2,w
  4353     0987  00AD               	movwf	___flmul@b+2
  4354     0988  0866               	movf	eval_poly@res+1,w
  4355     0989  00AC               	movwf	___flmul@b+1
  4356     098A  0865               	movf	eval_poly@res,w
  4357     098B  00AB               	movwf	___flmul@b
  4358     098C  085C               	movf	eval_poly@x+3,w
  4359     098D  00B2               	movwf	___flmul@a+3
  4360     098E  085B               	movf	eval_poly@x+2,w
  4361     098F  00B1               	movwf	___flmul@a+2
  4362     0990  085A               	movf	eval_poly@x+1,w
  4363     0991  00B0               	movwf	___flmul@a+1
  4364     0992  0859               	movf	eval_poly@x,w
  4365     0993  00AF               	movwf	___flmul@a
  4366     0994  120A  118A  203F  120A  158A  	fcall	___flmul
  4367     0999  1283               	bcf	3,5	;RP0=0, select bank0
  4368     099A  1303               	bcf	3,6	;RP1=0, select bank0
  4369     099B  082E               	movf	?___flmul+3,w
  4370     099C  00CC               	movwf	___fladd@a+3
  4371     099D  082D               	movf	?___flmul+2,w
  4372     099E  00CB               	movwf	___fladd@a+2
  4373     099F  082C               	movf	?___flmul+1,w
  4374     09A0  00CA               	movwf	___fladd@a+1
  4375     09A1  082B               	movf	?___flmul,w
  4376     09A2  00C9               	movwf	___fladd@a
  4377     09A3  120A  158A  25A8  120A  158A  	fcall	___fladd
  4378     09A8  1283               	bcf	3,5	;RP0=0, select bank0
  4379     09A9  1303               	bcf	3,6	;RP1=0, select bank0
  4380     09AA  0848               	movf	?___fladd+3,w
  4381     09AB  00E8               	movwf	eval_poly@res+3
  4382     09AC  0847               	movf	?___fladd+2,w
  4383     09AD  00E7               	movwf	eval_poly@res+2
  4384     09AE  0846               	movf	?___fladd+1,w
  4385     09AF  00E6               	movwf	eval_poly@res+1
  4386     09B0  0845               	movf	?___fladd,w
  4387     09B1  00E5               	movwf	eval_poly@res
  4388     09B2                     l3098:
  4389     09B2  085E               	movf	eval_poly@n,w
  4390     09B3  045F               	iorwf	eval_poly@n+1,w
  4391     09B4  1D03               	btfss	3,2
  4392     09B5  29B7               	goto	u4521
  4393     09B6  29B8               	goto	u4520
  4394     09B7                     u4521:
  4395     09B7  2952               	goto	l3096
  4396     09B8                     u4520:
  4397     09B8                     l3100:
  4398     09B8  0868               	movf	eval_poly@res+3,w
  4399     09B9  00DC               	movwf	?_eval_poly+3
  4400     09BA  0867               	movf	eval_poly@res+2,w
  4401     09BB  00DB               	movwf	?_eval_poly+2
  4402     09BC  0866               	movf	eval_poly@res+1,w
  4403     09BD  00DA               	movwf	?_eval_poly+1
  4404     09BE  0865               	movf	eval_poly@res,w
  4405     09BF  00D9               	movwf	?_eval_poly
  4406     09C0                     l724:
  4407     09C0  0008               	return
  4408     09C1                     __end_of_eval_poly:
  4409                           
  4410                           	psect	text19
  4411     0B1E                     __ptext19:	
  4412 ;; *************** function ___xxtofl *****************
  4413 ;; Defined at:
  4414 ;;		line 10 in file "C:\Program Files\Microchip\xc8\v2.41\pic\sources\c90\common\xxtofl.c"
  4415 ;; Parameters:    Size  Location     Type
  4416 ;;  sign            1    wreg     unsigned char 
  4417 ;;  val             4    2[COMMON] long 
  4418 ;; Auto vars:     Size  Location     Type
  4419 ;;  sign            1    0[BANK0 ] unsigned char 
  4420 ;;  arg             4    2[BANK0 ] unsigned long 
  4421 ;;  exp             1    1[BANK0 ] unsigned char 
  4422 ;; Return value:  Size  Location     Type
  4423 ;;                  4    2[COMMON] unsigned char 
  4424 ;; Registers used:
  4425 ;;		wreg, status,2, status,0, btemp+1
  4426 ;; Tracked objects:
  4427 ;;		On entry : 0/0
  4428 ;;		On exit  : 0/0
  4429 ;;		Unchanged: 0/0
  4430 ;; Data sizes:     COMMON   BANK0   BANK1   BANK3   BANK2
  4431 ;;      Params:         4       0       0       0       0
  4432 ;;      Locals:         0       6       0       0       0
  4433 ;;      Temps:          4       0       0       0       0
  4434 ;;      Totals:         8       6       0       0       0
  4435 ;;Total ram usage:       14 bytes
  4436 ;; Hardware stack levels used: 1
  4437 ;; Hardware stack levels required when called: 1
  4438 ;; This function calls:
  4439 ;;		Nothing
  4440 ;; This function is called by:
  4441 ;;		_converteVoltsParaLux
  4442 ;;		_main
  4443 ;;		_log
  4444 ;; This function uses a non-reentrant model
  4445 ;;
  4446                           
  4447     0B1E                     ___xxtofl:	
  4448                           ;psect for function ___xxtofl
  4449                           
  4450                           
  4451                           ;incstack = 0
  4452                           ; Regs used in ___xxtofl: [wreg+status,2+status,0+btemp+1]
  4453                           ;___xxtofl@sign stored from wreg
  4454     0B1E  1283               	bcf	3,5	;RP0=0, select bank0
  4455     0B1F  1303               	bcf	3,6	;RP1=0, select bank0
  4456     0B20  00A0               	movwf	___xxtofl@sign
  4457     0B21                     l2284:
  4458     0B21  0820               	movf	___xxtofl@sign,w
  4459     0B22  1903               	btfsc	3,2
  4460     0B23  2B25               	goto	u3041
  4461     0B24  2B26               	goto	u3040
  4462     0B25                     u3041:
  4463     0B25  2B3A               	goto	l2290
  4464     0B26                     u3040:
  4465     0B26                     l2286:
  4466     0B26  1FF5               	btfss	___xxtofl@val+3,7
  4467     0B27  2B29               	goto	u3051
  4468     0B28  2B2A               	goto	u3050
  4469     0B29                     u3051:
  4470     0B29  2B3A               	goto	l2290
  4471     0B2A                     u3050:
  4472     0B2A                     l2288:
  4473     0B2A  0972               	comf	___xxtofl@val,w
  4474     0B2B  00A2               	movwf	___xxtofl@arg
  4475     0B2C  0973               	comf	___xxtofl@val+1,w
  4476     0B2D  00A3               	movwf	___xxtofl@arg+1
  4477     0B2E  0974               	comf	___xxtofl@val+2,w
  4478     0B2F  00A4               	movwf	___xxtofl@arg+2
  4479     0B30  0975               	comf	___xxtofl@val+3,w
  4480     0B31  00A5               	movwf	___xxtofl@arg+3
  4481     0B32  0AA2               	incf	___xxtofl@arg,f
  4482     0B33  1903               	skipnz
  4483     0B34  0AA3               	incf	___xxtofl@arg+1,f
  4484     0B35  1903               	skipnz
  4485     0B36  0AA4               	incf	___xxtofl@arg+2,f
  4486     0B37  1903               	skipnz
  4487     0B38  0AA5               	incf	___xxtofl@arg+3,f
  4488     0B39  2B42               	goto	l685
  4489     0B3A                     l2290:
  4490     0B3A  0875               	movf	___xxtofl@val+3,w
  4491     0B3B  00A5               	movwf	___xxtofl@arg+3
  4492     0B3C  0874               	movf	___xxtofl@val+2,w
  4493     0B3D  00A4               	movwf	___xxtofl@arg+2
  4494     0B3E  0873               	movf	___xxtofl@val+1,w
  4495     0B3F  00A3               	movwf	___xxtofl@arg+1
  4496     0B40  0872               	movf	___xxtofl@val,w
  4497     0B41  00A2               	movwf	___xxtofl@arg
  4498     0B42                     l685:
  4499     0B42  0875               	movf	___xxtofl@val+3,w
  4500     0B43  0474               	iorwf	___xxtofl@val+2,w
  4501     0B44  0473               	iorwf	___xxtofl@val+1,w
  4502     0B45  0472               	iorwf	___xxtofl@val,w
  4503     0B46  1D03               	skipz
  4504     0B47  2B49               	goto	u3061
  4505     0B48  2B4A               	goto	u3060
  4506     0B49                     u3061:
  4507     0B49  2B53               	goto	l2296
  4508     0B4A                     u3060:
  4509     0B4A                     l2292:
  4510     0B4A  3000               	movlw	0
  4511     0B4B  00F5               	movwf	?___xxtofl+3
  4512     0B4C  3000               	movlw	0
  4513     0B4D  00F4               	movwf	?___xxtofl+2
  4514     0B4E  3000               	movlw	0
  4515     0B4F  00F3               	movwf	?___xxtofl+1
  4516     0B50  3000               	movlw	0
  4517     0B51  00F2               	movwf	?___xxtofl
  4518     0B52  2BD7               	goto	l687
  4519     0B53                     l2296:
  4520     0B53  3096               	movlw	150
  4521     0B54  00A1               	movwf	___xxtofl@exp
  4522     0B55  2B63               	goto	l2302
  4523     0B56                     l2298:
  4524     0B56  3001               	movlw	1
  4525     0B57  00FF               	movwf	btemp+1
  4526     0B58  087F               	movf	btemp+1,w
  4527     0B59  07A1               	addwf	___xxtofl@exp,f
  4528     0B5A                     l2300:
  4529     0B5A  3001               	movlw	1
  4530     0B5B                     u3075:
  4531     0B5B  1003               	clrc
  4532     0B5C  0CA5               	rrf	___xxtofl@arg+3,f
  4533     0B5D  0CA4               	rrf	___xxtofl@arg+2,f
  4534     0B5E  0CA3               	rrf	___xxtofl@arg+1,f
  4535     0B5F  0CA2               	rrf	___xxtofl@arg,f
  4536     0B60  3EFF               	addlw	-1
  4537     0B61  1D03               	skipz
  4538     0B62  2B5B               	goto	u3075
  4539     0B63                     l2302:
  4540     0B63  30FE               	movlw	254
  4541     0B64  0525               	andwf	___xxtofl@arg+3,w
  4542     0B65  1D03               	btfss	3,2
  4543     0B66  2B68               	goto	u3081
  4544     0B67  2B69               	goto	u3080
  4545     0B68                     u3081:
  4546     0B68  2B56               	goto	l2298
  4547     0B69                     u3080:
  4548     0B69  2B85               	goto	l2310
  4549     0B6A                     l2304:
  4550     0B6A  3001               	movlw	1
  4551     0B6B  00FF               	movwf	btemp+1
  4552     0B6C  087F               	movf	btemp+1,w
  4553     0B6D  07A1               	addwf	___xxtofl@exp,f
  4554     0B6E                     l2306:
  4555     0B6E  3001               	movlw	1
  4556     0B6F  07A2               	addwf	___xxtofl@arg,f
  4557     0B70  3000               	movlw	0
  4558     0B71  1803               	skipnc
  4559     0B72  3001               	movlw	1
  4560     0B73  07A3               	addwf	___xxtofl@arg+1,f
  4561     0B74  3000               	movlw	0
  4562     0B75  1803               	skipnc
  4563     0B76  3001               	movlw	1
  4564     0B77  07A4               	addwf	___xxtofl@arg+2,f
  4565     0B78  3000               	movlw	0
  4566     0B79  1803               	skipnc
  4567     0B7A  3001               	movlw	1
  4568     0B7B  07A5               	addwf	___xxtofl@arg+3,f
  4569     0B7C                     l2308:
  4570     0B7C  3001               	movlw	1
  4571     0B7D                     u3095:
  4572     0B7D  1003               	clrc
  4573     0B7E  0CA5               	rrf	___xxtofl@arg+3,f
  4574     0B7F  0CA4               	rrf	___xxtofl@arg+2,f
  4575     0B80  0CA3               	rrf	___xxtofl@arg+1,f
  4576     0B81  0CA2               	rrf	___xxtofl@arg,f
  4577     0B82  3EFF               	addlw	-1
  4578     0B83  1D03               	skipz
  4579     0B84  2B7D               	goto	u3095
  4580     0B85                     l2310:
  4581     0B85  30FF               	movlw	255
  4582     0B86  0525               	andwf	___xxtofl@arg+3,w
  4583     0B87  1D03               	btfss	3,2
  4584     0B88  2B8A               	goto	u3101
  4585     0B89  2B8B               	goto	u3100
  4586     0B8A                     u3101:
  4587     0B8A  2B6A               	goto	l2304
  4588     0B8B                     u3100:
  4589     0B8B  2B97               	goto	l2314
  4590     0B8C                     l2312:
  4591     0B8C  3001               	movlw	1
  4592     0B8D  02A1               	subwf	___xxtofl@exp,f
  4593     0B8E  3001               	movlw	1
  4594     0B8F  00F6               	movwf	??___xxtofl
  4595     0B90                     u3115:
  4596     0B90  1003               	clrc
  4597     0B91  0DA2               	rlf	___xxtofl@arg,f
  4598     0B92  0DA3               	rlf	___xxtofl@arg+1,f
  4599     0B93  0DA4               	rlf	___xxtofl@arg+2,f
  4600     0B94  0DA5               	rlf	___xxtofl@arg+3,f
  4601     0B95  0BF6               	decfsz	??___xxtofl,f
  4602     0B96  2B90               	goto	u3115
  4603     0B97                     l2314:
  4604     0B97  1BA4               	btfsc	___xxtofl@arg+2,7
  4605     0B98  2B9A               	goto	u3121
  4606     0B99  2B9B               	goto	u3120
  4607     0B9A                     u3121:
  4608     0B9A  2BA1               	goto	l698
  4609     0B9B                     u3120:
  4610     0B9B                     l2316:
  4611     0B9B  3002               	movlw	2
  4612     0B9C  0221               	subwf	___xxtofl@exp,w
  4613     0B9D  1803               	skipnc
  4614     0B9E  2BA0               	goto	u3131
  4615     0B9F  2BA1               	goto	u3130
  4616     0BA0                     u3131:
  4617     0BA0  2B8C               	goto	l2312
  4618     0BA1                     u3130:
  4619     0BA1                     l698:
  4620     0BA1  1821               	btfsc	___xxtofl@exp,0
  4621     0BA2  2BA4               	goto	u3141
  4622     0BA3  2BA5               	goto	u3140
  4623     0BA4                     u3141:
  4624     0BA4  2BAD               	goto	l699
  4625     0BA5                     u3140:
  4626     0BA5                     l2318:
  4627     0BA5  30FF               	movlw	255
  4628     0BA6  05A2               	andwf	___xxtofl@arg,f
  4629     0BA7  30FF               	movlw	255
  4630     0BA8  05A3               	andwf	___xxtofl@arg+1,f
  4631     0BA9  307F               	movlw	127
  4632     0BAA  05A4               	andwf	___xxtofl@arg+2,f
  4633     0BAB  30FF               	movlw	255
  4634     0BAC  05A5               	andwf	___xxtofl@arg+3,f
  4635     0BAD                     l699:
  4636     0BAD  1003               	clrc
  4637     0BAE  0CA1               	rrf	___xxtofl@exp,f
  4638     0BAF                     l2320:
  4639     0BAF  0821               	movf	___xxtofl@exp,w
  4640     0BB0  00F6               	movwf	??___xxtofl
  4641     0BB1  01F7               	clrf	??___xxtofl+1
  4642     0BB2  01F8               	clrf	??___xxtofl+2
  4643     0BB3  01F9               	clrf	??___xxtofl+3
  4644     0BB4  3018               	movlw	24
  4645     0BB5                     u3155:
  4646     0BB5  1003               	clrc
  4647     0BB6  0DF6               	rlf	??___xxtofl,f
  4648     0BB7  0DF7               	rlf	??___xxtofl+1,f
  4649     0BB8  0DF8               	rlf	??___xxtofl+2,f
  4650     0BB9  0DF9               	rlf	??___xxtofl+3,f
  4651     0BBA                     u3150:
  4652     0BBA  3EFF               	addlw	-1
  4653     0BBB  1D03               	skipz
  4654     0BBC  2BB5               	goto	u3155
  4655     0BBD  0876               	movf	??___xxtofl,w
  4656     0BBE  04A2               	iorwf	___xxtofl@arg,f
  4657     0BBF  0877               	movf	??___xxtofl+1,w
  4658     0BC0  04A3               	iorwf	___xxtofl@arg+1,f
  4659     0BC1  0878               	movf	??___xxtofl+2,w
  4660     0BC2  04A4               	iorwf	___xxtofl@arg+2,f
  4661     0BC3  0879               	movf	??___xxtofl+3,w
  4662     0BC4  04A5               	iorwf	___xxtofl@arg+3,f
  4663     0BC5                     l2322:
  4664     0BC5  0820               	movf	___xxtofl@sign,w
  4665     0BC6  1903               	btfsc	3,2
  4666     0BC7  2BC9               	goto	u3161
  4667     0BC8  2BCA               	goto	u3160
  4668     0BC9                     u3161:
  4669     0BC9  2BCF               	goto	l2328
  4670     0BCA                     u3160:
  4671     0BCA                     l2324:
  4672     0BCA  1FF5               	btfss	___xxtofl@val+3,7
  4673     0BCB  2BCD               	goto	u3171
  4674     0BCC  2BCE               	goto	u3170
  4675     0BCD                     u3171:
  4676     0BCD  2BCF               	goto	l2328
  4677     0BCE                     u3170:
  4678     0BCE                     l2326:
  4679     0BCE  17A5               	bsf	___xxtofl@arg+3,7
  4680     0BCF                     l2328:
  4681     0BCF  0825               	movf	___xxtofl@arg+3,w
  4682     0BD0  00F5               	movwf	?___xxtofl+3
  4683     0BD1  0824               	movf	___xxtofl@arg+2,w
  4684     0BD2  00F4               	movwf	?___xxtofl+2
  4685     0BD3  0823               	movf	___xxtofl@arg+1,w
  4686     0BD4  00F3               	movwf	?___xxtofl+1
  4687     0BD5  0822               	movf	___xxtofl@arg,w
  4688     0BD6  00F2               	movwf	?___xxtofl
  4689     0BD7                     l687:
  4690     0BD7  0008               	return
  4691     0BD8                     __end_of___xxtofl:
  4692                           
  4693                           	psect	text20
  4694     09C1                     __ptext20:	
  4695 ;; *************** function ___flge *****************
  4696 ;; Defined at:
  4697 ;;		line 4 in file "C:\Program Files\Microchip\xc8\v2.41\pic\sources\c90\common\flge.c"
  4698 ;; Parameters:    Size  Location     Type
  4699 ;;  ff1             4    2[COMMON] unsigned char 
  4700 ;;  ff2             4    6[COMMON] unsigned char 
  4701 ;; Auto vars:     Size  Location     Type
  4702 ;;		None
  4703 ;; Return value:  Size  Location     Type
  4704 ;;		None               void
  4705 ;; Registers used:
  4706 ;;		wreg, status,2, status,0
  4707 ;; Tracked objects:
  4708 ;;		On entry : 0/0
  4709 ;;		On exit  : 0/0
  4710 ;;		Unchanged: 0/0
  4711 ;; Data sizes:     COMMON   BANK0   BANK1   BANK3   BANK2
  4712 ;;      Params:         8       0       0       0       0
  4713 ;;      Locals:         0       0       0       0       0
  4714 ;;      Temps:          0       4       0       0       0
  4715 ;;      Totals:         8       4       0       0       0
  4716 ;;Total ram usage:       12 bytes
  4717 ;; Hardware stack levels used: 1
  4718 ;; Hardware stack levels required when called: 1
  4719 ;; This function calls:
  4720 ;;		Nothing
  4721 ;; This function is called by:
  4722 ;;		_log
  4723 ;; This function uses a non-reentrant model
  4724 ;;
  4725                           
  4726     09C1                     ___flge:	
  4727                           ;psect for function ___flge
  4728                           
  4729     09C1                     l2264:	
  4730                           ;incstack = 0
  4731                           ; Regs used in ___flge: [wreg+status,2+status,0]
  4732                           
  4733     09C1  3000               	movlw	0
  4734     09C2  0572               	andwf	___flge@ff1,w
  4735     09C3  1283               	bcf	3,5	;RP0=0, select bank0
  4736     09C4  1303               	bcf	3,6	;RP1=0, select bank0
  4737     09C5  00A0               	movwf	??___flge
  4738     09C6  3000               	movlw	0
  4739     09C7  0573               	andwf	___flge@ff1+1,w
  4740     09C8  00A1               	movwf	??___flge+1
  4741     09C9  3080               	movlw	128
  4742     09CA  0574               	andwf	___flge@ff1+2,w
  4743     09CB  00A2               	movwf	??___flge+2
  4744     09CC  307F               	movlw	127
  4745     09CD  0575               	andwf	___flge@ff1+3,w
  4746     09CE  00A3               	movwf	??___flge+3
  4747     09CF  0823               	movf	??___flge+3,w
  4748     09D0  0422               	iorwf	??___flge+2,w
  4749     09D1  0421               	iorwf	??___flge+1,w
  4750     09D2  0420               	iorwf	??___flge,w
  4751     09D3  1D03               	skipz
  4752     09D4  29D6               	goto	u2971
  4753     09D5  29D7               	goto	u2970
  4754     09D6                     u2971:
  4755     09D6  29DF               	goto	l426
  4756     09D7                     u2970:
  4757     09D7                     l2266:
  4758     09D7  3000               	movlw	0
  4759     09D8  00F5               	movwf	___flge@ff1+3
  4760     09D9  3000               	movlw	0
  4761     09DA  00F4               	movwf	___flge@ff1+2
  4762     09DB  3000               	movlw	0
  4763     09DC  00F3               	movwf	___flge@ff1+1
  4764     09DD  3000               	movlw	0
  4765     09DE  00F2               	movwf	___flge@ff1
  4766     09DF                     l426:
  4767     09DF  3000               	movlw	0
  4768     09E0  0576               	andwf	___flge@ff2,w
  4769     09E1  00A0               	movwf	??___flge
  4770     09E2  3000               	movlw	0
  4771     09E3  0577               	andwf	___flge@ff2+1,w
  4772     09E4  00A1               	movwf	??___flge+1
  4773     09E5  3080               	movlw	128
  4774     09E6  0578               	andwf	___flge@ff2+2,w
  4775     09E7  00A2               	movwf	??___flge+2
  4776     09E8  307F               	movlw	127
  4777     09E9  0579               	andwf	___flge@ff2+3,w
  4778     09EA  00A3               	movwf	??___flge+3
  4779     09EB  0823               	movf	??___flge+3,w
  4780     09EC  0422               	iorwf	??___flge+2,w
  4781     09ED  0421               	iorwf	??___flge+1,w
  4782     09EE  0420               	iorwf	??___flge,w
  4783     09EF  1D03               	skipz
  4784     09F0  29F2               	goto	u2981
  4785     09F1  29F3               	goto	u2980
  4786     09F2                     u2981:
  4787     09F2  29FB               	goto	l2270
  4788     09F3                     u2980:
  4789     09F3                     l2268:
  4790     09F3  3000               	movlw	0
  4791     09F4  00F9               	movwf	___flge@ff2+3
  4792     09F5  3000               	movlw	0
  4793     09F6  00F8               	movwf	___flge@ff2+2
  4794     09F7  3000               	movlw	0
  4795     09F8  00F7               	movwf	___flge@ff2+1
  4796     09F9  3000               	movlw	0
  4797     09FA  00F6               	movwf	___flge@ff2
  4798     09FB                     l2270:
  4799     09FB  1FF5               	btfss	___flge@ff1+3,7
  4800     09FC  29FE               	goto	u2991
  4801     09FD  29FF               	goto	u2990
  4802     09FE                     u2991:
  4803     09FE  2A23               	goto	l2274
  4804     09FF                     u2990:
  4805     09FF                     l2272:
  4806     09FF  3000               	movlw	0
  4807     0A00  00A0               	movwf	??___flge
  4808     0A01  3000               	movlw	0
  4809     0A02  00A1               	movwf	??___flge+1
  4810     0A03  3000               	movlw	0
  4811     0A04  00A2               	movwf	??___flge+2
  4812     0A05  3080               	movlw	128
  4813     0A06  00A3               	movwf	??___flge+3
  4814     0A07  0872               	movf	___flge@ff1,w
  4815     0A08  02A0               	subwf	??___flge,f
  4816     0A09  0873               	movf	___flge@ff1+1,w
  4817     0A0A  1C03               	skipc
  4818     0A0B  0F73               	incfsz	___flge@ff1+1,w
  4819     0A0C  2A0E               	goto	u3001
  4820     0A0D  2A0F               	goto	u3002
  4821     0A0E                     u3001:
  4822     0A0E  02A1               	subwf	??___flge+1,f
  4823     0A0F                     u3002:
  4824     0A0F  0874               	movf	___flge@ff1+2,w
  4825     0A10  1C03               	skipc
  4826     0A11  0F74               	incfsz	___flge@ff1+2,w
  4827     0A12  2A14               	goto	u3003
  4828     0A13  2A15               	goto	u3004
  4829     0A14                     u3003:
  4830     0A14  02A2               	subwf	??___flge+2,f
  4831     0A15                     u3004:
  4832     0A15  0875               	movf	___flge@ff1+3,w
  4833     0A16  1C03               	skipc
  4834     0A17  0F75               	incfsz	___flge@ff1+3,w
  4835     0A18  2A1A               	goto	u3005
  4836     0A19  2A1B               	goto	u3006
  4837     0A1A                     u3005:
  4838     0A1A  02A3               	subwf	??___flge+3,f
  4839     0A1B                     u3006:
  4840     0A1B  0823               	movf	??___flge+3,w
  4841     0A1C  00F5               	movwf	___flge@ff1+3
  4842     0A1D  0822               	movf	??___flge+2,w
  4843     0A1E  00F4               	movwf	___flge@ff1+2
  4844     0A1F  0821               	movf	??___flge+1,w
  4845     0A20  00F3               	movwf	___flge@ff1+1
  4846     0A21  0820               	movf	??___flge,w
  4847     0A22  00F2               	movwf	___flge@ff1
  4848     0A23                     l2274:
  4849     0A23  1FF9               	btfss	___flge@ff2+3,7
  4850     0A24  2A26               	goto	u3011
  4851     0A25  2A27               	goto	u3010
  4852     0A26                     u3011:
  4853     0A26  2A4B               	goto	l429
  4854     0A27                     u3010:
  4855     0A27                     l2276:
  4856     0A27  3000               	movlw	0
  4857     0A28  00A0               	movwf	??___flge
  4858     0A29  3000               	movlw	0
  4859     0A2A  00A1               	movwf	??___flge+1
  4860     0A2B  3000               	movlw	0
  4861     0A2C  00A2               	movwf	??___flge+2
  4862     0A2D  3080               	movlw	128
  4863     0A2E  00A3               	movwf	??___flge+3
  4864     0A2F  0876               	movf	___flge@ff2,w
  4865     0A30  02A0               	subwf	??___flge,f
  4866     0A31  0877               	movf	___flge@ff2+1,w
  4867     0A32  1C03               	skipc
  4868     0A33  0F77               	incfsz	___flge@ff2+1,w
  4869     0A34  2A36               	goto	u3021
  4870     0A35  2A37               	goto	u3022
  4871     0A36                     u3021:
  4872     0A36  02A1               	subwf	??___flge+1,f
  4873     0A37                     u3022:
  4874     0A37  0878               	movf	___flge@ff2+2,w
  4875     0A38  1C03               	skipc
  4876     0A39  0F78               	incfsz	___flge@ff2+2,w
  4877     0A3A  2A3C               	goto	u3023
  4878     0A3B  2A3D               	goto	u3024
  4879     0A3C                     u3023:
  4880     0A3C  02A2               	subwf	??___flge+2,f
  4881     0A3D                     u3024:
  4882     0A3D  0879               	movf	___flge@ff2+3,w
  4883     0A3E  1C03               	skipc
  4884     0A3F  0F79               	incfsz	___flge@ff2+3,w
  4885     0A40  2A42               	goto	u3025
  4886     0A41  2A43               	goto	u3026
  4887     0A42                     u3025:
  4888     0A42  02A3               	subwf	??___flge+3,f
  4889     0A43                     u3026:
  4890     0A43  0823               	movf	??___flge+3,w
  4891     0A44  00F9               	movwf	___flge@ff2+3
  4892     0A45  0822               	movf	??___flge+2,w
  4893     0A46  00F8               	movwf	___flge@ff2+2
  4894     0A47  0821               	movf	??___flge+1,w
  4895     0A48  00F7               	movwf	___flge@ff2+1
  4896     0A49  0820               	movf	??___flge,w
  4897     0A4A  00F6               	movwf	___flge@ff2
  4898     0A4B                     l429:
  4899     0A4B  3080               	movlw	128
  4900     0A4C  06F5               	xorwf	___flge@ff1+3,f
  4901     0A4D  3080               	movlw	128
  4902     0A4E  06F9               	xorwf	___flge@ff2+3,f
  4903     0A4F  0879               	movf	___flge@ff2+3,w
  4904     0A50  0275               	subwf	___flge@ff1+3,w
  4905     0A51  1D03               	skipz
  4906     0A52  2A5D               	goto	u3035
  4907     0A53  0878               	movf	___flge@ff2+2,w
  4908     0A54  0274               	subwf	___flge@ff1+2,w
  4909     0A55  1D03               	skipz
  4910     0A56  2A5D               	goto	u3035
  4911     0A57  0877               	movf	___flge@ff2+1,w
  4912     0A58  0273               	subwf	___flge@ff1+1,w
  4913     0A59  1D03               	skipz
  4914     0A5A  2A5D               	goto	u3035
  4915     0A5B  0876               	movf	___flge@ff2,w
  4916     0A5C  0272               	subwf	___flge@ff1,w
  4917     0A5D                     u3035:
  4918     0A5D  1803               	skipnc
  4919     0A5E  2A60               	goto	u3031
  4920     0A5F  2A61               	goto	u3030
  4921     0A60                     u3031:
  4922     0A60  2A63               	goto	l2280
  4923     0A61                     u3030:
  4924     0A61                     l2278:
  4925     0A61  1003               	clrc
  4926     0A62  2A64               	goto	l430
  4927     0A63                     l2280:
  4928     0A63  1403               	setc
  4929     0A64                     l430:
  4930     0A64  0008               	return
  4931     0A65                     __end_of___flge:
  4932                           
  4933                           	psect	text21
  4934     08AB                     __ptext21:	
  4935 ;; *************** function ___fltol *****************
  4936 ;; Defined at:
  4937 ;;		line 43 in file "C:\Program Files\Microchip\xc8\v2.41\pic\sources\c90\common\fltol.c"
  4938 ;; Parameters:    Size  Location     Type
  4939 ;;  f1              4   42[BANK1 ] unsigned char 
  4940 ;; Auto vars:     Size  Location     Type
  4941 ;;  exp1            1   51[BANK1 ] unsigned char 
  4942 ;;  sign1           1   50[BANK1 ] unsigned char 
  4943 ;; Return value:  Size  Location     Type
  4944 ;;                  4   42[BANK1 ] long 
  4945 ;; Registers used:
  4946 ;;		wreg, status,2, status,0, btemp+1
  4947 ;; Tracked objects:
  4948 ;;		On entry : 0/0
  4949 ;;		On exit  : 0/0
  4950 ;;		Unchanged: 0/0
  4951 ;; Data sizes:     COMMON   BANK0   BANK1   BANK3   BANK2
  4952 ;;      Params:         0       0       4       0       0
  4953 ;;      Locals:         0       0       2       0       0
  4954 ;;      Temps:          0       0       4       0       0
  4955 ;;      Totals:         0       0      10       0       0
  4956 ;;Total ram usage:       10 bytes
  4957 ;; Hardware stack levels used: 1
  4958 ;; Hardware stack levels required when called: 1
  4959 ;; This function calls:
  4960 ;;		Nothing
  4961 ;; This function is called by:
  4962 ;;		_converteVoltsParaLux
  4963 ;; This function uses a non-reentrant model
  4964 ;;
  4965                           
  4966     08AB                     ___fltol:	
  4967                           ;psect for function ___fltol
  4968                           
  4969     08AB                     l2584:	
  4970                           ;incstack = 0
  4971                           ; Regs used in ___fltol: [wreg+status,2+status,0+btemp+1]
  4972                           
  4973     08AB  1003               	clrc
  4974     08AC  1683               	bsf	3,5	;RP0=1, select bank1
  4975     08AD  1303               	bcf	3,6	;RP1=0, select bank1
  4976     08AE  0D4C               	rlf	(___fltol@f1+2)^(0+128),w
  4977     08AF  0D4D               	rlf	(___fltol@f1+3)^(0+128),w
  4978     08B0  00D3               	movwf	___fltol@exp1^(0+128)
  4979     08B1  0853               	movf	___fltol@exp1^(0+128),w
  4980     08B2  1D03               	btfss	3,2
  4981     08B3  28B5               	goto	u3621
  4982     08B4  28B6               	goto	u3620
  4983     08B5                     u3621:
  4984     08B5  28BF               	goto	l2590
  4985     08B6                     u3620:
  4986     08B6                     l2586:
  4987     08B6  3000               	movlw	0
  4988     08B7  00CD               	movwf	(?___fltol+3)^(0+128)
  4989     08B8  3000               	movlw	0
  4990     08B9  00CC               	movwf	(?___fltol+2)^(0+128)
  4991     08BA  3000               	movlw	0
  4992     08BB  00CB               	movwf	(?___fltol+1)^(0+128)
  4993     08BC  3000               	movlw	0
  4994     08BD  00CA               	movwf	?___fltol^(0+128)
  4995     08BE  2922               	goto	l438
  4996     08BF                     l2590:
  4997     08BF  084A               	movf	___fltol@f1^(0+128),w
  4998     08C0  00CE               	movwf	??___fltol^(0+128)
  4999     08C1  084B               	movf	(___fltol@f1+1)^(0+128),w
  5000     08C2  00CF               	movwf	(??___fltol^(0+128)+1)
  5001     08C3  084C               	movf	(___fltol@f1+2)^(0+128),w
  5002     08C4  00D0               	movwf	(??___fltol^(0+128)+2)
  5003     08C5  084D               	movf	(___fltol@f1+3)^(0+128),w
  5004     08C6  00D1               	movwf	(??___fltol^(0+128)+3)
  5005     08C7  301F               	movlw	31
  5006     08C8                     u3635:
  5007     08C8  1003               	clrc
  5008     08C9  0CD1               	rrf	(??___fltol^(0+128)+3),f
  5009     08CA  0CD0               	rrf	(??___fltol^(0+128)+2),f
  5010     08CB  0CCF               	rrf	(??___fltol^(0+128)+1),f
  5011     08CC  0CCE               	rrf	??___fltol^(0+128),f
  5012     08CD                     u3630:
  5013     08CD  3EFF               	addlw	-1
  5014     08CE  1D03               	skipz
  5015     08CF  28C8               	goto	u3635
  5016     08D0  084E               	movf	??___fltol^(0+128),w
  5017     08D1  00D2               	movwf	___fltol@sign1^(0+128)
  5018     08D2                     l2592:
  5019     08D2  17CC               	bsf	(___fltol@f1^(0+128)+2),7
  5020     08D3                     l2594:
  5021     08D3  30FF               	movlw	255
  5022     08D4  05CA               	andwf	___fltol@f1^(0+128),f
  5023     08D5  30FF               	movlw	255
  5024     08D6  05CB               	andwf	(___fltol@f1+1)^(0+128),f
  5025     08D7  30FF               	movlw	255
  5026     08D8  05CC               	andwf	(___fltol@f1+2)^(0+128),f
  5027     08D9  3000               	movlw	0
  5028     08DA  05CD               	andwf	(___fltol@f1+3)^(0+128),f
  5029     08DB                     l2596:
  5030     08DB  3096               	movlw	150
  5031     08DC  02D3               	subwf	___fltol@exp1^(0+128),f
  5032     08DD                     l2598:
  5033     08DD  1FD3               	btfss	___fltol@exp1^(0+128),7
  5034     08DE  28E0               	goto	u3641
  5035     08DF  28E1               	goto	u3640
  5036     08E0                     u3641:
  5037     08E0  28FB               	goto	l2610
  5038     08E1                     u3640:
  5039     08E1                     l2600:
  5040     08E1  0853               	movf	___fltol@exp1^(0+128),w
  5041     08E2  3A80               	xorlw	128
  5042     08E3  3E97               	addlw	151
  5043     08E4  1803               	skipnc
  5044     08E5  28E7               	goto	u3651
  5045     08E6  28E8               	goto	u3650
  5046     08E7                     u3651:
  5047     08E7  28E9               	goto	l2606
  5048     08E8                     u3650:
  5049     08E8  28B6               	goto	l2586
  5050     08E9                     l2606:
  5051     08E9  3001               	movlw	1
  5052     08EA                     u3665:
  5053     08EA  1003               	clrc
  5054     08EB  0CCD               	rrf	(___fltol@f1+3)^(0+128),f
  5055     08EC  0CCC               	rrf	(___fltol@f1+2)^(0+128),f
  5056     08ED  0CCB               	rrf	(___fltol@f1+1)^(0+128),f
  5057     08EE  0CCA               	rrf	___fltol@f1^(0+128),f
  5058     08EF  3EFF               	addlw	-1
  5059     08F0  1D03               	skipz
  5060     08F1  28EA               	goto	u3665
  5061     08F2                     l2608:
  5062     08F2  3001               	movlw	1
  5063     08F3  00FF               	movwf	btemp+1
  5064     08F4  087F               	movf	btemp+1,w
  5065     08F5  07D3               	addwf	___fltol@exp1^(0+128),f
  5066     08F6  1D03               	btfss	3,2
  5067     08F7  28F9               	goto	u3671
  5068     08F8  28FA               	goto	u3670
  5069     08F9                     u3671:
  5070     08F9  28E9               	goto	l2606
  5071     08FA                     u3670:
  5072     08FA  2912               	goto	l2618
  5073     08FB                     l2610:
  5074     08FB  3020               	movlw	32
  5075     08FC  0253               	subwf	___fltol@exp1^(0+128),w
  5076     08FD  1C03               	skipc
  5077     08FE  2900               	goto	u3681
  5078     08FF  2901               	goto	u3680
  5079     0900                     u3681:
  5080     0900  290D               	goto	l445
  5081     0901                     u3680:
  5082     0901  28B6               	goto	l2586
  5083     0902                     l2616:
  5084     0902  3001               	movlw	1
  5085     0903  00CE               	movwf	??___fltol^(0+128)
  5086     0904                     u3695:
  5087     0904  1003               	clrc
  5088     0905  0DCA               	rlf	___fltol@f1^(0+128),f
  5089     0906  0DCB               	rlf	(___fltol@f1+1)^(0+128),f
  5090     0907  0DCC               	rlf	(___fltol@f1+2)^(0+128),f
  5091     0908  0DCD               	rlf	(___fltol@f1+3)^(0+128),f
  5092     0909  0BCE               	decfsz	??___fltol^(0+128),f
  5093     090A  2904               	goto	u3695
  5094     090B  3001               	movlw	1
  5095     090C  02D3               	subwf	___fltol@exp1^(0+128),f
  5096     090D                     l445:
  5097     090D  0853               	movf	___fltol@exp1^(0+128),w
  5098     090E  1D03               	btfss	3,2
  5099     090F  2911               	goto	u3701
  5100     0910  2912               	goto	u3700
  5101     0911                     u3701:
  5102     0911  2902               	goto	l2616
  5103     0912                     u3700:
  5104     0912                     l2618:
  5105     0912  0852               	movf	___fltol@sign1^(0+128),w
  5106     0913  1903               	btfsc	3,2
  5107     0914  2916               	goto	u3711
  5108     0915  2917               	goto	u3710
  5109     0916                     u3711:
  5110     0916  2922               	goto	l448
  5111     0917                     u3710:
  5112     0917                     l2620:
  5113     0917  09CA               	comf	___fltol@f1^(0+128),f
  5114     0918  09CB               	comf	(___fltol@f1+1)^(0+128),f
  5115     0919  09CC               	comf	(___fltol@f1+2)^(0+128),f
  5116     091A  09CD               	comf	(___fltol@f1+3)^(0+128),f
  5117     091B  0ACA               	incf	___fltol@f1^(0+128),f
  5118     091C  1903               	skipnz
  5119     091D  0ACB               	incf	(___fltol@f1+1)^(0+128),f
  5120     091E  1903               	skipnz
  5121     091F  0ACC               	incf	(___fltol@f1+2)^(0+128),f
  5122     0920  1903               	skipnz
  5123     0921  0ACD               	incf	(___fltol@f1+3)^(0+128),f
  5124     0922                     l448:
  5125     0922                     l438:
  5126     0922  0008               	return
  5127     0923                     __end_of___fltol:
  5128                           
  5129                           	psect	text22
  5130     158E                     __ptext22:	
  5131 ;; *************** function ___flsub *****************
  5132 ;; Defined at:
  5133 ;;		line 242 in file "C:\Program Files\Microchip\xc8\v2.41\pic\sources\c90\common\sprcadd.c"
  5134 ;; Parameters:    Size  Location     Type
  5135 ;;  a               4    8[BANK1 ] long 
  5136 ;;  b               4   12[BANK1 ] long 
  5137 ;; Auto vars:     Size  Location     Type
  5138 ;;		None
  5139 ;; Return value:  Size  Location     Type
  5140 ;;                  4    8[BANK1 ] long 
  5141 ;; Registers used:
  5142 ;;		wreg, status,2, status,0, btemp+1, pclath, cstack
  5143 ;; Tracked objects:
  5144 ;;		On entry : 0/0
  5145 ;;		On exit  : 0/0
  5146 ;;		Unchanged: 0/0
  5147 ;; Data sizes:     COMMON   BANK0   BANK1   BANK3   BANK2
  5148 ;;      Params:         0       0       8       0       0
  5149 ;;      Locals:         0       0       0       0       0
  5150 ;;      Temps:          0       0       0       0       0
  5151 ;;      Totals:         0       0       8       0       0
  5152 ;;Total ram usage:        8 bytes
  5153 ;; Hardware stack levels used: 1
  5154 ;; Hardware stack levels required when called: 2
  5155 ;; This function calls:
  5156 ;;		___fladd
  5157 ;; This function is called by:
  5158 ;;		_converteVoltsParaLux
  5159 ;; This function uses a non-reentrant model
  5160 ;;
  5161                           
  5162     158E                     ___flsub:	
  5163                           ;psect for function ___flsub
  5164                           
  5165     158E                     l2622:	
  5166                           ;incstack = 0
  5167                           ; Regs used in ___flsub: [wreg+status,2+status,0+btemp+1+pclath+cstack]
  5168                           
  5169     158E  3080               	movlw	128
  5170     158F  1683               	bsf	3,5	;RP0=1, select bank1
  5171     1590  1303               	bcf	3,6	;RP1=0, select bank1
  5172     1591  06AB               	xorwf	(___flsub@a+3)^(0+128),f
  5173     1592                     l2624:
  5174     1592  082F               	movf	(___flsub@b+3)^(0+128),w
  5175     1593  1283               	bcf	3,5	;RP0=0, select bank0
  5176     1594  1303               	bcf	3,6	;RP1=0, select bank0
  5177     1595  00C8               	movwf	___fladd@b+3
  5178     1596  1683               	bsf	3,5	;RP0=1, select bank1
  5179     1597  1303               	bcf	3,6	;RP1=0, select bank1
  5180     1598  082E               	movf	(___flsub@b+2)^(0+128),w
  5181     1599  1283               	bcf	3,5	;RP0=0, select bank0
  5182     159A  1303               	bcf	3,6	;RP1=0, select bank0
  5183     159B  00C7               	movwf	___fladd@b+2
  5184     159C  1683               	bsf	3,5	;RP0=1, select bank1
  5185     159D  1303               	bcf	3,6	;RP1=0, select bank1
  5186     159E  082D               	movf	(___flsub@b+1)^(0+128),w
  5187     159F  1283               	bcf	3,5	;RP0=0, select bank0
  5188     15A0  1303               	bcf	3,6	;RP1=0, select bank0
  5189     15A1  00C6               	movwf	___fladd@b+1
  5190     15A2  1683               	bsf	3,5	;RP0=1, select bank1
  5191     15A3  1303               	bcf	3,6	;RP1=0, select bank1
  5192     15A4  082C               	movf	___flsub@b^(0+128),w
  5193     15A5  1283               	bcf	3,5	;RP0=0, select bank0
  5194     15A6  1303               	bcf	3,6	;RP1=0, select bank0
  5195     15A7  00C5               	movwf	___fladd@b
  5196     15A8  1683               	bsf	3,5	;RP0=1, select bank1
  5197     15A9  1303               	bcf	3,6	;RP1=0, select bank1
  5198     15AA  082B               	movf	(___flsub@a+3)^(0+128),w
  5199     15AB  1283               	bcf	3,5	;RP0=0, select bank0
  5200     15AC  1303               	bcf	3,6	;RP1=0, select bank0
  5201     15AD  00CC               	movwf	___fladd@a+3
  5202     15AE  1683               	bsf	3,5	;RP0=1, select bank1
  5203     15AF  1303               	bcf	3,6	;RP1=0, select bank1
  5204     15B0  082A               	movf	(___flsub@a+2)^(0+128),w
  5205     15B1  1283               	bcf	3,5	;RP0=0, select bank0
  5206     15B2  1303               	bcf	3,6	;RP1=0, select bank0
  5207     15B3  00CB               	movwf	___fladd@a+2
  5208     15B4  1683               	bsf	3,5	;RP0=1, select bank1
  5209     15B5  1303               	bcf	3,6	;RP1=0, select bank1
  5210     15B6  0829               	movf	(___flsub@a+1)^(0+128),w
  5211     15B7  1283               	bcf	3,5	;RP0=0, select bank0
  5212     15B8  1303               	bcf	3,6	;RP1=0, select bank0
  5213     15B9  00CA               	movwf	___fladd@a+1
  5214     15BA  1683               	bsf	3,5	;RP0=1, select bank1
  5215     15BB  1303               	bcf	3,6	;RP1=0, select bank1
  5216     15BC  0828               	movf	___flsub@a^(0+128),w
  5217     15BD  1283               	bcf	3,5	;RP0=0, select bank0
  5218     15BE  1303               	bcf	3,6	;RP1=0, select bank0
  5219     15BF  00C9               	movwf	___fladd@a
  5220     15C0  120A  158A  25A8  160A  118A  	fcall	___fladd
  5221     15C5  1283               	bcf	3,5	;RP0=0, select bank0
  5222     15C6  1303               	bcf	3,6	;RP1=0, select bank0
  5223     15C7  0848               	movf	?___fladd+3,w
  5224     15C8  1683               	bsf	3,5	;RP0=1, select bank1
  5225     15C9  1303               	bcf	3,6	;RP1=0, select bank1
  5226     15CA  00AB               	movwf	(?___flsub+3)^(0+128)
  5227     15CB  1283               	bcf	3,5	;RP0=0, select bank0
  5228     15CC  1303               	bcf	3,6	;RP1=0, select bank0
  5229     15CD  0847               	movf	?___fladd+2,w
  5230     15CE  1683               	bsf	3,5	;RP0=1, select bank1
  5231     15CF  1303               	bcf	3,6	;RP1=0, select bank1
  5232     15D0  00AA               	movwf	(?___flsub+2)^(0+128)
  5233     15D1  1283               	bcf	3,5	;RP0=0, select bank0
  5234     15D2  1303               	bcf	3,6	;RP1=0, select bank0
  5235     15D3  0846               	movf	?___fladd+1,w
  5236     15D4  1683               	bsf	3,5	;RP0=1, select bank1
  5237     15D5  1303               	bcf	3,6	;RP1=0, select bank1
  5238     15D6  00A9               	movwf	(?___flsub+1)^(0+128)
  5239     15D7  1283               	bcf	3,5	;RP0=0, select bank0
  5240     15D8  1303               	bcf	3,6	;RP1=0, select bank0
  5241     15D9  0845               	movf	?___fladd,w
  5242     15DA  1683               	bsf	3,5	;RP0=1, select bank1
  5243     15DB  1303               	bcf	3,6	;RP1=0, select bank1
  5244     15DC  00A8               	movwf	?___flsub^(0+128)
  5245     15DD                     l591:
  5246     15DD  0008               	return
  5247     15DE                     __end_of___flsub:
  5248                           
  5249                           	psect	text23
  5250     0DA8                     __ptext23:	
  5251 ;; *************** function ___fladd *****************
  5252 ;; Defined at:
  5253 ;;		line 10 in file "C:\Program Files\Microchip\xc8\v2.41\pic\sources\c90\common\sprcadd.c"
  5254 ;; Parameters:    Size  Location     Type
  5255 ;;  b               4   37[BANK0 ] long 
  5256 ;;  a               4   41[BANK0 ] long 
  5257 ;; Auto vars:     Size  Location     Type
  5258 ;;  grs             1   56[BANK0 ] unsigned char 
  5259 ;;  bexp            1   55[BANK0 ] unsigned char 
  5260 ;;  aexp            1   54[BANK0 ] unsigned char 
  5261 ;;  signs           1   53[BANK0 ] unsigned char 
  5262 ;; Return value:  Size  Location     Type
  5263 ;;                  4   37[BANK0 ] unsigned char 
  5264 ;; Registers used:
  5265 ;;		wreg, status,2, status,0, btemp+1
  5266 ;; Tracked objects:
  5267 ;;		On entry : 0/0
  5268 ;;		On exit  : 0/0
  5269 ;;		Unchanged: 0/0
  5270 ;; Data sizes:     COMMON   BANK0   BANK1   BANK3   BANK2
  5271 ;;      Params:         0       8       0       0       0
  5272 ;;      Locals:         0       4       0       0       0
  5273 ;;      Temps:          0       8       0       0       0
  5274 ;;      Totals:         0      20       0       0       0
  5275 ;;Total ram usage:       20 bytes
  5276 ;; Hardware stack levels used: 1
  5277 ;; Hardware stack levels required when called: 1
  5278 ;; This function calls:
  5279 ;;		Nothing
  5280 ;; This function is called by:
  5281 ;;		_converteVoltsParaLux
  5282 ;;		___flsub
  5283 ;;		_log
  5284 ;;		_eval_poly
  5285 ;; This function uses a non-reentrant model
  5286 ;;
  5287                           
  5288     0DA8                     ___fladd:	
  5289                           ;psect for function ___fladd
  5290                           
  5291     0DA8                     l1892:	
  5292                           ;incstack = 0
  5293                           ; Regs used in ___fladd: [wreg+status,2+status,0+btemp+1]
  5294                           
  5295     0DA8  1283               	bcf	3,5	;RP0=0, select bank0
  5296     0DA9  1303               	bcf	3,6	;RP1=0, select bank0
  5297     0DAA  0848               	movf	___fladd@b+3,w
  5298     0DAB  3980               	andlw	128
  5299     0DAC  00D5               	movwf	___fladd@signs
  5300     0DAD                     l1894:
  5301     0DAD  0848               	movf	___fladd@b+3,w
  5302     0DAE  00CD               	movwf	??___fladd
  5303     0DAF  074D               	addwf	??___fladd,w
  5304     0DB0  00D7               	movwf	___fladd@bexp
  5305     0DB1                     l1896:
  5306     0DB1  1FC7               	btfss	___fladd@b+2,7
  5307     0DB2  2DB4               	goto	u2131
  5308     0DB3  2DB5               	goto	u2130
  5309     0DB4                     u2131:
  5310     0DB4  2DB6               	goto	l1900
  5311     0DB5                     u2130:
  5312     0DB5                     l1898:
  5313     0DB5  1457               	bsf	___fladd@bexp,0
  5314     0DB6                     l1900:
  5315     0DB6  0857               	movf	___fladd@bexp,w
  5316     0DB7  1903               	btfsc	3,2
  5317     0DB8  2DBA               	goto	u2141
  5318     0DB9  2DBB               	goto	u2140
  5319     0DBA                     u2141:
  5320     0DBA  2DCB               	goto	l1910
  5321     0DBB                     u2140:
  5322     0DBB                     l1902:
  5323     0DBB  0A57               	incf	___fladd@bexp,w
  5324     0DBC  1D03               	btfss	3,2
  5325     0DBD  2DBF               	goto	u2151
  5326     0DBE  2DC0               	goto	u2150
  5327     0DBF                     u2151:
  5328     0DBF  2DC8               	goto	l1906
  5329     0DC0                     u2150:
  5330     0DC0                     l1904:
  5331     0DC0  3000               	movlw	0
  5332     0DC1  00C8               	movwf	___fladd@b+3
  5333     0DC2  3000               	movlw	0
  5334     0DC3  00C7               	movwf	___fladd@b+2
  5335     0DC4  3000               	movlw	0
  5336     0DC5  00C6               	movwf	___fladd@b+1
  5337     0DC6  3000               	movlw	0
  5338     0DC7  00C5               	movwf	___fladd@b
  5339     0DC8                     l1906:
  5340     0DC8  17C7               	bsf	___fladd@b+2,7
  5341     0DC9                     l1908:
  5342     0DC9  01C8               	clrf	___fladd@b+3
  5343     0DCA  2DD3               	goto	l1912
  5344     0DCB                     l1910:
  5345     0DCB  3000               	movlw	0
  5346     0DCC  00C8               	movwf	___fladd@b+3
  5347     0DCD  3000               	movlw	0
  5348     0DCE  00C7               	movwf	___fladd@b+2
  5349     0DCF  3000               	movlw	0
  5350     0DD0  00C6               	movwf	___fladd@b+1
  5351     0DD1  3000               	movlw	0
  5352     0DD2  00C5               	movwf	___fladd@b
  5353     0DD3                     l1912:
  5354     0DD3  084C               	movf	___fladd@a+3,w
  5355     0DD4  3980               	andlw	128
  5356     0DD5  00D6               	movwf	___fladd@aexp
  5357     0DD6                     l1914:
  5358     0DD6  0856               	movf	___fladd@aexp,w
  5359     0DD7  0655               	xorwf	___fladd@signs,w
  5360     0DD8  1903               	skipnz
  5361     0DD9  2DDB               	goto	u2161
  5362     0DDA  2DDC               	goto	u2160
  5363     0DDB                     u2161:
  5364     0DDB  2DDD               	goto	l1918
  5365     0DDC                     u2160:
  5366     0DDC                     l1916:
  5367     0DDC  1755               	bsf	___fladd@signs,6
  5368     0DDD                     l1918:
  5369     0DDD  084C               	movf	___fladd@a+3,w
  5370     0DDE  00CD               	movwf	??___fladd
  5371     0DDF  074D               	addwf	??___fladd,w
  5372     0DE0  00D6               	movwf	___fladd@aexp
  5373     0DE1                     l1920:
  5374     0DE1  1FCB               	btfss	___fladd@a+2,7
  5375     0DE2  2DE4               	goto	u2171
  5376     0DE3  2DE5               	goto	u2170
  5377     0DE4                     u2171:
  5378     0DE4  2DE6               	goto	l1924
  5379     0DE5                     u2170:
  5380     0DE5                     l1922:
  5381     0DE5  1456               	bsf	___fladd@aexp,0
  5382     0DE6                     l1924:
  5383     0DE6  0856               	movf	___fladd@aexp,w
  5384     0DE7  1903               	btfsc	3,2
  5385     0DE8  2DEA               	goto	u2181
  5386     0DE9  2DEB               	goto	u2180
  5387     0DEA                     u2181:
  5388     0DEA  2DFB               	goto	l1934
  5389     0DEB                     u2180:
  5390     0DEB                     l1926:
  5391     0DEB  0A56               	incf	___fladd@aexp,w
  5392     0DEC  1D03               	btfss	3,2
  5393     0DED  2DEF               	goto	u2191
  5394     0DEE  2DF0               	goto	u2190
  5395     0DEF                     u2191:
  5396     0DEF  2DF8               	goto	l1930
  5397     0DF0                     u2190:
  5398     0DF0                     l1928:
  5399     0DF0  3000               	movlw	0
  5400     0DF1  00CC               	movwf	___fladd@a+3
  5401     0DF2  3000               	movlw	0
  5402     0DF3  00CB               	movwf	___fladd@a+2
  5403     0DF4  3000               	movlw	0
  5404     0DF5  00CA               	movwf	___fladd@a+1
  5405     0DF6  3000               	movlw	0
  5406     0DF7  00C9               	movwf	___fladd@a
  5407     0DF8                     l1930:
  5408     0DF8  17CB               	bsf	___fladd@a+2,7
  5409     0DF9                     l1932:
  5410     0DF9  01CC               	clrf	___fladd@a+3
  5411     0DFA  2E03               	goto	l545
  5412     0DFB                     l1934:
  5413     0DFB  3000               	movlw	0
  5414     0DFC  00CC               	movwf	___fladd@a+3
  5415     0DFD  3000               	movlw	0
  5416     0DFE  00CB               	movwf	___fladd@a+2
  5417     0DFF  3000               	movlw	0
  5418     0E00  00CA               	movwf	___fladd@a+1
  5419     0E01  3000               	movlw	0
  5420     0E02  00C9               	movwf	___fladd@a
  5421     0E03                     l545:
  5422     0E03  0857               	movf	___fladd@bexp,w
  5423     0E04  0256               	subwf	___fladd@aexp,w
  5424     0E05  1803               	skipnc
  5425     0E06  2E08               	goto	u2201
  5426     0E07  2E09               	goto	u2200
  5427     0E08                     u2201:
  5428     0E08  2E2F               	goto	l1970
  5429     0E09                     u2200:
  5430     0E09                     l1936:
  5431     0E09  1F55               	btfss	___fladd@signs,6
  5432     0E0A  2E0C               	goto	u2211
  5433     0E0B  2E0D               	goto	u2210
  5434     0E0C                     u2211:
  5435     0E0C  2E11               	goto	l1940
  5436     0E0D                     u2210:
  5437     0E0D                     l1938:
  5438     0E0D  3080               	movlw	128
  5439     0E0E  00FF               	movwf	btemp+1
  5440     0E0F  087F               	movf	btemp+1,w
  5441     0E10  06D5               	xorwf	___fladd@signs,f
  5442     0E11                     l1940:
  5443     0E11  0857               	movf	___fladd@bexp,w
  5444     0E12  00D8               	movwf	___fladd@grs
  5445     0E13                     l1942:
  5446     0E13  0856               	movf	___fladd@aexp,w
  5447     0E14  00D7               	movwf	___fladd@bexp
  5448     0E15                     l1944:
  5449     0E15  0858               	movf	___fladd@grs,w
  5450     0E16  00D6               	movwf	___fladd@aexp
  5451     0E17                     l1946:
  5452     0E17  0845               	movf	___fladd@b,w
  5453     0E18  00D8               	movwf	___fladd@grs
  5454     0E19                     l1948:
  5455     0E19  0849               	movf	___fladd@a,w
  5456     0E1A  00C5               	movwf	___fladd@b
  5457     0E1B                     l1950:
  5458     0E1B  0858               	movf	___fladd@grs,w
  5459     0E1C  00C9               	movwf	___fladd@a
  5460     0E1D                     l1952:
  5461     0E1D  0846               	movf	___fladd@b+1,w
  5462     0E1E  00D8               	movwf	___fladd@grs
  5463     0E1F                     l1954:
  5464     0E1F  084A               	movf	___fladd@a+1,w
  5465     0E20  00C6               	movwf	___fladd@b+1
  5466     0E21                     l1956:
  5467     0E21  0858               	movf	___fladd@grs,w
  5468     0E22  00CA               	movwf	___fladd@a+1
  5469     0E23                     l1958:
  5470     0E23  0847               	movf	___fladd@b+2,w
  5471     0E24  00D8               	movwf	___fladd@grs
  5472     0E25                     l1960:
  5473     0E25  084B               	movf	___fladd@a+2,w
  5474     0E26  00C7               	movwf	___fladd@b+2
  5475     0E27                     l1962:
  5476     0E27  0858               	movf	___fladd@grs,w
  5477     0E28  00CB               	movwf	___fladd@a+2
  5478     0E29                     l1964:
  5479     0E29  0848               	movf	___fladd@b+3,w
  5480     0E2A  00D8               	movwf	___fladd@grs
  5481     0E2B                     l1966:
  5482     0E2B  084C               	movf	___fladd@a+3,w
  5483     0E2C  00C8               	movwf	___fladd@b+3
  5484     0E2D                     l1968:
  5485     0E2D  0858               	movf	___fladd@grs,w
  5486     0E2E  00CC               	movwf	___fladd@a+3
  5487     0E2F                     l1970:
  5488     0E2F  01D8               	clrf	___fladd@grs
  5489     0E30                     l1972:
  5490     0E30  0856               	movf	___fladd@aexp,w
  5491     0E31  00CD               	movwf	??___fladd
  5492     0E32  01CE               	clrf	??___fladd+1
  5493     0E33  084E               	movf	??___fladd+1,w
  5494     0E34  00D0               	movwf	??___fladd+3
  5495     0E35  0857               	movf	___fladd@bexp,w
  5496     0E36  024D               	subwf	??___fladd,w
  5497     0E37  00CF               	movwf	??___fladd+2
  5498     0E38  1C03               	skipc
  5499     0E39  03D0               	decf	??___fladd+3,f
  5500     0E3A  0850               	movf	??___fladd+3,w
  5501     0E3B  3A80               	xorlw	128
  5502     0E3C  00FF               	movwf	btemp+1
  5503     0E3D  3080               	movlw	128
  5504     0E3E  027F               	subwf	btemp+1,w
  5505     0E3F  1D03               	skipz
  5506     0E40  2E43               	goto	u2225
  5507     0E41  301A               	movlw	26
  5508     0E42  024F               	subwf	??___fladd+2,w
  5509     0E43                     u2225:
  5510     0E43  1C03               	skipc
  5511     0E44  2E46               	goto	u2221
  5512     0E45  2E47               	goto	u2220
  5513     0E46                     u2221:
  5514     0E46  2E7E               	goto	l1988
  5515     0E47                     u2220:
  5516     0E47                     l1974:
  5517     0E47  1283               	bcf	3,5	;RP0=0, select bank0
  5518     0E48  1303               	bcf	3,6	;RP1=0, select bank0
  5519     0E49  0848               	movf	___fladd@b+3,w
  5520     0E4A  0447               	iorwf	___fladd@b+2,w
  5521     0E4B  0446               	iorwf	___fladd@b+1,w
  5522     0E4C  0445               	iorwf	___fladd@b,w
  5523     0E4D  1D03               	skipz
  5524     0E4E  2E50               	goto	u2231
  5525     0E4F  2E52               	goto	u2230
  5526     0E50                     u2231:
  5527     0E50  3001               	movlw	1
  5528     0E51  2E53               	goto	u2240
  5529     0E52                     u2230:
  5530     0E52  3000               	movlw	0
  5531     0E53                     u2240:
  5532     0E53  00D8               	movwf	___fladd@grs
  5533     0E54  3000               	movlw	0
  5534     0E55  00C8               	movwf	___fladd@b+3
  5535     0E56  3000               	movlw	0
  5536     0E57  00C7               	movwf	___fladd@b+2
  5537     0E58  3000               	movlw	0
  5538     0E59  00C6               	movwf	___fladd@b+1
  5539     0E5A  3000               	movlw	0
  5540     0E5B  00C5               	movwf	___fladd@b
  5541     0E5C  0856               	movf	___fladd@aexp,w
  5542     0E5D  00D7               	movwf	___fladd@bexp
  5543     0E5E  2E86               	goto	l549
  5544     0E5F                     l551:
  5545     0E5F  1C58               	btfss	___fladd@grs,0
  5546     0E60  2E62               	goto	u2251
  5547     0E61  2E63               	goto	u2250
  5548     0E62                     u2251:
  5549     0E62  2E6A               	goto	l1978
  5550     0E63                     u2250:
  5551     0E63                     l1976:
  5552     0E63  0858               	movf	___fladd@grs,w
  5553     0E64  00CD               	movwf	??___fladd
  5554     0E65  1003               	clrc
  5555     0E66  0C4D               	rrf	??___fladd,w
  5556     0E67  3801               	iorlw	1
  5557     0E68  00D8               	movwf	___fladd@grs
  5558     0E69  2E6C               	goto	l1980
  5559     0E6A                     l1978:
  5560     0E6A  1003               	clrc
  5561     0E6B  0CD8               	rrf	___fladd@grs,f
  5562     0E6C                     l1980:
  5563     0E6C  1C45               	btfss	___fladd@b,0
  5564     0E6D  2E6F               	goto	u2261
  5565     0E6E  2E70               	goto	u2260
  5566     0E6F                     u2261:
  5567     0E6F  2E71               	goto	l1984
  5568     0E70                     u2260:
  5569     0E70                     l1982:
  5570     0E70  17D8               	bsf	___fladd@grs,7
  5571     0E71                     l1984:
  5572     0E71  3001               	movlw	1
  5573     0E72  00CD               	movwf	??___fladd
  5574     0E73                     u2275:
  5575     0E73  0D48               	rlf	___fladd@b+3,w
  5576     0E74  0CC8               	rrf	___fladd@b+3,f
  5577     0E75  0CC7               	rrf	___fladd@b+2,f
  5578     0E76  0CC6               	rrf	___fladd@b+1,f
  5579     0E77  0CC5               	rrf	___fladd@b,f
  5580     0E78  0BCD               	decfsz	??___fladd& (0+127),f
  5581     0E79  2E73               	goto	u2275
  5582     0E7A                     l1986:
  5583     0E7A  3001               	movlw	1
  5584     0E7B  00FF               	movwf	btemp+1
  5585     0E7C  087F               	movf	btemp+1,w
  5586     0E7D  07D7               	addwf	___fladd@bexp,f
  5587     0E7E                     l1988:
  5588     0E7E  1283               	bcf	3,5	;RP0=0, select bank0
  5589     0E7F  1303               	bcf	3,6	;RP1=0, select bank0
  5590     0E80  0856               	movf	___fladd@aexp,w
  5591     0E81  0257               	subwf	___fladd@bexp,w
  5592     0E82  1C03               	skipc
  5593     0E83  2E85               	goto	u2281
  5594     0E84  2E86               	goto	u2280
  5595     0E85                     u2281:
  5596     0E85  2E5F               	goto	l551
  5597     0E86                     u2280:
  5598     0E86                     l549:
  5599     0E86  1B55               	btfsc	___fladd@signs,6
  5600     0E87  2E89               	goto	u2291
  5601     0E88  2E8A               	goto	u2290
  5602     0E89                     u2291:
  5603     0E89  2ED3               	goto	l2014
  5604     0E8A                     u2290:
  5605     0E8A                     l1990:
  5606     0E8A  0857               	movf	___fladd@bexp,w
  5607     0E8B  1D03               	btfss	3,2
  5608     0E8C  2E8E               	goto	u2301
  5609     0E8D  2E8F               	goto	u2300
  5610     0E8E                     u2301:
  5611     0E8E  2E98               	goto	l1996
  5612     0E8F                     u2300:
  5613     0E8F                     l1992:
  5614     0E8F  3000               	movlw	0
  5615     0E90  00C8               	movwf	?___fladd+3
  5616     0E91  3000               	movlw	0
  5617     0E92  00C7               	movwf	?___fladd+2
  5618     0E93  3000               	movlw	0
  5619     0E94  00C6               	movwf	?___fladd+1
  5620     0E95  3000               	movlw	0
  5621     0E96  00C5               	movwf	?___fladd
  5622     0E97  2FFF               	goto	l558
  5623     0E98                     l1996:
  5624     0E98  0849               	movf	___fladd@a,w
  5625     0E99  07C5               	addwf	___fladd@b,f
  5626     0E9A  084A               	movf	___fladd@a+1,w
  5627     0E9B  1103               	clrz
  5628     0E9C  1803               	skipnc
  5629     0E9D  3E01               	addlw	1
  5630     0E9E  1903               	skipnz
  5631     0E9F  2EA1               	goto	u2311
  5632     0EA0  07C6               	addwf	___fladd@b+1,f
  5633     0EA1                     u2311:
  5634     0EA1  084B               	movf	___fladd@a+2,w
  5635     0EA2  1103               	clrz
  5636     0EA3  1803               	skipnc
  5637     0EA4  3E01               	addlw	1
  5638     0EA5  1903               	skipnz
  5639     0EA6  2EA8               	goto	u2312
  5640     0EA7  07C7               	addwf	___fladd@b+2,f
  5641     0EA8                     u2312:
  5642     0EA8  084C               	movf	___fladd@a+3,w
  5643     0EA9  1103               	clrz
  5644     0EAA  1803               	skipnc
  5645     0EAB  3E01               	addlw	1
  5646     0EAC  1903               	skipnz
  5647     0EAD  2EAF               	goto	u2313
  5648     0EAE  07C8               	addwf	___fladd@b+3,f
  5649     0EAF                     u2313:
  5650     0EAF                     l1998:
  5651     0EAF  1C48               	btfss	___fladd@b+3,0
  5652     0EB0  2EB2               	goto	u2321
  5653     0EB1  2EB3               	goto	u2320
  5654     0EB2                     u2321:
  5655     0EB2  2F87               	goto	l2050
  5656     0EB3                     u2320:
  5657     0EB3                     l2000:
  5658     0EB3  1C58               	btfss	___fladd@grs,0
  5659     0EB4  2EB6               	goto	u2331
  5660     0EB5  2EB7               	goto	u2330
  5661     0EB6                     u2331:
  5662     0EB6  2EBE               	goto	l2004
  5663     0EB7                     u2330:
  5664     0EB7                     l2002:
  5665     0EB7  0858               	movf	___fladd@grs,w
  5666     0EB8  00CD               	movwf	??___fladd
  5667     0EB9  1003               	clrc
  5668     0EBA  0C4D               	rrf	??___fladd,w
  5669     0EBB  3801               	iorlw	1
  5670     0EBC  00D8               	movwf	___fladd@grs
  5671     0EBD  2EC0               	goto	l2006
  5672     0EBE                     l2004:
  5673     0EBE  1003               	clrc
  5674     0EBF  0CD8               	rrf	___fladd@grs,f
  5675     0EC0                     l2006:
  5676     0EC0  1C45               	btfss	___fladd@b,0
  5677     0EC1  2EC3               	goto	u2341
  5678     0EC2  2EC4               	goto	u2340
  5679     0EC3                     u2341:
  5680     0EC3  2EC5               	goto	l2010
  5681     0EC4                     u2340:
  5682     0EC4                     l2008:
  5683     0EC4  17D8               	bsf	___fladd@grs,7
  5684     0EC5                     l2010:
  5685     0EC5  3001               	movlw	1
  5686     0EC6  00CD               	movwf	??___fladd
  5687     0EC7                     u2355:
  5688     0EC7  0D48               	rlf	___fladd@b+3,w
  5689     0EC8  0CC8               	rrf	___fladd@b+3,f
  5690     0EC9  0CC7               	rrf	___fladd@b+2,f
  5691     0ECA  0CC6               	rrf	___fladd@b+1,f
  5692     0ECB  0CC5               	rrf	___fladd@b,f
  5693     0ECC  0BCD               	decfsz	??___fladd& (0+127),f
  5694     0ECD  2EC7               	goto	u2355
  5695     0ECE                     l2012:
  5696     0ECE  3001               	movlw	1
  5697     0ECF  00FF               	movwf	btemp+1
  5698     0ED0  087F               	movf	btemp+1,w
  5699     0ED1  07D7               	addwf	___fladd@bexp,f
  5700     0ED2  2F87               	goto	l2050
  5701     0ED3                     l2014:
  5702     0ED3  0848               	movf	___fladd@b+3,w
  5703     0ED4  3A80               	xorlw	128
  5704     0ED5  00FF               	movwf	btemp+1
  5705     0ED6  084C               	movf	___fladd@a+3,w
  5706     0ED7  3A80               	xorlw	128
  5707     0ED8  027F               	subwf	btemp+1,w
  5708     0ED9  1D03               	skipz
  5709     0EDA  2EE5               	goto	u2363
  5710     0EDB  084B               	movf	___fladd@a+2,w
  5711     0EDC  0247               	subwf	___fladd@b+2,w
  5712     0EDD  1D03               	skipz
  5713     0EDE  2EE5               	goto	u2363
  5714     0EDF  084A               	movf	___fladd@a+1,w
  5715     0EE0  0246               	subwf	___fladd@b+1,w
  5716     0EE1  1D03               	skipz
  5717     0EE2  2EE5               	goto	u2363
  5718     0EE3  0849               	movf	___fladd@a,w
  5719     0EE4  0245               	subwf	___fladd@b,w
  5720     0EE5                     u2363:
  5721     0EE5  1803               	skipnc
  5722     0EE6  2EE8               	goto	u2361
  5723     0EE7  2EE9               	goto	u2360
  5724     0EE8                     u2361:
  5725     0EE8  2F41               	goto	l2026
  5726     0EE9                     u2360:
  5727     0EE9                     l2016:
  5728     0EE9  30FF               	movlw	255
  5729     0EEA  00CD               	movwf	??___fladd
  5730     0EEB  30FF               	movlw	255
  5731     0EEC  00CE               	movwf	??___fladd+1
  5732     0EED  30FF               	movlw	255
  5733     0EEE  00CF               	movwf	??___fladd+2
  5734     0EEF  30FF               	movlw	255
  5735     0EF0  00D0               	movwf	??___fladd+3
  5736     0EF1  0849               	movf	___fladd@a,w
  5737     0EF2  00D1               	movwf	??___fladd+4
  5738     0EF3  084A               	movf	___fladd@a+1,w
  5739     0EF4  00D2               	movwf	??___fladd+5
  5740     0EF5  084B               	movf	___fladd@a+2,w
  5741     0EF6  00D3               	movwf	??___fladd+6
  5742     0EF7  084C               	movf	___fladd@a+3,w
  5743     0EF8  00D4               	movwf	??___fladd+7
  5744     0EF9  0845               	movf	___fladd@b,w
  5745     0EFA  02D1               	subwf	??___fladd+4,f
  5746     0EFB  0846               	movf	___fladd@b+1,w
  5747     0EFC  1C03               	skipc
  5748     0EFD  0F46               	incfsz	___fladd@b+1,w
  5749     0EFE  2F00               	goto	u2371
  5750     0EFF  2F01               	goto	u2372
  5751     0F00                     u2371:
  5752     0F00  02D2               	subwf	??___fladd+5,f
  5753     0F01                     u2372:
  5754     0F01  0847               	movf	___fladd@b+2,w
  5755     0F02  1C03               	skipc
  5756     0F03  0F47               	incfsz	___fladd@b+2,w
  5757     0F04  2F06               	goto	u2373
  5758     0F05  2F07               	goto	u2374
  5759     0F06                     u2373:
  5760     0F06  02D3               	subwf	??___fladd+6,f
  5761     0F07                     u2374:
  5762     0F07  0848               	movf	___fladd@b+3,w
  5763     0F08  1C03               	skipc
  5764     0F09  0F48               	incfsz	___fladd@b+3,w
  5765     0F0A  2F0C               	goto	u2375
  5766     0F0B  2F0D               	goto	u2376
  5767     0F0C                     u2375:
  5768     0F0C  02D4               	subwf	??___fladd+7,f
  5769     0F0D                     u2376:
  5770     0F0D  0851               	movf	??___fladd+4,w
  5771     0F0E  07CD               	addwf	??___fladd,f
  5772     0F0F  0852               	movf	??___fladd+5,w
  5773     0F10  1803               	skipnc
  5774     0F11  0F52               	incfsz	??___fladd+5,w
  5775     0F12  2F14               	goto	u2380
  5776     0F13  2F15               	goto	u2381
  5777     0F14                     u2380:
  5778     0F14  07CE               	addwf	??___fladd+1,f
  5779     0F15                     u2381:
  5780     0F15  0853               	movf	??___fladd+6,w
  5781     0F16  1803               	skipnc
  5782     0F17  0F53               	incfsz	??___fladd+6,w
  5783     0F18  2F1A               	goto	u2382
  5784     0F19  2F1B               	goto	u2383
  5785     0F1A                     u2382:
  5786     0F1A  07CF               	addwf	??___fladd+2,f
  5787     0F1B                     u2383:
  5788     0F1B  0854               	movf	??___fladd+7,w
  5789     0F1C  1803               	skipnc
  5790     0F1D  0A54               	incf	??___fladd+7,w
  5791     0F1E  07D0               	addwf	??___fladd+3,f
  5792     0F1F  0850               	movf	??___fladd+3,w
  5793     0F20  00C8               	movwf	___fladd@b+3
  5794     0F21  084F               	movf	??___fladd+2,w
  5795     0F22  00C7               	movwf	___fladd@b+2
  5796     0F23  084E               	movf	??___fladd+1,w
  5797     0F24  00C6               	movwf	___fladd@b+1
  5798     0F25  084D               	movf	??___fladd,w
  5799     0F26  00C5               	movwf	___fladd@b
  5800     0F27                     l2018:
  5801     0F27  3080               	movlw	128
  5802     0F28  00FF               	movwf	btemp+1
  5803     0F29  087F               	movf	btemp+1,w
  5804     0F2A  06D5               	xorwf	___fladd@signs,f
  5805     0F2B                     l2020:
  5806     0F2B  09D8               	comf	___fladd@grs,f
  5807     0F2C  0AD8               	incf	___fladd@grs,f
  5808     0F2D                     l2022:
  5809     0F2D  0858               	movf	___fladd@grs,w
  5810     0F2E  1D03               	btfss	3,2
  5811     0F2F  2F31               	goto	u2391
  5812     0F30  2F32               	goto	u2390
  5813     0F31                     u2391:
  5814     0F31  2F4F               	goto	l566
  5815     0F32                     u2390:
  5816     0F32                     l2024:
  5817     0F32  3001               	movlw	1
  5818     0F33  07C5               	addwf	___fladd@b,f
  5819     0F34  3000               	movlw	0
  5820     0F35  1803               	skipnc
  5821     0F36  3001               	movlw	1
  5822     0F37  07C6               	addwf	___fladd@b+1,f
  5823     0F38  3000               	movlw	0
  5824     0F39  1803               	skipnc
  5825     0F3A  3001               	movlw	1
  5826     0F3B  07C7               	addwf	___fladd@b+2,f
  5827     0F3C  3000               	movlw	0
  5828     0F3D  1803               	skipnc
  5829     0F3E  3001               	movlw	1
  5830     0F3F  07C8               	addwf	___fladd@b+3,f
  5831     0F40  2F4F               	goto	l566
  5832     0F41                     l2026:
  5833     0F41  0849               	movf	___fladd@a,w
  5834     0F42  02C5               	subwf	___fladd@b,f
  5835     0F43  084A               	movf	___fladd@a+1,w
  5836     0F44  1C03               	skipc
  5837     0F45  0F4A               	incfsz	___fladd@a+1,w
  5838     0F46  02C6               	subwf	___fladd@b+1,f
  5839     0F47  084B               	movf	___fladd@a+2,w
  5840     0F48  1C03               	skipc
  5841     0F49  0F4B               	incfsz	___fladd@a+2,w
  5842     0F4A  02C7               	subwf	___fladd@b+2,f
  5843     0F4B  084C               	movf	___fladd@a+3,w
  5844     0F4C  1C03               	skipc
  5845     0F4D  0F4C               	incfsz	___fladd@a+3,w
  5846     0F4E  02C8               	subwf	___fladd@b+3,f
  5847     0F4F                     l566:
  5848     0F4F  0848               	movf	___fladd@b+3,w
  5849     0F50  0447               	iorwf	___fladd@b+2,w
  5850     0F51  0446               	iorwf	___fladd@b+1,w
  5851     0F52  0445               	iorwf	___fladd@b,w
  5852     0F53  1D03               	skipz
  5853     0F54  2F56               	goto	u2401
  5854     0F55  2F57               	goto	u2400
  5855     0F56                     u2401:
  5856     0F56  2F83               	goto	l2048
  5857     0F57                     u2400:
  5858     0F57                     l2028:
  5859     0F57  0858               	movf	___fladd@grs,w
  5860     0F58  1D03               	btfss	3,2
  5861     0F59  2F5B               	goto	u2411
  5862     0F5A  2F5C               	goto	u2410
  5863     0F5B                     u2411:
  5864     0F5B  2F83               	goto	l2048
  5865     0F5C                     u2410:
  5866     0F5C                     l2030:
  5867     0F5C  3000               	movlw	0
  5868     0F5D  00C8               	movwf	?___fladd+3
  5869     0F5E  3000               	movlw	0
  5870     0F5F  00C7               	movwf	?___fladd+2
  5871     0F60  3000               	movlw	0
  5872     0F61  00C6               	movwf	?___fladd+1
  5873     0F62  3000               	movlw	0
  5874     0F63  00C5               	movwf	?___fladd
  5875     0F64  2FFF               	goto	l558
  5876     0F65                     l2034:
  5877     0F65  3001               	movlw	1
  5878     0F66  00CD               	movwf	??___fladd
  5879     0F67                     u2425:
  5880     0F67  1003               	clrc
  5881     0F68  0DC5               	rlf	___fladd@b,f
  5882     0F69  0DC6               	rlf	___fladd@b+1,f
  5883     0F6A  0DC7               	rlf	___fladd@b+2,f
  5884     0F6B  0DC8               	rlf	___fladd@b+3,f
  5885     0F6C  0BCD               	decfsz	??___fladd,f
  5886     0F6D  2F67               	goto	u2425
  5887     0F6E                     l2036:
  5888     0F6E  1FD8               	btfss	___fladd@grs,7
  5889     0F6F  2F71               	goto	u2431
  5890     0F70  2F72               	goto	u2430
  5891     0F71                     u2431:
  5892     0F71  2F73               	goto	l570
  5893     0F72                     u2430:
  5894     0F72                     l2038:
  5895     0F72  1445               	bsf	___fladd@b,0
  5896     0F73                     l570:
  5897     0F73  1C58               	btfss	___fladd@grs,0
  5898     0F74  2F76               	goto	u2441
  5899     0F75  2F77               	goto	u2440
  5900     0F76                     u2441:
  5901     0F76  2F7A               	goto	l2042
  5902     0F77                     u2440:
  5903     0F77                     l2040:
  5904     0F77  1403               	setc
  5905     0F78  0DD8               	rlf	___fladd@grs,f
  5906     0F79  2F7C               	goto	l2044
  5907     0F7A                     l2042:
  5908     0F7A  1003               	clrc
  5909     0F7B  0DD8               	rlf	___fladd@grs,f
  5910     0F7C                     l2044:
  5911     0F7C  0857               	movf	___fladd@bexp,w
  5912     0F7D  1903               	btfsc	3,2
  5913     0F7E  2F80               	goto	u2451
  5914     0F7F  2F81               	goto	u2450
  5915     0F80                     u2451:
  5916     0F80  2F83               	goto	l2048
  5917     0F81                     u2450:
  5918     0F81                     l2046:
  5919     0F81  3001               	movlw	1
  5920     0F82  02D7               	subwf	___fladd@bexp,f
  5921     0F83                     l2048:
  5922     0F83  1FC7               	btfss	___fladd@b+2,7
  5923     0F84  2F86               	goto	u2461
  5924     0F85  2F87               	goto	u2460
  5925     0F86                     u2461:
  5926     0F86  2F65               	goto	l2034
  5927     0F87                     u2460:
  5928     0F87                     l2050:
  5929     0F87  01D6               	clrf	___fladd@aexp
  5930     0F88                     l2052:
  5931     0F88  1FD8               	btfss	___fladd@grs,7
  5932     0F89  2F8B               	goto	u2471
  5933     0F8A  2F8C               	goto	u2470
  5934     0F8B                     u2471:
  5935     0F8B  2F9A               	goto	l2060
  5936     0F8C                     u2470:
  5937     0F8C                     l2054:
  5938     0F8C  0858               	movf	___fladd@grs,w
  5939     0F8D  397F               	andlw	127
  5940     0F8E  1903               	btfsc	3,2
  5941     0F8F  2F91               	goto	u2481
  5942     0F90  2F92               	goto	u2480
  5943     0F91                     u2481:
  5944     0F91  2F95               	goto	l576
  5945     0F92                     u2480:
  5946     0F92                     l2056:
  5947     0F92  01D6               	clrf	___fladd@aexp
  5948     0F93  0AD6               	incf	___fladd@aexp,f
  5949     0F94  2F9A               	goto	l2060
  5950     0F95                     l576:
  5951     0F95  1C45               	btfss	___fladd@b,0
  5952     0F96  2F98               	goto	u2491
  5953     0F97  2F99               	goto	u2490
  5954     0F98                     u2491:
  5955     0F98  2F9A               	goto	l2060
  5956     0F99                     u2490:
  5957     0F99  2F92               	goto	l2056
  5958     0F9A                     l2060:
  5959     0F9A  0856               	movf	___fladd@aexp,w
  5960     0F9B  1903               	btfsc	3,2
  5961     0F9C  2F9E               	goto	u2501
  5962     0F9D  2F9F               	goto	u2500
  5963     0F9E                     u2501:
  5964     0F9E  2FD3               	goto	l2070
  5965     0F9F                     u2500:
  5966     0F9F                     l2062:
  5967     0F9F  3001               	movlw	1
  5968     0FA0  07C5               	addwf	___fladd@b,f
  5969     0FA1  3000               	movlw	0
  5970     0FA2  1803               	skipnc
  5971     0FA3  3001               	movlw	1
  5972     0FA4  07C6               	addwf	___fladd@b+1,f
  5973     0FA5  3000               	movlw	0
  5974     0FA6  1803               	skipnc
  5975     0FA7  3001               	movlw	1
  5976     0FA8  07C7               	addwf	___fladd@b+2,f
  5977     0FA9  3000               	movlw	0
  5978     0FAA  1803               	skipnc
  5979     0FAB  3001               	movlw	1
  5980     0FAC  07C8               	addwf	___fladd@b+3,f
  5981     0FAD                     l2064:
  5982     0FAD  1C48               	btfss	___fladd@b+3,0
  5983     0FAE  2FB0               	goto	u2511
  5984     0FAF  2FB1               	goto	u2510
  5985     0FB0                     u2511:
  5986     0FB0  2FD3               	goto	l2070
  5987     0FB1                     u2510:
  5988     0FB1                     l2066:
  5989     0FB1  0845               	movf	___fladd@b,w
  5990     0FB2  00CD               	movwf	??___fladd
  5991     0FB3  0846               	movf	___fladd@b+1,w
  5992     0FB4  00CE               	movwf	??___fladd+1
  5993     0FB5  0847               	movf	___fladd@b+2,w
  5994     0FB6  00CF               	movwf	??___fladd+2
  5995     0FB7  0848               	movf	___fladd@b+3,w
  5996     0FB8  00D0               	movwf	??___fladd+3
  5997     0FB9  3001               	movlw	1
  5998     0FBA  00D1               	movwf	??___fladd+4
  5999     0FBB                     u2525:
  6000     0FBB  0D50               	rlf	??___fladd+3,w
  6001     0FBC  0CD0               	rrf	??___fladd+3,f
  6002     0FBD  0CCF               	rrf	??___fladd+2,f
  6003     0FBE  0CCE               	rrf	??___fladd+1,f
  6004     0FBF  0CCD               	rrf	??___fladd,f
  6005     0FC0                     u2520:
  6006     0FC0  0BD1               	decfsz	??___fladd+4,f
  6007     0FC1  2FBB               	goto	u2525
  6008     0FC2  0850               	movf	??___fladd+3,w
  6009     0FC3  00C8               	movwf	___fladd@b+3
  6010     0FC4  084F               	movf	??___fladd+2,w
  6011     0FC5  00C7               	movwf	___fladd@b+2
  6012     0FC6  084E               	movf	??___fladd+1,w
  6013     0FC7  00C6               	movwf	___fladd@b+1
  6014     0FC8  084D               	movf	??___fladd,w
  6015     0FC9  00C5               	movwf	___fladd@b
  6016     0FCA  0A57               	incf	___fladd@bexp,w
  6017     0FCB  1903               	btfsc	3,2
  6018     0FCC  2FCE               	goto	u2531
  6019     0FCD  2FCF               	goto	u2530
  6020     0FCE                     u2531:
  6021     0FCE  2FD3               	goto	l2070
  6022     0FCF                     u2530:
  6023     0FCF                     l2068:
  6024     0FCF  3001               	movlw	1
  6025     0FD0  00FF               	movwf	btemp+1
  6026     0FD1  087F               	movf	btemp+1,w
  6027     0FD2  07D7               	addwf	___fladd@bexp,f
  6028     0FD3                     l2070:
  6029     0FD3  0A57               	incf	___fladd@bexp,w
  6030     0FD4  1903               	btfsc	3,2
  6031     0FD5  2FD7               	goto	u2541
  6032     0FD6  2FD8               	goto	u2540
  6033     0FD7                     u2541:
  6034     0FD7  2FDD               	goto	l2074
  6035     0FD8                     u2540:
  6036     0FD8                     l2072:
  6037     0FD8  0857               	movf	___fladd@bexp,w
  6038     0FD9  1D03               	btfss	3,2
  6039     0FDA  2FDC               	goto	u2551
  6040     0FDB  2FDD               	goto	u2550
  6041     0FDC                     u2551:
  6042     0FDC  2FEB               	goto	l2080
  6043     0FDD                     u2550:
  6044     0FDD                     l2074:
  6045     0FDD  3000               	movlw	0
  6046     0FDE  00C8               	movwf	___fladd@b+3
  6047     0FDF  3000               	movlw	0
  6048     0FE0  00C7               	movwf	___fladd@b+2
  6049     0FE1  3000               	movlw	0
  6050     0FE2  00C6               	movwf	___fladd@b+1
  6051     0FE3  3000               	movlw	0
  6052     0FE4  00C5               	movwf	___fladd@b
  6053     0FE5                     l2076:
  6054     0FE5  0857               	movf	___fladd@bexp,w
  6055     0FE6  1D03               	btfss	3,2
  6056     0FE7  2FE9               	goto	u2561
  6057     0FE8  2FEA               	goto	u2560
  6058     0FE9                     u2561:
  6059     0FE9  2FEB               	goto	l2080
  6060     0FEA                     u2560:
  6061     0FEA                     l2078:
  6062     0FEA  01D5               	clrf	___fladd@signs
  6063     0FEB                     l2080:
  6064     0FEB  1C57               	btfss	___fladd@bexp,0
  6065     0FEC  2FEE               	goto	u2571
  6066     0FED  2FEF               	goto	u2570
  6067     0FEE                     u2571:
  6068     0FEE  2FF1               	goto	l2084
  6069     0FEF                     u2570:
  6070     0FEF                     l2082:
  6071     0FEF  17C7               	bsf	___fladd@b+2,7
  6072     0FF0  2FF5               	goto	l2086
  6073     0FF1                     l2084:
  6074     0FF1  307F               	movlw	127
  6075     0FF2  00FF               	movwf	btemp+1
  6076     0FF3  087F               	movf	btemp+1,w
  6077     0FF4  05C7               	andwf	___fladd@b+2,f
  6078     0FF5                     l2086:
  6079     0FF5  0857               	movf	___fladd@bexp,w
  6080     0FF6  00CD               	movwf	??___fladd
  6081     0FF7  1003               	clrc
  6082     0FF8  0C4D               	rrf	??___fladd,w
  6083     0FF9  00C8               	movwf	___fladd@b+3
  6084     0FFA                     l2088:
  6085     0FFA  1FD5               	btfss	___fladd@signs,7
  6086     0FFB  2FFD               	goto	u2581
  6087     0FFC  2FFE               	goto	u2580
  6088     0FFD                     u2581:
  6089     0FFD  2FFF               	goto	l588
  6090     0FFE                     u2580:
  6091     0FFE                     l2090:
  6092     0FFE  17C8               	bsf	___fladd@b+3,7
  6093     0FFF                     l588:
  6094     0FFF                     l558:
  6095     0FFF  0008               	return
  6096     1000                     __end_of___fladd:
  6097                           
  6098                           	psect	text24
  6099     162E                     __ptext24:	
  6100 ;; *************** function _converteLeituraAnParaVolts *****************
  6101 ;; Defined at:
  6102 ;;		line 214 in file "newmain.c"
  6103 ;; Parameters:    Size  Location     Type
  6104 ;;  leitura         4   42[BANK1 ] float 
  6105 ;; Auto vars:     Size  Location     Type
  6106 ;;		None
  6107 ;; Return value:  Size  Location     Type
  6108 ;;                  4   42[BANK1 ] float 
  6109 ;; Registers used:
  6110 ;;		wreg, status,2, status,0, btemp+1, pclath, cstack
  6111 ;; Tracked objects:
  6112 ;;		On entry : 0/0
  6113 ;;		On exit  : 0/0
  6114 ;;		Unchanged: 0/0
  6115 ;; Data sizes:     COMMON   BANK0   BANK1   BANK3   BANK2
  6116 ;;      Params:         0       0       4       0       0
  6117 ;;      Locals:         0       0       0       0       0
  6118 ;;      Temps:          0       0       0       0       0
  6119 ;;      Totals:         0       0       4       0       0
  6120 ;;Total ram usage:        4 bytes
  6121 ;; Hardware stack levels used: 1
  6122 ;; Hardware stack levels required when called: 3
  6123 ;; This function calls:
  6124 ;;		___fldiv
  6125 ;;		___flmul
  6126 ;; This function is called by:
  6127 ;;		_main
  6128 ;; This function uses a non-reentrant model
  6129 ;;
  6130                           
  6131     162E                     _converteLeituraAnParaVolts:	
  6132                           ;psect for function _converteLeituraAnParaVolts
  6133                           
  6134     162E                     l3236:	
  6135                           ;incstack = 0
  6136                           ; Regs used in _converteLeituraAnParaVolts: [wreg+status,2+status,0+btemp+1+pclath+cstac
      +                          k]
  6137                           
  6138                           
  6139                           ;newmain.c: 214: float converteLeituraAnParaVolts(float leitura);newmain.c: 215: {;newma
      +                          in.c: 216:     return leitura * 5/255;
  6140     162E  3043               	movlw	67
  6141     162F  1683               	bsf	3,5	;RP0=1, select bank1
  6142     1630  1303               	bcf	3,6	;RP1=0, select bank1
  6143     1631  00B3               	movwf	(___fldiv@a+3)^(0+128)
  6144     1632  307F               	movlw	127
  6145     1633  00B2               	movwf	(___fldiv@a+2)^(0+128)
  6146     1634  3000               	movlw	0
  6147     1635  00B1               	movwf	(___fldiv@a+1)^(0+128)
  6148     1636  3000               	movlw	0
  6149     1637  00B0               	movwf	___fldiv@a^(0+128)
  6150     1638  3040               	movlw	64
  6151     1639  1283               	bcf	3,5	;RP0=0, select bank0
  6152     163A  1303               	bcf	3,6	;RP1=0, select bank0
  6153     163B  00AE               	movwf	___flmul@b+3
  6154     163C  30A0               	movlw	160
  6155     163D  00AD               	movwf	___flmul@b+2
  6156     163E  3000               	movlw	0
  6157     163F  00AC               	movwf	___flmul@b+1
  6158     1640  3000               	movlw	0
  6159     1641  00AB               	movwf	___flmul@b
  6160     1642  1683               	bsf	3,5	;RP0=1, select bank1
  6161     1643  1303               	bcf	3,6	;RP1=0, select bank1
  6162     1644  084D               	movf	(converteLeituraAnParaVolts@leitura+3)^(0+128),w
  6163     1645  1283               	bcf	3,5	;RP0=0, select bank0
  6164     1646  1303               	bcf	3,6	;RP1=0, select bank0
  6165     1647  00B2               	movwf	___flmul@a+3
  6166     1648  1683               	bsf	3,5	;RP0=1, select bank1
  6167     1649  1303               	bcf	3,6	;RP1=0, select bank1
  6168     164A  084C               	movf	(converteLeituraAnParaVolts@leitura+2)^(0+128),w
  6169     164B  1283               	bcf	3,5	;RP0=0, select bank0
  6170     164C  1303               	bcf	3,6	;RP1=0, select bank0
  6171     164D  00B1               	movwf	___flmul@a+2
  6172     164E  1683               	bsf	3,5	;RP0=1, select bank1
  6173     164F  1303               	bcf	3,6	;RP1=0, select bank1
  6174     1650  084B               	movf	(converteLeituraAnParaVolts@leitura+1)^(0+128),w
  6175     1651  1283               	bcf	3,5	;RP0=0, select bank0
  6176     1652  1303               	bcf	3,6	;RP1=0, select bank0
  6177     1653  00B0               	movwf	___flmul@a+1
  6178     1654  1683               	bsf	3,5	;RP0=1, select bank1
  6179     1655  1303               	bcf	3,6	;RP1=0, select bank1
  6180     1656  084A               	movf	converteLeituraAnParaVolts@leitura^(0+128),w
  6181     1657  1283               	bcf	3,5	;RP0=0, select bank0
  6182     1658  1303               	bcf	3,6	;RP1=0, select bank0
  6183     1659  00AF               	movwf	___flmul@a
  6184     165A  120A  118A  203F  160A  118A  	fcall	___flmul
  6185     165F  1283               	bcf	3,5	;RP0=0, select bank0
  6186     1660  1303               	bcf	3,6	;RP1=0, select bank0
  6187     1661  082E               	movf	?___flmul+3,w
  6188     1662  1683               	bsf	3,5	;RP0=1, select bank1
  6189     1663  1303               	bcf	3,6	;RP1=0, select bank1
  6190     1664  00B7               	movwf	(___fldiv@b+3)^(0+128)
  6191     1665  1283               	bcf	3,5	;RP0=0, select bank0
  6192     1666  1303               	bcf	3,6	;RP1=0, select bank0
  6193     1667  082D               	movf	?___flmul+2,w
  6194     1668  1683               	bsf	3,5	;RP0=1, select bank1
  6195     1669  1303               	bcf	3,6	;RP1=0, select bank1
  6196     166A  00B6               	movwf	(___fldiv@b+2)^(0+128)
  6197     166B  1283               	bcf	3,5	;RP0=0, select bank0
  6198     166C  1303               	bcf	3,6	;RP1=0, select bank0
  6199     166D  082C               	movf	?___flmul+1,w
  6200     166E  1683               	bsf	3,5	;RP0=1, select bank1
  6201     166F  1303               	bcf	3,6	;RP1=0, select bank1
  6202     1670  00B5               	movwf	(___fldiv@b+1)^(0+128)
  6203     1671  1283               	bcf	3,5	;RP0=0, select bank0
  6204     1672  1303               	bcf	3,6	;RP1=0, select bank0
  6205     1673  082B               	movf	?___flmul,w
  6206     1674  1683               	bsf	3,5	;RP0=1, select bank1
  6207     1675  1303               	bcf	3,6	;RP1=0, select bank1
  6208     1676  00B4               	movwf	___fldiv@b^(0+128)
  6209     1677  120A  118A  2621  160A  118A  	fcall	___fldiv
  6210     167C  1683               	bsf	3,5	;RP0=1, select bank1
  6211     167D  1303               	bcf	3,6	;RP1=0, select bank1
  6212     167E  0833               	movf	(?___fldiv+3)^(0+128),w
  6213     167F  00CD               	movwf	(?_converteLeituraAnParaVolts+3)^(0+128)
  6214     1680  0832               	movf	(?___fldiv+2)^(0+128),w
  6215     1681  00CC               	movwf	(?_converteLeituraAnParaVolts+2)^(0+128)
  6216     1682  0831               	movf	(?___fldiv+1)^(0+128),w
  6217     1683  00CB               	movwf	(?_converteLeituraAnParaVolts+1)^(0+128)
  6218     1684  0830               	movf	?___fldiv^(0+128),w
  6219     1685  00CA               	movwf	?_converteLeituraAnParaVolts^(0+128)
  6220     1686                     l149:
  6221     1686  0008               	return
  6222     1687                     __end_of_converteLeituraAnParaVolts:
  6223                           
  6224                           	psect	text25
  6225     003F                     __ptext25:	
  6226 ;; *************** function ___flmul *****************
  6227 ;; Defined at:
  6228 ;;		line 8 in file "C:\Program Files\Microchip\xc8\v2.41\pic\sources\c90\common\sprcmul.c"
  6229 ;; Parameters:    Size  Location     Type
  6230 ;;  b               4   11[BANK0 ] float 
  6231 ;;  a               4   15[BANK0 ] float 
  6232 ;; Auto vars:     Size  Location     Type
  6233 ;;  prod            4   31[BANK0 ] struct .
  6234 ;;  grs             4   26[BANK0 ] unsigned long 
  6235 ;;  temp            2   35[BANK0 ] struct .
  6236 ;;  bexp            1   30[BANK0 ] unsigned char 
  6237 ;;  aexp            1   25[BANK0 ] unsigned char 
  6238 ;;  sign            1   24[BANK0 ] unsigned char 
  6239 ;; Return value:  Size  Location     Type
  6240 ;;                  4   11[BANK0 ] unsigned char 
  6241 ;; Registers used:
  6242 ;;		wreg, status,2, status,0, btemp+1, pclath, cstack
  6243 ;; Tracked objects:
  6244 ;;		On entry : 0/0
  6245 ;;		On exit  : 0/0
  6246 ;;		Unchanged: 0/0
  6247 ;; Data sizes:     COMMON   BANK0   BANK1   BANK3   BANK2
  6248 ;;      Params:         0       8       0       0       0
  6249 ;;      Locals:         0      13       0       0       0
  6250 ;;      Temps:          0       5       0       0       0
  6251 ;;      Totals:         0      26       0       0       0
  6252 ;;Total ram usage:       26 bytes
  6253 ;; Hardware stack levels used: 1
  6254 ;; Hardware stack levels required when called: 2
  6255 ;; This function calls:
  6256 ;;		__Umul8_16
  6257 ;; This function is called by:
  6258 ;;		_converteLeituraAnParaVolts
  6259 ;;		_converteVoltsParaLux
  6260 ;;		_log
  6261 ;;		_log10
  6262 ;;		_eval_poly
  6263 ;; This function uses a non-reentrant model
  6264 ;;
  6265                           
  6266     003F                     ___flmul:	
  6267                           ;psect for function ___flmul
  6268                           
  6269     003F                     l2902:	
  6270                           ;incstack = 0
  6271                           ; Regs used in ___flmul: [wreg+status,2+status,0+btemp+1+pclath+cstack]
  6272                           
  6273     003F  1283               	bcf	3,5	;RP0=0, select bank0
  6274     0040  1303               	bcf	3,6	;RP1=0, select bank0
  6275     0041  082E               	movf	___flmul@b+3,w
  6276     0042  3980               	andlw	128
  6277     0043  00B8               	movwf	___flmul@sign
  6278     0044                     l2904:
  6279     0044  082E               	movf	___flmul@b+3,w
  6280     0045  00B3               	movwf	??___flmul
  6281     0046  0733               	addwf	??___flmul,w
  6282     0047  00BE               	movwf	___flmul@bexp
  6283     0048                     l2906:
  6284     0048  1FAD               	btfss	___flmul@b+2,7
  6285     0049  284B               	goto	u4111
  6286     004A  284C               	goto	u4110
  6287     004B                     u4111:
  6288     004B  284D               	goto	l2910
  6289     004C                     u4110:
  6290     004C                     l2908:
  6291     004C  143E               	bsf	___flmul@bexp,0
  6292     004D                     l2910:
  6293     004D  083E               	movf	___flmul@bexp,w
  6294     004E  1903               	btfsc	3,2
  6295     004F  2851               	goto	u4121
  6296     0050  2852               	goto	u4120
  6297     0051                     u4121:
  6298     0051  2861               	goto	l2918
  6299     0052                     u4120:
  6300     0052                     l2912:
  6301     0052  0A3E               	incf	___flmul@bexp,w
  6302     0053  1D03               	btfss	3,2
  6303     0054  2856               	goto	u4131
  6304     0055  2857               	goto	u4130
  6305     0056                     u4131:
  6306     0056  285F               	goto	l2916
  6307     0057                     u4130:
  6308     0057                     l2914:
  6309     0057  3000               	movlw	0
  6310     0058  00AE               	movwf	___flmul@b+3
  6311     0059  3000               	movlw	0
  6312     005A  00AD               	movwf	___flmul@b+2
  6313     005B  3000               	movlw	0
  6314     005C  00AC               	movwf	___flmul@b+1
  6315     005D  3000               	movlw	0
  6316     005E  00AB               	movwf	___flmul@b
  6317     005F                     l2916:
  6318     005F  17AD               	bsf	___flmul@b+2,7
  6319     0060  2869               	goto	l2920
  6320     0061                     l2918:
  6321     0061  3000               	movlw	0
  6322     0062  00AE               	movwf	___flmul@b+3
  6323     0063  3000               	movlw	0
  6324     0064  00AD               	movwf	___flmul@b+2
  6325     0065  3000               	movlw	0
  6326     0066  00AC               	movwf	___flmul@b+1
  6327     0067  3000               	movlw	0
  6328     0068  00AB               	movwf	___flmul@b
  6329     0069                     l2920:
  6330     0069  0832               	movf	___flmul@a+3,w
  6331     006A  3980               	andlw	128
  6332     006B  00FF               	movwf	btemp+1
  6333     006C  087F               	movf	btemp+1,w
  6334     006D  06B8               	xorwf	___flmul@sign,f
  6335     006E                     l2922:
  6336     006E  0832               	movf	___flmul@a+3,w
  6337     006F  00B3               	movwf	??___flmul
  6338     0070  0733               	addwf	??___flmul,w
  6339     0071  00B9               	movwf	___flmul@aexp
  6340     0072                     l2924:
  6341     0072  1FB1               	btfss	___flmul@a+2,7
  6342     0073  2875               	goto	u4141
  6343     0074  2876               	goto	u4140
  6344     0075                     u4141:
  6345     0075  2877               	goto	l2928
  6346     0076                     u4140:
  6347     0076                     l2926:
  6348     0076  1439               	bsf	___flmul@aexp,0
  6349     0077                     l2928:
  6350     0077  0839               	movf	___flmul@aexp,w
  6351     0078  1903               	btfsc	3,2
  6352     0079  287B               	goto	u4151
  6353     007A  287C               	goto	u4150
  6354     007B                     u4151:
  6355     007B  288B               	goto	l2936
  6356     007C                     u4150:
  6357     007C                     l2930:
  6358     007C  0A39               	incf	___flmul@aexp,w
  6359     007D  1D03               	btfss	3,2
  6360     007E  2880               	goto	u4161
  6361     007F  2881               	goto	u4160
  6362     0080                     u4161:
  6363     0080  2889               	goto	l2934
  6364     0081                     u4160:
  6365     0081                     l2932:
  6366     0081  3000               	movlw	0
  6367     0082  00B2               	movwf	___flmul@a+3
  6368     0083  3000               	movlw	0
  6369     0084  00B1               	movwf	___flmul@a+2
  6370     0085  3000               	movlw	0
  6371     0086  00B0               	movwf	___flmul@a+1
  6372     0087  3000               	movlw	0
  6373     0088  00AF               	movwf	___flmul@a
  6374     0089                     l2934:
  6375     0089  17B1               	bsf	___flmul@a+2,7
  6376     008A  2893               	goto	l2938
  6377     008B                     l2936:
  6378     008B  3000               	movlw	0
  6379     008C  00B2               	movwf	___flmul@a+3
  6380     008D  3000               	movlw	0
  6381     008E  00B1               	movwf	___flmul@a+2
  6382     008F  3000               	movlw	0
  6383     0090  00B0               	movwf	___flmul@a+1
  6384     0091  3000               	movlw	0
  6385     0092  00AF               	movwf	___flmul@a
  6386     0093                     l2938:
  6387     0093  0839               	movf	___flmul@aexp,w
  6388     0094  1903               	btfsc	3,2
  6389     0095  2897               	goto	u4171
  6390     0096  2898               	goto	u4170
  6391     0097                     u4171:
  6392     0097  289D               	goto	l2942
  6393     0098                     u4170:
  6394     0098                     l2940:
  6395     0098  083E               	movf	___flmul@bexp,w
  6396     0099  1D03               	btfss	3,2
  6397     009A  289C               	goto	u4181
  6398     009B  289D               	goto	u4180
  6399     009C                     u4181:
  6400     009C  28A6               	goto	l2946
  6401     009D                     u4180:
  6402     009D                     l2942:
  6403     009D  3000               	movlw	0
  6404     009E  00AE               	movwf	?___flmul+3
  6405     009F  3000               	movlw	0
  6406     00A0  00AD               	movwf	?___flmul+2
  6407     00A1  3000               	movlw	0
  6408     00A2  00AC               	movwf	?___flmul+1
  6409     00A3  3000               	movlw	0
  6410     00A4  00AB               	movwf	?___flmul
  6411     00A5  2B83               	goto	l641
  6412     00A6                     l2946:
  6413     00A6  082B               	movf	___flmul@b,w
  6414     00A7  00F2               	movwf	__Umul8_16@multiplicand
  6415     00A8  0831               	movf	___flmul@a+2,w
  6416     00A9  160A  118A  23FF  120A  118A  	fcall	__Umul8_16
  6417     00AE  0873               	movf	?__Umul8_16+1,w
  6418     00AF  1283               	bcf	3,5	;RP0=0, select bank0
  6419     00B0  1303               	bcf	3,6	;RP1=0, select bank0
  6420     00B1  00C4               	movwf	___flmul@temp+1
  6421     00B2  0872               	movf	?__Umul8_16,w
  6422     00B3  00C3               	movwf	___flmul@temp
  6423     00B4                     l2948:
  6424     00B4  0843               	movf	___flmul@temp,w
  6425     00B5  00B3               	movwf	??___flmul
  6426     00B6  01B4               	clrf	??___flmul+1
  6427     00B7  01B5               	clrf	??___flmul+2
  6428     00B8  01B6               	clrf	??___flmul+3
  6429     00B9  0836               	movf	??___flmul+3,w
  6430     00BA  00BD               	movwf	___flmul@grs+3
  6431     00BB  0835               	movf	??___flmul+2,w
  6432     00BC  00BC               	movwf	___flmul@grs+2
  6433     00BD  0834               	movf	??___flmul+1,w
  6434     00BE  00BB               	movwf	___flmul@grs+1
  6435     00BF  0833               	movf	??___flmul,w
  6436     00C0  00BA               	movwf	___flmul@grs
  6437     00C1                     l2950:
  6438     00C1  0844               	movf	___flmul@temp+1,w
  6439     00C2  00B3               	movwf	??___flmul
  6440     00C3  01B4               	clrf	??___flmul+1
  6441     00C4  01B5               	clrf	??___flmul+2
  6442     00C5  01B6               	clrf	??___flmul+3
  6443     00C6  0836               	movf	??___flmul+3,w
  6444     00C7  00C2               	movwf	___flmul@prod+3
  6445     00C8  0835               	movf	??___flmul+2,w
  6446     00C9  00C1               	movwf	___flmul@prod+2
  6447     00CA  0834               	movf	??___flmul+1,w
  6448     00CB  00C0               	movwf	___flmul@prod+1
  6449     00CC  0833               	movf	??___flmul,w
  6450     00CD  00BF               	movwf	___flmul@prod
  6451     00CE  082C               	movf	___flmul@b+1,w
  6452     00CF  00F2               	movwf	__Umul8_16@multiplicand
  6453     00D0  0830               	movf	___flmul@a+1,w
  6454     00D1  160A  118A  23FF  120A  118A  	fcall	__Umul8_16
  6455     00D6  0873               	movf	?__Umul8_16+1,w
  6456     00D7  1283               	bcf	3,5	;RP0=0, select bank0
  6457     00D8  1303               	bcf	3,6	;RP1=0, select bank0
  6458     00D9  00C4               	movwf	___flmul@temp+1
  6459     00DA  0872               	movf	?__Umul8_16,w
  6460     00DB  00C3               	movwf	___flmul@temp
  6461     00DC                     l2952:
  6462     00DC  0843               	movf	___flmul@temp,w
  6463     00DD  00B3               	movwf	??___flmul
  6464     00DE  01B4               	clrf	??___flmul+1
  6465     00DF  01B5               	clrf	??___flmul+2
  6466     00E0  01B6               	clrf	??___flmul+3
  6467     00E1  0833               	movf	??___flmul,w
  6468     00E2  07BA               	addwf	___flmul@grs,f
  6469     00E3  0834               	movf	??___flmul+1,w
  6470     00E4  1103               	clrz
  6471     00E5  1803               	skipnc
  6472     00E6  3E01               	addlw	1
  6473     00E7  1903               	skipnz
  6474     00E8  28EA               	goto	u4191
  6475     00E9  07BB               	addwf	___flmul@grs+1,f
  6476     00EA                     u4191:
  6477     00EA  0835               	movf	??___flmul+2,w
  6478     00EB  1103               	clrz
  6479     00EC  1803               	skipnc
  6480     00ED  3E01               	addlw	1
  6481     00EE  1903               	skipnz
  6482     00EF  28F1               	goto	u4192
  6483     00F0  07BC               	addwf	___flmul@grs+2,f
  6484     00F1                     u4192:
  6485     00F1  0836               	movf	??___flmul+3,w
  6486     00F2  1103               	clrz
  6487     00F3  1803               	skipnc
  6488     00F4  3E01               	addlw	1
  6489     00F5  1903               	skipnz
  6490     00F6  28F8               	goto	u4193
  6491     00F7  07BD               	addwf	___flmul@grs+3,f
  6492     00F8                     u4193:
  6493     00F8                     l2954:
  6494     00F8  0844               	movf	___flmul@temp+1,w
  6495     00F9  00B3               	movwf	??___flmul
  6496     00FA  01B4               	clrf	??___flmul+1
  6497     00FB  01B5               	clrf	??___flmul+2
  6498     00FC  01B6               	clrf	??___flmul+3
  6499     00FD  0833               	movf	??___flmul,w
  6500     00FE  07BF               	addwf	___flmul@prod,f
  6501     00FF  0834               	movf	??___flmul+1,w
  6502     0100  1103               	clrz
  6503     0101  1803               	skipnc
  6504     0102  3E01               	addlw	1
  6505     0103  1903               	skipnz
  6506     0104  2906               	goto	u4201
  6507     0105  07C0               	addwf	___flmul@prod+1,f
  6508     0106                     u4201:
  6509     0106  0835               	movf	??___flmul+2,w
  6510     0107  1103               	clrz
  6511     0108  1803               	skipnc
  6512     0109  3E01               	addlw	1
  6513     010A  1903               	skipnz
  6514     010B  290D               	goto	u4202
  6515     010C  07C1               	addwf	___flmul@prod+2,f
  6516     010D                     u4202:
  6517     010D  0836               	movf	??___flmul+3,w
  6518     010E  1103               	clrz
  6519     010F  1803               	skipnc
  6520     0110  3E01               	addlw	1
  6521     0111  1903               	skipnz
  6522     0112  2914               	goto	u4203
  6523     0113  07C2               	addwf	___flmul@prod+3,f
  6524     0114                     u4203:
  6525     0114  082D               	movf	___flmul@b+2,w
  6526     0115  00F2               	movwf	__Umul8_16@multiplicand
  6527     0116  082F               	movf	___flmul@a,w
  6528     0117  160A  118A  23FF  120A  118A  	fcall	__Umul8_16
  6529     011C  0873               	movf	?__Umul8_16+1,w
  6530     011D  1283               	bcf	3,5	;RP0=0, select bank0
  6531     011E  1303               	bcf	3,6	;RP1=0, select bank0
  6532     011F  00C4               	movwf	___flmul@temp+1
  6533     0120  0872               	movf	?__Umul8_16,w
  6534     0121  00C3               	movwf	___flmul@temp
  6535     0122                     l2956:
  6536     0122  0843               	movf	___flmul@temp,w
  6537     0123  00B3               	movwf	??___flmul
  6538     0124  01B4               	clrf	??___flmul+1
  6539     0125  01B5               	clrf	??___flmul+2
  6540     0126  01B6               	clrf	??___flmul+3
  6541     0127  0833               	movf	??___flmul,w
  6542     0128  07BA               	addwf	___flmul@grs,f
  6543     0129  0834               	movf	??___flmul+1,w
  6544     012A  1103               	clrz
  6545     012B  1803               	skipnc
  6546     012C  3E01               	addlw	1
  6547     012D  1903               	skipnz
  6548     012E  2930               	goto	u4211
  6549     012F  07BB               	addwf	___flmul@grs+1,f
  6550     0130                     u4211:
  6551     0130  0835               	movf	??___flmul+2,w
  6552     0131  1103               	clrz
  6553     0132  1803               	skipnc
  6554     0133  3E01               	addlw	1
  6555     0134  1903               	skipnz
  6556     0135  2937               	goto	u4212
  6557     0136  07BC               	addwf	___flmul@grs+2,f
  6558     0137                     u4212:
  6559     0137  0836               	movf	??___flmul+3,w
  6560     0138  1103               	clrz
  6561     0139  1803               	skipnc
  6562     013A  3E01               	addlw	1
  6563     013B  1903               	skipnz
  6564     013C  293E               	goto	u4213
  6565     013D  07BD               	addwf	___flmul@grs+3,f
  6566     013E                     u4213:
  6567     013E                     l2958:
  6568     013E  0844               	movf	___flmul@temp+1,w
  6569     013F  00B3               	movwf	??___flmul
  6570     0140  01B4               	clrf	??___flmul+1
  6571     0141  01B5               	clrf	??___flmul+2
  6572     0142  01B6               	clrf	??___flmul+3
  6573     0143  0833               	movf	??___flmul,w
  6574     0144  07BF               	addwf	___flmul@prod,f
  6575     0145  0834               	movf	??___flmul+1,w
  6576     0146  1103               	clrz
  6577     0147  1803               	skipnc
  6578     0148  3E01               	addlw	1
  6579     0149  1903               	skipnz
  6580     014A  294C               	goto	u4221
  6581     014B  07C0               	addwf	___flmul@prod+1,f
  6582     014C                     u4221:
  6583     014C  0835               	movf	??___flmul+2,w
  6584     014D  1103               	clrz
  6585     014E  1803               	skipnc
  6586     014F  3E01               	addlw	1
  6587     0150  1903               	skipnz
  6588     0151  2953               	goto	u4222
  6589     0152  07C1               	addwf	___flmul@prod+2,f
  6590     0153                     u4222:
  6591     0153  0836               	movf	??___flmul+3,w
  6592     0154  1103               	clrz
  6593     0155  1803               	skipnc
  6594     0156  3E01               	addlw	1
  6595     0157  1903               	skipnz
  6596     0158  295A               	goto	u4223
  6597     0159  07C2               	addwf	___flmul@prod+3,f
  6598     015A                     u4223:
  6599     015A                     l2960:
  6600     015A  3008               	movlw	8
  6601     015B  00B3               	movwf	??___flmul
  6602     015C                     u4235:
  6603     015C  1003               	clrc
  6604     015D  0DBA               	rlf	___flmul@grs,f
  6605     015E  0DBB               	rlf	___flmul@grs+1,f
  6606     015F  0DBC               	rlf	___flmul@grs+2,f
  6607     0160  0DBD               	rlf	___flmul@grs+3,f
  6608     0161  0BB3               	decfsz	??___flmul,f
  6609     0162  295C               	goto	u4235
  6610     0163                     l2962:
  6611     0163  082C               	movf	___flmul@b+1,w
  6612     0164  00F2               	movwf	__Umul8_16@multiplicand
  6613     0165  082F               	movf	___flmul@a,w
  6614     0166  160A  118A  23FF  120A  118A  	fcall	__Umul8_16
  6615     016B  0873               	movf	?__Umul8_16+1,w
  6616     016C  1283               	bcf	3,5	;RP0=0, select bank0
  6617     016D  1303               	bcf	3,6	;RP1=0, select bank0
  6618     016E  00C4               	movwf	___flmul@temp+1
  6619     016F  0872               	movf	?__Umul8_16,w
  6620     0170  00C3               	movwf	___flmul@temp
  6621     0171                     l2964:
  6622     0171  0843               	movf	___flmul@temp,w
  6623     0172  00B3               	movwf	??___flmul
  6624     0173  0844               	movf	___flmul@temp+1,w
  6625     0174  00B4               	movwf	??___flmul+1
  6626     0175  01B5               	clrf	??___flmul+2
  6627     0176  01B6               	clrf	??___flmul+3
  6628     0177  0833               	movf	??___flmul,w
  6629     0178  07BA               	addwf	___flmul@grs,f
  6630     0179  0834               	movf	??___flmul+1,w
  6631     017A  1103               	clrz
  6632     017B  1803               	skipnc
  6633     017C  3E01               	addlw	1
  6634     017D  1903               	skipnz
  6635     017E  2980               	goto	u4241
  6636     017F  07BB               	addwf	___flmul@grs+1,f
  6637     0180                     u4241:
  6638     0180  0835               	movf	??___flmul+2,w
  6639     0181  1103               	clrz
  6640     0182  1803               	skipnc
  6641     0183  3E01               	addlw	1
  6642     0184  1903               	skipnz
  6643     0185  2987               	goto	u4242
  6644     0186  07BC               	addwf	___flmul@grs+2,f
  6645     0187                     u4242:
  6646     0187  0836               	movf	??___flmul+3,w
  6647     0188  1103               	clrz
  6648     0189  1803               	skipnc
  6649     018A  3E01               	addlw	1
  6650     018B  1903               	skipnz
  6651     018C  298E               	goto	u4243
  6652     018D  07BD               	addwf	___flmul@grs+3,f
  6653     018E                     u4243:
  6654     018E                     l2966:
  6655     018E  082B               	movf	___flmul@b,w
  6656     018F  00F2               	movwf	__Umul8_16@multiplicand
  6657     0190  0830               	movf	___flmul@a+1,w
  6658     0191  160A  118A  23FF  120A  118A  	fcall	__Umul8_16
  6659     0196  0873               	movf	?__Umul8_16+1,w
  6660     0197  1283               	bcf	3,5	;RP0=0, select bank0
  6661     0198  1303               	bcf	3,6	;RP1=0, select bank0
  6662     0199  00C4               	movwf	___flmul@temp+1
  6663     019A  0872               	movf	?__Umul8_16,w
  6664     019B  00C3               	movwf	___flmul@temp
  6665     019C                     l2968:
  6666     019C  0843               	movf	___flmul@temp,w
  6667     019D  00B3               	movwf	??___flmul
  6668     019E  0844               	movf	___flmul@temp+1,w
  6669     019F  00B4               	movwf	??___flmul+1
  6670     01A0  01B5               	clrf	??___flmul+2
  6671     01A1  01B6               	clrf	??___flmul+3
  6672     01A2  0833               	movf	??___flmul,w
  6673     01A3  07BA               	addwf	___flmul@grs,f
  6674     01A4  0834               	movf	??___flmul+1,w
  6675     01A5  1103               	clrz
  6676     01A6  1803               	skipnc
  6677     01A7  3E01               	addlw	1
  6678     01A8  1903               	skipnz
  6679     01A9  29AB               	goto	u4251
  6680     01AA  07BB               	addwf	___flmul@grs+1,f
  6681     01AB                     u4251:
  6682     01AB  0835               	movf	??___flmul+2,w
  6683     01AC  1103               	clrz
  6684     01AD  1803               	skipnc
  6685     01AE  3E01               	addlw	1
  6686     01AF  1903               	skipnz
  6687     01B0  29B2               	goto	u4252
  6688     01B1  07BC               	addwf	___flmul@grs+2,f
  6689     01B2                     u4252:
  6690     01B2  0836               	movf	??___flmul+3,w
  6691     01B3  1103               	clrz
  6692     01B4  1803               	skipnc
  6693     01B5  3E01               	addlw	1
  6694     01B6  1903               	skipnz
  6695     01B7  29B9               	goto	u4253
  6696     01B8  07BD               	addwf	___flmul@grs+3,f
  6697     01B9                     u4253:
  6698     01B9                     l2970:
  6699     01B9  3008               	movlw	8
  6700     01BA  00B3               	movwf	??___flmul
  6701     01BB                     u4265:
  6702     01BB  1003               	clrc
  6703     01BC  0DBA               	rlf	___flmul@grs,f
  6704     01BD  0DBB               	rlf	___flmul@grs+1,f
  6705     01BE  0DBC               	rlf	___flmul@grs+2,f
  6706     01BF  0DBD               	rlf	___flmul@grs+3,f
  6707     01C0  0BB3               	decfsz	??___flmul,f
  6708     01C1  29BB               	goto	u4265
  6709     01C2  082B               	movf	___flmul@b,w
  6710     01C3  00F2               	movwf	__Umul8_16@multiplicand
  6711     01C4  082F               	movf	___flmul@a,w
  6712     01C5  160A  118A  23FF  120A  118A  	fcall	__Umul8_16
  6713     01CA  0873               	movf	?__Umul8_16+1,w
  6714     01CB  1283               	bcf	3,5	;RP0=0, select bank0
  6715     01CC  1303               	bcf	3,6	;RP1=0, select bank0
  6716     01CD  00C4               	movwf	___flmul@temp+1
  6717     01CE  0872               	movf	?__Umul8_16,w
  6718     01CF  00C3               	movwf	___flmul@temp
  6719     01D0                     l2972:
  6720     01D0  0843               	movf	___flmul@temp,w
  6721     01D1  00B3               	movwf	??___flmul
  6722     01D2  0844               	movf	___flmul@temp+1,w
  6723     01D3  00B4               	movwf	??___flmul+1
  6724     01D4  01B5               	clrf	??___flmul+2
  6725     01D5  01B6               	clrf	??___flmul+3
  6726     01D6  0833               	movf	??___flmul,w
  6727     01D7  07BA               	addwf	___flmul@grs,f
  6728     01D8  0834               	movf	??___flmul+1,w
  6729     01D9  1103               	clrz
  6730     01DA  1803               	skipnc
  6731     01DB  3E01               	addlw	1
  6732     01DC  1903               	skipnz
  6733     01DD  29DF               	goto	u4271
  6734     01DE  07BB               	addwf	___flmul@grs+1,f
  6735     01DF                     u4271:
  6736     01DF  0835               	movf	??___flmul+2,w
  6737     01E0  1103               	clrz
  6738     01E1  1803               	skipnc
  6739     01E2  3E01               	addlw	1
  6740     01E3  1903               	skipnz
  6741     01E4  29E6               	goto	u4272
  6742     01E5  07BC               	addwf	___flmul@grs+2,f
  6743     01E6                     u4272:
  6744     01E6  0836               	movf	??___flmul+3,w
  6745     01E7  1103               	clrz
  6746     01E8  1803               	skipnc
  6747     01E9  3E01               	addlw	1
  6748     01EA  1903               	skipnz
  6749     01EB  29ED               	goto	u4273
  6750     01EC  07BD               	addwf	___flmul@grs+3,f
  6751     01ED                     u4273:
  6752     01ED                     l2974:
  6753     01ED  082C               	movf	___flmul@b+1,w
  6754     01EE  00F2               	movwf	__Umul8_16@multiplicand
  6755     01EF  0831               	movf	___flmul@a+2,w
  6756     01F0  160A  118A  23FF  120A  118A  	fcall	__Umul8_16
  6757     01F5  0873               	movf	?__Umul8_16+1,w
  6758     01F6  1283               	bcf	3,5	;RP0=0, select bank0
  6759     01F7  1303               	bcf	3,6	;RP1=0, select bank0
  6760     01F8  00C4               	movwf	___flmul@temp+1
  6761     01F9  0872               	movf	?__Umul8_16,w
  6762     01FA  00C3               	movwf	___flmul@temp
  6763     01FB  0843               	movf	___flmul@temp,w
  6764     01FC  00B3               	movwf	??___flmul
  6765     01FD  0844               	movf	___flmul@temp+1,w
  6766     01FE  00B4               	movwf	??___flmul+1
  6767     01FF  01B5               	clrf	??___flmul+2
  6768     0200  01B6               	clrf	??___flmul+3
  6769     0201  0833               	movf	??___flmul,w
  6770     0202  07BF               	addwf	___flmul@prod,f
  6771     0203  0834               	movf	??___flmul+1,w
  6772     0204  1103               	clrz
  6773     0205  1803               	skipnc
  6774     0206  3E01               	addlw	1
  6775     0207  1903               	skipnz
  6776     0208  2A0A               	goto	u4281
  6777     0209  07C0               	addwf	___flmul@prod+1,f
  6778     020A                     u4281:
  6779     020A  0835               	movf	??___flmul+2,w
  6780     020B  1103               	clrz
  6781     020C  1803               	skipnc
  6782     020D  3E01               	addlw	1
  6783     020E  1903               	skipnz
  6784     020F  2A11               	goto	u4282
  6785     0210  07C1               	addwf	___flmul@prod+2,f
  6786     0211                     u4282:
  6787     0211  0836               	movf	??___flmul+3,w
  6788     0212  1103               	clrz
  6789     0213  1803               	skipnc
  6790     0214  3E01               	addlw	1
  6791     0215  1903               	skipnz
  6792     0216  2A18               	goto	u4283
  6793     0217  07C2               	addwf	___flmul@prod+3,f
  6794     0218                     u4283:
  6795     0218                     l2976:
  6796     0218  082D               	movf	___flmul@b+2,w
  6797     0219  00F2               	movwf	__Umul8_16@multiplicand
  6798     021A  0830               	movf	___flmul@a+1,w
  6799     021B  160A  118A  23FF  120A  118A  	fcall	__Umul8_16
  6800     0220  0873               	movf	?__Umul8_16+1,w
  6801     0221  1283               	bcf	3,5	;RP0=0, select bank0
  6802     0222  1303               	bcf	3,6	;RP1=0, select bank0
  6803     0223  00C4               	movwf	___flmul@temp+1
  6804     0224  0872               	movf	?__Umul8_16,w
  6805     0225  00C3               	movwf	___flmul@temp
  6806     0226                     l2978:
  6807     0226  0843               	movf	___flmul@temp,w
  6808     0227  00B3               	movwf	??___flmul
  6809     0228  0844               	movf	___flmul@temp+1,w
  6810     0229  00B4               	movwf	??___flmul+1
  6811     022A  01B5               	clrf	??___flmul+2
  6812     022B  01B6               	clrf	??___flmul+3
  6813     022C  0833               	movf	??___flmul,w
  6814     022D  07BF               	addwf	___flmul@prod,f
  6815     022E  0834               	movf	??___flmul+1,w
  6816     022F  1103               	clrz
  6817     0230  1803               	skipnc
  6818     0231  3E01               	addlw	1
  6819     0232  1903               	skipnz
  6820     0233  2A35               	goto	u4291
  6821     0234  07C0               	addwf	___flmul@prod+1,f
  6822     0235                     u4291:
  6823     0235  0835               	movf	??___flmul+2,w
  6824     0236  1103               	clrz
  6825     0237  1803               	skipnc
  6826     0238  3E01               	addlw	1
  6827     0239  1903               	skipnz
  6828     023A  2A3C               	goto	u4292
  6829     023B  07C1               	addwf	___flmul@prod+2,f
  6830     023C                     u4292:
  6831     023C  0836               	movf	??___flmul+3,w
  6832     023D  1103               	clrz
  6833     023E  1803               	skipnc
  6834     023F  3E01               	addlw	1
  6835     0240  1903               	skipnz
  6836     0241  2A43               	goto	u4293
  6837     0242  07C2               	addwf	___flmul@prod+3,f
  6838     0243                     u4293:
  6839     0243  082D               	movf	___flmul@b+2,w
  6840     0244  00F2               	movwf	__Umul8_16@multiplicand
  6841     0245  0831               	movf	___flmul@a+2,w
  6842     0246  160A  118A  23FF  120A  118A  	fcall	__Umul8_16
  6843     024B  0873               	movf	?__Umul8_16+1,w
  6844     024C  1283               	bcf	3,5	;RP0=0, select bank0
  6845     024D  1303               	bcf	3,6	;RP1=0, select bank0
  6846     024E  00C4               	movwf	___flmul@temp+1
  6847     024F  0872               	movf	?__Umul8_16,w
  6848     0250  00C3               	movwf	___flmul@temp
  6849     0251                     l2980:
  6850     0251  0843               	movf	___flmul@temp,w
  6851     0252  00B3               	movwf	??___flmul
  6852     0253  0844               	movf	___flmul@temp+1,w
  6853     0254  00B4               	movwf	??___flmul+1
  6854     0255  01B5               	clrf	??___flmul+2
  6855     0256  01B6               	clrf	??___flmul+3
  6856     0257  3008               	movlw	8
  6857     0258                     u4305:
  6858     0258  1003               	clrc
  6859     0259  0DB3               	rlf	??___flmul,f
  6860     025A  0DB4               	rlf	??___flmul+1,f
  6861     025B  0DB5               	rlf	??___flmul+2,f
  6862     025C  0DB6               	rlf	??___flmul+3,f
  6863     025D                     u4300:
  6864     025D  3EFF               	addlw	-1
  6865     025E  1D03               	skipz
  6866     025F  2A58               	goto	u4305
  6867     0260  0833               	movf	??___flmul,w
  6868     0261  07BF               	addwf	___flmul@prod,f
  6869     0262  0834               	movf	??___flmul+1,w
  6870     0263  1103               	clrz
  6871     0264  1803               	skipnc
  6872     0265  3E01               	addlw	1
  6873     0266  1903               	skipnz
  6874     0267  2A69               	goto	u4311
  6875     0268  07C0               	addwf	___flmul@prod+1,f
  6876     0269                     u4311:
  6877     0269  0835               	movf	??___flmul+2,w
  6878     026A  1103               	clrz
  6879     026B  1803               	skipnc
  6880     026C  3E01               	addlw	1
  6881     026D  1903               	skipnz
  6882     026E  2A70               	goto	u4312
  6883     026F  07C1               	addwf	___flmul@prod+2,f
  6884     0270                     u4312:
  6885     0270  0836               	movf	??___flmul+3,w
  6886     0271  1103               	clrz
  6887     0272  1803               	skipnc
  6888     0273  3E01               	addlw	1
  6889     0274  1903               	skipnz
  6890     0275  2A77               	goto	u4313
  6891     0276  07C2               	addwf	___flmul@prod+3,f
  6892     0277                     u4313:
  6893     0277                     l2982:
  6894     0277  083A               	movf	___flmul@grs,w
  6895     0278  00B3               	movwf	??___flmul
  6896     0279  083B               	movf	___flmul@grs+1,w
  6897     027A  00B4               	movwf	??___flmul+1
  6898     027B  083C               	movf	___flmul@grs+2,w
  6899     027C  00B5               	movwf	??___flmul+2
  6900     027D  083D               	movf	___flmul@grs+3,w
  6901     027E  00B6               	movwf	??___flmul+3
  6902     027F  3018               	movlw	24
  6903     0280                     u4325:
  6904     0280  1003               	clrc
  6905     0281  0CB6               	rrf	??___flmul+3,f
  6906     0282  0CB5               	rrf	??___flmul+2,f
  6907     0283  0CB4               	rrf	??___flmul+1,f
  6908     0284  0CB3               	rrf	??___flmul,f
  6909     0285                     u4320:
  6910     0285  3EFF               	addlw	-1
  6911     0286  1D03               	skipz
  6912     0287  2A80               	goto	u4325
  6913     0288  0833               	movf	??___flmul,w
  6914     0289  07BF               	addwf	___flmul@prod,f
  6915     028A  0834               	movf	??___flmul+1,w
  6916     028B  1103               	clrz
  6917     028C  1803               	skipnc
  6918     028D  3E01               	addlw	1
  6919     028E  1903               	skipnz
  6920     028F  2A91               	goto	u4331
  6921     0290  07C0               	addwf	___flmul@prod+1,f
  6922     0291                     u4331:
  6923     0291  0835               	movf	??___flmul+2,w
  6924     0292  1103               	clrz
  6925     0293  1803               	skipnc
  6926     0294  3E01               	addlw	1
  6927     0295  1903               	skipnz
  6928     0296  2A98               	goto	u4332
  6929     0297  07C1               	addwf	___flmul@prod+2,f
  6930     0298                     u4332:
  6931     0298  0836               	movf	??___flmul+3,w
  6932     0299  1103               	clrz
  6933     029A  1803               	skipnc
  6934     029B  3E01               	addlw	1
  6935     029C  1903               	skipnz
  6936     029D  2A9F               	goto	u4333
  6937     029E  07C2               	addwf	___flmul@prod+3,f
  6938     029F                     u4333:
  6939     029F                     l2984:
  6940     029F  3008               	movlw	8
  6941     02A0  00B3               	movwf	??___flmul
  6942     02A1                     u4345:
  6943     02A1  1003               	clrc
  6944     02A2  0DBA               	rlf	___flmul@grs,f
  6945     02A3  0DBB               	rlf	___flmul@grs+1,f
  6946     02A4  0DBC               	rlf	___flmul@grs+2,f
  6947     02A5  0DBD               	rlf	___flmul@grs+3,f
  6948     02A6  0BB3               	decfsz	??___flmul,f
  6949     02A7  2AA1               	goto	u4345
  6950     02A8                     l2986:
  6951     02A8  083E               	movf	___flmul@bexp,w
  6952     02A9  0739               	addwf	___flmul@aexp,w
  6953     02AA  00B3               	movwf	??___flmul
  6954     02AB  01B4               	clrf	??___flmul+1
  6955     02AC  0DB4               	rlf	??___flmul+1,f
  6956     02AD  0833               	movf	??___flmul,w
  6957     02AE  3E82               	addlw	130
  6958     02AF  00C3               	movwf	___flmul@temp
  6959     02B0  0834               	movf	??___flmul+1,w
  6960     02B1  1803               	skipnc
  6961     02B2  3E01               	addlw	1
  6962     02B3  3EFF               	addlw	255
  6963     02B4  00C4               	movwf	___flmul@temp+1
  6964     02B5  2AD3               	goto	l2998
  6965     02B6                     l2988:
  6966     02B6  3001               	movlw	1
  6967     02B7  00B3               	movwf	??___flmul
  6968     02B8                     u4355:
  6969     02B8  1003               	clrc
  6970     02B9  0DBF               	rlf	___flmul@prod,f
  6971     02BA  0DC0               	rlf	___flmul@prod+1,f
  6972     02BB  0DC1               	rlf	___flmul@prod+2,f
  6973     02BC  0DC2               	rlf	___flmul@prod+3,f
  6974     02BD  0BB3               	decfsz	??___flmul,f
  6975     02BE  2AB8               	goto	u4355
  6976     02BF                     l2990:
  6977     02BF  1FBD               	btfss	___flmul@grs+3,7
  6978     02C0  2AC2               	goto	u4361
  6979     02C1  2AC3               	goto	u4360
  6980     02C2                     u4361:
  6981     02C2  2AC4               	goto	l2994
  6982     02C3                     u4360:
  6983     02C3                     l2992:
  6984     02C3  143F               	bsf	___flmul@prod,0
  6985     02C4                     l2994:
  6986     02C4  3001               	movlw	1
  6987     02C5  00B3               	movwf	??___flmul
  6988     02C6                     u4375:
  6989     02C6  1003               	clrc
  6990     02C7  0DBA               	rlf	___flmul@grs,f
  6991     02C8  0DBB               	rlf	___flmul@grs+1,f
  6992     02C9  0DBC               	rlf	___flmul@grs+2,f
  6993     02CA  0DBD               	rlf	___flmul@grs+3,f
  6994     02CB  0BB3               	decfsz	??___flmul,f
  6995     02CC  2AC6               	goto	u4375
  6996     02CD                     l2996:
  6997     02CD  30FF               	movlw	255
  6998     02CE  07C3               	addwf	___flmul@temp,f
  6999     02CF  1803               	skipnc
  7000     02D0  0AC4               	incf	___flmul@temp+1,f
  7001     02D1  30FF               	movlw	255
  7002     02D2  07C4               	addwf	___flmul@temp+1,f
  7003     02D3                     l2998:
  7004     02D3  1FC1               	btfss	___flmul@prod+2,7
  7005     02D4  2AD6               	goto	u4381
  7006     02D5  2AD7               	goto	u4380
  7007     02D6                     u4381:
  7008     02D6  2AB6               	goto	l2988
  7009     02D7                     u4380:
  7010     02D7                     l3000:
  7011     02D7  01B9               	clrf	___flmul@aexp
  7012     02D8                     l3002:
  7013     02D8  1FBD               	btfss	___flmul@grs+3,7
  7014     02D9  2ADB               	goto	u4391
  7015     02DA  2ADC               	goto	u4390
  7016     02DB                     u4391:
  7017     02DB  2AF8               	goto	l3010
  7018     02DC                     u4390:
  7019     02DC                     l3004:
  7020     02DC  30FF               	movlw	255
  7021     02DD  053A               	andwf	___flmul@grs,w
  7022     02DE  00B3               	movwf	??___flmul
  7023     02DF  30FF               	movlw	255
  7024     02E0  053B               	andwf	___flmul@grs+1,w
  7025     02E1  00B4               	movwf	??___flmul+1
  7026     02E2  30FF               	movlw	255
  7027     02E3  053C               	andwf	___flmul@grs+2,w
  7028     02E4  00B5               	movwf	??___flmul+2
  7029     02E5  307F               	movlw	127
  7030     02E6  053D               	andwf	___flmul@grs+3,w
  7031     02E7  00B6               	movwf	??___flmul+3
  7032     02E8  0836               	movf	??___flmul+3,w
  7033     02E9  0435               	iorwf	??___flmul+2,w
  7034     02EA  0434               	iorwf	??___flmul+1,w
  7035     02EB  0433               	iorwf	??___flmul,w
  7036     02EC  1903               	skipnz
  7037     02ED  2AEF               	goto	u4401
  7038     02EE  2AF0               	goto	u4400
  7039     02EF                     u4401:
  7040     02EF  2AF3               	goto	l647
  7041     02F0                     u4400:
  7042     02F0                     l3006:
  7043     02F0  01B9               	clrf	___flmul@aexp
  7044     02F1  0AB9               	incf	___flmul@aexp,f
  7045     02F2  2AF8               	goto	l3010
  7046     02F3                     l647:
  7047     02F3  1C3F               	btfss	___flmul@prod,0
  7048     02F4  2AF6               	goto	u4411
  7049     02F5  2AF7               	goto	u4410
  7050     02F6                     u4411:
  7051     02F6  2AF8               	goto	l3010
  7052     02F7                     u4410:
  7053     02F7  2AF0               	goto	l3006
  7054     02F8                     l3010:
  7055     02F8  0839               	movf	___flmul@aexp,w
  7056     02F9  1903               	btfsc	3,2
  7057     02FA  2AFC               	goto	u4421
  7058     02FB  2AFD               	goto	u4420
  7059     02FC                     u4421:
  7060     02FC  2B2E               	goto	l3020
  7061     02FD                     u4420:
  7062     02FD                     l3012:
  7063     02FD  3001               	movlw	1
  7064     02FE  07BF               	addwf	___flmul@prod,f
  7065     02FF  3000               	movlw	0
  7066     0300  1803               	skipnc
  7067     0301  3001               	movlw	1
  7068     0302  07C0               	addwf	___flmul@prod+1,f
  7069     0303  3000               	movlw	0
  7070     0304  1803               	skipnc
  7071     0305  3001               	movlw	1
  7072     0306  07C1               	addwf	___flmul@prod+2,f
  7073     0307  3000               	movlw	0
  7074     0308  1803               	skipnc
  7075     0309  3001               	movlw	1
  7076     030A  07C2               	addwf	___flmul@prod+3,f
  7077     030B                     l3014:
  7078     030B  1C42               	btfss	___flmul@prod+3,0
  7079     030C  2B0E               	goto	u4431
  7080     030D  2B0F               	goto	u4430
  7081     030E                     u4431:
  7082     030E  2B2E               	goto	l3020
  7083     030F                     u4430:
  7084     030F                     l3016:
  7085     030F  083F               	movf	___flmul@prod,w
  7086     0310  00B3               	movwf	??___flmul
  7087     0311  0840               	movf	___flmul@prod+1,w
  7088     0312  00B4               	movwf	??___flmul+1
  7089     0313  0841               	movf	___flmul@prod+2,w
  7090     0314  00B5               	movwf	??___flmul+2
  7091     0315  0842               	movf	___flmul@prod+3,w
  7092     0316  00B6               	movwf	??___flmul+3
  7093     0317  3001               	movlw	1
  7094     0318  00B7               	movwf	??___flmul+4
  7095     0319                     u4445:
  7096     0319  0D36               	rlf	??___flmul+3,w
  7097     031A  0CB6               	rrf	??___flmul+3,f
  7098     031B  0CB5               	rrf	??___flmul+2,f
  7099     031C  0CB4               	rrf	??___flmul+1,f
  7100     031D  0CB3               	rrf	??___flmul,f
  7101     031E                     u4440:
  7102     031E  0BB7               	decfsz	??___flmul+4,f
  7103     031F  2B19               	goto	u4445
  7104     0320  0836               	movf	??___flmul+3,w
  7105     0321  00C2               	movwf	___flmul@prod+3
  7106     0322  0835               	movf	??___flmul+2,w
  7107     0323  00C1               	movwf	___flmul@prod+2
  7108     0324  0834               	movf	??___flmul+1,w
  7109     0325  00C0               	movwf	___flmul@prod+1
  7110     0326  0833               	movf	??___flmul,w
  7111     0327  00BF               	movwf	___flmul@prod
  7112     0328                     l3018:
  7113     0328  3001               	movlw	1
  7114     0329  07C3               	addwf	___flmul@temp,f
  7115     032A  1803               	skipnc
  7116     032B  0AC4               	incf	___flmul@temp+1,f
  7117     032C  3000               	movlw	0
  7118     032D  07C4               	addwf	___flmul@temp+1,f
  7119     032E                     l3020:
  7120     032E  0844               	movf	___flmul@temp+1,w
  7121     032F  3A80               	xorlw	128
  7122     0330  00FF               	movwf	btemp+1
  7123     0331  3080               	movlw	128
  7124     0332  027F               	subwf	btemp+1,w
  7125     0333  1D03               	skipz
  7126     0334  2B37               	goto	u4455
  7127     0335  30FF               	movlw	255
  7128     0336  0243               	subwf	___flmul@temp,w
  7129     0337                     u4455:
  7130     0337  1C03               	skipc
  7131     0338  2B3A               	goto	u4451
  7132     0339  2B3B               	goto	u4450
  7133     033A                     u4451:
  7134     033A  2B46               	goto	l3024
  7135     033B                     u4450:
  7136     033B                     l3022:
  7137     033B  307F               	movlw	127
  7138     033C  1283               	bcf	3,5	;RP0=0, select bank0
  7139     033D  1303               	bcf	3,6	;RP1=0, select bank0
  7140     033E  00C2               	movwf	___flmul@prod+3
  7141     033F  3080               	movlw	128
  7142     0340  00C1               	movwf	___flmul@prod+2
  7143     0341  3000               	movlw	0
  7144     0342  00C0               	movwf	___flmul@prod+1
  7145     0343  3000               	movlw	0
  7146     0344  00BF               	movwf	___flmul@prod
  7147     0345  2B77               	goto	l3038
  7148     0346                     l3024:
  7149     0346  1283               	bcf	3,5	;RP0=0, select bank0
  7150     0347  1303               	bcf	3,6	;RP1=0, select bank0
  7151     0348  0844               	movf	___flmul@temp+1,w
  7152     0349  3A80               	xorlw	128
  7153     034A  00FF               	movwf	btemp+1
  7154     034B  3080               	movlw	128
  7155     034C  027F               	subwf	btemp+1,w
  7156     034D  1D03               	skipz
  7157     034E  2B51               	goto	u4465
  7158     034F  3001               	movlw	1
  7159     0350  0243               	subwf	___flmul@temp,w
  7160     0351                     u4465:
  7161     0351  1803               	skipnc
  7162     0352  2B54               	goto	u4461
  7163     0353  2B55               	goto	u4460
  7164     0354                     u4461:
  7165     0354  2B61               	goto	l3030
  7166     0355                     u4460:
  7167     0355                     l3026:
  7168     0355  3000               	movlw	0
  7169     0356  1283               	bcf	3,5	;RP0=0, select bank0
  7170     0357  1303               	bcf	3,6	;RP1=0, select bank0
  7171     0358  00C2               	movwf	___flmul@prod+3
  7172     0359  3000               	movlw	0
  7173     035A  00C1               	movwf	___flmul@prod+2
  7174     035B  3000               	movlw	0
  7175     035C  00C0               	movwf	___flmul@prod+1
  7176     035D  3000               	movlw	0
  7177     035E  00BF               	movwf	___flmul@prod
  7178     035F                     l3028:
  7179     035F  01B8               	clrf	___flmul@sign
  7180     0360  2B77               	goto	l3038
  7181     0361                     l3030:
  7182     0361  1283               	bcf	3,5	;RP0=0, select bank0
  7183     0362  1303               	bcf	3,6	;RP1=0, select bank0
  7184     0363  0843               	movf	___flmul@temp,w
  7185     0364  00BE               	movwf	___flmul@bexp
  7186     0365  30FF               	movlw	255
  7187     0366  05BF               	andwf	___flmul@prod,f
  7188     0367  30FF               	movlw	255
  7189     0368  05C0               	andwf	___flmul@prod+1,f
  7190     0369  307F               	movlw	127
  7191     036A  05C1               	andwf	___flmul@prod+2,f
  7192     036B  3000               	movlw	0
  7193     036C  05C2               	andwf	___flmul@prod+3,f
  7194     036D                     l3032:
  7195     036D  1C3E               	btfss	___flmul@bexp,0
  7196     036E  2B70               	goto	u4471
  7197     036F  2B71               	goto	u4470
  7198     0370                     u4471:
  7199     0370  2B72               	goto	l3036
  7200     0371                     u4470:
  7201     0371                     l3034:
  7202     0371  17C1               	bsf	___flmul@prod+2,7
  7203     0372                     l3036:
  7204     0372  083E               	movf	___flmul@bexp,w
  7205     0373  00B3               	movwf	??___flmul
  7206     0374  1003               	clrc
  7207     0375  0C33               	rrf	??___flmul,w
  7208     0376  00C2               	movwf	___flmul@prod+3
  7209     0377                     l3038:
  7210     0377  0838               	movf	___flmul@sign,w
  7211     0378  00FF               	movwf	btemp+1
  7212     0379  087F               	movf	btemp+1,w
  7213     037A  04C2               	iorwf	___flmul@prod+3,f
  7214     037B                     l3040:
  7215     037B  0842               	movf	___flmul@prod+3,w
  7216     037C  00AE               	movwf	?___flmul+3
  7217     037D  0841               	movf	___flmul@prod+2,w
  7218     037E  00AD               	movwf	?___flmul+2
  7219     037F  0840               	movf	___flmul@prod+1,w
  7220     0380  00AC               	movwf	?___flmul+1
  7221     0381  083F               	movf	___flmul@prod,w
  7222     0382  00AB               	movwf	?___flmul
  7223     0383                     l641:
  7224     0383  0008               	return
  7225     0384                     __end_of___flmul:
  7226                           
  7227                           	psect	text26
  7228     13FF                     __ptext26:	
  7229 ;; *************** function __Umul8_16 *****************
  7230 ;; Defined at:
  7231 ;;		line 4 in file "C:\Program Files\Microchip\xc8\v2.41\pic\sources\c90\common\Umul8_16.c"
  7232 ;; Parameters:    Size  Location     Type
  7233 ;;  multiplier      1    wreg     unsigned char 
  7234 ;;  multiplicand    1    2[COMMON] unsigned char 
  7235 ;; Auto vars:     Size  Location     Type
  7236 ;;  multiplier      1    4[BANK0 ] unsigned char 
  7237 ;;  word_mpld       2    2[BANK0 ] unsigned int 
  7238 ;;  product         2    0[BANK0 ] unsigned int 
  7239 ;; Return value:  Size  Location     Type
  7240 ;;                  2    2[COMMON] unsigned int 
  7241 ;; Registers used:
  7242 ;;		wreg, status,2, status,0
  7243 ;; Tracked objects:
  7244 ;;		On entry : 0/0
  7245 ;;		On exit  : 0/0
  7246 ;;		Unchanged: 0/0
  7247 ;; Data sizes:     COMMON   BANK0   BANK1   BANK3   BANK2
  7248 ;;      Params:         2       0       0       0       0
  7249 ;;      Locals:         0       5       0       0       0
  7250 ;;      Temps:          2       0       0       0       0
  7251 ;;      Totals:         4       5       0       0       0
  7252 ;;Total ram usage:        9 bytes
  7253 ;; Hardware stack levels used: 1
  7254 ;; Hardware stack levels required when called: 1
  7255 ;; This function calls:
  7256 ;;		Nothing
  7257 ;; This function is called by:
  7258 ;;		___flmul
  7259 ;; This function uses a non-reentrant model
  7260 ;;
  7261                           
  7262     13FF                     __Umul8_16:	
  7263                           ;psect for function __Umul8_16
  7264                           
  7265                           
  7266                           ;incstack = 0
  7267                           ; Regs used in __Umul8_16: [wreg+status,2+status,0]
  7268                           ;__Umul8_16@multiplier stored from wreg
  7269     13FF  1283               	bcf	3,5	;RP0=0, select bank0
  7270     1400  1303               	bcf	3,6	;RP1=0, select bank0
  7271     1401  00A4               	movwf	__Umul8_16@multiplier
  7272     1402                     l2878:
  7273     1402  01A0               	clrf	__Umul8_16@product
  7274     1403  01A1               	clrf	__Umul8_16@product+1
  7275     1404                     l2880:
  7276     1404  0872               	movf	__Umul8_16@multiplicand,w
  7277     1405  00F4               	movwf	??__Umul8_16
  7278     1406  01F5               	clrf	??__Umul8_16+1
  7279     1407  0874               	movf	??__Umul8_16,w
  7280     1408  00A2               	movwf	__Umul8_16@word_mpld
  7281     1409  0875               	movf	??__Umul8_16+1,w
  7282     140A  00A3               	movwf	__Umul8_16@word_mpld+1
  7283     140B                     l2882:
  7284     140B  1C24               	btfss	__Umul8_16@multiplier,0
  7285     140C  2C0E               	goto	u4041
  7286     140D  2C0F               	goto	u4040
  7287     140E                     u4041:
  7288     140E  2C15               	goto	l660
  7289     140F                     u4040:
  7290     140F                     l2884:
  7291     140F  0822               	movf	__Umul8_16@word_mpld,w
  7292     1410  07A0               	addwf	__Umul8_16@product,f
  7293     1411  1803               	skipnc
  7294     1412  0AA1               	incf	__Umul8_16@product+1,f
  7295     1413  0823               	movf	__Umul8_16@word_mpld+1,w
  7296     1414  07A1               	addwf	__Umul8_16@product+1,f
  7297     1415                     l660:
  7298     1415  3001               	movlw	1
  7299     1416                     u4055:
  7300     1416  1003               	clrc
  7301     1417  0DA2               	rlf	__Umul8_16@word_mpld,f
  7302     1418  0DA3               	rlf	__Umul8_16@word_mpld+1,f
  7303     1419  3EFF               	addlw	-1
  7304     141A  1D03               	skipz
  7305     141B  2C16               	goto	u4055
  7306     141C  1003               	clrc
  7307     141D  0CA4               	rrf	__Umul8_16@multiplier,f
  7308     141E                     l2886:
  7309     141E  0824               	movf	__Umul8_16@multiplier,w
  7310     141F  1D03               	btfss	3,2
  7311     1420  2C22               	goto	u4061
  7312     1421  2C23               	goto	u4060
  7313     1422                     u4061:
  7314     1422  2C0B               	goto	l2882
  7315     1423                     u4060:
  7316     1423                     l2888:
  7317     1423  0821               	movf	__Umul8_16@product+1,w
  7318     1424  00F3               	movwf	?__Umul8_16+1
  7319     1425  0820               	movf	__Umul8_16@product,w
  7320     1426  00F2               	movwf	?__Umul8_16
  7321     1427                     l662:
  7322     1427  0008               	return
  7323     1428                     __end_of__Umul8_16:
  7324                           
  7325                           	psect	text27
  7326     0621                     __ptext27:	
  7327 ;; *************** function ___fldiv *****************
  7328 ;; Defined at:
  7329 ;;		line 8 in file "C:\Program Files\Microchip\xc8\v2.41\pic\sources\c90\common\sprcdiv.c"
  7330 ;; Parameters:    Size  Location     Type
  7331 ;;  a               4   16[BANK1 ] unsigned int 
  7332 ;;  b               4   20[BANK1 ] unsigned int 
  7333 ;; Auto vars:     Size  Location     Type
  7334 ;;  grs             4   36[BANK1 ] unsigned long 
  7335 ;;  rem             4   29[BANK1 ] unsigned long 
  7336 ;;  new_exp         2   34[BANK1 ] int 
  7337 ;;  aexp            1   41[BANK1 ] unsigned char 
  7338 ;;  bexp            1   40[BANK1 ] unsigned char 
  7339 ;;  sign            1   33[BANK1 ] unsigned char 
  7340 ;; Return value:  Size  Location     Type
  7341 ;;                  4   16[BANK1 ] unsigned char 
  7342 ;; Registers used:
  7343 ;;		wreg, status,2, status,0, btemp+1
  7344 ;; Tracked objects:
  7345 ;;		On entry : 0/0
  7346 ;;		On exit  : 0/0
  7347 ;;		Unchanged: 0/0
  7348 ;; Data sizes:     COMMON   BANK0   BANK1   BANK3   BANK2
  7349 ;;      Params:         0       0       8       0       0
  7350 ;;      Locals:         0       0      13       0       0
  7351 ;;      Temps:          0       0       5       0       0
  7352 ;;      Totals:         0       0      26       0       0
  7353 ;;Total ram usage:       26 bytes
  7354 ;; Hardware stack levels used: 1
  7355 ;; Hardware stack levels required when called: 1
  7356 ;; This function calls:
  7357 ;;		Nothing
  7358 ;; This function is called by:
  7359 ;;		_converteLeituraAnParaVolts
  7360 ;;		_converteVoltsParaLux
  7361 ;; This function uses a non-reentrant model
  7362 ;;
  7363                           
  7364     0621                     ___fldiv:	
  7365                           ;psect for function ___fldiv
  7366                           
  7367     0621                     l2628:	
  7368                           ;incstack = 0
  7369                           ; Regs used in ___fldiv: [wreg+status,2+status,0+btemp+1]
  7370                           
  7371     0621  1683               	bsf	3,5	;RP0=1, select bank1
  7372     0622  1303               	bcf	3,6	;RP1=0, select bank1
  7373     0623  0837               	movf	(___fldiv@b^(0+128)+3),w
  7374     0624  3980               	andlw	128
  7375     0625  00C1               	movwf	___fldiv@sign^(0+128)
  7376     0626                     l2630:
  7377     0626  0837               	movf	(___fldiv@b^(0+128)+3),w
  7378     0627  00B8               	movwf	??___fldiv^(0+128)
  7379     0628  0738               	addwf	??___fldiv^(0+128),w
  7380     0629  00C8               	movwf	___fldiv@bexp^(0+128)
  7381     062A                     l2632:
  7382     062A  1FB6               	btfss	(___fldiv@b^(0+128)+2),7
  7383     062B  2E2D               	goto	u3721
  7384     062C  2E2E               	goto	u3720
  7385     062D                     u3721:
  7386     062D  2E2F               	goto	l2636
  7387     062E                     u3720:
  7388     062E                     l2634:
  7389     062E  1448               	bsf	___fldiv@bexp^(0+128),0
  7390     062F                     l2636:
  7391     062F  0848               	movf	___fldiv@bexp^(0+128),w
  7392     0630  1903               	btfsc	3,2
  7393     0631  2E33               	goto	u3731
  7394     0632  2E34               	goto	u3730
  7395     0633                     u3731:
  7396     0633  2E44               	goto	l2646
  7397     0634                     u3730:
  7398     0634                     l2638:
  7399     0634  0A48               	incf	___fldiv@bexp^(0+128),w
  7400     0635  1D03               	btfss	3,2
  7401     0636  2E38               	goto	u3741
  7402     0637  2E39               	goto	u3740
  7403     0638                     u3741:
  7404     0638  2E41               	goto	l2642
  7405     0639                     u3740:
  7406     0639                     l2640:
  7407     0639  3000               	movlw	0
  7408     063A  00B7               	movwf	(___fldiv@b+3)^(0+128)
  7409     063B  3000               	movlw	0
  7410     063C  00B6               	movwf	(___fldiv@b+2)^(0+128)
  7411     063D  3000               	movlw	0
  7412     063E  00B5               	movwf	(___fldiv@b+1)^(0+128)
  7413     063F  3000               	movlw	0
  7414     0640  00B4               	movwf	___fldiv@b^(0+128)
  7415     0641                     l2642:
  7416     0641  17B6               	bsf	(___fldiv@b^(0+128)+2),7
  7417     0642                     l2644:
  7418     0642  01B7               	clrf	(___fldiv@b^(0+128)+3)
  7419     0643  2E4C               	goto	l2648
  7420     0644                     l2646:
  7421     0644  3000               	movlw	0
  7422     0645  00B7               	movwf	(___fldiv@b+3)^(0+128)
  7423     0646  3000               	movlw	0
  7424     0647  00B6               	movwf	(___fldiv@b+2)^(0+128)
  7425     0648  3000               	movlw	0
  7426     0649  00B5               	movwf	(___fldiv@b+1)^(0+128)
  7427     064A  3000               	movlw	0
  7428     064B  00B4               	movwf	___fldiv@b^(0+128)
  7429     064C                     l2648:
  7430     064C  0833               	movf	(___fldiv@a^(0+128)+3),w
  7431     064D  3980               	andlw	128
  7432     064E  00FF               	movwf	btemp+1
  7433     064F  087F               	movf	btemp+1,w
  7434     0650  06C1               	xorwf	___fldiv@sign^(0+128),f
  7435     0651                     l2650:
  7436     0651  0833               	movf	(___fldiv@a^(0+128)+3),w
  7437     0652  00B8               	movwf	??___fldiv^(0+128)
  7438     0653  0738               	addwf	??___fldiv^(0+128),w
  7439     0654  00C9               	movwf	___fldiv@aexp^(0+128)
  7440     0655                     l2652:
  7441     0655  1FB2               	btfss	(___fldiv@a^(0+128)+2),7
  7442     0656  2E58               	goto	u3751
  7443     0657  2E59               	goto	u3750
  7444     0658                     u3751:
  7445     0658  2E5A               	goto	l2656
  7446     0659                     u3750:
  7447     0659                     l2654:
  7448     0659  1449               	bsf	___fldiv@aexp^(0+128),0
  7449     065A                     l2656:
  7450     065A  0849               	movf	___fldiv@aexp^(0+128),w
  7451     065B  1903               	btfsc	3,2
  7452     065C  2E5E               	goto	u3761
  7453     065D  2E5F               	goto	u3760
  7454     065E                     u3761:
  7455     065E  2E6F               	goto	l2666
  7456     065F                     u3760:
  7457     065F                     l2658:
  7458     065F  0A49               	incf	___fldiv@aexp^(0+128),w
  7459     0660  1D03               	btfss	3,2
  7460     0661  2E63               	goto	u3771
  7461     0662  2E64               	goto	u3770
  7462     0663                     u3771:
  7463     0663  2E6C               	goto	l2662
  7464     0664                     u3770:
  7465     0664                     l2660:
  7466     0664  3000               	movlw	0
  7467     0665  00B3               	movwf	(___fldiv@a+3)^(0+128)
  7468     0666  3000               	movlw	0
  7469     0667  00B2               	movwf	(___fldiv@a+2)^(0+128)
  7470     0668  3000               	movlw	0
  7471     0669  00B1               	movwf	(___fldiv@a+1)^(0+128)
  7472     066A  3000               	movlw	0
  7473     066B  00B0               	movwf	___fldiv@a^(0+128)
  7474     066C                     l2662:
  7475     066C  17B2               	bsf	(___fldiv@a^(0+128)+2),7
  7476     066D                     l2664:
  7477     066D  01B3               	clrf	(___fldiv@a^(0+128)+3)
  7478     066E  2E77               	goto	l601
  7479     066F                     l2666:
  7480     066F  3000               	movlw	0
  7481     0670  00B3               	movwf	(___fldiv@a+3)^(0+128)
  7482     0671  3000               	movlw	0
  7483     0672  00B2               	movwf	(___fldiv@a+2)^(0+128)
  7484     0673  3000               	movlw	0
  7485     0674  00B1               	movwf	(___fldiv@a+1)^(0+128)
  7486     0675  3000               	movlw	0
  7487     0676  00B0               	movwf	___fldiv@a^(0+128)
  7488     0677                     l601:
  7489     0677  0833               	movf	(___fldiv@a+3)^(0+128),w
  7490     0678  0432               	iorwf	(___fldiv@a+2)^(0+128),w
  7491     0679  0431               	iorwf	(___fldiv@a+1)^(0+128),w
  7492     067A  0430               	iorwf	___fldiv@a^(0+128),w
  7493     067B  1D03               	skipz
  7494     067C  2E7E               	goto	u3781
  7495     067D  2E7F               	goto	u3780
  7496     067E                     u3781:
  7497     067E  2E98               	goto	l2676
  7498     067F                     u3780:
  7499     067F                     l2668:
  7500     067F  3000               	movlw	0
  7501     0680  00B7               	movwf	(___fldiv@b+3)^(0+128)
  7502     0681  3000               	movlw	0
  7503     0682  00B6               	movwf	(___fldiv@b+2)^(0+128)
  7504     0683  3000               	movlw	0
  7505     0684  00B5               	movwf	(___fldiv@b+1)^(0+128)
  7506     0685  3000               	movlw	0
  7507     0686  00B4               	movwf	___fldiv@b^(0+128)
  7508     0687  3080               	movlw	128
  7509     0688  04B6               	iorwf	(___fldiv@b^(0+128)+2),f
  7510     0689  307F               	movlw	127
  7511     068A  04B7               	iorwf	((___fldiv@b+1)^(0+128)+2),f
  7512     068B                     l2670:
  7513     068B  0841               	movf	___fldiv@sign^(0+128),w
  7514     068C  00FF               	movwf	btemp+1
  7515     068D  087F               	movf	btemp+1,w
  7516     068E  04B7               	iorwf	(___fldiv@b^(0+128)+3),f
  7517     068F                     l2672:
  7518     068F  0837               	movf	(___fldiv@b+3)^(0+128),w
  7519     0690  00B3               	movwf	(?___fldiv+3)^(0+128)
  7520     0691  0836               	movf	(___fldiv@b+2)^(0+128),w
  7521     0692  00B2               	movwf	(?___fldiv+2)^(0+128)
  7522     0693  0835               	movf	(___fldiv@b+1)^(0+128),w
  7523     0694  00B1               	movwf	(?___fldiv+1)^(0+128)
  7524     0695  0834               	movf	___fldiv@b^(0+128),w
  7525     0696  00B0               	movwf	?___fldiv^(0+128)
  7526     0697  2FEF               	goto	l603
  7527     0698                     l2676:
  7528     0698  0848               	movf	___fldiv@bexp^(0+128),w
  7529     0699  1D03               	btfss	3,2
  7530     069A  2E9C               	goto	u3791
  7531     069B  2E9D               	goto	u3790
  7532     069C                     u3791:
  7533     069C  2EA6               	goto	l2682
  7534     069D                     u3790:
  7535     069D                     l2678:
  7536     069D  3000               	movlw	0
  7537     069E  00B3               	movwf	(?___fldiv+3)^(0+128)
  7538     069F  3000               	movlw	0
  7539     06A0  00B2               	movwf	(?___fldiv+2)^(0+128)
  7540     06A1  3000               	movlw	0
  7541     06A2  00B1               	movwf	(?___fldiv+1)^(0+128)
  7542     06A3  3000               	movlw	0
  7543     06A4  00B0               	movwf	?___fldiv^(0+128)
  7544     06A5  2FEF               	goto	l603
  7545     06A6                     l2682:
  7546     06A6  0848               	movf	___fldiv@bexp^(0+128),w
  7547     06A7  00B8               	movwf	??___fldiv^(0+128)
  7548     06A8  01B9               	clrf	(??___fldiv^(0+128)+1)
  7549     06A9  0839               	movf	(??___fldiv+1)^(0+128),w
  7550     06AA  00BB               	movwf	((??___fldiv+2)^(0+128)+1)
  7551     06AB  0849               	movf	___fldiv@aexp^(0+128),w
  7552     06AC  0238               	subwf	??___fldiv^(0+128),w
  7553     06AD  00BA               	movwf	(??___fldiv+2)^(0+128)
  7554     06AE  1C03               	skipc
  7555     06AF  03BB               	decf	((??___fldiv+2)^(0+128)+1),f
  7556     06B0  083A               	movf	(??___fldiv+2)^(0+128),w
  7557     06B1  3E7F               	addlw	127
  7558     06B2  00C2               	movwf	___fldiv@new_exp^(0+128)
  7559     06B3  083B               	movf	(??___fldiv+3)^(0+128),w
  7560     06B4  1803               	skipnc
  7561     06B5  3E01               	addlw	1
  7562     06B6  3E00               	addlw	0
  7563     06B7  00C3               	movwf	(___fldiv@new_exp+1)^(0+128)
  7564     06B8                     l2684:
  7565     06B8  0837               	movf	(___fldiv@b+3)^(0+128),w
  7566     06B9  00C0               	movwf	(___fldiv@rem+3)^(0+128)
  7567     06BA  0836               	movf	(___fldiv@b+2)^(0+128),w
  7568     06BB  00BF               	movwf	(___fldiv@rem+2)^(0+128)
  7569     06BC  0835               	movf	(___fldiv@b+1)^(0+128),w
  7570     06BD  00BE               	movwf	(___fldiv@rem+1)^(0+128)
  7571     06BE  0834               	movf	___fldiv@b^(0+128),w
  7572     06BF  00BD               	movwf	___fldiv@rem^(0+128)
  7573     06C0                     l2686:
  7574     06C0  3000               	movlw	0
  7575     06C1  00B7               	movwf	(___fldiv@b+3)^(0+128)
  7576     06C2  3000               	movlw	0
  7577     06C3  00B6               	movwf	(___fldiv@b+2)^(0+128)
  7578     06C4  3000               	movlw	0
  7579     06C5  00B5               	movwf	(___fldiv@b+1)^(0+128)
  7580     06C6  3000               	movlw	0
  7581     06C7  00B4               	movwf	___fldiv@b^(0+128)
  7582     06C8                     l2688:
  7583     06C8  3000               	movlw	0
  7584     06C9  00C7               	movwf	(___fldiv@grs+3)^(0+128)
  7585     06CA  3000               	movlw	0
  7586     06CB  00C6               	movwf	(___fldiv@grs+2)^(0+128)
  7587     06CC  3000               	movlw	0
  7588     06CD  00C5               	movwf	(___fldiv@grs+1)^(0+128)
  7589     06CE  3000               	movlw	0
  7590     06CF  00C4               	movwf	___fldiv@grs^(0+128)
  7591     06D0                     l2690:
  7592     06D0  01C9               	clrf	___fldiv@aexp^(0+128)
  7593     06D1  2F1C               	goto	l2710
  7594     06D2                     l2692:
  7595     06D2  0849               	movf	___fldiv@aexp^(0+128),w
  7596     06D3  1903               	btfsc	3,2
  7597     06D4  2ED6               	goto	u3801
  7598     06D5  2ED7               	goto	u3800
  7599     06D6                     u3801:
  7600     06D6  2EF7               	goto	l2702
  7601     06D7                     u3800:
  7602     06D7                     l2694:
  7603     06D7  3001               	movlw	1
  7604     06D8  00B8               	movwf	??___fldiv^(0+128)
  7605     06D9                     u3815:
  7606     06D9  1003               	clrc
  7607     06DA  0DBD               	rlf	___fldiv@rem^(0+128),f
  7608     06DB  0DBE               	rlf	(___fldiv@rem+1)^(0+128),f
  7609     06DC  0DBF               	rlf	(___fldiv@rem+2)^(0+128),f
  7610     06DD  0DC0               	rlf	(___fldiv@rem+3)^(0+128),f
  7611     06DE  0BB8               	decfsz	??___fldiv^(0+128),f
  7612     06DF  2ED9               	goto	u3815
  7613     06E0  3001               	movlw	1
  7614     06E1  00B8               	movwf	??___fldiv^(0+128)
  7615     06E2                     u3825:
  7616     06E2  1003               	clrc
  7617     06E3  0DB4               	rlf	___fldiv@b^(0+128),f
  7618     06E4  0DB5               	rlf	(___fldiv@b+1)^(0+128),f
  7619     06E5  0DB6               	rlf	(___fldiv@b+2)^(0+128),f
  7620     06E6  0DB7               	rlf	(___fldiv@b+3)^(0+128),f
  7621     06E7  0BB8               	decfsz	??___fldiv^(0+128),f
  7622     06E8  2EE2               	goto	u3825
  7623     06E9                     l2696:
  7624     06E9  1FC7               	btfss	(___fldiv@grs+3)^(0+128),7
  7625     06EA  2EEC               	goto	u3831
  7626     06EB  2EED               	goto	u3830
  7627     06EC                     u3831:
  7628     06EC  2EEE               	goto	l2700
  7629     06ED                     u3830:
  7630     06ED                     l2698:
  7631     06ED  1434               	bsf	___fldiv@b^(0+128),0
  7632     06EE                     l2700:
  7633     06EE  3001               	movlw	1
  7634     06EF  00B8               	movwf	??___fldiv^(0+128)
  7635     06F0                     u3845:
  7636     06F0  1003               	clrc
  7637     06F1  0DC4               	rlf	___fldiv@grs^(0+128),f
  7638     06F2  0DC5               	rlf	(___fldiv@grs+1)^(0+128),f
  7639     06F3  0DC6               	rlf	(___fldiv@grs+2)^(0+128),f
  7640     06F4  0DC7               	rlf	(___fldiv@grs+3)^(0+128),f
  7641     06F5  0BB8               	decfsz	??___fldiv^(0+128),f
  7642     06F6  2EF0               	goto	u3845
  7643     06F7                     l2702:
  7644     06F7  0833               	movf	(___fldiv@a+3)^(0+128),w
  7645     06F8  0240               	subwf	(___fldiv@rem+3)^(0+128),w
  7646     06F9  1D03               	skipz
  7647     06FA  2F05               	goto	u3855
  7648     06FB  0832               	movf	(___fldiv@a+2)^(0+128),w
  7649     06FC  023F               	subwf	(___fldiv@rem+2)^(0+128),w
  7650     06FD  1D03               	skipz
  7651     06FE  2F05               	goto	u3855
  7652     06FF  0831               	movf	(___fldiv@a+1)^(0+128),w
  7653     0700  023E               	subwf	(___fldiv@rem+1)^(0+128),w
  7654     0701  1D03               	skipz
  7655     0702  2F05               	goto	u3855
  7656     0703  0830               	movf	___fldiv@a^(0+128),w
  7657     0704  023D               	subwf	___fldiv@rem^(0+128),w
  7658     0705                     u3855:
  7659     0705  1C03               	skipc
  7660     0706  2F08               	goto	u3851
  7661     0707  2F09               	goto	u3850
  7662     0708                     u3851:
  7663     0708  2F18               	goto	l2708
  7664     0709                     u3850:
  7665     0709                     l2704:
  7666     0709  1747               	bsf	(___fldiv@grs^(0+128)+3),6
  7667     070A                     l2706:
  7668     070A  0830               	movf	___fldiv@a^(0+128),w
  7669     070B  02BD               	subwf	___fldiv@rem^(0+128),f
  7670     070C  0831               	movf	(___fldiv@a+1)^(0+128),w
  7671     070D  1C03               	skipc
  7672     070E  0F31               	incfsz	(___fldiv@a+1)^(0+128),w
  7673     070F  02BE               	subwf	(___fldiv@rem+1)^(0+128),f
  7674     0710  0832               	movf	(___fldiv@a+2)^(0+128),w
  7675     0711  1C03               	skipc
  7676     0712  0F32               	incfsz	(___fldiv@a+2)^(0+128),w
  7677     0713  02BF               	subwf	(___fldiv@rem+2)^(0+128),f
  7678     0714  0833               	movf	(___fldiv@a+3)^(0+128),w
  7679     0715  1C03               	skipc
  7680     0716  0F33               	incfsz	(___fldiv@a+3)^(0+128),w
  7681     0717  02C0               	subwf	(___fldiv@rem+3)^(0+128),f
  7682     0718                     l2708:
  7683     0718  3001               	movlw	1
  7684     0719  00FF               	movwf	btemp+1
  7685     071A  087F               	movf	btemp+1,w
  7686     071B  07C9               	addwf	___fldiv@aexp^(0+128),f
  7687     071C                     l2710:
  7688     071C  301A               	movlw	26
  7689     071D  0249               	subwf	___fldiv@aexp^(0+128),w
  7690     071E  1C03               	skipc
  7691     071F  2F21               	goto	u3861
  7692     0720  2F22               	goto	u3860
  7693     0721                     u3861:
  7694     0721  2ED2               	goto	l2692
  7695     0722                     u3860:
  7696     0722                     l2712:
  7697     0722  0840               	movf	(___fldiv@rem+3)^(0+128),w
  7698     0723  043F               	iorwf	(___fldiv@rem+2)^(0+128),w
  7699     0724  043E               	iorwf	(___fldiv@rem+1)^(0+128),w
  7700     0725  043D               	iorwf	___fldiv@rem^(0+128),w
  7701     0726  1903               	skipnz
  7702     0727  2F29               	goto	u3871
  7703     0728  2F2A               	goto	u3870
  7704     0729                     u3871:
  7705     0729  2F49               	goto	l2726
  7706     072A                     u3870:
  7707     072A                     l2714:
  7708     072A  1444               	bsf	___fldiv@grs^(0+128),0
  7709     072B  2F49               	goto	l2726
  7710     072C                     l2716:
  7711     072C  3001               	movlw	1
  7712     072D  00B8               	movwf	??___fldiv^(0+128)
  7713     072E                     u3885:
  7714     072E  1003               	clrc
  7715     072F  0DB4               	rlf	___fldiv@b^(0+128),f
  7716     0730  0DB5               	rlf	(___fldiv@b+1)^(0+128),f
  7717     0731  0DB6               	rlf	(___fldiv@b+2)^(0+128),f
  7718     0732  0DB7               	rlf	(___fldiv@b+3)^(0+128),f
  7719     0733  0BB8               	decfsz	??___fldiv^(0+128),f
  7720     0734  2F2E               	goto	u3885
  7721     0735                     l2718:
  7722     0735  1FC7               	btfss	(___fldiv@grs+3)^(0+128),7
  7723     0736  2F38               	goto	u3891
  7724     0737  2F39               	goto	u3890
  7725     0738                     u3891:
  7726     0738  2F3A               	goto	l2722
  7727     0739                     u3890:
  7728     0739                     l2720:
  7729     0739  1434               	bsf	___fldiv@b^(0+128),0
  7730     073A                     l2722:
  7731     073A  3001               	movlw	1
  7732     073B  00B8               	movwf	??___fldiv^(0+128)
  7733     073C                     u3905:
  7734     073C  1003               	clrc
  7735     073D  0DC4               	rlf	___fldiv@grs^(0+128),f
  7736     073E  0DC5               	rlf	(___fldiv@grs+1)^(0+128),f
  7737     073F  0DC6               	rlf	(___fldiv@grs+2)^(0+128),f
  7738     0740  0DC7               	rlf	(___fldiv@grs+3)^(0+128),f
  7739     0741  0BB8               	decfsz	??___fldiv^(0+128),f
  7740     0742  2F3C               	goto	u3905
  7741     0743                     l2724:
  7742     0743  30FF               	movlw	255
  7743     0744  07C2               	addwf	___fldiv@new_exp^(0+128),f
  7744     0745  1803               	skipnc
  7745     0746  0AC3               	incf	(___fldiv@new_exp+1)^(0+128),f
  7746     0747  30FF               	movlw	255
  7747     0748  07C3               	addwf	(___fldiv@new_exp+1)^(0+128),f
  7748     0749                     l2726:
  7749     0749  1FB6               	btfss	(___fldiv@b+2)^(0+128),7
  7750     074A  2F4C               	goto	u3911
  7751     074B  2F4D               	goto	u3910
  7752     074C                     u3911:
  7753     074C  2F2C               	goto	l2716
  7754     074D                     u3910:
  7755     074D                     l2728:
  7756     074D  01C9               	clrf	___fldiv@aexp^(0+128)
  7757     074E                     l2730:
  7758     074E  1FC7               	btfss	(___fldiv@grs+3)^(0+128),7
  7759     074F  2F51               	goto	u3921
  7760     0750  2F52               	goto	u3920
  7761     0751                     u3921:
  7762     0751  2F6E               	goto	l2738
  7763     0752                     u3920:
  7764     0752                     l2732:
  7765     0752  30FF               	movlw	255
  7766     0753  0544               	andwf	___fldiv@grs^(0+128),w
  7767     0754  00B8               	movwf	??___fldiv^(0+128)
  7768     0755  30FF               	movlw	255
  7769     0756  0545               	andwf	(___fldiv@grs+1)^(0+128),w
  7770     0757  00B9               	movwf	(??___fldiv^(0+128)+1)
  7771     0758  30FF               	movlw	255
  7772     0759  0546               	andwf	(___fldiv@grs+2)^(0+128),w
  7773     075A  00BA               	movwf	(??___fldiv^(0+128)+2)
  7774     075B  307F               	movlw	127
  7775     075C  0547               	andwf	(___fldiv@grs+3)^(0+128),w
  7776     075D  00BB               	movwf	(??___fldiv^(0+128)+3)
  7777     075E  083B               	movf	(??___fldiv+3)^(0+128),w
  7778     075F  043A               	iorwf	(??___fldiv+2)^(0+128),w
  7779     0760  0439               	iorwf	(??___fldiv+1)^(0+128),w
  7780     0761  0438               	iorwf	??___fldiv^(0+128),w
  7781     0762  1903               	skipnz
  7782     0763  2F65               	goto	u3931
  7783     0764  2F66               	goto	u3930
  7784     0765                     u3931:
  7785     0765  2F69               	goto	l617
  7786     0766                     u3930:
  7787     0766                     l2734:
  7788     0766  01C9               	clrf	___fldiv@aexp^(0+128)
  7789     0767  0AC9               	incf	___fldiv@aexp^(0+128),f
  7790     0768  2F6E               	goto	l2738
  7791     0769                     l617:
  7792     0769  1C34               	btfss	___fldiv@b^(0+128),0
  7793     076A  2F6C               	goto	u3941
  7794     076B  2F6D               	goto	u3940
  7795     076C                     u3941:
  7796     076C  2F6E               	goto	l2738
  7797     076D                     u3940:
  7798     076D  2F66               	goto	l2734
  7799     076E                     l2738:
  7800     076E  0849               	movf	___fldiv@aexp^(0+128),w
  7801     076F  1903               	btfsc	3,2
  7802     0770  2F72               	goto	u3951
  7803     0771  2F73               	goto	u3950
  7804     0772                     u3951:
  7805     0772  2FA4               	goto	l2748
  7806     0773                     u3950:
  7807     0773                     l2740:
  7808     0773  3001               	movlw	1
  7809     0774  07B4               	addwf	___fldiv@b^(0+128),f
  7810     0775  3000               	movlw	0
  7811     0776  1803               	skipnc
  7812     0777  3001               	movlw	1
  7813     0778  07B5               	addwf	(___fldiv@b+1)^(0+128),f
  7814     0779  3000               	movlw	0
  7815     077A  1803               	skipnc
  7816     077B  3001               	movlw	1
  7817     077C  07B6               	addwf	(___fldiv@b+2)^(0+128),f
  7818     077D  3000               	movlw	0
  7819     077E  1803               	skipnc
  7820     077F  3001               	movlw	1
  7821     0780  07B7               	addwf	(___fldiv@b+3)^(0+128),f
  7822     0781                     l2742:
  7823     0781  1C37               	btfss	(___fldiv@b+3)^(0+128),0
  7824     0782  2F84               	goto	u3961
  7825     0783  2F85               	goto	u3960
  7826     0784                     u3961:
  7827     0784  2FA4               	goto	l2748
  7828     0785                     u3960:
  7829     0785                     l2744:
  7830     0785  0834               	movf	___fldiv@b^(0+128),w
  7831     0786  00B8               	movwf	??___fldiv^(0+128)
  7832     0787  0835               	movf	(___fldiv@b+1)^(0+128),w
  7833     0788  00B9               	movwf	(??___fldiv^(0+128)+1)
  7834     0789  0836               	movf	(___fldiv@b+2)^(0+128),w
  7835     078A  00BA               	movwf	(??___fldiv^(0+128)+2)
  7836     078B  0837               	movf	(___fldiv@b+3)^(0+128),w
  7837     078C  00BB               	movwf	(??___fldiv^(0+128)+3)
  7838     078D  3001               	movlw	1
  7839     078E  00BC               	movwf	(??___fldiv+4)^(0+128)
  7840     078F                     u3975:
  7841     078F  0D3B               	rlf	(??___fldiv^(0+128)+3),w
  7842     0790  0CBB               	rrf	(??___fldiv^(0+128)+3),f
  7843     0791  0CBA               	rrf	(??___fldiv^(0+128)+2),f
  7844     0792  0CB9               	rrf	(??___fldiv^(0+128)+1),f
  7845     0793  0CB8               	rrf	??___fldiv^(0+128),f
  7846     0794                     u3970:
  7847     0794  0BBC               	decfsz	(??___fldiv+4)^(0+128),f
  7848     0795  2F8F               	goto	u3975
  7849     0796  083B               	movf	(??___fldiv+3)^(0+128),w
  7850     0797  00B7               	movwf	(___fldiv@b+3)^(0+128)
  7851     0798  083A               	movf	(??___fldiv+2)^(0+128),w
  7852     0799  00B6               	movwf	(___fldiv@b+2)^(0+128)
  7853     079A  0839               	movf	(??___fldiv+1)^(0+128),w
  7854     079B  00B5               	movwf	(___fldiv@b+1)^(0+128)
  7855     079C  0838               	movf	??___fldiv^(0+128),w
  7856     079D  00B4               	movwf	___fldiv@b^(0+128)
  7857     079E                     l2746:
  7858     079E  3001               	movlw	1
  7859     079F  07C2               	addwf	___fldiv@new_exp^(0+128),f
  7860     07A0  1803               	skipnc
  7861     07A1  0AC3               	incf	(___fldiv@new_exp+1)^(0+128),f
  7862     07A2  3000               	movlw	0
  7863     07A3  07C3               	addwf	(___fldiv@new_exp+1)^(0+128),f
  7864     07A4                     l2748:
  7865     07A4  0843               	movf	(___fldiv@new_exp+1)^(0+128),w
  7866     07A5  3A80               	xorlw	128
  7867     07A6  00FF               	movwf	btemp+1
  7868     07A7  3080               	movlw	128
  7869     07A8  027F               	subwf	btemp+1,w
  7870     07A9  1D03               	skipz
  7871     07AA  2FAD               	goto	u3985
  7872     07AB  30FF               	movlw	255
  7873     07AC  0242               	subwf	___fldiv@new_exp^(0+128),w
  7874     07AD                     u3985:
  7875     07AD  1C03               	skipc
  7876     07AE  2FB0               	goto	u3981
  7877     07AF  2FB1               	goto	u3980
  7878     07B0                     u3981:
  7879     07B0  2FBF               	goto	l2752
  7880     07B1                     u3980:
  7881     07B1                     l2750:
  7882     07B1  30FF               	movlw	255
  7883     07B2  1683               	bsf	3,5	;RP0=1, select bank1
  7884     07B3  1303               	bcf	3,6	;RP1=0, select bank1
  7885     07B4  00C2               	movwf	___fldiv@new_exp^(0+128)
  7886     07B5  3000               	movlw	0
  7887     07B6  00C3               	movwf	(___fldiv@new_exp^(0+128)+1)
  7888     07B7  3000               	movlw	0
  7889     07B8  00B7               	movwf	(___fldiv@b+3)^(0+128)
  7890     07B9  3000               	movlw	0
  7891     07BA  00B6               	movwf	(___fldiv@b+2)^(0+128)
  7892     07BB  3000               	movlw	0
  7893     07BC  00B5               	movwf	(___fldiv@b+1)^(0+128)
  7894     07BD  3000               	movlw	0
  7895     07BE  00B4               	movwf	___fldiv@b^(0+128)
  7896     07BF                     l2752:
  7897     07BF  1683               	bsf	3,5	;RP0=1, select bank1
  7898     07C0  1303               	bcf	3,6	;RP1=0, select bank1
  7899     07C1  0843               	movf	(___fldiv@new_exp+1)^(0+128),w
  7900     07C2  3A80               	xorlw	128
  7901     07C3  00FF               	movwf	btemp+1
  7902     07C4  3080               	movlw	128
  7903     07C5  027F               	subwf	btemp+1,w
  7904     07C6  1D03               	skipz
  7905     07C7  2FCA               	goto	u3995
  7906     07C8  3001               	movlw	1
  7907     07C9  0242               	subwf	___fldiv@new_exp^(0+128),w
  7908     07CA                     u3995:
  7909     07CA  1803               	skipnc
  7910     07CB  2FCD               	goto	u3991
  7911     07CC  2FCE               	goto	u3990
  7912     07CD                     u3991:
  7913     07CD  2FDB               	goto	l623
  7914     07CE                     u3990:
  7915     07CE                     l2754:
  7916     07CE  1683               	bsf	3,5	;RP0=1, select bank1
  7917     07CF  1303               	bcf	3,6	;RP1=0, select bank1
  7918     07D0  01C2               	clrf	___fldiv@new_exp^(0+128)
  7919     07D1  01C3               	clrf	(___fldiv@new_exp+1)^(0+128)
  7920     07D2                     l2756:
  7921     07D2  3000               	movlw	0
  7922     07D3  00B7               	movwf	(___fldiv@b+3)^(0+128)
  7923     07D4  3000               	movlw	0
  7924     07D5  00B6               	movwf	(___fldiv@b+2)^(0+128)
  7925     07D6  3000               	movlw	0
  7926     07D7  00B5               	movwf	(___fldiv@b+1)^(0+128)
  7927     07D8  3000               	movlw	0
  7928     07D9  00B4               	movwf	___fldiv@b^(0+128)
  7929     07DA                     l2758:
  7930     07DA  01C1               	clrf	___fldiv@sign^(0+128)
  7931     07DB                     l623:
  7932     07DB  1683               	bsf	3,5	;RP0=1, select bank1
  7933     07DC  1303               	bcf	3,6	;RP1=0, select bank1
  7934     07DD  0842               	movf	___fldiv@new_exp^(0+128),w
  7935     07DE  00C8               	movwf	___fldiv@bexp^(0+128)
  7936     07DF                     l2760:
  7937     07DF  1C48               	btfss	___fldiv@bexp^(0+128),0
  7938     07E0  2FE2               	goto	u4001
  7939     07E1  2FE3               	goto	u4000
  7940     07E2                     u4001:
  7941     07E2  2FE5               	goto	l2764
  7942     07E3                     u4000:
  7943     07E3                     l2762:
  7944     07E3  17B6               	bsf	(___fldiv@b^(0+128)+2),7
  7945     07E4  2FE9               	goto	l2766
  7946     07E5                     l2764:
  7947     07E5  307F               	movlw	127
  7948     07E6  00FF               	movwf	btemp+1
  7949     07E7  087F               	movf	btemp+1,w
  7950     07E8  05B6               	andwf	(___fldiv@b^(0+128)+2),f
  7951     07E9                     l2766:
  7952     07E9  0848               	movf	___fldiv@bexp^(0+128),w
  7953     07EA  00B8               	movwf	??___fldiv^(0+128)
  7954     07EB  1003               	clrc
  7955     07EC  0C38               	rrf	??___fldiv^(0+128),w
  7956     07ED  00B7               	movwf	(___fldiv@b^(0+128)+3)
  7957     07EE  2E8B               	goto	l2670
  7958     07EF                     l603:
  7959     07EF  0008               	return
  7960     07F0                     __end_of___fldiv:
  7961                           
  7962                           	psect	text28
  7963     07F0                     __ptext28:	
  7964 ;; *************** function _configPWMRegs *****************
  7965 ;; Defined at:
  7966 ;;		line 110 in file "newmain.c"
  7967 ;; Parameters:    Size  Location     Type
  7968 ;;		None
  7969 ;; Auto vars:     Size  Location     Type
  7970 ;;		None
  7971 ;; Return value:  Size  Location     Type
  7972 ;;                  1    wreg      void 
  7973 ;; Registers used:
  7974 ;;		wreg
  7975 ;; Tracked objects:
  7976 ;;		On entry : 0/0
  7977 ;;		On exit  : 0/0
  7978 ;;		Unchanged: 0/0
  7979 ;; Data sizes:     COMMON   BANK0   BANK1   BANK3   BANK2
  7980 ;;      Params:         0       0       0       0       0
  7981 ;;      Locals:         0       0       0       0       0
  7982 ;;      Temps:          0       0       0       0       0
  7983 ;;      Totals:         0       0       0       0       0
  7984 ;;Total ram usage:        0 bytes
  7985 ;; Hardware stack levels used: 1
  7986 ;; Hardware stack levels required when called: 1
  7987 ;; This function calls:
  7988 ;;		Nothing
  7989 ;; This function is called by:
  7990 ;;		_main
  7991 ;; This function uses a non-reentrant model
  7992 ;;
  7993                           
  7994     07F0                     _configPWMRegs:	
  7995                           ;psect for function _configPWMRegs
  7996                           
  7997     07F0                     l2802:	
  7998                           ;incstack = 0
  7999                           ; Regs used in _configPWMRegs: [wreg]
  8000                           
  8001                           
  8002                           ;newmain.c: 111:     CCP1CON = 0x0F;
  8003     07F0  300F               	movlw	15
  8004     07F1  1283               	bcf	3,5	;RP0=0, select bank0
  8005     07F2  1303               	bcf	3,6	;RP1=0, select bank0
  8006     07F3  0097               	movwf	23	;volatile
  8007                           
  8008                           ;newmain.c: 112:     PR2 = 100;
  8009     07F4  3064               	movlw	100
  8010     07F5  1683               	bsf	3,5	;RP0=1, select bank1
  8011     07F6  1303               	bcf	3,6	;RP1=0, select bank1
  8012     07F7  0092               	movwf	18	;volatile
  8013                           
  8014                           ;newmain.c: 113:     CCPR1L = porcentagem_PWM;
  8015     07F8  3032               	movlw	50
  8016     07F9  1283               	bcf	3,5	;RP0=0, select bank0
  8017     07FA  1303               	bcf	3,6	;RP1=0, select bank0
  8018     07FB  0095               	movwf	21	;volatile
  8019     07FC                     l2804:
  8020                           
  8021                           ;newmain.c: 114:     TMR2ON = 1;
  8022     07FC  1512               	bsf	18,2	;volatile
  8023     07FD                     l110:
  8024     07FD  0008               	return
  8025     07FE                     __end_of_configPWMRegs:
  8026                           
  8027                           	psect	text29
  8028     1368                     __ptext29:	
  8029 ;; *************** function _configIntExterns *****************
  8030 ;; Defined at:
  8031 ;;		line 205 in file "newmain.c"
  8032 ;; Parameters:    Size  Location     Type
  8033 ;;		None
  8034 ;; Auto vars:     Size  Location     Type
  8035 ;;		None
  8036 ;; Return value:  Size  Location     Type
  8037 ;;                  1    wreg      void 
  8038 ;; Registers used:
  8039 ;;		None
  8040 ;; Tracked objects:
  8041 ;;		On entry : 0/0
  8042 ;;		On exit  : 0/0
  8043 ;;		Unchanged: 0/0
  8044 ;; Data sizes:     COMMON   BANK0   BANK1   BANK3   BANK2
  8045 ;;      Params:         0       0       0       0       0
  8046 ;;      Locals:         0       0       0       0       0
  8047 ;;      Temps:          0       0       0       0       0
  8048 ;;      Totals:         0       0       0       0       0
  8049 ;;Total ram usage:        0 bytes
  8050 ;; Hardware stack levels used: 1
  8051 ;; Hardware stack levels required when called: 1
  8052 ;; This function calls:
  8053 ;;		Nothing
  8054 ;; This function is called by:
  8055 ;;		_main
  8056 ;; This function uses a non-reentrant model
  8057 ;;
  8058                           
  8059     1368                     _configIntExterns:	
  8060                           ;psect for function _configIntExterns
  8061                           
  8062     1368                     l2816:	
  8063                           ;incstack = 0
  8064                           ; Regs used in _configIntExterns: []
  8065                           
  8066                           
  8067                           ;newmain.c: 207:     OPTION_REGbits.INTEDG = 0;
  8068     1368  1683               	bsf	3,5	;RP0=1, select bank1
  8069     1369  1303               	bcf	3,6	;RP1=0, select bank1
  8070     136A  1301               	bcf	1,6	;volatile
  8071                           
  8072                           ;newmain.c: 208:     INTCONbits.GIE = 1;
  8073     136B  178B               	bsf	11,7	;volatile
  8074                           
  8075                           ;newmain.c: 209:     INTCONbits.INTE = 1;
  8076     136C  160B               	bsf	11,4	;volatile
  8077                           
  8078                           ;newmain.c: 210:     INTCONbits.INTF = 0;
  8079     136D  108B               	bcf	11,1	;volatile
  8080     136E                     l146:	
  8081                           ;newmain.c: 211:     return;
  8082                           
  8083     136E  0008               	return
  8084     136F                     __end_of_configIntExterns:
  8085                           
  8086                           	psect	text30
  8087     1391                     __ptext30:	
  8088 ;; *************** function _configADC *****************
  8089 ;; Defined at:
  8090 ;;		line 38 in file "newmain.c"
  8091 ;; Parameters:    Size  Location     Type
  8092 ;;		None
  8093 ;; Auto vars:     Size  Location     Type
  8094 ;;		None
  8095 ;; Return value:  Size  Location     Type
  8096 ;;                  1    wreg      void 
  8097 ;; Registers used:
  8098 ;;		status,2
  8099 ;; Tracked objects:
  8100 ;;		On entry : 0/0
  8101 ;;		On exit  : 0/0
  8102 ;;		Unchanged: 0/0
  8103 ;; Data sizes:     COMMON   BANK0   BANK1   BANK3   BANK2
  8104 ;;      Params:         0       0       0       0       0
  8105 ;;      Locals:         0       0       0       0       0
  8106 ;;      Temps:          0       0       0       0       0
  8107 ;;      Totals:         0       0       0       0       0
  8108 ;;Total ram usage:        0 bytes
  8109 ;; Hardware stack levels used: 1
  8110 ;; Hardware stack levels required when called: 1
  8111 ;; This function calls:
  8112 ;;		Nothing
  8113 ;; This function is called by:
  8114 ;;		_main
  8115 ;; This function uses a non-reentrant model
  8116 ;;
  8117                           
  8118     1391                     _configADC:	
  8119                           ;psect for function _configADC
  8120                           
  8121     1391                     l2784:	
  8122                           ;incstack = 0
  8123                           ; Regs used in _configADC: [status,2]
  8124                           
  8125                           
  8126                           ;newmain.c: 40:     ADCON1bits.PCFG0 = 0;
  8127     1391  1683               	bsf	3,5	;RP0=1, select bank1
  8128     1392  1303               	bcf	3,6	;RP1=0, select bank1
  8129     1393  101F               	bcf	31,0	;volatile
  8130                           
  8131                           ;newmain.c: 41:     ADCON1bits.PCFG1 = 1;
  8132     1394  149F               	bsf	31,1	;volatile
  8133                           
  8134                           ;newmain.c: 42:     ADCON1bits.PCFG2 = 1;
  8135     1395  151F               	bsf	31,2	;volatile
  8136                           
  8137                           ;newmain.c: 43:     ADCON1bits.PCFG3 = 1;
  8138     1396  159F               	bsf	31,3	;volatile
  8139                           
  8140                           ;newmain.c: 47:     ADCON0bits.ADCS0 = 0;
  8141     1397  1283               	bcf	3,5	;RP0=0, select bank0
  8142     1398  1303               	bcf	3,6	;RP1=0, select bank0
  8143     1399  131F               	bcf	31,6	;volatile
  8144                           
  8145                           ;newmain.c: 48:     ADCON0bits.ADCS1 = 0;
  8146     139A  139F               	bcf	31,7	;volatile
  8147                           
  8148                           ;newmain.c: 49:     ADCON1bits.ADCS2 = 0;
  8149     139B  1683               	bsf	3,5	;RP0=1, select bank1
  8150     139C  1303               	bcf	3,6	;RP1=0, select bank1
  8151     139D  131F               	bcf	31,6	;volatile
  8152                           
  8153                           ;newmain.c: 53:     ADCON1bits.ADFM = 0;
  8154     139E  139F               	bcf	31,7	;volatile
  8155     139F                     l2786:
  8156                           
  8157                           ;newmain.c: 56:     ADRESL = 0x00;
  8158     139F  019E               	clrf	30	;volatile
  8159                           
  8160                           ;newmain.c: 57:     ADRESH = 0X00;
  8161     13A0  1283               	bcf	3,5	;RP0=0, select bank0
  8162     13A1  1303               	bcf	3,6	;RP1=0, select bank0
  8163     13A2  019E               	clrf	30	;volatile
  8164     13A3                     l2788:
  8165                           
  8166                           ;newmain.c: 61:     ADCON0bits.ADON = 1;
  8167     13A3  141F               	bsf	31,0	;volatile
  8168     13A4                     l2790:
  8169                           
  8170                           ;newmain.c: 64:     ADCON0bits.CHS0 = 0;
  8171     13A4  119F               	bcf	31,3	;volatile
  8172     13A5                     l2792:
  8173                           
  8174                           ;newmain.c: 65:     ADCON0bits.CHS1 = 0;
  8175     13A5  121F               	bcf	31,4	;volatile
  8176     13A6                     l2794:
  8177                           
  8178                           ;newmain.c: 66:     ADCON0bits.CHS2 = 0;
  8179     13A6  129F               	bcf	31,5	;volatile
  8180     13A7                     l90:
  8181     13A7  0008               	return
  8182     13A8                     __end_of_configADC:
  8183                           
  8184                           	psect	text31
  8185     173C                     __ptext31:	
  8186 ;; *************** function _Lcd_Init *****************
  8187 ;; Defined at:
  8188 ;;		line 62 in file "./lcd.h"
  8189 ;; Parameters:    Size  Location     Type
  8190 ;;		None
  8191 ;; Auto vars:     Size  Location     Type
  8192 ;;		None
  8193 ;; Return value:  Size  Location     Type
  8194 ;;                  1    wreg      void 
  8195 ;; Registers used:
  8196 ;;		wreg, status,2, status,0, pclath, cstack
  8197 ;; Tracked objects:
  8198 ;;		On entry : 0/0
  8199 ;;		On exit  : 0/0
  8200 ;;		Unchanged: 0/0
  8201 ;; Data sizes:     COMMON   BANK0   BANK1   BANK3   BANK2
  8202 ;;      Params:         0       0       0       0       0
  8203 ;;      Locals:         0       0       0       0       0
  8204 ;;      Temps:          2       0       0       0       0
  8205 ;;      Totals:         2       0       0       0       0
  8206 ;;Total ram usage:        2 bytes
  8207 ;; Hardware stack levels used: 1
  8208 ;; Hardware stack levels required when called: 3
  8209 ;; This function calls:
  8210 ;;		_Lcd_Cmd
  8211 ;;		_Lcd_Port
  8212 ;; This function is called by:
  8213 ;;		_main
  8214 ;; This function uses a non-reentrant model
  8215 ;;
  8216                           
  8217     173C                     _Lcd_Init:	
  8218                           ;psect for function _Lcd_Init
  8219                           
  8220     173C                     l3216:	
  8221                           ;incstack = 0
  8222                           ; Regs used in _Lcd_Init: [wreg+status,2+status,0+pclath+cstack]
  8223                           
  8224                           
  8225                           ;./lcd.h: 64:   Lcd_Port(0x00);
  8226     173C  3000               	movlw	0
  8227     173D  160A  118A  23DD  160A  118A  	fcall	_Lcd_Port
  8228     1742                     l3218:
  8229                           
  8230                           ;./lcd.h: 65:    _delay((unsigned long)((20)*(4000000/4000.0)));
  8231     1742  301A               	movlw	26
  8232     1743  00F7               	movwf	??_Lcd_Init+1
  8233     1744  30F8               	movlw	248
  8234     1745  00F6               	movwf	??_Lcd_Init
  8235     1746                     u4717:
  8236     1746  0BF6               	decfsz	??_Lcd_Init,f
  8237     1747  2F46               	goto	u4717
  8238     1748  0BF7               	decfsz	??_Lcd_Init+1,f
  8239     1749  2F46               	goto	u4717
  8240     174A  0000               	nop
  8241     174B                     l3220:
  8242                           
  8243                           ;./lcd.h: 66:   Lcd_Cmd(0x03);
  8244     174B  3003               	movlw	3
  8245     174C  160A  118A  23A8  160A  118A  	fcall	_Lcd_Cmd
  8246                           
  8247                           ;./lcd.h: 67:  _delay((unsigned long)((5)*(4000000/4000.0)));
  8248     1751  3007               	movlw	7
  8249     1752  00F7               	movwf	??_Lcd_Init+1
  8250     1753  307D               	movlw	125
  8251     1754  00F6               	movwf	??_Lcd_Init
  8252     1755                     u4727:
  8253     1755  0BF6               	decfsz	??_Lcd_Init,f
  8254     1756  2F55               	goto	u4727
  8255     1757  0BF7               	decfsz	??_Lcd_Init+1,f
  8256     1758  2F55               	goto	u4727
  8257     1759                     l3222:
  8258                           
  8259                           ;./lcd.h: 68:   Lcd_Cmd(0x03);
  8260     1759  3003               	movlw	3
  8261     175A  160A  118A  23A8  160A  118A  	fcall	_Lcd_Cmd
  8262     175F                     l3224:
  8263                           
  8264                           ;./lcd.h: 69:  _delay((unsigned long)((11)*(4000000/4000.0)));
  8265     175F  300F               	movlw	15
  8266     1760  00F7               	movwf	??_Lcd_Init+1
  8267     1761  3047               	movlw	71
  8268     1762  00F6               	movwf	??_Lcd_Init
  8269     1763                     u4737:
  8270     1763  0BF6               	decfsz	??_Lcd_Init,f
  8271     1764  2F63               	goto	u4737
  8272     1765  0BF7               	decfsz	??_Lcd_Init+1,f
  8273     1766  2F63               	goto	u4737
  8274     1767  2F68               	nop2
  8275                           
  8276                           ;./lcd.h: 70:   Lcd_Cmd(0x03);
  8277     1768  3003               	movlw	3
  8278     1769  160A  118A  23A8  160A  118A  	fcall	_Lcd_Cmd
  8279                           
  8280                           ;./lcd.h: 72:   Lcd_Cmd(0x02);
  8281     176E  3002               	movlw	2
  8282     176F  160A  118A  23A8  160A  118A  	fcall	_Lcd_Cmd
  8283                           
  8284                           ;./lcd.h: 73:   Lcd_Cmd(0x02);
  8285     1774  3002               	movlw	2
  8286     1775  160A  118A  23A8  160A  118A  	fcall	_Lcd_Cmd
  8287                           
  8288                           ;./lcd.h: 74:   Lcd_Cmd(0x08);
  8289     177A  3008               	movlw	8
  8290     177B  160A  118A  23A8  160A  118A  	fcall	_Lcd_Cmd
  8291                           
  8292                           ;./lcd.h: 75:   Lcd_Cmd(0x00);
  8293     1780  3000               	movlw	0
  8294     1781  160A  118A  23A8  160A  118A  	fcall	_Lcd_Cmd
  8295                           
  8296                           ;./lcd.h: 76:   Lcd_Cmd(0x0C);
  8297     1786  300C               	movlw	12
  8298     1787  160A  118A  23A8  160A  118A  	fcall	_Lcd_Cmd
  8299                           
  8300                           ;./lcd.h: 77:   Lcd_Cmd(0x00);
  8301     178C  3000               	movlw	0
  8302     178D  160A  118A  23A8  160A  118A  	fcall	_Lcd_Cmd
  8303                           
  8304                           ;./lcd.h: 78:   Lcd_Cmd(0x06);
  8305     1792  3006               	movlw	6
  8306     1793  160A  118A  23A8  160A  118A  	fcall	_Lcd_Cmd
  8307     1798                     l62:
  8308     1798  0008               	return
  8309     1799                     __end_of_Lcd_Init:
  8310                           
  8311                           	psect	text32
  8312     13A8                     __ptext32:	
  8313 ;; *************** function _Lcd_Cmd *****************
  8314 ;; Defined at:
  8315 ;;		line 26 in file "./lcd.h"
  8316 ;; Parameters:    Size  Location     Type
  8317 ;;  a               1    wreg     unsigned char 
  8318 ;; Auto vars:     Size  Location     Type
  8319 ;;  a               1    5[COMMON] unsigned char 
  8320 ;; Return value:  Size  Location     Type
  8321 ;;                  1    wreg      void 
  8322 ;; Registers used:
  8323 ;;		wreg, status,2, status,0, pclath, cstack
  8324 ;; Tracked objects:
  8325 ;;		On entry : 0/0
  8326 ;;		On exit  : 0/0
  8327 ;;		Unchanged: 0/0
  8328 ;; Data sizes:     COMMON   BANK0   BANK1   BANK3   BANK2
  8329 ;;      Params:         0       0       0       0       0
  8330 ;;      Locals:         1       0       0       0       0
  8331 ;;      Temps:          2       0       0       0       0
  8332 ;;      Totals:         3       0       0       0       0
  8333 ;;Total ram usage:        3 bytes
  8334 ;; Hardware stack levels used: 1
  8335 ;; Hardware stack levels required when called: 2
  8336 ;; This function calls:
  8337 ;;		_Lcd_Port
  8338 ;; This function is called by:
  8339 ;;		_Lcd_Clear
  8340 ;;		_Lcd_Set_Cursor
  8341 ;;		_Lcd_Init
  8342 ;;		_Lcd_Shift_Right
  8343 ;;		_Lcd_Shift_Left
  8344 ;; This function uses a non-reentrant model
  8345 ;;
  8346                           
  8347     13A8                     _Lcd_Cmd:	
  8348                           ;psect for function _Lcd_Cmd
  8349                           
  8350                           
  8351                           ;incstack = 0
  8352                           ; Regs used in _Lcd_Cmd: [wreg+status,2+status,0+pclath+cstack]
  8353                           ;Lcd_Cmd@a stored from wreg
  8354     13A8  00F5               	movwf	Lcd_Cmd@a
  8355     13A9                     l3044:
  8356                           
  8357                           ;./lcd.h: 26: void Lcd_Cmd(char a);./lcd.h: 27: {;./lcd.h: 28:  PORTDbits.RD2 = 0;
  8358     13A9  1283               	bcf	3,5	;RP0=0, select bank0
  8359     13AA  1303               	bcf	3,6	;RP1=0, select bank0
  8360     13AB  1108               	bcf	8,2	;volatile
  8361     13AC                     l3046:
  8362                           
  8363                           ;./lcd.h: 29:  Lcd_Port(a);
  8364     13AC  0875               	movf	Lcd_Cmd@a,w
  8365     13AD  160A  118A  23DD  160A  118A  	fcall	_Lcd_Port
  8366     13B2                     l3048:
  8367                           
  8368                           ;./lcd.h: 30:  PORTDbits.RD3 = 1;
  8369     13B2  1283               	bcf	3,5	;RP0=0, select bank0
  8370     13B3  1303               	bcf	3,6	;RP1=0, select bank0
  8371     13B4  1588               	bsf	8,3	;volatile
  8372     13B5                     l3050:
  8373                           
  8374                           ;./lcd.h: 31:         _delay((unsigned long)((4)*(4000000/4000.0)));
  8375     13B5  3006               	movlw	6
  8376     13B6  00F4               	movwf	??_Lcd_Cmd+1
  8377     13B7  3030               	movlw	48
  8378     13B8  00F3               	movwf	??_Lcd_Cmd
  8379     13B9                     u4747:
  8380     13B9  0BF3               	decfsz	??_Lcd_Cmd,f
  8381     13BA  2BB9               	goto	u4747
  8382     13BB  0BF4               	decfsz	??_Lcd_Cmd+1,f
  8383     13BC  2BB9               	goto	u4747
  8384     13BD  0000               	nop
  8385     13BE                     l3052:
  8386                           
  8387                           ;./lcd.h: 32:         PORTDbits.RD3 = 0;
  8388     13BE  1283               	bcf	3,5	;RP0=0, select bank0
  8389     13BF  1303               	bcf	3,6	;RP1=0, select bank0
  8390     13C0  1188               	bcf	8,3	;volatile
  8391     13C1                     l50:
  8392     13C1  0008               	return
  8393     13C2                     __end_of_Lcd_Cmd:
  8394                           
  8395                           	psect	text33
  8396     13DD                     __ptext33:	
  8397 ;; *************** function _Lcd_Port *****************
  8398 ;; Defined at:
  8399 ;;		line 4 in file "./lcd.h"
  8400 ;; Parameters:    Size  Location     Type
  8401 ;;  a               1    wreg     unsigned char 
  8402 ;; Auto vars:     Size  Location     Type
  8403 ;;  a               1    2[COMMON] unsigned char 
  8404 ;; Return value:  Size  Location     Type
  8405 ;;                  1    wreg      void 
  8406 ;; Registers used:
  8407 ;;		wreg
  8408 ;; Tracked objects:
  8409 ;;		On entry : 0/0
  8410 ;;		On exit  : 0/0
  8411 ;;		Unchanged: 0/0
  8412 ;; Data sizes:     COMMON   BANK0   BANK1   BANK3   BANK2
  8413 ;;      Params:         0       0       0       0       0
  8414 ;;      Locals:         1       0       0       0       0
  8415 ;;      Temps:          0       0       0       0       0
  8416 ;;      Totals:         1       0       0       0       0
  8417 ;;Total ram usage:        1 bytes
  8418 ;; Hardware stack levels used: 1
  8419 ;; Hardware stack levels required when called: 1
  8420 ;; This function calls:
  8421 ;;		Nothing
  8422 ;; This function is called by:
  8423 ;;		_Lcd_Cmd
  8424 ;;		_Lcd_Init
  8425 ;;		_Lcd_Write_Char
  8426 ;; This function uses a non-reentrant model
  8427 ;;
  8428                           
  8429     13DD                     _Lcd_Port:	
  8430                           ;psect for function _Lcd_Port
  8431                           
  8432                           
  8433                           ;incstack = 0
  8434                           ; Regs used in _Lcd_Port: [wreg]
  8435                           ;Lcd_Port@a stored from wreg
  8436     13DD  00F2               	movwf	Lcd_Port@a
  8437     13DE                     l2892:
  8438                           
  8439                           ;./lcd.h: 4: void Lcd_Port(char a);./lcd.h: 5: {;./lcd.h: 6:  if(a & 1)
  8440     13DE  1C72               	btfss	Lcd_Port@a,0
  8441     13DF  2BE1               	goto	u4071
  8442     13E0  2BE2               	goto	u4070
  8443     13E1                     u4071:
  8444     13E1  2BE6               	goto	l39
  8445     13E2                     u4070:
  8446     13E2                     l2894:
  8447                           
  8448                           ;./lcd.h: 7:   PORTDbits.RD4 = 1;
  8449     13E2  1283               	bcf	3,5	;RP0=0, select bank0
  8450     13E3  1303               	bcf	3,6	;RP1=0, select bank0
  8451     13E4  1608               	bsf	8,4	;volatile
  8452     13E5  2BE9               	goto	l40
  8453     13E6                     l39:	
  8454                           ;./lcd.h: 8:  else
  8455                           
  8456                           
  8457                           ;./lcd.h: 9:   PORTDbits.RD4 = 0;
  8458     13E6  1283               	bcf	3,5	;RP0=0, select bank0
  8459     13E7  1303               	bcf	3,6	;RP1=0, select bank0
  8460     13E8  1208               	bcf	8,4	;volatile
  8461     13E9                     l40:
  8462                           
  8463                           ;./lcd.h: 11:  if(a & 2)
  8464     13E9  1CF2               	btfss	Lcd_Port@a,1
  8465     13EA  2BEC               	goto	u4081
  8466     13EB  2BED               	goto	u4080
  8467     13EC                     u4081:
  8468     13EC  2BEF               	goto	l41
  8469     13ED                     u4080:
  8470     13ED                     l2896:
  8471                           
  8472                           ;./lcd.h: 12:   PORTDbits.RD5 = 1;
  8473     13ED  1688               	bsf	8,5	;volatile
  8474     13EE  2BF0               	goto	l42
  8475     13EF                     l41:	
  8476                           ;./lcd.h: 13:  else
  8477                           
  8478                           
  8479                           ;./lcd.h: 14:   PORTDbits.RD5 = 0;
  8480     13EF  1288               	bcf	8,5	;volatile
  8481     13F0                     l42:
  8482                           
  8483                           ;./lcd.h: 16:  if(a & 4)
  8484     13F0  1D72               	btfss	Lcd_Port@a,2
  8485     13F1  2BF3               	goto	u4091
  8486     13F2  2BF4               	goto	u4090
  8487     13F3                     u4091:
  8488     13F3  2BF6               	goto	l43
  8489     13F4                     u4090:
  8490     13F4                     l2898:
  8491                           
  8492                           ;./lcd.h: 17:   PORTDbits.RD6 = 1;
  8493     13F4  1708               	bsf	8,6	;volatile
  8494     13F5  2BF7               	goto	l44
  8495     13F6                     l43:	
  8496                           ;./lcd.h: 18:  else
  8497                           
  8498                           
  8499                           ;./lcd.h: 19:   PORTDbits.RD6 = 0;
  8500     13F6  1308               	bcf	8,6	;volatile
  8501     13F7                     l44:
  8502                           
  8503                           ;./lcd.h: 21:  if(a & 8)
  8504     13F7  1DF2               	btfss	Lcd_Port@a,3
  8505     13F8  2BFA               	goto	u4101
  8506     13F9  2BFB               	goto	u4100
  8507     13FA                     u4101:
  8508     13FA  2BFD               	goto	l45
  8509     13FB                     u4100:
  8510     13FB                     l2900:
  8511                           
  8512                           ;./lcd.h: 22:   PORTDbits.RD7 = 1;
  8513     13FB  1788               	bsf	8,7	;volatile
  8514     13FC  2BFE               	goto	l47
  8515     13FD                     l45:	
  8516                           ;./lcd.h: 23:  else
  8517                           
  8518                           
  8519                           ;./lcd.h: 24:   PORTDbits.RD7 = 0;
  8520     13FD  1388               	bcf	8,7	;volatile
  8521     13FE                     l47:
  8522     13FE  0008               	return
  8523     13FF                     __end_of_Lcd_Port:
  8524                           
  8525                           	psect	text34
  8526     13C2                     __ptext34:	
  8527 ;; *************** function _interrupcao *****************
  8528 ;; Defined at:
  8529 ;;		line 158 in file "newmain.c"
  8530 ;; Parameters:    Size  Location     Type
  8531 ;;		None
  8532 ;; Auto vars:     Size  Location     Type
  8533 ;;		None
  8534 ;; Return value:  Size  Location     Type
  8535 ;;                  1    wreg      void 
  8536 ;; Registers used:
  8537 ;;		wreg, status,2, status,0
  8538 ;; Tracked objects:
  8539 ;;		On entry : 0/0
  8540 ;;		On exit  : 0/0
  8541 ;;		Unchanged: 0/0
  8542 ;; Data sizes:     COMMON   BANK0   BANK1   BANK3   BANK2
  8543 ;;      Params:         0       0       0       0       0
  8544 ;;      Locals:         0       0       0       0       0
  8545 ;;      Temps:          2       0       0       0       0
  8546 ;;      Totals:         2       0       0       0       0
  8547 ;;Total ram usage:        2 bytes
  8548 ;; Hardware stack levels used: 1
  8549 ;; This function calls:
  8550 ;;		Nothing
  8551 ;; This function is called by:
  8552 ;;		Interrupt level 1
  8553 ;; This function uses a non-reentrant model
  8554 ;;
  8555                           
  8556     13C2                     _interrupcao:	
  8557                           ;psect for function _interrupcao
  8558                           
  8559     13C2                     i1l2838:
  8560                           
  8561                           ;newmain.c: 160:     if(INTF){
  8562     13C2  1C8B               	btfss	11,1	;volatile
  8563     13C3  2BC5               	goto	u402_21
  8564     13C4  2BC6               	goto	u402_20
  8565     13C5                     u402_21:
  8566     13C5  2BD6               	goto	i1l134
  8567     13C6                     u402_20:
  8568     13C6                     i1l2840:
  8569                           
  8570                           ;newmain.c: 161:         if(menu_ativo){
  8571     13C6  1683               	bsf	3,5	;RP0=1, select bank1
  8572     13C7  1303               	bcf	3,6	;RP1=0, select bank1
  8573     13C8  0869               	movf	_menu_ativo^(0+128),w
  8574     13C9  046A               	iorwf	(_menu_ativo+1)^(0+128),w
  8575     13CA  1903               	btfsc	3,2
  8576     13CB  2BCD               	goto	u403_21
  8577     13CC  2BCE               	goto	u403_20
  8578     13CD                     u403_21:
  8579     13CD  2BD1               	goto	i1l2844
  8580     13CE                     u403_20:
  8581     13CE                     i1l2842:
  8582                           
  8583                           ;newmain.c: 162:             menu_ativo = 0;
  8584     13CE  01E9               	clrf	_menu_ativo^(0+128)
  8585     13CF  01EA               	clrf	(_menu_ativo+1)^(0+128)
  8586                           
  8587                           ;newmain.c: 163:         }
  8588     13D0  2BD5               	goto	i1l2846
  8589     13D1                     i1l2844:
  8590                           
  8591                           ;newmain.c: 165:         menu_ativo = 1;
  8592     13D1  3001               	movlw	1
  8593     13D2  00E9               	movwf	_menu_ativo^(0+128)
  8594     13D3  3000               	movlw	0
  8595     13D4  00EA               	movwf	(_menu_ativo^(0+128)+1)
  8596     13D5                     i1l2846:
  8597                           
  8598                           ;newmain.c: 168:         INTCONbits.INTF = 0;
  8599     13D5  108B               	bcf	11,1	;volatile
  8600     13D6                     i1l134:
  8601     13D6  0871               	movf	??_interrupcao+1,w
  8602     13D7  008A               	movwf	10
  8603     13D8  0E70               	swapf	??_interrupcao,w
  8604     13D9  0083               	movwf	3
  8605     13DA  0EFE               	swapf	btemp,f
  8606     13DB  0E7E               	swapf	btemp,w
  8607     13DC  0009               	retfie
  8608     13DD                     __end_of_interrupcao:
  8609     007E                     btemp	set	126	;btemp
  8610     007E                     wtemp0	set	126
  8611                           
  8612                           	psect	intentry
  8613     0004                     __pintentry:	
  8614                           ;incstack = 0
  8615                           ; Regs used in _interrupcao: [wreg+status,2+status,0]
  8616                           
  8617     0004                     interrupt_function:
  8618     007E                     saved_w	set	btemp
  8619     0004  00FE               	movwf	btemp
  8620     0005  0E03               	swapf	3,w
  8621     0006  00F0               	movwf	??_interrupcao
  8622     0007  080A               	movf	10,w
  8623     0008  00F1               	movwf	??_interrupcao+1
  8624     0009  160A  118A  2BC2   	ljmp	_interrupcao

Data Sizes:
    Strings     36
    Constant    36
    Data        4
    BSS         16
    Persistent  0
    Stack       0

Auto Spaces:
    Space          Size  Autos    Used
    COMMON           14     10      12
    BANK0            80     79      79
    BANK1            80     73      79
    BANK3            96     26      38
    BANK2            96      0       0

Pointer List with Targets:

    frexp@eptr	PTR int  size(1) Largest target is 2
		 -> log@exponent(BANK0[2]), 

    eval_poly@d	PTR const  size(1) Largest target is 36
		 -> log@coeff(CODE[36]), 

    main@texto_menu	PTR unsigned char  size(1) Largest target is 20
		 -> STR_2(CODE[20]), 

    escreveLCD@linha2	PTR unsigned char  size(1) Largest target is 16
		 -> main@texto_luminosidade(BANK1[16]), handleSetupMenu@texto_luminosidade_desejada(BANK0[16]), 

    escreveLCD@linha1	PTR unsigned char  size(1) Largest target is 20
		 -> STR_2(CODE[20]), STR_1(CODE[16]), 

    intToASCIIinCustomBase@resultado	PTR unsigned char  size(1) Largest target is 16
		 -> main@texto_luminosidade(BANK1[16]), handleSetupMenu@texto_luminosidade_desejada(BANK0[16]), 

    Lcd_Write_String@a	PTR unsigned char  size(2) Largest target is 20
		 -> main@texto_luminosidade(BANK1[16]), STR_2(CODE[20]), STR_1(CODE[16]), handleSetupMenu@texto_luminosidade_desejada(BANK0[16]), 


Critical Paths under _main in COMMON

    _main->___xxtofl
    _main->_escreveLCD
    _handleSetupMenu->_escreveLCD
    _intToASCIIinCustomBase->___awdiv
    _escreveLCD->_Lcd_Write_String
    _Lcd_Write_String->_Lcd_Write_Char
    _Lcd_Write_Char->_Lcd_Port
    _Lcd_Set_Cursor->_Lcd_Cmd
    _Lcd_Clear->_Lcd_Cmd
    _converteVoltsParaLux->___xxtofl
    _log->___fleq
    _log->___flge
    _log->___xxtofl
    _frexp->___fleq
    ___flsub->___xxtofl
    ___fladd->___xxtofl
    _converteLeituraAnParaVolts->___xxtofl
    ___flmul->___xxtofl
    _Lcd_Init->_Lcd_Cmd
    _Lcd_Cmd->_Lcd_Port

Critical Paths under _interrupcao in COMMON

    None.

Critical Paths under _main in BANK0

    _handleSetupMenu->_intToASCIIinCustomBase
    _escreveLCD->_Lcd_Write_String
    _log10->_log
    _log->_eval_poly
    _frexp->___fleq
    _eval_poly->___fladd
    ___fladd->___flmul
    ___flmul->_frexp

Critical Paths under _interrupcao in BANK0

    None.

Critical Paths under _main in BANK1

    _main->_converteVoltsParaLux
    _converteVoltsParaLux->___fltol
    ___fltol->___fldiv
    ___flsub->_log10
    _converteLeituraAnParaVolts->___fldiv
    ___fldiv->___flsub

Critical Paths under _interrupcao in BANK1

    None.

Critical Paths under _main in BANK3

    _main->_converteVoltsParaLux

Critical Paths under _interrupcao in BANK3

    None.

Critical Paths under _main in BANK2

    None.

Critical Paths under _interrupcao in BANK2

    None.

Call Graph Tables:

 ---------------------------------------------------------------------------------
 (Depth) Function   	        Calls       Base Space   Used Autos Params    Refs
 ---------------------------------------------------------------------------------
 (0) _main                                                17    17      0   53356
                                             56 BANK1     17    17      0
                           _Lcd_Init
                           ___xxtofl
                          _configADC
                   _configIntExterns
                      _configPWMRegs
         _converteLeituraAnParaVolts
               _converteVoltsParaLux
                         _escreveLCD
                        _getValorADC
                    _handleSetupMenu
             _intToASCIIinCustomBase
 ---------------------------------------------------------------------------------
 (1) _handleSetupMenu                                     16    16      0    4274
                                             18 BANK0     16    16      0
                         _escreveLCD
             _intToASCIIinCustomBase
                    _verificaBtnMais
                   _verificaBtnMenos
 ---------------------------------------------------------------------------------
 (2) _verificaBtnMenos                                     0     0      0       0
 ---------------------------------------------------------------------------------
 (2) _verificaBtnMais                                      0     0      0       0
 ---------------------------------------------------------------------------------
 (1) _intToASCIIinCustomBase                              18    13      5    2406
                                              0 BANK0     18    13      5
                            ___awdiv
                            ___awmod
 ---------------------------------------------------------------------------------
 (2) ___awmod                                              6     2      4     448
                                              2 COMMON     6     2      4
 ---------------------------------------------------------------------------------
 (2) ___awdiv                                              8     4      4     452
                                              2 COMMON     8     4      4
 ---------------------------------------------------------------------------------
 (2) _escreveLCD                                           4     3      1    1758
                                              9 COMMON     1     1      0
                                              5 BANK0      3     2      1
                          _Lcd_Clear
                     _Lcd_Set_Cursor
                   _Lcd_Write_String
 ---------------------------------------------------------------------------------
 (3) _Lcd_Write_String                                     7     5      2     564
                                              7 COMMON     2     0      2
                                              0 BANK0      5     5      0
                     _Lcd_Write_Char
 ---------------------------------------------------------------------------------
 (4) _Lcd_Write_Char                                       4     4      0     254
                                              3 COMMON     4     4      0
                           _Lcd_Port
 ---------------------------------------------------------------------------------
 (3) _Lcd_Set_Cursor                                       6     5      1     725
                                              6 COMMON     2     1      1
                                              0 BANK0      4     4      0
                            _Lcd_Cmd
 ---------------------------------------------------------------------------------
 (3) _Lcd_Clear                                            0     0      0     155
                            _Lcd_Cmd
 ---------------------------------------------------------------------------------
 (1) _getValorADC                                          6     4      2      23
                                              2 COMMON     6     4      2
 ---------------------------------------------------------------------------------
 (1) _converteVoltsParaLux                                30    26      4   37459
                                             52 BANK1      4     0      4
                                              0 BANK3     26    26      0
                            ___fladd
                            ___fldiv
                            ___flmul
                            ___flsub
                            ___fltol
                           ___xxtofl
                              _log10
 ---------------------------------------------------------------------------------
 (2) _log10                                                8     4      4   23472
                                              0 BANK1      8     4      4
                            ___flmul
                                _log
 ---------------------------------------------------------------------------------
 (3) _log                                                  6     2      4   18434
                                             73 BANK0      6     2      4
                            ___fladd
                             ___fleq
                             ___flge
                            ___flmul
                           ___xxtofl
                          _eval_poly
                              _frexp
 ---------------------------------------------------------------------------------
 (4) _frexp                                                7     2      5    1022
                                              4 BANK0      7     2      5
                             ___fleq
 ---------------------------------------------------------------------------------
 (5) ___fleq                                              12     4      8     520
                                              2 COMMON     8     0      8
                                              0 BANK0      4     4      0
 ---------------------------------------------------------------------------------
 (4) _eval_poly                                           16     9      7    8033
                                             57 BANK0     16     9      7
                            ___fladd
                            ___flmul
 ---------------------------------------------------------------------------------
 (4) ___xxtofl                                            14    10      4     550
                                              2 COMMON     8     4      4
                                              0 BANK0      6     6      0
 ---------------------------------------------------------------------------------
 (4) ___flge                                              12     4      8     460
                                              2 COMMON     8     0      8
                                              0 BANK0      4     4      0
 ---------------------------------------------------------------------------------
 (2) ___fltol                                             10     6      4     381
                                             42 BANK1     10     6      4
                            ___fldiv (ARG)
                            ___flmul (ARG)
                            ___flsub (ARG)
 ---------------------------------------------------------------------------------
 (2) ___flsub                                              8     0      8    3397
                                              8 BANK1      8     0      8
                            ___fladd
                            ___flmul (ARG)
                           ___xxtofl (ARG)
                              _log10 (ARG)
 ---------------------------------------------------------------------------------
 (5) ___fladd                                             20    12      8    2896
                                             37 BANK0     20    12      8
                            ___flmul (ARG)
                           ___xxtofl (ARG)
                              _frexp (ARG)
 ---------------------------------------------------------------------------------
 (1) _converteLeituraAnParaVolts                           4     0      4    6463
                                             42 BANK1      4     0      4
                            ___fldiv
                            ___flmul
                           ___xxtofl (ARG)
 ---------------------------------------------------------------------------------
 (5) ___flmul                                             26    18      8    4613
                                             11 BANK0     26    18      8
                          __Umul8_16
                           ___xxtofl (ARG)
                              _frexp (ARG)
 ---------------------------------------------------------------------------------
 (6) __Umul8_16                                            9     7      2     980
                                              2 COMMON     4     2      2
                                              0 BANK0      5     5      0
 ---------------------------------------------------------------------------------
 (2) ___fldiv                                             26    18      8    1729
                                             16 BANK1     26    18      8
                            ___fladd (ARG)
                            ___flmul (ARG)
                            ___flsub (ARG)
                              _log10 (ARG)
 ---------------------------------------------------------------------------------
 (1) _configPWMRegs                                        0     0      0       0
 ---------------------------------------------------------------------------------
 (1) _configIntExterns                                     0     0      0       0
 ---------------------------------------------------------------------------------
 (1) _configADC                                            0     0      0       0
 ---------------------------------------------------------------------------------
 (1) _Lcd_Init                                             2     2      0     279
                                              6 COMMON     2     2      0
                            _Lcd_Cmd
                           _Lcd_Port
 ---------------------------------------------------------------------------------
 (4) _Lcd_Cmd                                              3     3      0     155
                                              3 COMMON     3     3      0
                           _Lcd_Port
 ---------------------------------------------------------------------------------
 (5) _Lcd_Port                                             1     1      0     124
                                              2 COMMON     1     1      0
 ---------------------------------------------------------------------------------
 Estimated maximum stack depth 6
 ---------------------------------------------------------------------------------
 (Depth) Function   	        Calls       Base Space   Used Autos Params    Refs
 ---------------------------------------------------------------------------------
 (7) _interrupcao                                          2     2      0       0
                                              0 COMMON     2     2      0
 ---------------------------------------------------------------------------------
 Estimated maximum stack depth 7
 ---------------------------------------------------------------------------------

 Call Graph Graphs:

 _main (ROOT)
   _Lcd_Init
     _Lcd_Cmd
       _Lcd_Port
     _Lcd_Port
   ___xxtofl
   _configADC
   _configIntExterns
   _configPWMRegs
   _converteLeituraAnParaVolts
     ___fldiv
       ___fladd (ARG)
         ___flmul (ARG)
           __Umul8_16
           ___xxtofl (ARG)
           _frexp (ARG)
             ___fleq
         ___xxtofl (ARG)
         _frexp (ARG)
       ___flmul (ARG)
       ___flsub (ARG)
         ___fladd
         ___flmul (ARG)
         ___xxtofl (ARG)
         _log10 (ARG)
           ___flmul
           _log
             ___fladd
             ___fleq
             ___flge
             ___flmul
             ___xxtofl
             _eval_poly
               ___fladd
               ___flmul
             _frexp
       _log10 (ARG)
     ___flmul
     ___xxtofl (ARG)
   _converteVoltsParaLux
     ___fladd
     ___fldiv
     ___flmul
     ___flsub
     ___fltol
       ___fldiv (ARG)
       ___flmul (ARG)
       ___flsub (ARG)
     ___xxtofl
     _log10
   _escreveLCD
     _Lcd_Clear
       _Lcd_Cmd
     _Lcd_Set_Cursor
       _Lcd_Cmd
     _Lcd_Write_String
       _Lcd_Write_Char
         _Lcd_Port
   _getValorADC
   _handleSetupMenu
     _escreveLCD
     _intToASCIIinCustomBase
       ___awdiv
       ___awmod
     _verificaBtnMais
     _verificaBtnMenos
   _intToASCIIinCustomBase

 _interrupcao (ROOT)

 Address spaces:
Name               Size   Autos  Total    Cost      Usage
BANK3               60     1A      26       9       39.6%
BITBANK3            60      0       0       8        0.0%
SFR3                 0      0       0       4        0.0%
BITSFR3              0      0       0       4        0.0%
BANK2               60      0       0      11        0.0%
BITBANK2            60      0       0      10        0.0%
SFR2                 0      0       0       5        0.0%
BITSFR2              0      0       0       5        0.0%
BANK1               50     49      4F       7       98.8%
BITBANK1            50      0       0       6        0.0%
SFR1                 0      0       0       2        0.0%
BITSFR1              0      0       0       2        0.0%
BANK0               50     4F      4F       5       98.8%
BITBANK0            50      0       0       4        0.0%
SFR0                 0      0       0       1        0.0%
BITSFR0              0      0       0       1        0.0%
COMMON               E      A       C       1       85.7%
BITCOMMON            E      0       0       0        0.0%
CODE                 0      0       0       0        0.0%
DATA                 0      0      D0      12        0.0%
ABS                  0      0      D0       3        0.0%
NULL                 0      0       0       0        0.0%
STACK                0      0       0       2        0.0%
EEDATA             100      0       0       0        0.0%


Microchip Technology PIC Macro Assembler V2.41 build 20230208172133 
Symbol Table                                                                                   Sun Jun 25 17:44:32 2023

                              ___fldiv@aexp 00C9                                ___fldiv@bexp 00C8  
                                         pc 0002                                ___fldiv@sign 00C1  
                          getValorADC@valor 0076                                          l40 13E9  
                                        l41 13EF                                          l42 13F0  
                                        l50 13C1                                          l43 13F6  
                                        l44 13F7                                          l45 13FD  
                                        l53 137B                                          l62 1798  
                                        l47 13FE                                          l39 13E6  
                                        l71 1541                                          l65 0835  
                                        l90 13A7                                          l59 158D  
                                        l93 1390                                          l97 0C9B  
                              ___awdiv@sign 0077                                          fsr 0004  
                       __Umul8_16@word_mpld 0022                                         l110 07FD  
                                       l113 14BB                                         l121 14F2  
                                       l118 14C4                                         l126 14FB  
                                       l143 1456                                         l152 0620  
                                       l137 148D                                         l146 136E  
                                       l149 1686                                         l421 15FC  
                                       l405 17FF                                         l430 0A64  
                                       l422 1618                                         l423 162D  
                                       l601 0677                                         l426 09DF  
                                       l418 16DF                                         l603 07EF  
                                       l445 090D                                         l429 0A4B  
                                       l438 0922                                         l623 07DB  
                                       l551 0E5F                                         l448 0922  
                                       l712 0DA7                                         l617 0769  
                                       l641 0383                                         l545 0E03  
                                       l570 0F73                                         l730 173B  
                                       l660 1415                                         l724 09C0  
                                       l716 08AA                                         l549 0E86  
                                       l662 1427                                         l566 0F4F  
                                       l558 0FFF                                         l647 02F3  
                                       l591 15DD                                         l576 0F95  
                                       l588 0FFF                                         l685 0B42  
                                       l687 0BD7                                         l698 0BA1  
                                       l699 0BAD                                         _PR2 0092  
                                       _log 0C9C                                         fsr0 0004  
                                       indf 0000                                ___awmod@sign 0077  
                              ___flmul@aexp 0039                                ___flmul@bexp 003E  
                              ___flmul@sign 0038                                ___flmul@temp 0043  
                              ___flmul@prod 003F                                ___fltol@exp1 00D3  
                                      l2000 0EB3                                        l2010 0EC5  
                                      l2002 0EB7                                        l2020 0F2B  
                                      l2012 0ECE                                        l2004 0EBE  
                                      l2030 0F5C                                        l2022 0F2D  
                                      l2006 0EC0                                        l2014 0ED3  
                                      l3000 02D7                                        l2040 0F77  
                                      l2024 0F32                                        l2016 0EE9  
                                      l2008 0EC4                                        l3010 02F8  
                                      l3002 02D8                                        l2042 0F7A  
                                      l2034 0F65                                        l2018 0F27  
                                      l2026 0F41                                        l2050 0F87  
                                      l3012 02FD                                        l3020 032E  
                                      l3004 02DC                                        l2060 0F9A  
                                      l2052 0F88                                        l2044 0F7C  
                                      l2036 0F6E                                        l2028 0F57  
                                      l2300 0B5A                                        l3100 09B8  
                                      l3030 0361                                        l3022 033B  
                                      l3014 030B                                        l3006 02F0  
                                      l2062 0F9F                                        l2070 0FD3  
                                      l2054 0F8C                                        l2046 0F81  
                                      l2038 0F72                                        l2310 0B85  
                                      l2302 0B63                                        l3110 1557  
                                      l3040 037B                                        l3032 036D  
                                      l3024 0346                                        l3016 030F  
                                      l2080 0FEB                                        l2072 0FD8  
                                      l2064 0FAD                                        l2056 0F92  
                                      l2048 0F83                                        l2320 0BAF  
                                      l2312 0B8C                                        l2304 0B6A  
                                      l3104 136F                                        l3120 157C  
                                      l3112 155A                                        l2400 17A5  
                                      l3200 0C8D                                        l3050 13B5  
                                      l3034 0371                                        l3026 0355  
                                      l3018 0328                                        l2090 0FFE  
                                      l2082 0FEF                                        l2074 0FDD  
                                      l2066 0FB1                                        l2322 0BC5  
                                      l2314 0B97                                        l2306 0B6E  
                                      l3210 0836                                        l3122 157F  
                                      l3114 1560                                        l3106 1545  
                                      l3130 151D                                        l3202 1458  
                                      l2410 17BA                                        l2402 17A9  
                                      l3052 13BE                                        l3044 13A9  
                                      l3220 174B                                        l3036 0372  
                                      l3028 035F                                        l2084 0FF1  
                                      l2076 0FE5                                        l2068 0FCF  
                                      l2324 0BCA                                        l2316 0B9B  
                                      l2308 0B7C                                        l3140 0CC8  
                                      l3212 086B                                        l3124 1585  
                                      l3108 154A                                        l3116 1569  
                                      l3060 081B                                        l3132 1525  
                                      l3204 1465                                        l2420 17DD  
                                      l2412 17BD                                        l2404 17AE  
                                      l3046 13AC                                        l3222 1759  
                                      l3038 0377                                        l2086 0FF5  
                                      l2078 0FEA                                        l2270 09FB  
                                      l2326 0BCE                                        l2318 0BA5  
                                      l3150 0D43                                        l3142 0CE3  
                                      l3134 0C9C                                        l3118 156F  
                                      l3070 082E                                        l3062 081E  
                                      l3054 0804                                        l3126 14FC  
                                      l3206 1470                                        l2430 17F6  
                                      l2422 17E3                                        l2414 17C4  
                                      l2406 17B2                                        l3230 1433  
                                      l3048 13B2                                        l3224 175F  
                                      l3216 173C                                        l2088 0FFA  
                                      l2600 08E1                                        l2280 0A63  
                                      l2272 09FF                                        l2264 09C1  
                                      l2328 0BCF                                        l3152 0D60  
                                      l3136 0CB7                                        l3240 0384  
                                      l3072 0832                                        l3064 0822  
                                      l3056 080A                                        l3128 1501  
                                      l3208 1483                                        l2432 17FB  
                                      l2424 17E4                                        l2416 17C8  
                                      l2408 17B4                                        l2440 168C  
                                      l3160 0BE2                                        l3232 1444  
                                      l3218 1742                                        l2610 08FB  
                                      l2274 0A23                                        l2266 09D7  
                                      l2290 0B3A                                        l3090 173B  
                                      l3082 170C                                        l3074 16E0  
                                      l3146 0CF4                                        l3242 0400  
                                      l3066 0825                                        l3058 080D  
                                      l2426 17EB                                        l2418 17CC  
                                      l2450 16A2                                        l2442 1691  
                                      l3170 0C07                                        l3162 0BE7  
                                      l3234 144E                                        l3226 1428  
                                      l2700 06EE                                        l3236 162E  
                                      l1900 0DB6                                        l2620 0917  
                                      l2276 0A27                                        l2268 09F3  
                                      l2292 0B4A                                        l2284 0B21  
                                      l3084 1729                                        l3076 16FB  
                                      l3148 0D3D                                        l3244 044D  
                                      l3068 082B                                        l2428 17F1  
                                      l2460 16BE                                        l2452 16A5  
                                      l2444 1693                                        l2436 1687  
                                      l3180 0C37                                        l3172 0C14  
                                      l3164 0BED                                        l3156 0BD8  
                                      l3228 1429                                        l3260 0A69  
                                      l2702 06F7                                        l2710 071C  
                                      l2630 0626                                        l1902 0DBB  
                                      l1910 0DCB                                        l2622 158E  
                                      l2606 08E9                                        l2278 0A61  
                                      l2286 0B26                                        l3094 0923  
                                      l3086 1736                                        l3078 1703  
                                      l3246 04B3                                        l2470 16DB  
                                      l2462 16C4                                        l2454 16AC  
                                      l2446 1697                                        l2438 1688  
                                      l3190 0C62                                        l3174 0C1F  
                                      l3182 0C4A                                        l3158 0BDC  
                                      l2550 14AF                                        l2542 148E  
                                      l3270 0A81                                        l3262 0A6B  
                                      l2720 0739                                        l2712 0722  
                                      l2704 0709                                        l2640 0639  
                                      l2632 062A                                        l1920 0DE1  
                                      l1912 0DD3                                        l1904 0DC0  
                                      l2624 1592                                        l2616 0902  
                                      l2608 08F2                                        l2296 0B53  
                                      l2288 0B2A                                        l3096 0952  
                                      l3088 173A                                        l3248 04CC  
                                      l2392 1799                                        l2464 16CB  
                                      l2456 16B0                                        l2448 169C  
                                      l3192 0C6C                                        l3184 0C50  
                                      l3176 0C29                                        l3168 0BF4  
                                      l2552 14B6                                        l2544 1496  
                                      l2560 14D3                                        l3280 0AF3  
                                      l3272 0A86                                        l3264 0A70  
                                      l3256 0A65                                        l2802 07F0  
                                      l2730 074E                                        l2722 073A  
                                      l2714 072A                                        l2706 070A  
                                      l2650 0651                                        l2642 0641  
                                      l2634 062E                                        l1930 0DF8  
                                      l1922 0DE5                                        l1914 0DD6  
                                      l1906 0DC8                                        l2618 0912  
                                      l2298 0B56                                        l3098 09B2  
                                      l2394 179A                                        l2458 16B4  
                                      l2466 16D1                                        l3194 0C7A  
                                      l3186 0C57                                        l3178 0C31  
                                      l2554 14C0                                        l2546 149C  
                                      l2562 14D9                                        l3282 0AF7  
                                      l3274 0A91                                        l3266 0A78  
                                      l3258 0A68                                        l2900 13FB  
                                      l2804 07FC                                        l2740 0773  
                                      l2732 0752                                        l2724 0743  
                                      l2716 072C                                        l2708 0718  
                                      l2660 0664                                        l2652 0655  
                                      l2644 0642                                        l2636 062F  
                                      l2628 0621                                        l1940 0E11  
                                      l1932 0DF9                                        l1924 0DE6  
                                      l1916 0DDC                                        l1908 0DC9  
                                      l2396 179E                                        l2468 16D6  
                                      l3196 0C81                                        l3188 0C59  
                                      l2548 14A2                                        l2564 14E6  
                                      l2556 14C5                                        l3284 0B0E  
                                      l3276 0AC7                                        l3268 0A7D  
                                      l2750 07B1                                        l2742 0781  
                                      l2734 0766                                        l2718 0735  
                                      l2726 0749                                        l2670 068B  
                                      l2662 066C                                        l2654 0659  
                                      l2638 0634                                        l2646 0644  
                                      l2910 004D                                        l2902 003F  
                                      l1950 0E1B                                        l1942 0E13  
                                      l1926 0DEB                                        l1934 0DFB  
                                      l1918 0DDD                                        l2590 08BF  
                                      l2398 17A3                                        l3198 0C87  
                                      l2566 14ED                                        l2558 14CD  
                                      l3278 0AEE                                        l2816 1368  
                                      l2760 07DF                                        l2752 07BF  
                                      l2744 0785                                        l2728 074D  
                                      l2672 068F                                        l2664 066D  
                                      l2656 065A                                        l2648 064C  
                                      l2920 0069                                        l2912 0052  
                                      l2904 0044                                        l1960 0E25  
                                      l1952 0E1D                                        l1944 0E15  
                                      l1936 0E09                                        l1928 0DF0  
                                      l2592 08D2                                        l2584 08AB  
                                      l1880 15DE                                        l2568 14F7  
                                      l2762 07E3                                        l2754 07CE  
                                      l2746 079E                                        l2738 076E  
                                      l2690 06D0                                        l2682 06A6  
                                      l2658 065F                                        l2666 066F  
                                      l2930 007C                                        l2922 006E  
                                      l2914 0057                                        l2906 0048  
                                      l1962 0E27                                        l1954 0E1F  
                                      l1946 0E17                                        l1938 0E0D  
                                      l1970 0E2F                                        l2594 08D3  
                                      l2586 08B6                                        l1882 15F4  
                                      l2764 07E5                                        l2756 07D2  
                                      l2748 07A4                                        l2692 06D2  
                                      l2684 06B8                                        l2668 067F  
                                      l2676 0698                                        l2940 0098  
                                      l2932 0081                                        l2924 0072  
                                      l2916 005F                                        l2908 004C  
                                      l1980 0E6C                                        l1972 0E30  
                                      l1964 0E29                                        l1956 0E21  
                                      l1948 0E19                                        l1892 0DA8  
                                      l2596 08DB                                        l1884 1610  
                                      l2790 13A4                                        l2766 07E9  
                                      l2758 07DA                                        l2694 06D7  
                                      l2686 06C0                                        l2678 069D  
                                      l2950 00C1                                        l2942 009D  
                                      l2934 0089                                        l2926 0076  
                                      l2918 0061                                        l1990 0E8A  
                                      l1982 0E70                                        l1974 0E47  
                                      l1966 0E2B                                        l1958 0E23  
                                      l1894 0DAD                                        l2598 08DD  
                                      l1886 162A                                        l2792 13A5  
                                      l2784 1391                                        l2696 06E9  
                                      l2688 06C8                                        l2880 1404  
                                      l2960 015A                                        l2952 00DC  
                                      l2936 008B                                        l2928 0077  
                                      l1992 0E8F                                        l1984 0E71  
                                      l1976 0E63                                        l1968 0E2D  
                                      l1896 0DB1                                        l1888 162C  
                                      l2794 13A6                                        l2786 139F  
                                      l2698 06ED                                        l2882 140B  
                                      l2970 01B9                                        l2962 0163  
                                      l2954 00F8                                        l2946 00A6  
                                      l2938 0093                                        l1986 0E7A  
                                      l1978 0E6A                                        l1898 0DB5  
                                      l2892 13DE                                        l2788 13A3  
                                      l2884 140F                                        l2980 0251  
                                      l2972 01D0                                        l2964 0171  
                                      l2956 0122                                        l2948 00B4  
                                      l1996 0E98                                        l1988 0E7E  
                                      l2796 137C                                        l2894 13E2  
                                      l2886 141E                                        l2878 1402  
                                      l2990 02BF                                        l2982 0277  
                                      l2974 01ED                                        l2966 018E  
                                      l2958 013E                                        l1998 0EAF  
                                      l2798 137F                                        l2896 13ED  
                                      l2888 1423                                        l2992 02C3  
                                      l2984 029F                                        l2976 0218  
                                      l2968 019C                                        l2898 13F4  
                                      l2994 02C4                                        l2986 02A8  
                                      l2978 0226                                        l2996 02CD  
                                      l2988 02B6                                        ?_log 0069  
                                      l2998 02D3                                        STR_1 1048  
                                      STR_2 1034                                        u2100 15F4  
                                      u2101 15F3                                        u2110 1610  
                                      u2111 160F                                        u2200 0E09  
                                      u2120 162A                                        u2201 0E08  
                                      u3001 0A0E                                        u2121 1629  
                                      u2210 0E0D                                        u2130 0DB5  
                                      u3010 0A27                                        u3002 0A0F  
                                      u2211 0E0C                                        u2131 0DB4  
                                      u3011 0A26                                        u3003 0A14  
                                      u2300 0E8F                                        u2220 0E47  
                                      u2140 0DBB                                        u3004 0A15  
                                      u3100 0B8B                                        u2301 0E8E  
                                      u2221 0E46                                        u2141 0DBA  
                                      u3021 0A36                                        u3005 0A1A  
                                      u3101 0B8A                                        u2125 1626  
                                      u2230 0E52                                        u2150 0DC0  
                                      u3030 0A61                                        u3022 0A37  
                                      u3006 0A1B                                        u2311 0EA1  
                                      u2231 0E50                                        u2151 0DBF  
                                      u3031 0A60                                        u3023 0A3C  
                                      u4000 07E3                                        u2400 0F57  
                                      u2320 0EB3                                        u2312 0EA8  
                                      u2240 0E53                                        u2160 0DDC  
                                      u3024 0A3D                                        u3120 0B9B  
                                      u3040 0B26                                        u4001 07E2  
                                      u2401 0F56                                        u2321 0EB2  
                                      u2313 0EAF                                        u2225 0E43  
                                      u2161 0DDB                                        u3025 0A42  
                                      u3121 0B9A                                        u3041 0B25  
                                      u2410 0F5C                                        u2330 0EB7  
                                      u2250 0E63                                        u2170 0DE5  
                                      u3026 0A43                                        u3130 0BA1  
                                      u3050 0B2A                                        u2411 0F5B  
                                      u2331 0EB6                                        u2251 0E62  
                                      u2171 0DE4                                        u3035 0A5D  
                                      u3131 0BA0                                        u3115 0B90  
                                      u3051 0B29                                        u4100 13FB  
                                      u2500 0F9F                                        u2340 0EC4  
                                      u2260 0E70                                        u2180 0DEB  
                                      u3140 0BA5                                        u3060 0B4A  
                                      u3300 17A9                                        u4101 13FA  
                                      u2501 0F9E                                        u2341 0EC3  
                                      u2261 0E6F                                        u2181 0DEA  
                                      u3141 0BA4                                        u3061 0B49  
                                      u3301 17A8                                        u4110 004C  
                                      u2510 0FB1                                        u2430 0F72  
                                      u2190 0DF0                                        u3150 0BBA  
                                      u3310 17BA                                        u4111 004B  
                                      u2511 0FB0                                        u2431 0F71  
                                      u2191 0DEF                                        u3311 17B9  
                                      u4040 140F                                        u4120 0052  
                                      u2520 0FC0                                        u2440 0F77  
                                      u2360 0EE9                                        u2280 0E86  
                                      u3160 0BCA                                        u3080 0B69  
                                      u3400 1697                                        u4041 140E  
                                      u4201 0106                                        u4121 0051  
                                      u2441 0F76                                        u2425 0F67  
                                      u2361 0EE8                                        u2281 0E85  
                                      u3161 0BC9                                        u3081 0B68  
                                      u3401 1696                                        u4202 010D  
                                      u4130 0057                                        u2530 0FCF  
                                      u2450 0F81                                        u2290 0E8A  
                                      u3170 0BCE                                        u3330 17CC  
                                      u3410 16A2                                        u4211 0130  
                                      u4203 0114                                        u4131 0056  
                                      u2531 0FCE                                        u2451 0F80  
                                      u2371 0F00                                        u2363 0EE5  
                                      u2355 0EC7                                        u2291 0E89  
                                      u2275 0E73                                        u3171 0BCD  
                                      u3155 0BB5                                        u3075 0B5B  
                                      u3331 17CB                                        u3411 16A1  
                                      u4060 1423                                        u4300 025D  
                                      u4212 0137                                        u4140 0076  
                                      u2540 0FD8                                        u2460 0F87  
                                      u2380 0F14                                        u2372 0F01  
                                      u4061 1422                                        u4221 014C  
                                      u4213 013E                                        u4141 0075  
                                      u2541 0FD7                                        u2525 0FBB  
                                      u2461 0F86                                        u2381 0F15  
                                      u2373 0F06                                        u3325 17BE  
                                      u4070 13E2                                        u4222 0153  
                                      u4150 007C                                        u2550 0FDD  
                                      u2470 0F8C                                        u2390 0F32  
                                      u2382 0F1A                                        u2374 0F07  
                                      u3350 17DD                                        u3430 16B4  
                                      u4071 13E1                                        u4055 1416  
                                      u4311 0269                                        u4223 015A  
                                      u4151 007B                                        u2551 0FDC  
                                      u2471 0F8B                                        u2391 0F31  
                                      u2383 0F1B                                        u2375 0F0C  
                                      u3095 0B7D                                        u3351 17DC  
                                      u3431 16B3                                        u4080 13ED  
                                      u4400 02F0                                        u4320 0285  
                                      u4312 0270                                        u4160 0081  
                                      u2560 0FEA                                        u2480 0F92  
                                      u2376 0F0D                                        u3440 16BE  
                                      u3600 14E6                                        u4081 13EC  
                                      u4401 02EF                                        u4313 0277  
                                      u4305 0258                                        u4241 0180  
                                      u4161 0080                                        u2561 0FE9  
                                      u2481 0F91                                        u3345 17CD  
                                      u3441 16BD                                        u3425 16A6  
                                      u3601 14E5                                        u4090 13F4  
                                      u4410 02F7                                        u4242 0187  
                                      u4170 0098                                        u2570 0FEF  
                                      u2490 0F99                                        u3370 17F1  
                                      u3290 179E                                        u3610 14F7  
                                      u4091 13F3                                        u4411 02F6  
                                      u4331 0291                                        u4251 01AB  
                                      u4243 018E                                        u4235 015C  
                                      u4171 0097                                        u2571 0FEE  
                                      u2491 0F98                                        u3371 17F0  
                                      u3355 17D9                                        u3291 179D  
                                      u3611 14F6                                        u4420 02FD  
                                      u4332 0298                                        u4252 01B2  
                                      u4180 009D                                        u2580 0FFE  
                                      u3700 0912                                        u3620 08B6  
                                      u3380 17F6                                        u3460 16D1  
                                      u3540 1496                                        u4421 02FC  
                                      u4333 029F                                        u4325 0280  
                                      u4253 01B9                                        u4181 009C  
                                      u2581 0FFD                                        u3701 0911  
                                      u3621 08B5                                        u3381 17F5  
                                      u3365 17E5                                        u3461 16D0  
                                      u3445 16BA                                        u3541 1495  
                                      u3605 14E2                                        u4430 030F  
                                      u3710 0917                                        u3630 08CD  
                                      u3470 16D6                                        u3390 168C  
                                      u3550 149C                                        u4431 030E  
                                      u4271 01DF                                        u4191 00EA  
                                      u3711 0916                                        u3471 16D5  
                                      u3455 16C5                                        u3391 168B  
                                      u3551 149B                                        u3800 06D7  
                                      u3720 062E                                        u4440 031E  
                                      u4360 02C3                                        u4272 01E6  
                                      u4192 00F1                                        u3640 08E1  
                                      u4520 09B8                                        u4600 0CB7  
                                      u3560 14AF                                        u3801 06D6  
                                      u3721 062D                                        u4361 02C2  
                                      u4345 02A1                                        u4281 020A  
                                      u4273 01ED                                        u4265 01BB  
                                      u4193 00F8                                        u3641 08E0  
                                      u4521 09B7                                        u4505 0928  
                                      u4601 0CB6                                        u3561 14AE  
                                      u3730 0634                                        u4450 033B  
                                      u4282 0211                                        u3650 08E8  
                                      u4610 0CE3                                        u4530 154A  
                                      u3570 14C0                                        u3731 0633  
                                      u4451 033A                                        u4355 02B8  
                                      u4291 0235                                        u4283 0218  
                                      u3651 08E7                                        u3635 08C8  
                                      u4515 095B                                        u4611 0CE2  
                                      u4531 1549                                        u3571 14BF  
                                      u3740 0639                                        u4460 0355  
                                      u4380 02D7                                        u4292 023C  
                                      u4620 0BE2                                        u3580 14CD  
                                      u3741 0638                                        u4461 0354  
                                      u4445 0319                                        u4381 02D6  
                                      u4293 0243                                        u4621 0BE1  
                                      u3565 14AB                                        u3581 14CC  
                                      u3910 074D                                        u3830 06ED  
                                      u3750 0659                                        u4470 0371  
                                      u4390 02DC                                        u3670 08FA  
                                      u4550 156F                                        u4630 0C14  
                                      u3590 14D3                                        _INTF 0059  
                                      u3911 074C                                        u3831 06EC  
                                      u3815 06D9                                        u3751 0658  
                                      u4471 0370                                        u4455 0337  
                                      u4391 02DB                                        u4375 02C6  
                                      u3671 08F9                                        u4551 156E  
                                      u4631 0C13                                        u3591 14D2  
                                      u3920 0752                                        u3760 065F  
                                      u3680 0901                                        u4640 0C50  
                                      u3921 0751                                        u3905 073C  
                                      u3825 06E2                                        u3761 065E  
                                      u4465 0351                                        u3681 0900  
                                      u3665 08EA                                        u4545 1550  
                                      u4641 0C4F                                        u3930 0766  
                                      u3850 0709                                        u3770 0664  
                                      u2970 09D7                                        u4490 16FB  
                                      u4570 150B                                        u4650 0C9B  
                                      u3931 0765                                        u3851 0708  
                                      u3771 0663                                        u2971 09D6  
                                      u4491 16FA                                        u4707 1381  
                                      u4651 0C9A                                        u4635 0C10  
                                      u3940 076D                                        u3860 0722  
                                      u3780 067F                                        u2980 09F3  
                                      u4580 152F                                        u4660 1456  
                                      u4717 1746                                        u3941 076C  
                                      u3861 0721                                        u3845 06F0  
                                      u3781 067E                                        u2981 09F2  
                                      u4565 1575                                        u4485 0810  
                                      u4661 1455                                        u3950 0773  
                                      u3870 072A                                        u3790 069D  
                                      u2990 09FF                                        u4590 1541  
                                      u4727 1755                                        u3951 0772  
                                      u3871 0729                                        u3855 0705  
                                      u3791 069C                                        u3695 0904  
                                      u2991 09FE                                        u4591 1540  
                                      u4655 0C97                                        u3960 0785  
                                      u4737 1763                                        u3961 0784  
                                      u3970 0794                                        u3890 0739  
                                      u4747 13B9                                        u3891 0738  
                                      u3980 07B1                                        u3981 07B0  
                                      u3885 072E                                        u4677 1489  
                          ?_verificaBtnMais 0070                                        u3990 07CE  
                                      u3991 07CD                                        u3975 078F  
                                      u4687 0820                                        u3985 07AD  
                                      u4697 0830                                        u3995 07CA  
                         ?_Lcd_Write_String 0077                                        _main 0A65  
                                      btemp 007E                                        log@x 0069  
                                      start 000C                          ??_Lcd_Write_String 0020  
                           ___fldiv@new_exp 00C2                             __end_of_Lcd_Cmd 13C2  
                   intToASCIIinCustomBase@i 002C                     intToASCIIinCustomBase@j 002E  
                                     ??_log 007A                             ??_configPWMRegs 0072  
                           _handleSetupMenu 1428                               ___fltol@sign1 00D2  
                           __end_of___fladd 1000                                       ?_main 0070  
                           __end_of___fldiv 07F0                             __end_of___awdiv 1800  
                           __end_of___awmod 16E0                             __end_of___flmul 0384  
                           __end_of___flsub 15DE                             __end_of___fltol 0923  
                           ___awdiv@divisor 0072                                       i1l134 13D6  
                           ___awdiv@counter 0076                           ?_verificaBtnMenos 0070  
                                     _TRISB 0086                                       _TRISC 0087  
                                     _TRISD 0088                          ??_verificaBtnMenos 0072  
                                     _log10 0836                                       _frexp 16E0  
                                     _errno 01AE                                       _v_ldr 01AA  
                                     pclath 000A                                       status 0003  
                                     wtemp0 007E                            __end_of_Lcd_Init 1799  
                          __end_of_Lcd_Port 13FF                     ?_intToASCIIinCustomBase 0020  
                           __initialization 000F                                ?_interrupcao 0070  
                               log@exponent 006D                                __end_of_main 0B1E  
                                    ??_main 007A                                      ?_log10 00A0  
                                    ?_frexp 0024                                      _ADRESH 001E  
                                    _ADRESL 009E                                      _CCPR1L 0015  
                          ___awdiv@dividend 0074                                      i1l2840 13C6  
                                    i1l2842 13CE                                      i1l2844 13D1  
                                    i1l2846 13D5                                      i1l2838 13C2  
                                    u402_20 13C6                                      u402_21 13C5  
                                    u403_20 13CE                                      u403_21 13CD  
                                 ??_Lcd_Cmd 0073                                      _TMR2ON 0092  
                    main@texto_luminosidade 00D8                            __end_of___xxtofl 0BD8  
            __end_of_intToASCIIinCustomBase 0C9C                     __end_of_handleSetupMenu 1457  
                                    ___flge 09C1                                      ___fleq 15DE  
                                 ??___fladd 004D                                   ??___fldiv 00B8  
                                 ??___awdiv 0076                                   ??___awmod 0076  
                                 ??___flmul 0033                                   ??___flsub 007A  
                                 ??___fltol 00CE                 ?_converteLeituraAnParaVolts 00CA  
                          ___awdiv@quotient 0078                                      log10@x 00A0  
                           ___awmod@divisor 0072                             ___awmod@counter 0076  
                              __pdataCOMMON 007A                                      saved_w 007E  
                          _configIntExterns 1368                             Lcd_Set_Cursor@a 0020  
                           Lcd_Set_Cursor@b 0076                             Lcd_Set_Cursor@y 0022  
                           Lcd_Set_Cursor@z 0021                                  ___flge@ff1 0072  
                                ___flge@ff2 0076                                ___xxtofl@arg 0022  
                              ___xxtofl@exp 0021                                ___xxtofl@val 0072  
                                ___fleq@ff1 0072                                  ___fleq@ff2 0076  
                          __end_oflog@coeff 1034                     __end_of__initialization 003B  
handleSetupMenu@texto_luminosidade_desejada 0032           converteLeituraAnParaVolts@leitura 00CA  
                         __end_of_Lcd_Clear 137C                                eval_poly@res 0065  
                                ___fltol@f1 00CA                              __pcstackCOMMON 0070  
                              __pidataBANK3 0801                               __end_of_log10 08AB  
                             __end_of_frexp 173C                              _Lcd_Set_Cursor 1542  
                            _OPTION_REGbits 0081                                   ?_Lcd_Init 0070  
                                 ?_Lcd_Port 0070                                     ??_log10 007A  
                 converteVoltsParaLux@l_ldr 0190                                     ??_frexp 0029  
                 converteVoltsParaLux@r_ldr 01A4                   converteVoltsParaLux@v_ldr 00D4  
                                _log10$1038 00A4                                  __pbssBANK1 00E9  
                                __pbssBANK3 01AA                  intToASCIIinCustomBase@base 0023  
                intToASCIIinCustomBase@temp 0027                           __end_of__Umul8_16 1428  
                                __pmaintext 0A65                            ?_handleSetupMenu 0070  
                                   ?___flge 0072                                     ?___fleq 0072  
                                __pintentry 0004                                     _CCP1CON 0017  
                    __end_of_Lcd_Set_Cursor 158E                                   ?___xxtofl 0072  
                                ??_Lcd_Init 0076                                  ??_Lcd_Port 0072  
                                __stringtab 1000                              _Lcd_Write_Char 0803  
                                   _Lcd_Cmd 13A8                                  _escreveLCD 1457  
                         __end_of_configADC 13A8                                     ___fladd 0DA8  
                                   ___fldiv 0621                                     ___awdiv 1799  
                                   ___awmod 1687                                     ___flmul 003F  
                                   ___flsub 158E                                     ___fltol 08AB  
                         __end_of_eval_poly 09C1                             ?_Lcd_Set_Cursor 0076  
                     __end_of_configPWMRegs 07FE                                     __ptext1 1428  
                                   __ptext2 14C5                                     __ptext3 148E  
                                   __ptext4 0BD8                                     __ptext5 1687  
                                   __ptext6 1799                                     __ptext7 1457  
                                   __ptext8 14FC                                     __ptext9 0803  
                                _menu_ativo 00E9                                     _leitura 01B2  
                                ??___xxtofl 0076                            ___awmod@dividend 0074  
                    __end_of_Lcd_Write_Char 0836                        end_of_initialization 003B  
                           _porcentagem_PWM 01B4                       _luminosidade_desejada 007A  
                  __end_of_configIntExterns 136F                              main@texto_menu 00E8  
                                 Lcd_Port@a 0072                                   _PORTBbits 0006  
                                 _PORTDbits 0008                                _btn_mais_aux 00ED  
                               ___fladd@grs 0058                               ___xxtofl@sign 0020  
                             ??_getValorADC 0074                                 ___fldiv@grs 00C4  
                               ___fldiv@rem 00BD                             ?_Lcd_Write_Char 0070  
                         Lcd_Write_String@a 0077                           Lcd_Write_String@i 0023  
                               ___flmul@grs 003A                                 ?_escreveLCD 0025  
              __end_of_converteVoltsParaLux 0621                                   _Lcd_Clear 136F  
                            __end_of___flge 0A65                              __end_of___fleq 162E  
                          _Lcd_Write_String 14FC                               __pidataCOMMON 07FE  
                         ??_verificaBtnMais 0072                         start_initialization 000F  
                                eval_poly@d 005D                                  eval_poly@n 005E  
                                eval_poly@x 0059                                 __end_of_log 0DA8  
                       __end_of_getValorADC 1391                                  frexp@value 0024  
                          _verificaBtnMenos 14C5                                  ?_Lcd_Clear 0070  
                                  ??___flge 0020                                    ??___fleq 0020  
                                 __Umul8_16 13FF                                 __pdataBANK3 01B4  
                           Lcd_Write_Char@a 0076                             Lcd_Write_Char@y 0075  
                                 ___fladd@a 0049                                   ___fladd@b 0045  
                                 ___fldiv@a 00B0                                   ___fldiv@b 00B4  
                                 ___flmul@a 002F                                   ___flmul@b 002B  
                                 ___flsub@a 00A8                                   ___flsub@b 00AC  
                                 ___latbits 0002                               __pcstackBANK0 0020  
                             __pcstackBANK1 00A0                               __pcstackBANK3 0190  
                  ??_intToASCIIinCustomBase 0025                 intToASCIIinCustomBase@resto 002A  
                                  ?_Lcd_Cmd 0070                               ??_interrupcao 0070  
                          ??_Lcd_Set_Cursor 0077                                    ?___fladd 0045  
                                  ?___fldiv 00B0                                    ?___awdiv 0072  
                                  ?___awmod 0072                                    ?___flmul 002B  
                                  ?___flsub 00A8                                    ?___fltol 00CA  
                                ?__Umul8_16 0072                                   _configADC 1391  
                                 __pstrings 1000                          _luminosidade_atual 01B0  
           intToASCIIinCustomBase@resultado 0022                        _converteVoltsParaLux 0384  
                                 _eval_poly 0923                                 _getValorADC 137C  
                         interrupt_function 0004                                    Lcd_Cmd@a 0075  
                               ??_Lcd_Clear 0076                           ?_configIntExterns 0070  
                                ?_configADC 0070                          ??_configIntExterns 0072  
              ??_converteLeituraAnParaVolts 007A                         __end_of_interrupcao 13DD  
                                _ADCON0bits 001F                                 __stringbase 100F  
                                _ADCON1bits 009F                            escreveLCD@linha1 0079  
                          escreveLCD@linha2 0025                       ?_converteVoltsParaLux 00D4  
                          ??_Lcd_Write_Char 0073                                  ?_eval_poly 0059  
                                  _Lcd_Init 173C                                    _Lcd_Port 13DD  
                  __end_of_Lcd_Write_String 1542                  _intToASCIIinCustomBase$279 0028  
                              ??_escreveLCD 0026                                   frexp@eptr 0028  
                           _verificaBtnMais 148E                   _converteVoltsParaLux$1034 0194  
                 _converteVoltsParaLux$1035 0198                   _converteVoltsParaLux$1036 019C  
                 _converteVoltsParaLux$1037 01A0                                 ??__Umul8_16 0074  
                        __end_of__stringtab 1010                    __end_of_verificaBtnMenos 14FC  
                                  ___xxtofl 0B1E                          __end_of_escreveLCD 148E  
                                  __ptext10 1542                                    __ptext11 136F  
                                  __ptext20 09C1                                    __ptext12 137C  
                                  __ptext21 08AB                                    __ptext13 0384  
                                  __ptext30 1391                                    __ptext22 158E  
                                  __ptext14 0836                                    __ptext31 173C  
                                  __ptext23 0DA8                                    __ptext15 0C9C  
                                  __ptext32 13A8                                    __ptext24 162E  
                                  __ptext16 16E0                                    __ptext33 13DD  
                                  __ptext25 003F                                    __ptext17 15DE  
                                  __ptext34 13C2                                    __ptext26 13FF  
                                  __ptext18 0923                                    __ptext27 0621  
                                  __ptext19 0B1E                                    __ptext28 07F0  
                                  __ptext29 1368                           ??_handleSetupMenu 007A  
                               _interrupcao 13C2                      _intToASCIIinCustomBase 0BD8  
                               ??_configADC 0072                intToASCIIinCustomBase@indice 0030  
                    ??_converteVoltsParaLux 007A                intToASCIIinCustomBase@numero 0020  
                                  log@coeff 1010                               _configPWMRegs 07F0  
                                _INTCONbits 000B                                 ??_eval_poly 0060  
                        Lcd_Write_Char@temp 0074                     __end_of_verificaBtnMais 14C5  
                                  intlevel1 0000                       converteVoltsParaLux@b 01A6  
                                 stringcode 100A          __end_of_converteLeituraAnParaVolts 1687  
                _converteLeituraAnParaVolts 162E                          Lcd_Set_Cursor@temp 0023  
                            ?_configPWMRegs 0070                      __Umul8_16@multiplicand 0072  
                                  stringdir 100A                                    stringtab 1000  
                              ?_getValorADC 0072                               ___fladd@signs 0055  
                              ___fladd@aexp 0056                                ___fladd@bexp 0057  
                      __Umul8_16@multiplier 0024                           __Umul8_16@product 0020  
                             _btn_menos_aux 00EB  
