

Microchip MPLAB XC8 Assembler V2.41 build 20230208172133 
                                                                                               Sun Jun 25 15:08:01 2023

Microchip MPLAB XC8 C Compiler v2.41 (Free license) build 20230208172133 Og1 
     1                           	processor	16F877A
     2                           	pagewidth 120
     3                           	opt	flic
     4                           	psect	idataBANK2,global,class=CODE,delta=2,noexec
     5                           	psect	idataBANK3,global,class=CODE,delta=2,noexec
     6                           	psect	strings,global,class=STRING,delta=2,noexec
     7                           	psect	cinit,global,class=CODE,merge=1,delta=2
     8                           	psect	bssCOMMON,global,class=COMMON,space=1,delta=1,noexec
     9                           	psect	bssBANK3,global,class=BANK3,space=1,delta=1,noexec
    10                           	psect	dataBANK3,global,class=BANK3,space=1,delta=1,noexec
    11                           	psect	bssBANK2,global,class=BANK2,space=1,delta=1,noexec
    12                           	psect	dataBANK2,global,class=BANK2,space=1,delta=1,noexec
    13                           	psect	cstackBANK3,global,class=BANK3,space=1,delta=1,noexec
    14                           	psect	cstackBANK1,global,class=BANK1,space=1,delta=1,noexec
    15                           	psect	cstackCOMMON,global,class=COMMON,space=1,delta=1,noexec
    16                           	psect	cstackBANK0,global,class=BANK0,space=1,delta=1,noexec
    17                           	psect	maintext,global,class=CODE,split=1,delta=2
    18                           	psect	text1,local,class=CODE,merge=1,delta=2
    19                           	psect	text2,local,class=CODE,merge=1,delta=2,group=1
    20                           	psect	text3,local,class=CODE,merge=1,delta=2,group=1
    21                           	psect	text4,local,class=CODE,merge=1,delta=2
    22                           	psect	text5,local,class=CODE,merge=1,delta=2
    23                           	psect	text6,local,class=CODE,merge=1,delta=2
    24                           	psect	text7,local,class=CODE,merge=1,delta=2
    25                           	psect	text8,local,class=CODE,merge=1,delta=2
    26                           	psect	text9,local,class=CODE,merge=1,delta=2
    27                           	psect	text10,local,class=CODE,merge=1,delta=2
    28                           	psect	text11,local,class=CODE,merge=1,delta=2
    29                           	psect	text12,local,class=CODE,merge=1,delta=2
    30                           	psect	text13,local,class=CODE,merge=1,delta=2
    31                           	psect	text14,local,class=CODE,merge=1,delta=2,group=2
    32                           	psect	text15,local,class=CODE,merge=1,delta=2,group=2
    33                           	psect	text16,local,class=CODE,merge=1,delta=2,group=2
    34                           	psect	text17,local,class=CODE,merge=1,delta=2,group=2
    35                           	psect	text18,local,class=CODE,merge=1,delta=2,group=1
    36                           	psect	text19,local,class=CODE,merge=1,delta=2,group=1
    37                           	psect	text20,local,class=CODE,merge=1,delta=2,group=1
    38                           	psect	text21,local,class=CODE,merge=1,delta=2,group=2
    39                           	psect	text22,local,class=CODE,merge=1,delta=2,group=2
    40                           	psect	text23,local,class=CODE,merge=1,delta=2,group=2
    41                           	psect	text24,local,class=CODE,merge=1,delta=2,group=1
    42                           	psect	text25,local,class=CODE,merge=1,delta=2,group=2
    43                           	psect	text26,local,class=CODE,merge=1,delta=2,group=1
    44                           	psect	text27,local,class=CODE,merge=1,delta=2,group=1
    45                           	psect	text28,local,class=CODE,merge=1,delta=2,group=1
    46                           	psect	text29,local,class=CODE,merge=1,delta=2
    47                           	psect	text30,local,class=CODE,merge=1,delta=2,group=1
    48                           	psect	text31,local,class=CODE,merge=1,delta=2,group=1
    49                           	psect	text32,local,class=CODE,merge=1,delta=2,group=1
    50                           	psect	text33,local,class=CODE,merge=1,delta=2
    51                           	psect	text34,local,class=CODE,merge=1,delta=2
    52                           	psect	text35,local,class=CODE,merge=1,delta=2
    53                           	psect	text36,local,class=CODE,merge=1,delta=2
    54                           	psect	text37,local,class=CODE,merge=1,delta=2
    55                           	psect	text38,local,class=CODE,merge=1,delta=2
    56                           	psect	text39,local,class=CODE,merge=1,delta=2
    57                           	psect	intentry,global,class=CODE,delta=2
    58                           	dabs	1,0x7E,2
    59     0000                     
    60                           ; Version 2.20
    61                           ; Generated 12/02/2020 GMT
    62                           ; 
    63                           ; Copyright © 2020, Microchip Technology Inc. and its subsidiaries ("Microchip")
    64                           ; All rights reserved.
    65                           ; 
    66                           ; This software is developed by Microchip Technology Inc. and its subsidiaries ("Microch
      +                          ip").
    67                           ; 
    68                           ; Redistribution and use in source and binary forms, with or without modification, are
    69                           ; permitted provided that the following conditions are met:
    70                           ; 
    71                           ;     1. Redistributions of source code must retain the above copyright notice, this lis
      +                          t of
    72                           ;        conditions and the following disclaimer.
    73                           ; 
    74                           ;     2. Redistributions in binary form must reproduce the above copyright notice, this 
      +                          list
    75                           ;        of conditions and the following disclaimer in the documentation and/or other
    76                           ;        materials provided with the distribution.
    77                           ; 
    78                           ;     3. Microchip's name may not be used to endorse or promote products derived from th
      +                          is
    79                           ;        software without specific prior written permission.
    80                           ; 
    81                           ; THIS SOFTWARE IS PROVIDED BY MICROCHIP "AS IS" AND ANY EXPRESS OR IMPLIED WARRANTIES,
    82                           ; INCLUDING, BUT NOT LIMITED TO, THE IMPLIED WARRANTIES OF MERCHANTABILITY AND FITNESS F
      +                          OR
    83                           ; PURPOSE ARE DISCLAIMED.  IN NO EVENT SHALL MICROCHIP BE LIABLE FOR ANY DIRECT, INDIREC
      +                          T,
    84                           ; INCIDENTAL, SPECIAL, EXEMPLARY, OR CONSEQUENTIAL DAMAGES (INCLUDING BUT NOT LIMITED TO
    85                           ; PROCUREMENT OF SUBSTITUTE GOODS OR SERVICES; LOSS OF USE, DATA OR PROFITS; OR BUSINESS
    86                           ; INTERRUPTION) HOWSOEVER CAUSED AND ON ANY THEORY OF LIABILITY, WHETHER IN CONTRACT, ST
      +                          RICT
    87                           ; LIABILITY, OR TORT (INCLUDING NEGLIGENCE OR OTHERWISE) ARISING IN ANY WAY OUT OF THE U
      +                          SE OF
    88                           ; THIS SOFTWARE, EVEN IF ADVISED OF THE POSSIBILITY OF SUCH DAMAGE.
    89                           ; 
    90                           ; 
    91                           ; Code-generator required, PIC16F877A Definitions
    92                           ; 
    93                           ; SFR Addresses
    94     0000                     	;# 
    95     0001                     	;# 
    96     0002                     	;# 
    97     0003                     	;# 
    98     0004                     	;# 
    99     0005                     	;# 
   100     0006                     	;# 
   101     0007                     	;# 
   102     0008                     	;# 
   103     0009                     	;# 
   104     000A                     	;# 
   105     000B                     	;# 
   106     000C                     	;# 
   107     000D                     	;# 
   108     000E                     	;# 
   109     000E                     	;# 
   110     000F                     	;# 
   111     0010                     	;# 
   112     0011                     	;# 
   113     0012                     	;# 
   114     0013                     	;# 
   115     0014                     	;# 
   116     0015                     	;# 
   117     0015                     	;# 
   118     0016                     	;# 
   119     0017                     	;# 
   120     0018                     	;# 
   121     0019                     	;# 
   122     001A                     	;# 
   123     001B                     	;# 
   124     001B                     	;# 
   125     001C                     	;# 
   126     001D                     	;# 
   127     001E                     	;# 
   128     001F                     	;# 
   129     0081                     	;# 
   130     0085                     	;# 
   131     0086                     	;# 
   132     0087                     	;# 
   133     0088                     	;# 
   134     0089                     	;# 
   135     008C                     	;# 
   136     008D                     	;# 
   137     008E                     	;# 
   138     0091                     	;# 
   139     0092                     	;# 
   140     0093                     	;# 
   141     0094                     	;# 
   142     0098                     	;# 
   143     0099                     	;# 
   144     009C                     	;# 
   145     009D                     	;# 
   146     009E                     	;# 
   147     009F                     	;# 
   148     010C                     	;# 
   149     010D                     	;# 
   150     010E                     	;# 
   151     010F                     	;# 
   152     018C                     	;# 
   153     018D                     	;# 
   154     0000                     	;# 
   155     0001                     	;# 
   156     0002                     	;# 
   157     0003                     	;# 
   158     0004                     	;# 
   159     0005                     	;# 
   160     0006                     	;# 
   161     0007                     	;# 
   162     0008                     	;# 
   163     0009                     	;# 
   164     000A                     	;# 
   165     000B                     	;# 
   166     000C                     	;# 
   167     000D                     	;# 
   168     000E                     	;# 
   169     000E                     	;# 
   170     000F                     	;# 
   171     0010                     	;# 
   172     0011                     	;# 
   173     0012                     	;# 
   174     0013                     	;# 
   175     0014                     	;# 
   176     0015                     	;# 
   177     0015                     	;# 
   178     0016                     	;# 
   179     0017                     	;# 
   180     0018                     	;# 
   181     0019                     	;# 
   182     001A                     	;# 
   183     001B                     	;# 
   184     001B                     	;# 
   185     001C                     	;# 
   186     001D                     	;# 
   187     001E                     	;# 
   188     001F                     	;# 
   189     0081                     	;# 
   190     0085                     	;# 
   191     0086                     	;# 
   192     0087                     	;# 
   193     0088                     	;# 
   194     0089                     	;# 
   195     008C                     	;# 
   196     008D                     	;# 
   197     008E                     	;# 
   198     0091                     	;# 
   199     0092                     	;# 
   200     0093                     	;# 
   201     0094                     	;# 
   202     0098                     	;# 
   203     0099                     	;# 
   204     009C                     	;# 
   205     009D                     	;# 
   206     009E                     	;# 
   207     009F                     	;# 
   208     010C                     	;# 
   209     010D                     	;# 
   210     010E                     	;# 
   211     010F                     	;# 
   212     018C                     	;# 
   213     018D                     	;# 
   214                           
   215                           	psect	idataBANK2
   216     07FC                     __pidataBANK2:
   217                           
   218                           ;initializer for _porcentagem_PWM
   219     07FC  3432               	retlw	50
   220     07FD  3400               	retlw	0
   221                           
   222                           	psect	idataBANK3
   223     07FE                     __pidataBANK3:
   224                           
   225                           ;initializer for _luminosidade_desejada
   226     07FE  3490               	retlw	144
   227     07FF  3401               	retlw	1
   228                           
   229                           	psect	strings
   230     1000                     __pstrings:
   231     1000                     stringtab:
   232     1000                     __stringtab:
   233                           
   234                           ;	String table - string pointers are 1 byte each
   235     1000  1BFF               	btfsc	btemp+1,7
   236     1001  280A               	ljmp	stringcode
   237     1002  1383               	bcf	3,7
   238     1003  187F               	btfsc	btemp+1,0
   239     1004  1783               	bsf	3,7
   240     1005  0800               	movf	0,w
   241     1006  0A84               	incf	4,f
   242     1007  1903               	skipnz
   243     1008  0AFF               	incf	btemp+1,f
   244     1009  0008               	return
   245     100A                     stringcode:
   246     100A                     stringdir:
   247     100A  3010               	movlw	high stringdir
   248     100B  008A               	movwf	10
   249     100C  0804               	movf	4,w
   250     100D  0A84               	incf	4,f
   251     100E  0782               	addwf	2,f
   252     100F                     __stringbase:
   253     100F  3400               	retlw	0
   254     1010                     __end_of__stringtab:
   255     1010                     exp@coeff:
   256     1010  3400               	retlw	0
   257     1011  3400               	retlw	0
   258     1012  3480               	retlw	128
   259     1013  343F               	retlw	63
   260     1014  3418               	retlw	24
   261     1015  3472               	retlw	114
   262     1016  3431               	retlw	49
   263     1017  343F               	retlw	63
   264     1018  34F0               	retlw	240
   265     1019  34FD               	retlw	253
   266     101A  3475               	retlw	117
   267     101B  343E               	retlw	62
   268     101C  3447               	retlw	71
   269     101D  3458               	retlw	88
   270     101E  3463               	retlw	99
   271     101F  343D               	retlw	61
   272     1020  3458               	retlw	88
   273     1021  3495               	retlw	149
   274     1022  341D               	retlw	29
   275     1023  343C               	retlw	60
   276     1024  3482               	retlw	130
   277     1025  34C4               	retlw	196
   278     1026  34AE               	retlw	174
   279     1027  343A               	retlw	58
   280     1028  34A8               	retlw	168
   281     1029  3478               	retlw	120
   282     102A  3421               	retlw	33
   283     102B  3439               	retlw	57
   284     102C  34EF               	retlw	239
   285     102D  3493               	retlw	147
   286     102E  3480               	retlw	128
   287     102F  3437               	retlw	55
   288     1030  34A0               	retlw	160
   289     1031  3492               	retlw	146
   290     1032  34A7               	retlw	167
   291     1033  3435               	retlw	53
   292     1034  3446               	retlw	70
   293     1035  3456               	retlw	86
   294     1036  3415               	retlw	21
   295     1037  3434               	retlw	52
   296     1038                     __end_ofexp@coeff:
   297     1038                     log@coeff:
   298     1038  3400               	retlw	0
   299     1039  3400               	retlw	0
   300     103A  3400               	retlw	0
   301     103B  3400               	retlw	0
   302     103C  34C4               	retlw	196
   303     103D  34FF               	retlw	255
   304     103E  347F               	retlw	127
   305     103F  343F               	retlw	63
   306     1040  3480               	retlw	128
   307     1041  34EF               	retlw	239
   308     1042  34FF               	retlw	255
   309     1043  34BE               	retlw	190
   310     1044  3490               	retlw	144
   311     1045  34E1               	retlw	225
   312     1046  34A9               	retlw	169
   313     1047  343E               	retlw	62
   314     1048  34EC               	retlw	236
   315     1049  3482               	retlw	130
   316     104A  3476               	retlw	118
   317     104B  34BE               	retlw	190
   318     104C  3482               	retlw	130
   319     104D  34AD               	retlw	173
   320     104E  342B               	retlw	43
   321     104F  343E               	retlw	62
   322     1050  340E               	retlw	14
   323     1051  343C               	retlw	60
   324     1052  34C3               	retlw	195
   325     1053  34BD               	retlw	189
   326     1054  3487               	retlw	135
   327     1055  34D1               	retlw	209
   328     1056  3413               	retlw	19
   329     1057  343D               	retlw	61
   330     1058  3441               	retlw	65
   331     1059  3478               	retlw	120
   332     105A  34D3               	retlw	211
   333     105B  34BB               	retlw	187
   334     105C                     __end_oflog@coeff:
   335     000B                     _INTCONbits	set	11
   336     0006                     _PORTBbits	set	6
   337     0015                     _CCPR1L	set	21
   338     0017                     _CCP1CON	set	23
   339     001E                     _ADRESH	set	30
   340     001F                     _ADCON0bits	set	31
   341     0008                     _PORTDbits	set	8
   342     0059                     _INTF	set	89
   343     0092                     _TMR2ON	set	146
   344     0088                     _TRISD	set	136
   345     0086                     _TRISB	set	134
   346     0087                     _TRISC	set	135
   347     0081                     _OPTION_REGbits	set	129
   348     0092                     _PR2	set	146
   349     009E                     _ADRESL	set	158
   350     009F                     _ADCON1bits	set	159
   351     105C                     STR_3:
   352     105C  344C               	retlw	76	;'L'
   353     105D  3455               	retlw	85	;'U'
   354     105E  344D               	retlw	77	;'M'
   355     105F  3449               	retlw	73	;'I'
   356     1060  344E               	retlw	78	;'N'
   357     1061  344F               	retlw	79	;'O'
   358     1062  3453               	retlw	83	;'S'
   359     1063  3449               	retlw	73	;'I'
   360     1064  3444               	retlw	68	;'D'
   361     1065  3441               	retlw	65	;'A'
   362     1066  3444               	retlw	68	;'D'
   363     1067  3445               	retlw	69	;'E'
   364     1068  3420               	retlw	32	;' '
   365     1069  3441               	retlw	65	;'A'
   366     106A  3454               	retlw	84	;'T'
   367     106B  3455               	retlw	85	;'U'
   368     106C  3441               	retlw	65	;'A'
   369     106D  344C               	retlw	76	;'L'
   370     106E  343A               	retlw	58	;':'
   371     106F  3400               	retlw	0
   372     1070                     STR_1:
   373     1070  344D               	retlw	77	;'M'
   374     1071  3445               	retlw	69	;'E'
   375     1072  344E               	retlw	78	;'N'
   376     1073  3455               	retlw	85	;'U'
   377     1074  3420               	retlw	32	;' '
   378     1075  342D               	retlw	45	;'-'
   379     1076  3420               	retlw	32	;' '
   380     1077  344F               	retlw	79	;'O'
   381     1078  3442               	retlw	66	;'B'
   382     1079  344A               	retlw	74	;'J'
   383     107A  3445               	retlw	69	;'E'
   384     107B  3454               	retlw	84	;'T'
   385     107C  3449               	retlw	73	;'I'
   386     107D  3456               	retlw	86	;'V'
   387     107E  344F               	retlw	79	;'O'
   388     107F  3400               	retlw	0
   389     1080                     STR_2:
   390     1080  3435               	retlw	53	;'5'
   391     1081  3430               	retlw	48	;'0'
   392     1082  3430               	retlw	48	;'0'
   393     1083  3420               	retlw	32	;' '
   394     1084  344C               	retlw	76	;'L'
   395     1085  3455               	retlw	85	;'U'
   396     1086  3458               	retlw	88	;'X'
   397     1087  3400               	retlw	0
   398                           
   399                           	psect	cinit
   400     000F                     start_initialization:	
   401                           ; #config settings
   402                           
   403     000F                     __initialization:
   404                           
   405                           ; Initialize objects allocated to BANK3
   406     000F  1683               	bsf	3,5	;RP0=1, select bank3
   407     0010  1703               	bsf	3,6	;RP1=1, select bank3
   408     0011  120A  118A  27FE  120A  118A  	fcall	__pidataBANK3	;fetch initializer
   409     0016  00E9               	movwf	__pdataBANK3& (0+127)
   410     0017  120A  118A  27FF  120A  118A  	fcall	__pidataBANK3+1	;fetch initializer
   411     001C  00EA               	movwf	(__pdataBANK3+1)& (0+127)
   412                           
   413                           ; Initialize objects allocated to BANK2
   414     001D  1283               	bcf	3,5	;RP0=0, select bank2
   415     001E  1703               	bsf	3,6	;RP1=1, select bank2
   416     001F  120A  118A  27FC  120A  118A  	fcall	__pidataBANK2	;fetch initializer
   417     0024  0094               	movwf	__pdataBANK2& (0+127)
   418     0025  120A  118A  27FD  120A  118A  	fcall	__pidataBANK2+1	;fetch initializer
   419     002A  0095               	movwf	(__pdataBANK2+1)& (0+127)
   420                           
   421                           ; Clear objects allocated to BANK3
   422     002B  1683               	bsf	3,5	;RP0=1, select bank3
   423     002C  1703               	bsf	3,6	;RP1=1, select bank3
   424     002D  01E7               	clrf	__pbssBANK3& (0+127)
   425     002E  01E8               	clrf	(__pbssBANK3+1)& (0+127)
   426                           
   427                           ; Clear objects allocated to BANK2
   428     002F  1283               	bcf	3,5	;RP0=0, select bank2
   429     0030  1703               	bsf	3,6	;RP1=1, select bank2
   430     0031  0190               	clrf	__pbssBANK2& (0+127)
   431     0032  0191               	clrf	(__pbssBANK2+1)& (0+127)
   432     0033  0192               	clrf	(__pbssBANK2+2)& (0+127)
   433     0034  0193               	clrf	(__pbssBANK2+3)& (0+127)
   434                           
   435                           ; Clear objects allocated to COMMON
   436     0035  01FA               	clrf	__pbssCOMMON& (0+127)
   437     0036  01FB               	clrf	(__pbssCOMMON+1)& (0+127)
   438     0037                     end_of_initialization:	
   439                           ;End of C runtime variable initialization code
   440                           
   441     0037                     __end_of__initialization:
   442     0037  0183               	clrf	3
   443     0038  160A  118A  2A9B   	ljmp	_main	;jump to C main() function
   444                           
   445                           	psect	bssCOMMON
   446     007A                     __pbssCOMMON:
   447     007A                     _menu_ativo:
   448     007A                     	ds	2
   449                           
   450                           	psect	bssBANK3
   451     01E7                     __pbssBANK3:
   452     01E7                     _btn_mais_aux:
   453     01E7                     	ds	2
   454                           
   455                           	psect	dataBANK3
   456     01E9                     __pdataBANK3:
   457     01E9                     _luminosidade_desejada:
   458     01E9                     	ds	2
   459                           
   460                           	psect	bssBANK2
   461     0110                     __pbssBANK2:
   462     0110                     _errno:
   463     0110                     	ds	2
   464     0112                     _btn_menos_aux:
   465     0112                     	ds	2
   466                           
   467                           	psect	dataBANK2
   468     0114                     __pdataBANK2:
   469     0114                     _porcentagem_PWM:
   470     0114                     	ds	2
   471                           
   472                           	psect	cstackBANK3
   473     0190                     __pcstackBANK3:
   474     0190                     _exp$1078:
   475                           
   476                           ; 4 bytes @ 0x0
   477     0190                     	ds	4
   478     0194                     exp@exponent:
   479                           
   480                           ; 2 bytes @ 0x4
   481     0194                     	ds	2
   482     0196                     exp@sign:
   483                           
   484                           ; 1 bytes @ 0x6
   485     0196                     	ds	1
   486     0197                     ?_pow:
   487     0197                     pow@x:	
   488                           ; 4 bytes @ 0x7
   489                           
   490                           
   491                           ; 4 bytes @ 0x7
   492     0197                     	ds	4
   493     019B                     pow@y:
   494                           
   495                           ; 4 bytes @ 0xB
   496     019B                     	ds	4
   497     019F                     _pow$1076:
   498                           
   499                           ; 4 bytes @ 0xF
   500     019F                     	ds	4
   501     01A3                     _pow$1077:
   502                           
   503                           ; 4 bytes @ 0x13
   504     01A3                     	ds	4
   505     01A7                     pow@sign:
   506                           
   507                           ; 1 bytes @ 0x17
   508     01A7                     	ds	1
   509     01A8                     pow@yi:
   510                           
   511                           ; 4 bytes @ 0x18
   512     01A8                     	ds	4
   513     01AC                     ?_converteVoltsParaLux:
   514     01AC                     converteVoltsParaLux@v_ldr:	
   515                           ; 2 bytes @ 0x1C
   516                           
   517                           
   518                           ; 4 bytes @ 0x1C
   519     01AC                     	ds	4
   520     01B0                     converteVoltsParaLux@l_ldr:
   521                           
   522                           ; 4 bytes @ 0x20
   523     01B0                     	ds	4
   524     01B4                     _converteVoltsParaLux$1070:
   525                           
   526                           ; 4 bytes @ 0x24
   527     01B4                     	ds	4
   528     01B8                     _converteVoltsParaLux$1071:
   529                           
   530                           ; 4 bytes @ 0x28
   531     01B8                     	ds	4
   532     01BC                     _converteVoltsParaLux$1072:
   533                           
   534                           ; 4 bytes @ 0x2C
   535     01BC                     	ds	4
   536     01C0                     _converteVoltsParaLux$1073:
   537                           
   538                           ; 4 bytes @ 0x30
   539     01C0                     	ds	4
   540     01C4                     _converteVoltsParaLux$1074:
   541                           
   542                           ; 4 bytes @ 0x34
   543     01C4                     	ds	4
   544     01C8                     converteVoltsParaLux@r_ldr:
   545                           
   546                           ; 2 bytes @ 0x38
   547     01C8                     	ds	2
   548     01CA                     converteVoltsParaLux@b:
   549                           
   550                           ; 4 bytes @ 0x3A
   551     01CA                     	ds	4
   552     01CE                     main@texto_luminosidade:
   553                           
   554                           ; 16 bytes @ 0x3E
   555     01CE                     	ds	16
   556     01DE                     main@v_ldr:
   557                           
   558                           ; 4 bytes @ 0x4E
   559     01DE                     	ds	4
   560     01E2                     main@leitura:
   561                           
   562                           ; 2 bytes @ 0x52
   563     01E2                     	ds	2
   564     01E4                     main@luminosidade_atual:
   565                           
   566                           ; 2 bytes @ 0x54
   567     01E4                     	ds	2
   568     01E6                     main@texto_menu:
   569                           
   570                           ; 1 bytes @ 0x56
   571     01E6                     	ds	1
   572                           
   573                           	psect	cstackBANK1
   574     00A0                     __pcstackBANK1:
   575     00A0                     ??_eval_poly:
   576                           
   577                           ; 1 bytes @ 0x0
   578     00A0                     	ds	5
   579     00A5                     eval_poly@res:
   580                           
   581                           ; 4 bytes @ 0x5
   582     00A5                     	ds	4
   583     00A9                     ?_log:
   584     00A9                     ?_ldexp:	
   585                           ; 4 bytes @ 0x9
   586                           
   587     00A9                     log@x:	
   588                           ; 4 bytes @ 0x9
   589                           
   590     00A9                     ldexp@value:	
   591                           ; 4 bytes @ 0x9
   592                           
   593                           
   594                           ; 4 bytes @ 0x9
   595     00A9                     	ds	4
   596     00AD                     ?_log10:
   597     00AD                     ldexp@newexp:	
   598                           ; 4 bytes @ 0xD
   599                           
   600     00AD                     log10@x:	
   601                           ; 2 bytes @ 0xD
   602                           
   603                           
   604                           ; 4 bytes @ 0xD
   605     00AD                     	ds	4
   606     00B1                     _log10$1075:
   607                           
   608                           ; 4 bytes @ 0x11
   609     00B1                     	ds	4
   610     00B5                     ?___flsub:
   611     00B5                     ___flsub@a:	
   612                           ; 4 bytes @ 0x15
   613                           
   614                           
   615                           ; 4 bytes @ 0x15
   616     00B5                     	ds	4
   617     00B9                     ___flsub@b:
   618                           
   619                           ; 4 bytes @ 0x19
   620     00B9                     	ds	4
   621     00BD                     ?___fldiv:
   622     00BD                     ___fldiv@a:	
   623                           ; 4 bytes @ 0x1D
   624                           
   625                           
   626                           ; 4 bytes @ 0x1D
   627     00BD                     	ds	4
   628     00C1                     ___fldiv@b:
   629                           
   630                           ; 4 bytes @ 0x21
   631     00C1                     	ds	4
   632     00C5                     ??___fldiv:
   633                           
   634                           ; 1 bytes @ 0x25
   635     00C5                     	ds	5
   636     00CA                     ___fldiv@rem:
   637                           
   638                           ; 4 bytes @ 0x2A
   639     00CA                     	ds	4
   640     00CE                     ___fldiv@sign:
   641                           
   642                           ; 1 bytes @ 0x2E
   643     00CE                     	ds	1
   644     00CF                     ___fldiv@new_exp:
   645                           
   646                           ; 2 bytes @ 0x2F
   647     00CF                     	ds	2
   648     00D1                     ___fldiv@grs:
   649                           
   650                           ; 4 bytes @ 0x31
   651     00D1                     	ds	4
   652     00D5                     ___fldiv@bexp:
   653                           
   654                           ; 1 bytes @ 0x35
   655     00D5                     	ds	1
   656     00D6                     ___fldiv@aexp:
   657                           
   658                           ; 1 bytes @ 0x36
   659     00D6                     	ds	1
   660     00D7                     ?_converteLeituraAnParaVolts:
   661     00D7                     ?___fltol:	
   662                           ; 4 bytes @ 0x37
   663                           
   664     00D7                     converteLeituraAnParaVolts@leitura:	
   665                           ; 4 bytes @ 0x37
   666                           
   667     00D7                     ___fltol@f1:	
   668                           ; 4 bytes @ 0x37
   669                           
   670                           
   671                           ; 4 bytes @ 0x37
   672     00D7                     	ds	4
   673     00DB                     ??___fltol:
   674                           
   675                           ; 1 bytes @ 0x3B
   676     00DB                     	ds	4
   677     00DF                     ___fltol@sign1:
   678                           
   679                           ; 1 bytes @ 0x3F
   680     00DF                     	ds	1
   681     00E0                     ___fltol@exp1:
   682                           
   683                           ; 1 bytes @ 0x40
   684     00E0                     	ds	1
   685     00E1                     ?_floor:
   686     00E1                     floor@x:	
   687                           ; 4 bytes @ 0x41
   688                           
   689                           
   690                           ; 4 bytes @ 0x41
   691     00E1                     	ds	4
   692     00E5                     floor@i:
   693                           
   694                           ; 4 bytes @ 0x45
   695     00E5                     	ds	4
   696     00E9                     floor@expon:
   697                           
   698                           ; 2 bytes @ 0x49
   699     00E9                     	ds	2
   700     00EB                     ?_exp:
   701     00EB                     exp@x:	
   702                           ; 4 bytes @ 0x4B
   703                           
   704                           
   705                           ; 4 bytes @ 0x4B
   706     00EB                     	ds	4
   707                           
   708                           	psect	cstackCOMMON
   709     0070                     __pcstackCOMMON:
   710     0070                     ?_Lcd_Port:
   711     0070                     ?_Lcd_Cmd:	
   712                           ; 1 bytes @ 0x0
   713                           
   714     0070                     ?_Lcd_Clear:	
   715                           ; 1 bytes @ 0x0
   716                           
   717     0070                     ?_Lcd_Init:	
   718                           ; 1 bytes @ 0x0
   719                           
   720     0070                     ?_Lcd_Write_Char:	
   721                           ; 1 bytes @ 0x0
   722                           
   723     0070                     ?_configADC:	
   724                           ; 1 bytes @ 0x0
   725                           
   726     0070                     ?_configPWMRegs:	
   727                           ; 1 bytes @ 0x0
   728                           
   729     0070                     ?_verificaBtnMais:	
   730                           ; 1 bytes @ 0x0
   731                           
   732     0070                     ?_verificaBtnMenos:	
   733                           ; 1 bytes @ 0x0
   734                           
   735     0070                     ?_interrupcao:	
   736                           ; 1 bytes @ 0x0
   737                           
   738     0070                     ??_interrupcao:	
   739                           ; 1 bytes @ 0x0
   740                           
   741     0070                     ?_handleSetupMenu:	
   742                           ; 1 bytes @ 0x0
   743                           
   744     0070                     ?_configIntExterns:	
   745                           ; 1 bytes @ 0x0
   746                           
   747     0070                     ?_main:	
   748                           ; 1 bytes @ 0x0
   749                           
   750                           
   751                           ; 1 bytes @ 0x0
   752     0070                     	ds	2
   753     0072                     ?___flge:
   754     0072                     ??_Lcd_Port:	
   755                           ; 1 bit 
   756                           
   757     0072                     ??_configADC:	
   758                           ; 1 bytes @ 0x2
   759                           
   760     0072                     ??_configPWMRegs:	
   761                           ; 1 bytes @ 0x2
   762                           
   763     0072                     ??_verificaBtnMais:	
   764                           ; 1 bytes @ 0x2
   765                           
   766     0072                     ??_verificaBtnMenos:	
   767                           ; 1 bytes @ 0x2
   768                           
   769     0072                     ??_configIntExterns:	
   770                           ; 1 bytes @ 0x2
   771                           
   772     0072                     ?__Umul8_16:	
   773                           ; 1 bytes @ 0x2
   774                           
   775     0072                     ?_getValorADC:	
   776                           ; 2 bytes @ 0x2
   777                           
   778     0072                     ?___awdiv:	
   779                           ; 2 bytes @ 0x2
   780                           
   781     0072                     ?___awmod:	
   782                           ; 2 bytes @ 0x2
   783                           
   784     0072                     ?___flneg:	
   785                           ; 2 bytes @ 0x2
   786                           
   787     0072                     ?___xxtofl:	
   788                           ; 4 bytes @ 0x2
   789                           
   790     0072                     Lcd_Port@a:	
   791                           ; 4 bytes @ 0x2
   792                           
   793     0072                     __Umul8_16@multiplicand:	
   794                           ; 1 bytes @ 0x2
   795                           
   796     0072                     ___awdiv@divisor:	
   797                           ; 1 bytes @ 0x2
   798                           
   799     0072                     ___awmod@divisor:	
   800                           ; 2 bytes @ 0x2
   801                           
   802     0072                     ___flge@ff1:	
   803                           ; 2 bytes @ 0x2
   804                           
   805     0072                     ___flneg@f1:	
   806                           ; 4 bytes @ 0x2
   807                           
   808     0072                     ___xxtofl@val:	
   809                           ; 4 bytes @ 0x2
   810                           
   811                           
   812                           ; 4 bytes @ 0x2
   813     0072                     	ds	1
   814     0073                     ??_Lcd_Cmd:
   815     0073                     ??_Lcd_Write_Char:	
   816                           ; 1 bytes @ 0x3
   817                           
   818                           
   819                           ; 1 bytes @ 0x3
   820     0073                     	ds	1
   821     0074                     ??__Umul8_16:
   822     0074                     ??_getValorADC:	
   823                           ; 1 bytes @ 0x4
   824                           
   825     0074                     Lcd_Write_Char@temp:	
   826                           ; 1 bytes @ 0x4
   827                           
   828     0074                     ___awdiv@dividend:	
   829                           ; 1 bytes @ 0x4
   830                           
   831     0074                     ___awmod@dividend:	
   832                           ; 2 bytes @ 0x4
   833                           
   834                           
   835                           ; 2 bytes @ 0x4
   836     0074                     	ds	1
   837     0075                     Lcd_Cmd@a:
   838     0075                     Lcd_Write_Char@y:	
   839                           ; 1 bytes @ 0x5
   840                           
   841                           
   842                           ; 1 bytes @ 0x5
   843     0075                     	ds	1
   844     0076                     ??_Lcd_Clear:
   845     0076                     ?_Lcd_Set_Cursor:	
   846                           ; 1 bytes @ 0x6
   847                           
   848     0076                     ??_Lcd_Init:	
   849                           ; 1 bytes @ 0x6
   850                           
   851     0076                     ??___awdiv:	
   852                           ; 1 bytes @ 0x6
   853                           
   854     0076                     ??___awmod:	
   855                           ; 1 bytes @ 0x6
   856                           
   857     0076                     ??___flneg:	
   858                           ; 1 bytes @ 0x6
   859                           
   860     0076                     ??___xxtofl:	
   861                           ; 1 bytes @ 0x6
   862                           
   863     0076                     Lcd_Set_Cursor@b:	
   864                           ; 1 bytes @ 0x6
   865                           
   866     0076                     Lcd_Write_Char@a:	
   867                           ; 1 bytes @ 0x6
   868                           
   869     0076                     ___awdiv@counter:	
   870                           ; 1 bytes @ 0x6
   871                           
   872     0076                     ___awmod@counter:	
   873                           ; 1 bytes @ 0x6
   874                           
   875     0076                     getValorADC@valor:	
   876                           ; 1 bytes @ 0x6
   877                           
   878     0076                     ___flge@ff2:	
   879                           ; 2 bytes @ 0x6
   880                           
   881                           
   882                           ; 4 bytes @ 0x6
   883     0076                     	ds	1
   884     0077                     ??_Lcd_Set_Cursor:
   885     0077                     ?_Lcd_Write_String:	
   886                           ; 1 bytes @ 0x7
   887                           
   888     0077                     ___awdiv@sign:	
   889                           ; 1 bytes @ 0x7
   890                           
   891     0077                     ___awmod@sign:	
   892                           ; 1 bytes @ 0x7
   893                           
   894     0077                     Lcd_Write_String@a:	
   895                           ; 1 bytes @ 0x7
   896                           
   897                           
   898                           ; 2 bytes @ 0x7
   899     0077                     	ds	1
   900     0078                     ___awdiv@quotient:
   901                           
   902                           ; 2 bytes @ 0x8
   903     0078                     	ds	1
   904     0079                     escreveLCD@linha1:
   905                           
   906                           ; 1 bytes @ 0x9
   907     0079                     	ds	1
   908     007A                     ??_log10:
   909     007A                     ??_pow:	
   910                           ; 1 bytes @ 0xA
   911                           
   912     007A                     ??_exp:	
   913                           ; 1 bytes @ 0xA
   914                           
   915     007A                     ??_floor:	
   916                           ; 1 bytes @ 0xA
   917                           
   918     007A                     ??_handleSetupMenu:	
   919                           ; 1 bytes @ 0xA
   920                           
   921     007A                     ??_converteLeituraAnParaVolts:	
   922                           ; 1 bytes @ 0xA
   923                           
   924     007A                     ??_converteVoltsParaLux:	
   925                           ; 1 bytes @ 0xA
   926                           
   927     007A                     ??_main:	
   928                           ; 1 bytes @ 0xA
   929                           
   930     007A                     ??___flsub:	
   931                           ; 1 bytes @ 0xA
   932                           
   933     007A                     ??_log:	
   934                           ; 1 bytes @ 0xA
   935                           
   936                           
   937                           	psect	cstackBANK0
   938     0020                     __pcstackBANK0:	
   939                           ; 1 bytes @ 0xA
   940                           
   941     0020                     ??_Lcd_Write_String:
   942     0020                     ?_intToASCIIinCustomBase:	
   943                           ; 1 bytes @ 0x0
   944                           
   945     0020                     ??___flge:	
   946                           ; 1 bytes @ 0x0
   947                           
   948     0020                     Lcd_Set_Cursor@a:	
   949                           ; 1 bytes @ 0x0
   950                           
   951     0020                     ___xxtofl@sign:	
   952                           ; 1 bytes @ 0x0
   953                           
   954     0020                     intToASCIIinCustomBase@numero:	
   955                           ; 1 bytes @ 0x0
   956                           
   957     0020                     __Umul8_16@product:	
   958                           ; 2 bytes @ 0x0
   959                           
   960                           
   961                           ; 2 bytes @ 0x0
   962     0020                     	ds	1
   963     0021                     Lcd_Set_Cursor@z:
   964     0021                     ___xxtofl@exp:	
   965                           ; 1 bytes @ 0x1
   966                           
   967                           
   968                           ; 1 bytes @ 0x1
   969     0021                     	ds	1
   970     0022                     Lcd_Set_Cursor@y:
   971     0022                     intToASCIIinCustomBase@resultado:	
   972                           ; 1 bytes @ 0x2
   973                           
   974     0022                     __Umul8_16@word_mpld:	
   975                           ; 1 bytes @ 0x2
   976                           
   977     0022                     ___xxtofl@arg:	
   978                           ; 2 bytes @ 0x2
   979                           
   980                           
   981                           ; 4 bytes @ 0x2
   982     0022                     	ds	1
   983     0023                     Lcd_Set_Cursor@temp:
   984     0023                     Lcd_Write_String@i:	
   985                           ; 1 bytes @ 0x3
   986                           
   987     0023                     intToASCIIinCustomBase@base:	
   988                           ; 2 bytes @ 0x3
   989                           
   990                           
   991                           ; 2 bytes @ 0x3
   992     0023                     	ds	1
   993     0024                     __Umul8_16@multiplier:
   994                           
   995                           ; 1 bytes @ 0x4
   996     0024                     	ds	1
   997     0025                     ??_intToASCIIinCustomBase:
   998     0025                     ?_escreveLCD:	
   999                           ; 1 bytes @ 0x5
  1000                           
  1001     0025                     escreveLCD@linha2:	
  1002                           ; 1 bytes @ 0x5
  1003                           
  1004                           
  1005                           ; 2 bytes @ 0x5
  1006     0025                     	ds	1
  1007     0026                     ?___fleq:
  1008     0026                     ___fleq@ff1:	
  1009                           ; 1 bit 
  1010                           
  1011                           
  1012                           ; 4 bytes @ 0x6
  1013     0026                     	ds	1
  1014     0027                     ??_escreveLCD:
  1015     0027                     intToASCIIinCustomBase@temp:	
  1016                           ; 1 bytes @ 0x7
  1017                           
  1018                           
  1019                           ; 1 bytes @ 0x7
  1020     0027                     	ds	1
  1021     0028                     _intToASCIIinCustomBase$285:
  1022                           
  1023                           ; 2 bytes @ 0x8
  1024     0028                     	ds	2
  1025     002A                     intToASCIIinCustomBase@resto:
  1026     002A                     ___fleq@ff2:	
  1027                           ; 2 bytes @ 0xA
  1028                           
  1029                           
  1030                           ; 4 bytes @ 0xA
  1031     002A                     	ds	2
  1032     002C                     intToASCIIinCustomBase@i:
  1033                           
  1034                           ; 2 bytes @ 0xC
  1035     002C                     	ds	2
  1036     002E                     ??___fleq:
  1037     002E                     intToASCIIinCustomBase@j:	
  1038                           ; 1 bytes @ 0xE
  1039                           
  1040                           
  1041                           ; 2 bytes @ 0xE
  1042     002E                     	ds	2
  1043     0030                     intToASCIIinCustomBase@indice:
  1044                           
  1045                           ; 2 bytes @ 0x10
  1046     0030                     	ds	2
  1047     0032                     ?_frexp:
  1048     0032                     frexp@value:	
  1049                           ; 4 bytes @ 0x12
  1050                           
  1051                           
  1052                           ; 4 bytes @ 0x12
  1053     0032                     	ds	4
  1054     0036                     frexp@eptr:
  1055                           
  1056                           ; 1 bytes @ 0x16
  1057     0036                     	ds	1
  1058     0037                     ??_frexp:
  1059                           
  1060                           ; 1 bytes @ 0x17
  1061     0037                     	ds	2
  1062     0039                     ?___flmul:
  1063     0039                     ___flmul@b:	
  1064                           ; 4 bytes @ 0x19
  1065                           
  1066                           
  1067                           ; 4 bytes @ 0x19
  1068     0039                     	ds	4
  1069     003D                     ___flmul@a:
  1070                           
  1071                           ; 4 bytes @ 0x1D
  1072     003D                     	ds	4
  1073     0041                     ??___flmul:
  1074                           
  1075                           ; 1 bytes @ 0x21
  1076     0041                     	ds	5
  1077     0046                     ___flmul@sign:
  1078                           
  1079                           ; 1 bytes @ 0x26
  1080     0046                     	ds	1
  1081     0047                     ___flmul@aexp:
  1082                           
  1083                           ; 1 bytes @ 0x27
  1084     0047                     	ds	1
  1085     0048                     ___flmul@grs:
  1086                           
  1087                           ; 4 bytes @ 0x28
  1088     0048                     	ds	4
  1089     004C                     ___flmul@bexp:
  1090                           
  1091                           ; 1 bytes @ 0x2C
  1092     004C                     	ds	1
  1093     004D                     ___flmul@prod:
  1094                           
  1095                           ; 4 bytes @ 0x2D
  1096     004D                     	ds	4
  1097     0051                     ___flmul@temp:
  1098                           
  1099                           ; 2 bytes @ 0x31
  1100     0051                     	ds	2
  1101     0053                     ?___fladd:
  1102     0053                     ___fladd@b:	
  1103                           ; 4 bytes @ 0x33
  1104                           
  1105                           
  1106                           ; 4 bytes @ 0x33
  1107     0053                     	ds	4
  1108     0057                     ___fladd@a:
  1109                           
  1110                           ; 4 bytes @ 0x37
  1111     0057                     	ds	4
  1112     005B                     ??___fladd:
  1113                           
  1114                           ; 1 bytes @ 0x3B
  1115     005B                     	ds	8
  1116     0063                     ___fladd@signs:
  1117                           
  1118                           ; 1 bytes @ 0x43
  1119     0063                     	ds	1
  1120     0064                     ___fladd@aexp:
  1121                           
  1122                           ; 1 bytes @ 0x44
  1123     0064                     	ds	1
  1124     0065                     ___fladd@bexp:
  1125                           
  1126                           ; 1 bytes @ 0x45
  1127     0065                     	ds	1
  1128     0066                     ___fladd@grs:
  1129                           
  1130                           ; 1 bytes @ 0x46
  1131     0066                     	ds	1
  1132     0067                     ?_eval_poly:
  1133     0067                     eval_poly@x:	
  1134                           ; 4 bytes @ 0x47
  1135                           
  1136                           
  1137                           ; 4 bytes @ 0x47
  1138     0067                     	ds	4
  1139     006B                     eval_poly@d:
  1140                           
  1141                           ; 1 bytes @ 0x4B
  1142     006B                     	ds	1
  1143     006C                     eval_poly@n:
  1144                           
  1145                           ; 2 bytes @ 0x4C
  1146     006C                     	ds	2
  1147     006E                     ??_ldexp:
  1148     006E                     log@exponent:	
  1149                           ; 1 bytes @ 0x4E
  1150                           
  1151                           
  1152                           ; 2 bytes @ 0x4E
  1153     006E                     	ds	2
  1154                           
  1155                           	psect	maintext
  1156     129B                     __pmaintext:	
  1157 ;;
  1158 ;;Main: autosize = 0, tempsize = 0, incstack = 0, save=0
  1159 ;;
  1160 ;; *************** function _main *****************
  1161 ;; Defined at:
  1162 ;;		line 235 in file "newmain.c"
  1163 ;; Parameters:    Size  Location     Type
  1164 ;;		None
  1165 ;; Auto vars:     Size  Location     Type
  1166 ;;  texto_lumino   16   62[BANK3 ] unsigned char [16]
  1167 ;;  v_ldr           4   78[BANK3 ] float 
  1168 ;;  luminosidade    2   84[BANK3 ] int 
  1169 ;;  leitura         2   82[BANK3 ] int 
  1170 ;;  texto_menu      1   86[BANK3 ] PTR unsigned char 
  1171 ;;		 -> STR_3(20), 
  1172 ;; Return value:  Size  Location     Type
  1173 ;;                  1    wreg      void 
  1174 ;; Registers used:
  1175 ;;		wreg, fsr0l, fsr0h, status,2, status,0, btemp+1, pclath, cstack
  1176 ;; Tracked objects:
  1177 ;;		On entry : B00/0
  1178 ;;		On exit  : 0/0
  1179 ;;		Unchanged: 0/0
  1180 ;; Data sizes:     COMMON   BANK0   BANK1   BANK3   BANK2
  1181 ;;      Params:         0       0       0       0       0
  1182 ;;      Locals:         0       0       0      25       0
  1183 ;;      Temps:          0       0       0       0       0
  1184 ;;      Totals:         0       0       0      25       0
  1185 ;;Total ram usage:       25 bytes
  1186 ;; Hardware stack levels required when called: 7
  1187 ;; This function calls:
  1188 ;;		_Lcd_Init
  1189 ;;		___xxtofl
  1190 ;;		_configADC
  1191 ;;		_configIntExterns
  1192 ;;		_configPWMRegs
  1193 ;;		_converteLeituraAnParaVolts
  1194 ;;		_converteVoltsParaLux
  1195 ;;		_escreveLCD
  1196 ;;		_getValorADC
  1197 ;;		_handleSetupMenu
  1198 ;;		_intToASCIIinCustomBase
  1199 ;; This function is called by:
  1200 ;;		Startup code after reset
  1201 ;; This function uses a non-reentrant model
  1202 ;;
  1203                           
  1204     129B                     _main:	
  1205                           ;psect for function _main
  1206                           
  1207     129B                     l4085:	
  1208                           ;incstack = 0
  1209                           ; Regs used in _main: [wreg-fsr0h+status,2+status,0+btemp+1+pclath+cstack]
  1210                           
  1211                           
  1212                           ;newmain.c: 237:     TRISC = 0x00;
  1213     129B  1683               	bsf	3,5	;RP0=1, select bank1
  1214     129C  1303               	bcf	3,6	;RP1=0, select bank1
  1215     129D  0187               	clrf	7	;volatile
  1216     129E                     l4087:
  1217                           
  1218                           ;newmain.c: 239:     OPTION_REGbits.INTEDG = 1;
  1219     129E  1701               	bsf	1,6	;volatile
  1220     129F                     l4089:
  1221                           
  1222                           ;newmain.c: 240:     TRISB = 1;
  1223     129F  3001               	movlw	1
  1224     12A0  0086               	movwf	6	;volatile
  1225     12A1                     l4091:
  1226                           
  1227                           ;newmain.c: 242:     configADC();
  1228     12A1  160A  158A  246A  160A  118A  	fcall	_configADC
  1229     12A6                     l4093:
  1230                           
  1231                           ;newmain.c: 243:     configPWMRegs();
  1232     12A6  120A  158A  2002  160A  118A  	fcall	_configPWMRegs
  1233                           
  1234                           ;newmain.c: 246:     TRISD = 0;
  1235     12AB  1683               	bsf	3,5	;RP0=1, select bank1
  1236     12AC  1303               	bcf	3,6	;RP1=0, select bank1
  1237     12AD  0188               	clrf	8	;volatile
  1238     12AE                     l4095:
  1239                           
  1240                           ;newmain.c: 247:     Lcd_Init();
  1241     12AE  160A  118A  2122  160A  118A  	fcall	_Lcd_Init
  1242     12B3                     l4097:
  1243                           
  1244                           ;newmain.c: 249:     char* texto_menu;;newmain.c: 251:     texto_menu = "LUMINOSIDADE AT
      +                          UAL:";
  1245     12B3  304D               	movlw	(low ((STR_3-__stringbase)| (0+32768)))& (0+255)
  1246     12B4  1683               	bsf	3,5	;RP0=1, select bank3
  1247     12B5  1703               	bsf	3,6	;RP1=1, select bank3
  1248     12B6  00E6               	movwf	main@texto_menu^(0+384)
  1249     12B7                     l4099:
  1250                           
  1251                           ;newmain.c: 254:     configIntExterns();
  1252     12B7  160A  158A  2436  160A  118A  	fcall	_configIntExterns
  1253     12BC                     l4101:
  1254                           
  1255                           ;newmain.c: 256:     {;newmain.c: 257:         int leitura = getValorADC();
  1256     12BC  160A  158A  2455  160A  118A  	fcall	_getValorADC
  1257     12C1  0873               	movf	?_getValorADC+1,w
  1258     12C2  1683               	bsf	3,5	;RP0=1, select bank3
  1259     12C3  1703               	bsf	3,6	;RP1=1, select bank3
  1260     12C4  00E3               	movwf	(main@leitura+1)^(0+384)
  1261     12C5  0872               	movf	?_getValorADC,w
  1262     12C6  00E2               	movwf	main@leitura^(0+384)
  1263     12C7                     l4103:
  1264                           
  1265                           ;newmain.c: 258:         float v_ldr = converteLeituraAnParaVolts(leitura);
  1266     12C7  0862               	movf	main@leitura^(0+384),w
  1267     12C8  00F2               	movwf	___xxtofl@val
  1268     12C9  0863               	movf	(main@leitura+1)^(0+384),w
  1269     12CA  00F3               	movwf	___xxtofl@val+1
  1270     12CB  3000               	movlw	0
  1271     12CC  1BF3               	btfsc	___xxtofl@val+1,7
  1272     12CD  30FF               	movlw	255
  1273     12CE  00F4               	movwf	___xxtofl@val+2
  1274     12CF  00F5               	movwf	___xxtofl@val+3
  1275     12D0  3001               	movlw	1
  1276     12D1  160A  118A  2342  160A  118A  	fcall	___xxtofl
  1277     12D6  0875               	movf	?___xxtofl+3,w
  1278     12D7  1683               	bsf	3,5	;RP0=1, select bank1
  1279     12D8  1303               	bcf	3,6	;RP1=0, select bank1
  1280     12D9  00DA               	movwf	(converteLeituraAnParaVolts@leitura+3)^(0+128)
  1281     12DA  0874               	movf	?___xxtofl+2,w
  1282     12DB  00D9               	movwf	(converteLeituraAnParaVolts@leitura+2)^(0+128)
  1283     12DC  0873               	movf	?___xxtofl+1,w
  1284     12DD  00D8               	movwf	(converteLeituraAnParaVolts@leitura+1)^(0+128)
  1285     12DE  0872               	movf	?___xxtofl,w
  1286     12DF  00D7               	movwf	converteLeituraAnParaVolts@leitura^(0+128)
  1287     12E0  160A  158A  26F5  160A  118A  	fcall	_converteLeituraAnParaVolts
  1288     12E5  1683               	bsf	3,5	;RP0=1, select bank1
  1289     12E6  1303               	bcf	3,6	;RP1=0, select bank1
  1290     12E7  085A               	movf	(?_converteLeituraAnParaVolts+3)^(0+128),w
  1291     12E8  1683               	bsf	3,5	;RP0=1, select bank3
  1292     12E9  1703               	bsf	3,6	;RP1=1, select bank3
  1293     12EA  00E1               	movwf	(main@v_ldr+3)^(0+384)
  1294     12EB  1683               	bsf	3,5	;RP0=1, select bank1
  1295     12EC  1303               	bcf	3,6	;RP1=0, select bank1
  1296     12ED  0859               	movf	(?_converteLeituraAnParaVolts+2)^(0+128),w
  1297     12EE  1683               	bsf	3,5	;RP0=1, select bank3
  1298     12EF  1703               	bsf	3,6	;RP1=1, select bank3
  1299     12F0  00E0               	movwf	(main@v_ldr+2)^(0+384)
  1300     12F1  1683               	bsf	3,5	;RP0=1, select bank1
  1301     12F2  1303               	bcf	3,6	;RP1=0, select bank1
  1302     12F3  0858               	movf	(?_converteLeituraAnParaVolts+1)^(0+128),w
  1303     12F4  1683               	bsf	3,5	;RP0=1, select bank3
  1304     12F5  1703               	bsf	3,6	;RP1=1, select bank3
  1305     12F6  00DF               	movwf	(main@v_ldr+1)^(0+384)
  1306     12F7  1683               	bsf	3,5	;RP0=1, select bank1
  1307     12F8  1303               	bcf	3,6	;RP1=0, select bank1
  1308     12F9  0857               	movf	?_converteLeituraAnParaVolts^(0+128),w
  1309     12FA  1683               	bsf	3,5	;RP0=1, select bank3
  1310     12FB  1703               	bsf	3,6	;RP1=1, select bank3
  1311     12FC  00DE               	movwf	main@v_ldr^(0+384)
  1312     12FD                     l4105:
  1313                           
  1314                           ;newmain.c: 259:         int luminosidade_atual = converteVoltsParaLux(v_ldr);
  1315     12FD  0861               	movf	(main@v_ldr+3)^(0+384),w
  1316     12FE  00AF               	movwf	(converteVoltsParaLux@v_ldr+3)^(0+384)
  1317     12FF  0860               	movf	(main@v_ldr+2)^(0+384),w
  1318     1300  00AE               	movwf	(converteVoltsParaLux@v_ldr+2)^(0+384)
  1319     1301  085F               	movf	(main@v_ldr+1)^(0+384),w
  1320     1302  00AD               	movwf	(converteVoltsParaLux@v_ldr+1)^(0+384)
  1321     1303  085E               	movf	main@v_ldr^(0+384),w
  1322     1304  00AC               	movwf	converteVoltsParaLux@v_ldr^(0+384)
  1323     1305  120A  118A  2380  160A  118A  	fcall	_converteVoltsParaLux
  1324     130A  1683               	bsf	3,5	;RP0=1, select bank3
  1325     130B  1703               	bsf	3,6	;RP1=1, select bank3
  1326     130C  082D               	movf	(?_converteVoltsParaLux+1)^(0+384),w
  1327     130D  00E5               	movwf	(main@luminosidade_atual+1)^(0+384)
  1328     130E  082C               	movf	?_converteVoltsParaLux^(0+384),w
  1329     130F  00E4               	movwf	main@luminosidade_atual^(0+384)
  1330     1310                     l4107:
  1331                           
  1332                           ;newmain.c: 260:         handleSetupMenu();
  1333     1310  160A  158A  24B4  160A  118A  	fcall	_handleSetupMenu
  1334     1315                     l4109:
  1335                           
  1336                           ;newmain.c: 261:         CCPR1L = porcentagem_PWM;
  1337     1315  3032               	movlw	50
  1338     1316  1283               	bcf	3,5	;RP0=0, select bank0
  1339     1317  1303               	bcf	3,6	;RP1=0, select bank0
  1340     1318  0095               	movwf	21	;volatile
  1341     1319                     l4111:
  1342                           
  1343                           ;newmain.c: 262:         char texto_luminosidade [16];;newmain.c: 263:         intToASCI
      +                          IinCustomBase (luminosidade_atual , texto_luminosidade, 10);
  1344     1319  1683               	bsf	3,5	;RP0=1, select bank3
  1345     131A  1703               	bsf	3,6	;RP1=1, select bank3
  1346     131B  0865               	movf	(main@luminosidade_atual+1)^(0+384),w
  1347     131C  1283               	bcf	3,5	;RP0=0, select bank0
  1348     131D  1303               	bcf	3,6	;RP1=0, select bank0
  1349     131E  00A1               	movwf	intToASCIIinCustomBase@numero+1
  1350     131F  1683               	bsf	3,5	;RP0=1, select bank3
  1351     1320  1703               	bsf	3,6	;RP1=1, select bank3
  1352     1321  0864               	movf	main@luminosidade_atual^(0+384),w
  1353     1322  1283               	bcf	3,5	;RP0=0, select bank0
  1354     1323  1303               	bcf	3,6	;RP1=0, select bank0
  1355     1324  00A0               	movwf	intToASCIIinCustomBase@numero
  1356     1325  30CE               	movlw	(low (main@texto_luminosidade| (0+256)))& (0+255)
  1357     1326  00A2               	movwf	intToASCIIinCustomBase@resultado
  1358     1327  300A               	movlw	10
  1359     1328  00A3               	movwf	intToASCIIinCustomBase@base
  1360     1329  3000               	movlw	0
  1361     132A  00A4               	movwf	intToASCIIinCustomBase@base+1
  1362     132B  160A  118A  23FC  160A  118A  	fcall	_intToASCIIinCustomBase
  1363     1330                     l4113:
  1364                           
  1365                           ;newmain.c: 265:         escreveLCD(texto_menu, texto_luminosidade);
  1366     1330  30CE               	movlw	(low (main@texto_luminosidade| (0+256)))& (0+255)
  1367     1331  1283               	bcf	3,5	;RP0=0, select bank0
  1368     1332  1303               	bcf	3,6	;RP1=0, select bank0
  1369     1333  00A5               	movwf	escreveLCD@linha2
  1370     1334  3001               	movlw	1
  1371     1335  00A6               	movwf	escreveLCD@linha2+1
  1372     1336  1683               	bsf	3,5	;RP0=1, select bank3
  1373     1337  1703               	bsf	3,6	;RP1=1, select bank3
  1374     1338  0866               	movf	main@texto_menu^(0+384),w
  1375     1339  160A  158A  2550  160A  118A  	fcall	_escreveLCD
  1376     133E  2ABC               	goto	l4101
  1377     133F  120A  118A  280C   	ljmp	start
  1378     1342                     __end_of_main:
  1379                           
  1380                           	psect	text1
  1381     13FC                     __ptext1:	
  1382 ;; *************** function _intToASCIIinCustomBase *****************
  1383 ;; Defined at:
  1384 ;;		line 86 in file "newmain.c"
  1385 ;; Parameters:    Size  Location     Type
  1386 ;;  numero          2    0[BANK0 ] int 
  1387 ;;  resultado       1    2[BANK0 ] PTR unsigned char 
  1388 ;;		 -> main@texto_luminosidade(16), 
  1389 ;;  base            2    3[BANK0 ] int 
  1390 ;; Auto vars:     Size  Location     Type
  1391 ;;  temp            1    7[BANK0 ] unsigned char 
  1392 ;;  indice          2   16[BANK0 ] int 
  1393 ;;  j               2   14[BANK0 ] int 
  1394 ;;  i               2   12[BANK0 ] int 
  1395 ;;  resto           2   10[BANK0 ] int 
  1396 ;; Return value:  Size  Location     Type
  1397 ;;                  1    wreg      void 
  1398 ;; Registers used:
  1399 ;;		wreg, fsr0l, fsr0h, status,2, status,0, btemp+1, pclath, cstack
  1400 ;; Tracked objects:
  1401 ;;		On entry : 0/0
  1402 ;;		On exit  : 0/0
  1403 ;;		Unchanged: 0/0
  1404 ;; Data sizes:     COMMON   BANK0   BANK1   BANK3   BANK2
  1405 ;;      Params:         0       5       0       0       0
  1406 ;;      Locals:         0      11       0       0       0
  1407 ;;      Temps:          0       2       0       0       0
  1408 ;;      Totals:         0      18       0       0       0
  1409 ;;Total ram usage:       18 bytes
  1410 ;; Hardware stack levels used: 1
  1411 ;; Hardware stack levels required when called: 2
  1412 ;; This function calls:
  1413 ;;		___awdiv
  1414 ;;		___awmod
  1415 ;; This function is called by:
  1416 ;;		_main
  1417 ;; This function uses a non-reentrant model
  1418 ;;
  1419                           
  1420     13FC                     _intToASCIIinCustomBase:	
  1421                           ;psect for function _intToASCIIinCustomBase
  1422                           
  1423     13FC                     l4003:	
  1424                           ;incstack = 0
  1425                           ; Regs used in _intToASCIIinCustomBase: [wreg-fsr0h+status,2+status,0+btemp+1+pclath+cst
      +                          ack]
  1426                           
  1427                           
  1428                           ;newmain.c: 87:     int indice = 0;
  1429     13FC  1283               	bcf	3,5	;RP0=0, select bank0
  1430     13FD  1303               	bcf	3,6	;RP1=0, select bank0
  1431     13FE  01B0               	clrf	intToASCIIinCustomBase@indice
  1432     13FF  01B1               	clrf	intToASCIIinCustomBase@indice+1
  1433     1400                     l4005:
  1434                           
  1435                           ;newmain.c: 88:     int resto;;newmain.c: 89:     if (numero == 0) {
  1436     1400  0820               	movf	intToASCIIinCustomBase@numero,w
  1437     1401  0421               	iorwf	intToASCIIinCustomBase@numero+1,w
  1438     1402  1D03               	btfss	3,2
  1439     1403  2C05               	goto	u5971
  1440     1404  2C06               	goto	u5970
  1441     1405                     u5971:
  1442     1405  2C6E               	goto	l4029
  1443     1406                     u5970:
  1444     1406                     l4007:
  1445                           
  1446                           ;newmain.c: 90:         resultado[indice++] = '0';
  1447     1406  0822               	movf	intToASCIIinCustomBase@resultado,w
  1448     1407  0084               	movwf	4
  1449     1408  3030               	movlw	48
  1450     1409  1783               	bsf	3,7	;select IRP bank2
  1451     140A  0080               	movwf	0
  1452     140B                     l4009:
  1453     140B  3001               	movlw	1
  1454     140C  07B0               	addwf	intToASCIIinCustomBase@indice,f
  1455     140D  1803               	skipnc
  1456     140E  0AB1               	incf	intToASCIIinCustomBase@indice+1,f
  1457     140F  3000               	movlw	0
  1458     1410  07B1               	addwf	intToASCIIinCustomBase@indice+1,f
  1459     1411                     l4011:
  1460                           
  1461                           ;newmain.c: 91:         resultado[indice] = '\0';
  1462     1411  0830               	movf	intToASCIIinCustomBase@indice,w
  1463     1412  0722               	addwf	intToASCIIinCustomBase@resultado,w
  1464     1413  00A5               	movwf	??_intToASCIIinCustomBase
  1465     1414  0825               	movf	??_intToASCIIinCustomBase,w
  1466     1415  0084               	movwf	4
  1467     1416  0180               	clrf	0
  1468     1417  2CBF               	goto	l99
  1469     1418                     l4015:
  1470                           
  1471                           ;newmain.c: 95:         resto = numero % base;
  1472     1418  0824               	movf	intToASCIIinCustomBase@base+1,w
  1473     1419  00F3               	movwf	___awmod@divisor+1
  1474     141A  0823               	movf	intToASCIIinCustomBase@base,w
  1475     141B  00F2               	movwf	___awmod@divisor
  1476     141C  0821               	movf	intToASCIIinCustomBase@numero+1,w
  1477     141D  00F5               	movwf	___awmod@dividend+1
  1478     141E  0820               	movf	intToASCIIinCustomBase@numero,w
  1479     141F  00F4               	movwf	___awmod@dividend
  1480     1420  160A  158A  27A7  160A  118A  	fcall	___awmod
  1481     1425  0873               	movf	?___awmod+1,w
  1482     1426  1283               	bcf	3,5	;RP0=0, select bank0
  1483     1427  1303               	bcf	3,6	;RP1=0, select bank0
  1484     1428  00AB               	movwf	intToASCIIinCustomBase@resto+1
  1485     1429  0872               	movf	?___awmod,w
  1486     142A  00AA               	movwf	intToASCIIinCustomBase@resto
  1487     142B                     l4017:
  1488                           
  1489                           ;newmain.c: 96:         resultado[indice++] = (resto > 9) ? (resto - 10) + 'A' : resto +
      +                           '0';
  1490     142B  082B               	movf	intToASCIIinCustomBase@resto+1,w
  1491     142C  3A80               	xorlw	128
  1492     142D  00FF               	movwf	btemp+1
  1493     142E  3080               	movlw	128
  1494     142F  027F               	subwf	btemp+1,w
  1495     1430  1D03               	skipz
  1496     1431  2C34               	goto	u5985
  1497     1432  300A               	movlw	10
  1498     1433  022A               	subwf	intToASCIIinCustomBase@resto,w
  1499     1434                     u5985:
  1500     1434  1803               	skipnc
  1501     1435  2C37               	goto	u5981
  1502     1436  2C38               	goto	u5980
  1503     1437                     u5981:
  1504     1437  2C43               	goto	l4021
  1505     1438                     u5980:
  1506     1438                     l4019:
  1507     1438  1283               	bcf	3,5	;RP0=0, select bank0
  1508     1439  1303               	bcf	3,6	;RP1=0, select bank0
  1509     143A  082A               	movf	intToASCIIinCustomBase@resto,w
  1510     143B  3E30               	addlw	48
  1511     143C  00A8               	movwf	_intToASCIIinCustomBase$285
  1512     143D  082B               	movf	intToASCIIinCustomBase@resto+1,w
  1513     143E  1803               	skipnc
  1514     143F  3E01               	addlw	1
  1515     1440  3E00               	addlw	0
  1516     1441  00A9               	movwf	_intToASCIIinCustomBase$285+1
  1517     1442  2C4D               	goto	l4023
  1518     1443                     l4021:
  1519     1443  1283               	bcf	3,5	;RP0=0, select bank0
  1520     1444  1303               	bcf	3,6	;RP1=0, select bank0
  1521     1445  082A               	movf	intToASCIIinCustomBase@resto,w
  1522     1446  3E37               	addlw	55
  1523     1447  00A8               	movwf	_intToASCIIinCustomBase$285
  1524     1448  082B               	movf	intToASCIIinCustomBase@resto+1,w
  1525     1449  1803               	skipnc
  1526     144A  3E01               	addlw	1
  1527     144B  3E00               	addlw	0
  1528     144C  00A9               	movwf	_intToASCIIinCustomBase$285+1
  1529     144D                     l4023:
  1530     144D  0830               	movf	intToASCIIinCustomBase@indice,w
  1531     144E  0722               	addwf	intToASCIIinCustomBase@resultado,w
  1532     144F  00A5               	movwf	??_intToASCIIinCustomBase
  1533     1450  0825               	movf	??_intToASCIIinCustomBase,w
  1534     1451  0084               	movwf	4
  1535     1452  0828               	movf	_intToASCIIinCustomBase$285,w
  1536     1453  1783               	bsf	3,7	;select IRP bank2
  1537     1454  0080               	movwf	0
  1538     1455                     l4025:
  1539     1455  3001               	movlw	1
  1540     1456  07B0               	addwf	intToASCIIinCustomBase@indice,f
  1541     1457  1803               	skipnc
  1542     1458  0AB1               	incf	intToASCIIinCustomBase@indice+1,f
  1543     1459  3000               	movlw	0
  1544     145A  07B1               	addwf	intToASCIIinCustomBase@indice+1,f
  1545     145B                     l4027:
  1546                           
  1547                           ;newmain.c: 97:         numero /= base;
  1548     145B  0824               	movf	intToASCIIinCustomBase@base+1,w
  1549     145C  00F3               	movwf	___awdiv@divisor+1
  1550     145D  0823               	movf	intToASCIIinCustomBase@base,w
  1551     145E  00F2               	movwf	___awdiv@divisor
  1552     145F  0821               	movf	intToASCIIinCustomBase@numero+1,w
  1553     1460  00F5               	movwf	___awdiv@dividend+1
  1554     1461  0820               	movf	intToASCIIinCustomBase@numero,w
  1555     1462  00F4               	movwf	___awdiv@dividend
  1556     1463  120A  158A  2010  160A  118A  	fcall	___awdiv
  1557     1468  0873               	movf	?___awdiv+1,w
  1558     1469  1283               	bcf	3,5	;RP0=0, select bank0
  1559     146A  1303               	bcf	3,6	;RP1=0, select bank0
  1560     146B  00A1               	movwf	intToASCIIinCustomBase@numero+1
  1561     146C  0872               	movf	?___awdiv,w
  1562     146D  00A0               	movwf	intToASCIIinCustomBase@numero
  1563     146E                     l4029:
  1564                           
  1565                           ;newmain.c: 94:     while (numero != 0) {
  1566     146E  0820               	movf	intToASCIIinCustomBase@numero,w
  1567     146F  0421               	iorwf	intToASCIIinCustomBase@numero+1,w
  1568     1470  1D03               	btfss	3,2
  1569     1471  2C73               	goto	u5991
  1570     1472  2C74               	goto	u5990
  1571     1473                     u5991:
  1572     1473  2C18               	goto	l4015
  1573     1474                     u5990:
  1574     1474                     l4031:
  1575                           
  1576                           ;newmain.c: 99:     resultado[indice] = '\0';
  1577     1474  0830               	movf	intToASCIIinCustomBase@indice,w
  1578     1475  0722               	addwf	intToASCIIinCustomBase@resultado,w
  1579     1476  00A5               	movwf	??_intToASCIIinCustomBase
  1580     1477  0825               	movf	??_intToASCIIinCustomBase,w
  1581     1478  0084               	movwf	4
  1582     1479  1783               	bsf	3,7	;select IRP bank2
  1583     147A  0180               	clrf	0
  1584     147B                     l4033:
  1585                           
  1586                           ;newmain.c: 102:     int i, j;;newmain.c: 103:     for (i = 0, j = indice - 1; i < j; i+
      +                          +, j--) {
  1587     147B  01AC               	clrf	intToASCIIinCustomBase@i
  1588     147C  01AD               	clrf	intToASCIIinCustomBase@i+1
  1589     147D                     l4035:
  1590     147D  0830               	movf	intToASCIIinCustomBase@indice,w
  1591     147E  3EFF               	addlw	255
  1592     147F  00AE               	movwf	intToASCIIinCustomBase@j
  1593     1480  0831               	movf	intToASCIIinCustomBase@indice+1,w
  1594     1481  1803               	skipnc
  1595     1482  3E01               	addlw	1
  1596     1483  3EFF               	addlw	255
  1597     1484  00AF               	movwf	intToASCIIinCustomBase@j+1
  1598     1485  2CB1               	goto	l4047
  1599     1486                     l4037:
  1600                           
  1601                           ;newmain.c: 104:         char temp = resultado[i];
  1602     1486  1283               	bcf	3,5	;RP0=0, select bank0
  1603     1487  1303               	bcf	3,6	;RP1=0, select bank0
  1604     1488  082C               	movf	intToASCIIinCustomBase@i,w
  1605     1489  0722               	addwf	intToASCIIinCustomBase@resultado,w
  1606     148A  00A5               	movwf	??_intToASCIIinCustomBase
  1607     148B  0825               	movf	??_intToASCIIinCustomBase,w
  1608     148C  0084               	movwf	4
  1609     148D  1783               	bsf	3,7	;select IRP bank2
  1610     148E  0800               	movf	0,w
  1611     148F  00A7               	movwf	intToASCIIinCustomBase@temp
  1612     1490                     l4039:
  1613                           
  1614                           ;newmain.c: 105:         resultado[i] = resultado[j];
  1615     1490  082E               	movf	intToASCIIinCustomBase@j,w
  1616     1491  0722               	addwf	intToASCIIinCustomBase@resultado,w
  1617     1492  00A5               	movwf	??_intToASCIIinCustomBase
  1618     1493  0825               	movf	??_intToASCIIinCustomBase,w
  1619     1494  0084               	movwf	4
  1620     1495  0800               	movf	0,w
  1621     1496  00FF               	movwf	btemp+1
  1622     1497  082C               	movf	intToASCIIinCustomBase@i,w
  1623     1498  0722               	addwf	intToASCIIinCustomBase@resultado,w
  1624     1499  00A6               	movwf	??_intToASCIIinCustomBase+1
  1625     149A  0826               	movf	??_intToASCIIinCustomBase+1,w
  1626     149B  0084               	movwf	4
  1627     149C  087F               	movf	btemp+1,w
  1628     149D  0080               	movwf	0
  1629     149E                     l4041:
  1630                           
  1631                           ;newmain.c: 106:         resultado[j] = temp;
  1632     149E  082E               	movf	intToASCIIinCustomBase@j,w
  1633     149F  0722               	addwf	intToASCIIinCustomBase@resultado,w
  1634     14A0  00A5               	movwf	??_intToASCIIinCustomBase
  1635     14A1  0825               	movf	??_intToASCIIinCustomBase,w
  1636     14A2  0084               	movwf	4
  1637     14A3  0827               	movf	intToASCIIinCustomBase@temp,w
  1638     14A4  0080               	movwf	0
  1639     14A5                     l4043:
  1640                           
  1641                           ;newmain.c: 107:     }
  1642     14A5  3001               	movlw	1
  1643     14A6  07AC               	addwf	intToASCIIinCustomBase@i,f
  1644     14A7  1803               	skipnc
  1645     14A8  0AAD               	incf	intToASCIIinCustomBase@i+1,f
  1646     14A9  3000               	movlw	0
  1647     14AA  07AD               	addwf	intToASCIIinCustomBase@i+1,f
  1648     14AB                     l4045:
  1649     14AB  30FF               	movlw	255
  1650     14AC  07AE               	addwf	intToASCIIinCustomBase@j,f
  1651     14AD  1803               	skipnc
  1652     14AE  0AAF               	incf	intToASCIIinCustomBase@j+1,f
  1653     14AF  30FF               	movlw	255
  1654     14B0  07AF               	addwf	intToASCIIinCustomBase@j+1,f
  1655     14B1                     l4047:
  1656     14B1  082D               	movf	intToASCIIinCustomBase@i+1,w
  1657     14B2  3A80               	xorlw	128
  1658     14B3  00A5               	movwf	??_intToASCIIinCustomBase
  1659     14B4  082F               	movf	intToASCIIinCustomBase@j+1,w
  1660     14B5  3A80               	xorlw	128
  1661     14B6  0225               	subwf	??_intToASCIIinCustomBase,w
  1662     14B7  1D03               	skipz
  1663     14B8  2CBB               	goto	u6005
  1664     14B9  082E               	movf	intToASCIIinCustomBase@j,w
  1665     14BA  022C               	subwf	intToASCIIinCustomBase@i,w
  1666     14BB                     u6005:
  1667     14BB  1C03               	skipc
  1668     14BC  2CBE               	goto	u6001
  1669     14BD  2CBF               	goto	u6000
  1670     14BE                     u6001:
  1671     14BE  2C86               	goto	l4037
  1672     14BF                     u6000:
  1673     14BF                     l99:
  1674     14BF  0008               	return
  1675     14C0                     __end_of_intToASCIIinCustomBase:
  1676                           
  1677                           	psect	text2
  1678     1FA7                     __ptext2:	
  1679 ;; *************** function ___awmod *****************
  1680 ;; Defined at:
  1681 ;;		line 5 in file "C:\Program Files\Microchip\xc8\v2.41\pic\sources\c90\common\awmod.c"
  1682 ;; Parameters:    Size  Location     Type
  1683 ;;  divisor         2    2[COMMON] int 
  1684 ;;  dividend        2    4[COMMON] int 
  1685 ;; Auto vars:     Size  Location     Type
  1686 ;;  sign            1    7[COMMON] unsigned char 
  1687 ;;  counter         1    6[COMMON] unsigned char 
  1688 ;; Return value:  Size  Location     Type
  1689 ;;                  2    2[COMMON] int 
  1690 ;; Registers used:
  1691 ;;		wreg, status,2, status,0, btemp+1
  1692 ;; Tracked objects:
  1693 ;;		On entry : 0/0
  1694 ;;		On exit  : 0/0
  1695 ;;		Unchanged: 0/0
  1696 ;; Data sizes:     COMMON   BANK0   BANK1   BANK3   BANK2
  1697 ;;      Params:         4       0       0       0       0
  1698 ;;      Locals:         2       0       0       0       0
  1699 ;;      Temps:          0       0       0       0       0
  1700 ;;      Totals:         6       0       0       0       0
  1701 ;;Total ram usage:        6 bytes
  1702 ;; Hardware stack levels used: 1
  1703 ;; Hardware stack levels required when called: 1
  1704 ;; This function calls:
  1705 ;;		Nothing
  1706 ;; This function is called by:
  1707 ;;		_intToASCIIinCustomBase
  1708 ;; This function uses a non-reentrant model
  1709 ;;
  1710                           
  1711     1FA7                     ___awmod:	
  1712                           ;psect for function ___awmod
  1713                           
  1714     1FA7                     l3069:	
  1715                           ;incstack = 0
  1716                           ; Regs used in ___awmod: [wreg+status,2+status,0+btemp+1]
  1717                           
  1718     1FA7  01F7               	clrf	___awmod@sign
  1719     1FA8                     l3071:
  1720     1FA8  1FF5               	btfss	___awmod@dividend+1,7
  1721     1FA9  2FAB               	goto	u4331
  1722     1FAA  2FAC               	goto	u4330
  1723     1FAB                     u4331:
  1724     1FAB  2FB3               	goto	l3077
  1725     1FAC                     u4330:
  1726     1FAC                     l3073:
  1727     1FAC  09F4               	comf	___awmod@dividend,f
  1728     1FAD  09F5               	comf	___awmod@dividend+1,f
  1729     1FAE  0AF4               	incf	___awmod@dividend,f
  1730     1FAF  1903               	skipnz
  1731     1FB0  0AF5               	incf	___awmod@dividend+1,f
  1732     1FB1                     l3075:
  1733     1FB1  01F7               	clrf	___awmod@sign
  1734     1FB2  0AF7               	incf	___awmod@sign,f
  1735     1FB3                     l3077:
  1736     1FB3  1FF3               	btfss	___awmod@divisor+1,7
  1737     1FB4  2FB6               	goto	u4341
  1738     1FB5  2FB7               	goto	u4340
  1739     1FB6                     u4341:
  1740     1FB6  2FBC               	goto	l3081
  1741     1FB7                     u4340:
  1742     1FB7                     l3079:
  1743     1FB7  09F2               	comf	___awmod@divisor,f
  1744     1FB8  09F3               	comf	___awmod@divisor+1,f
  1745     1FB9  0AF2               	incf	___awmod@divisor,f
  1746     1FBA  1903               	skipnz
  1747     1FBB  0AF3               	incf	___awmod@divisor+1,f
  1748     1FBC                     l3081:
  1749     1FBC  0872               	movf	___awmod@divisor,w
  1750     1FBD  0473               	iorwf	___awmod@divisor+1,w
  1751     1FBE  1903               	btfsc	3,2
  1752     1FBF  2FC1               	goto	u4351
  1753     1FC0  2FC2               	goto	u4350
  1754     1FC1                     u4351:
  1755     1FC1  2FF1               	goto	l3099
  1756     1FC2                     u4350:
  1757     1FC2                     l3083:
  1758     1FC2  01F6               	clrf	___awmod@counter
  1759     1FC3  0AF6               	incf	___awmod@counter,f
  1760     1FC4  2FD0               	goto	l3089
  1761     1FC5                     l3085:
  1762     1FC5  3001               	movlw	1
  1763     1FC6                     u4365:
  1764     1FC6  1003               	clrc
  1765     1FC7  0DF2               	rlf	___awmod@divisor,f
  1766     1FC8  0DF3               	rlf	___awmod@divisor+1,f
  1767     1FC9  3EFF               	addlw	-1
  1768     1FCA  1D03               	skipz
  1769     1FCB  2FC6               	goto	u4365
  1770     1FCC                     l3087:
  1771     1FCC  3001               	movlw	1
  1772     1FCD  00FF               	movwf	btemp+1
  1773     1FCE  087F               	movf	btemp+1,w
  1774     1FCF  07F6               	addwf	___awmod@counter,f
  1775     1FD0                     l3089:
  1776     1FD0  1FF3               	btfss	___awmod@divisor+1,7
  1777     1FD1  2FD3               	goto	u4371
  1778     1FD2  2FD4               	goto	u4370
  1779     1FD3                     u4371:
  1780     1FD3  2FC5               	goto	l3085
  1781     1FD4                     u4370:
  1782     1FD4                     l3091:
  1783     1FD4  0873               	movf	___awmod@divisor+1,w
  1784     1FD5  0275               	subwf	___awmod@dividend+1,w
  1785     1FD6  1D03               	skipz
  1786     1FD7  2FDA               	goto	u4385
  1787     1FD8  0872               	movf	___awmod@divisor,w
  1788     1FD9  0274               	subwf	___awmod@dividend,w
  1789     1FDA                     u4385:
  1790     1FDA  1C03               	skipc
  1791     1FDB  2FDD               	goto	u4381
  1792     1FDC  2FDE               	goto	u4380
  1793     1FDD                     u4381:
  1794     1FDD  2FE4               	goto	l3095
  1795     1FDE                     u4380:
  1796     1FDE                     l3093:
  1797     1FDE  0872               	movf	___awmod@divisor,w
  1798     1FDF  02F4               	subwf	___awmod@dividend,f
  1799     1FE0  0873               	movf	___awmod@divisor+1,w
  1800     1FE1  1C03               	skipc
  1801     1FE2  03F5               	decf	___awmod@dividend+1,f
  1802     1FE3  02F5               	subwf	___awmod@dividend+1,f
  1803     1FE4                     l3095:
  1804     1FE4  3001               	movlw	1
  1805     1FE5                     u4395:
  1806     1FE5  1003               	clrc
  1807     1FE6  0CF3               	rrf	___awmod@divisor+1,f
  1808     1FE7  0CF2               	rrf	___awmod@divisor,f
  1809     1FE8  3EFF               	addlw	-1
  1810     1FE9  1D03               	skipz
  1811     1FEA  2FE5               	goto	u4395
  1812     1FEB                     l3097:
  1813     1FEB  3001               	movlw	1
  1814     1FEC  02F6               	subwf	___awmod@counter,f
  1815     1FED  1D03               	btfss	3,2
  1816     1FEE  2FF0               	goto	u4401
  1817     1FEF  2FF1               	goto	u4400
  1818     1FF0                     u4401:
  1819     1FF0  2FD4               	goto	l3091
  1820     1FF1                     u4400:
  1821     1FF1                     l3099:
  1822     1FF1  0877               	movf	___awmod@sign,w
  1823     1FF2  1903               	btfsc	3,2
  1824     1FF3  2FF5               	goto	u4411
  1825     1FF4  2FF6               	goto	u4410
  1826     1FF5                     u4411:
  1827     1FF5  2FFB               	goto	l3103
  1828     1FF6                     u4410:
  1829     1FF6                     l3101:
  1830     1FF6  09F4               	comf	___awmod@dividend,f
  1831     1FF7  09F5               	comf	___awmod@dividend+1,f
  1832     1FF8  0AF4               	incf	___awmod@dividend,f
  1833     1FF9  1903               	skipnz
  1834     1FFA  0AF5               	incf	___awmod@dividend+1,f
  1835     1FFB                     l3103:
  1836     1FFB  0875               	movf	___awmod@dividend+1,w
  1837     1FFC  00F3               	movwf	?___awmod+1
  1838     1FFD  0874               	movf	___awmod@dividend,w
  1839     1FFE  00F2               	movwf	?___awmod
  1840     1FFF                     l414:
  1841     1FFF  0008               	return
  1842     2000                     __end_of___awmod:
  1843                           
  1844                           	psect	text3
  1845     0810                     __ptext3:	
  1846 ;; *************** function ___awdiv *****************
  1847 ;; Defined at:
  1848 ;;		line 5 in file "C:\Program Files\Microchip\xc8\v2.41\pic\sources\c90\common\awdiv.c"
  1849 ;; Parameters:    Size  Location     Type
  1850 ;;  divisor         2    2[COMMON] int 
  1851 ;;  dividend        2    4[COMMON] int 
  1852 ;; Auto vars:     Size  Location     Type
  1853 ;;  quotient        2    8[COMMON] int 
  1854 ;;  sign            1    7[COMMON] unsigned char 
  1855 ;;  counter         1    6[COMMON] unsigned char 
  1856 ;; Return value:  Size  Location     Type
  1857 ;;                  2    2[COMMON] int 
  1858 ;; Registers used:
  1859 ;;		wreg, status,2, status,0, btemp+1
  1860 ;; Tracked objects:
  1861 ;;		On entry : 0/0
  1862 ;;		On exit  : 0/0
  1863 ;;		Unchanged: 0/0
  1864 ;; Data sizes:     COMMON   BANK0   BANK1   BANK3   BANK2
  1865 ;;      Params:         4       0       0       0       0
  1866 ;;      Locals:         4       0       0       0       0
  1867 ;;      Temps:          0       0       0       0       0
  1868 ;;      Totals:         8       0       0       0       0
  1869 ;;Total ram usage:        8 bytes
  1870 ;; Hardware stack levels used: 1
  1871 ;; Hardware stack levels required when called: 1
  1872 ;; This function calls:
  1873 ;;		Nothing
  1874 ;; This function is called by:
  1875 ;;		_intToASCIIinCustomBase
  1876 ;; This function uses a non-reentrant model
  1877 ;;
  1878                           
  1879     0810                     ___awdiv:	
  1880                           ;psect for function ___awdiv
  1881                           
  1882     0810                     l3025:	
  1883                           ;incstack = 0
  1884                           ; Regs used in ___awdiv: [wreg+status,2+status,0+btemp+1]
  1885                           
  1886     0810  01F7               	clrf	___awdiv@sign
  1887     0811                     l3027:
  1888     0811  1FF3               	btfss	___awdiv@divisor+1,7
  1889     0812  2814               	goto	u4231
  1890     0813  2815               	goto	u4230
  1891     0814                     u4231:
  1892     0814  281C               	goto	l3033
  1893     0815                     u4230:
  1894     0815                     l3029:
  1895     0815  09F2               	comf	___awdiv@divisor,f
  1896     0816  09F3               	comf	___awdiv@divisor+1,f
  1897     0817  0AF2               	incf	___awdiv@divisor,f
  1898     0818  1903               	skipnz
  1899     0819  0AF3               	incf	___awdiv@divisor+1,f
  1900     081A                     l3031:
  1901     081A  01F7               	clrf	___awdiv@sign
  1902     081B  0AF7               	incf	___awdiv@sign,f
  1903     081C                     l3033:
  1904     081C  1FF5               	btfss	___awdiv@dividend+1,7
  1905     081D  281F               	goto	u4241
  1906     081E  2820               	goto	u4240
  1907     081F                     u4241:
  1908     081F  2829               	goto	l3039
  1909     0820                     u4240:
  1910     0820                     l3035:
  1911     0820  09F4               	comf	___awdiv@dividend,f
  1912     0821  09F5               	comf	___awdiv@dividend+1,f
  1913     0822  0AF4               	incf	___awdiv@dividend,f
  1914     0823  1903               	skipnz
  1915     0824  0AF5               	incf	___awdiv@dividend+1,f
  1916     0825                     l3037:
  1917     0825  3001               	movlw	1
  1918     0826  00FF               	movwf	btemp+1
  1919     0827  087F               	movf	btemp+1,w
  1920     0828  06F7               	xorwf	___awdiv@sign,f
  1921     0829                     l3039:
  1922     0829  01F8               	clrf	___awdiv@quotient
  1923     082A  01F9               	clrf	___awdiv@quotient+1
  1924     082B                     l3041:
  1925     082B  0872               	movf	___awdiv@divisor,w
  1926     082C  0473               	iorwf	___awdiv@divisor+1,w
  1927     082D  1903               	btfsc	3,2
  1928     082E  2830               	goto	u4251
  1929     082F  2831               	goto	u4250
  1930     0830                     u4251:
  1931     0830  2868               	goto	l3061
  1932     0831                     u4250:
  1933     0831                     l3043:
  1934     0831  01F6               	clrf	___awdiv@counter
  1935     0832  0AF6               	incf	___awdiv@counter,f
  1936     0833  283F               	goto	l3049
  1937     0834                     l3045:
  1938     0834  3001               	movlw	1
  1939     0835                     u4265:
  1940     0835  1003               	clrc
  1941     0836  0DF2               	rlf	___awdiv@divisor,f
  1942     0837  0DF3               	rlf	___awdiv@divisor+1,f
  1943     0838  3EFF               	addlw	-1
  1944     0839  1D03               	skipz
  1945     083A  2835               	goto	u4265
  1946     083B                     l3047:
  1947     083B  3001               	movlw	1
  1948     083C  00FF               	movwf	btemp+1
  1949     083D  087F               	movf	btemp+1,w
  1950     083E  07F6               	addwf	___awdiv@counter,f
  1951     083F                     l3049:
  1952     083F  1FF3               	btfss	___awdiv@divisor+1,7
  1953     0840  2842               	goto	u4271
  1954     0841  2843               	goto	u4270
  1955     0842                     u4271:
  1956     0842  2834               	goto	l3045
  1957     0843                     u4270:
  1958     0843                     l3051:
  1959     0843  3001               	movlw	1
  1960     0844                     u4285:
  1961     0844  1003               	clrc
  1962     0845  0DF8               	rlf	___awdiv@quotient,f
  1963     0846  0DF9               	rlf	___awdiv@quotient+1,f
  1964     0847  3EFF               	addlw	-1
  1965     0848  1D03               	skipz
  1966     0849  2844               	goto	u4285
  1967     084A  0873               	movf	___awdiv@divisor+1,w
  1968     084B  0275               	subwf	___awdiv@dividend+1,w
  1969     084C  1D03               	skipz
  1970     084D  2850               	goto	u4295
  1971     084E  0872               	movf	___awdiv@divisor,w
  1972     084F  0274               	subwf	___awdiv@dividend,w
  1973     0850                     u4295:
  1974     0850  1C03               	skipc
  1975     0851  2853               	goto	u4291
  1976     0852  2854               	goto	u4290
  1977     0853                     u4291:
  1978     0853  285B               	goto	l3057
  1979     0854                     u4290:
  1980     0854                     l3053:
  1981     0854  0872               	movf	___awdiv@divisor,w
  1982     0855  02F4               	subwf	___awdiv@dividend,f
  1983     0856  0873               	movf	___awdiv@divisor+1,w
  1984     0857  1C03               	skipc
  1985     0858  03F5               	decf	___awdiv@dividend+1,f
  1986     0859  02F5               	subwf	___awdiv@dividend+1,f
  1987     085A                     l3055:
  1988     085A  1478               	bsf	___awdiv@quotient,0
  1989     085B                     l3057:
  1990     085B  3001               	movlw	1
  1991     085C                     u4305:
  1992     085C  1003               	clrc
  1993     085D  0CF3               	rrf	___awdiv@divisor+1,f
  1994     085E  0CF2               	rrf	___awdiv@divisor,f
  1995     085F  3EFF               	addlw	-1
  1996     0860  1D03               	skipz
  1997     0861  285C               	goto	u4305
  1998     0862                     l3059:
  1999     0862  3001               	movlw	1
  2000     0863  02F6               	subwf	___awdiv@counter,f
  2001     0864  1D03               	btfss	3,2
  2002     0865  2867               	goto	u4311
  2003     0866  2868               	goto	u4310
  2004     0867                     u4311:
  2005     0867  2843               	goto	l3051
  2006     0868                     u4310:
  2007     0868                     l3061:
  2008     0868  0877               	movf	___awdiv@sign,w
  2009     0869  1903               	btfsc	3,2
  2010     086A  286C               	goto	u4321
  2011     086B  286D               	goto	u4320
  2012     086C                     u4321:
  2013     086C  2872               	goto	l3065
  2014     086D                     u4320:
  2015     086D                     l3063:
  2016     086D  09F8               	comf	___awdiv@quotient,f
  2017     086E  09F9               	comf	___awdiv@quotient+1,f
  2018     086F  0AF8               	incf	___awdiv@quotient,f
  2019     0870  1903               	skipnz
  2020     0871  0AF9               	incf	___awdiv@quotient+1,f
  2021     0872                     l3065:
  2022     0872  0879               	movf	___awdiv@quotient+1,w
  2023     0873  00F3               	movwf	?___awdiv+1
  2024     0874  0878               	movf	___awdiv@quotient,w
  2025     0875  00F2               	movwf	?___awdiv
  2026     0876                     l401:
  2027     0876  0008               	return
  2028     0877                     __end_of___awdiv:
  2029                           
  2030                           	psect	text4
  2031     1CB4                     __ptext4:	
  2032 ;; *************** function _handleSetupMenu *****************
  2033 ;; Defined at:
  2034 ;;		line 190 in file "newmain.c"
  2035 ;; Parameters:    Size  Location     Type
  2036 ;;		None
  2037 ;; Auto vars:     Size  Location     Type
  2038 ;;		None
  2039 ;; Return value:  Size  Location     Type
  2040 ;;                  1    wreg      void 
  2041 ;; Registers used:
  2042 ;;		wreg, fsr0l, fsr0h, status,2, status,0, btemp+1, pclath, cstack
  2043 ;; Tracked objects:
  2044 ;;		On entry : 0/0
  2045 ;;		On exit  : 0/0
  2046 ;;		Unchanged: 0/0
  2047 ;; Data sizes:     COMMON   BANK0   BANK1   BANK3   BANK2
  2048 ;;      Params:         0       0       0       0       0
  2049 ;;      Locals:         0       0       0       0       0
  2050 ;;      Temps:          0       0       0       0       0
  2051 ;;      Totals:         0       0       0       0       0
  2052 ;;Total ram usage:        0 bytes
  2053 ;; Hardware stack levels used: 1
  2054 ;; Hardware stack levels required when called: 5
  2055 ;; This function calls:
  2056 ;;		_escreveLCD
  2057 ;;		_verificaBtnMais
  2058 ;;		_verificaBtnMenos
  2059 ;; This function is called by:
  2060 ;;		_main
  2061 ;; This function uses a non-reentrant model
  2062 ;;
  2063                           
  2064     1CB4                     _handleSetupMenu:	
  2065                           ;psect for function _handleSetupMenu
  2066                           
  2067     1CB4                     l4049:	
  2068                           ;incstack = 0
  2069                           ; Regs used in _handleSetupMenu: [wreg-fsr0h+status,2+status,0+btemp+1+pclath+cstack]
  2070                           
  2071                           
  2072                           ;newmain.c: 192:     while (menu_ativo)
  2073     1CB4  2CCB               	goto	l4055
  2074     1CB5                     l4051:
  2075                           
  2076                           ;newmain.c: 193:     {;newmain.c: 196:         verificaBtnMais();
  2077     1CB5  160A  158A  2587  160A  158A  	fcall	_verificaBtnMais
  2078                           
  2079                           ;newmain.c: 197:         verificaBtnMenos();
  2080     1CBA  160A  118A  2089  160A  158A  	fcall	_verificaBtnMenos
  2081     1CBF                     l4053:
  2082                           
  2083                           ;newmain.c: 198:         escreveLCD("MENU - OBJETIVO", "500 LUX");
  2084     1CBF  3071               	movlw	(low ((STR_2-__stringbase)| (0+32768)))& (0+255)
  2085     1CC0  1283               	bcf	3,5	;RP0=0, select bank0
  2086     1CC1  1303               	bcf	3,6	;RP1=0, select bank0
  2087     1CC2  00A5               	movwf	escreveLCD@linha2
  2088     1CC3  3080               	movlw	128
  2089     1CC4  00A6               	movwf	escreveLCD@linha2+1
  2090     1CC5  3061               	movlw	(low ((STR_1-__stringbase)| (0+32768)))& (0+255)
  2091     1CC6  160A  158A  2550  160A  158A  	fcall	_escreveLCD
  2092     1CCB                     l4055:
  2093                           
  2094                           ;newmain.c: 192:     while (menu_ativo)
  2095     1CCB  087A               	movf	_menu_ativo,w
  2096     1CCC  047B               	iorwf	_menu_ativo+1,w
  2097     1CCD  1D03               	btfss	3,2
  2098     1CCE  2CD0               	goto	u6011
  2099     1CCF  2CD1               	goto	u6010
  2100     1CD0                     u6011:
  2101     1CD0  2CB5               	goto	l4051
  2102     1CD1                     u6010:
  2103     1CD1                     l145:
  2104     1CD1  0008               	return
  2105     1CD2                     __end_of_handleSetupMenu:
  2106                           
  2107                           	psect	text5
  2108     1089                     __ptext5:	
  2109 ;; *************** function _verificaBtnMenos *****************
  2110 ;; Defined at:
  2111 ;;		line 139 in file "newmain.c"
  2112 ;; Parameters:    Size  Location     Type
  2113 ;;		None
  2114 ;; Auto vars:     Size  Location     Type
  2115 ;;		None
  2116 ;; Return value:  Size  Location     Type
  2117 ;;                  1    wreg      void 
  2118 ;; Registers used:
  2119 ;;		wreg, status,2, status,0, btemp+1
  2120 ;; Tracked objects:
  2121 ;;		On entry : 0/0
  2122 ;;		On exit  : 0/0
  2123 ;;		Unchanged: 0/0
  2124 ;; Data sizes:     COMMON   BANK0   BANK1   BANK3   BANK2
  2125 ;;      Params:         0       0       0       0       0
  2126 ;;      Locals:         0       0       0       0       0
  2127 ;;      Temps:          0       0       0       0       0
  2128 ;;      Totals:         0       0       0       0       0
  2129 ;;Total ram usage:        0 bytes
  2130 ;; Hardware stack levels used: 1
  2131 ;; Hardware stack levels required when called: 1
  2132 ;; This function calls:
  2133 ;;		Nothing
  2134 ;; This function is called by:
  2135 ;;		_handleSetupMenu
  2136 ;; This function uses a non-reentrant model
  2137 ;;
  2138                           
  2139     1089                     _verificaBtnMenos:	
  2140                           ;psect for function _verificaBtnMenos
  2141                           
  2142     1089                     l2957:	
  2143                           ;incstack = 0
  2144                           ; Regs used in _verificaBtnMenos: [wreg+status,2+status,0+btemp+1]
  2145                           
  2146                           
  2147                           ;newmain.c: 141:     if(!btn_menos_aux && !PORTBbits.RB3){
  2148     1089  1283               	bcf	3,5	;RP0=0, select bank2
  2149     108A  1703               	bsf	3,6	;RP1=1, select bank2
  2150     108B  0812               	movf	_btn_menos_aux^(0+256),w
  2151     108C  0413               	iorwf	(_btn_menos_aux+1)^(0+256),w
  2152     108D  1D03               	btfss	3,2
  2153     108E  2890               	goto	u4131
  2154     108F  2891               	goto	u4130
  2155     1090                     u4131:
  2156     1090  28BC               	goto	l123
  2157     1091                     u4130:
  2158     1091                     l2959:
  2159     1091  1283               	bcf	3,5	;RP0=0, select bank0
  2160     1092  1303               	bcf	3,6	;RP1=0, select bank0
  2161     1093  1986               	btfsc	6,3	;volatile
  2162     1094  2896               	goto	u4141
  2163     1095  2897               	goto	u4140
  2164     1096                     u4141:
  2165     1096  28BC               	goto	l123
  2166     1097                     u4140:
  2167     1097                     l2961:
  2168                           
  2169                           ;newmain.c: 142:         btn_menos_aux = 1;
  2170     1097  3001               	movlw	1
  2171     1098  1283               	bcf	3,5	;RP0=0, select bank2
  2172     1099  1703               	bsf	3,6	;RP1=1, select bank2
  2173     109A  0092               	movwf	_btn_menos_aux^(0+256)
  2174     109B  3000               	movlw	0
  2175     109C  0093               	movwf	(_btn_menos_aux^(0+256)+1)
  2176     109D                     l2963:
  2177                           
  2178                           ;newmain.c: 143:         if(luminosidade_desejada>10){
  2179     109D  1683               	bsf	3,5	;RP0=1, select bank3
  2180     109E  1703               	bsf	3,6	;RP1=1, select bank3
  2181     109F  086A               	movf	(_luminosidade_desejada+1)^(0+384),w
  2182     10A0  3A80               	xorlw	128
  2183     10A1  00FF               	movwf	btemp+1
  2184     10A2  3080               	movlw	128
  2185     10A3  027F               	subwf	btemp+1,w
  2186     10A4  1D03               	skipz
  2187     10A5  28A8               	goto	u4155
  2188     10A6  300B               	movlw	11
  2189     10A7  0269               	subwf	_luminosidade_desejada^(0+384),w
  2190     10A8                     u4155:
  2191     10A8  1C03               	skipc
  2192     10A9  28AB               	goto	u4151
  2193     10AA  28AC               	goto	u4150
  2194     10AB                     u4151:
  2195     10AB  28B5               	goto	l2967
  2196     10AC                     u4150:
  2197     10AC                     l2965:
  2198                           
  2199                           ;newmain.c: 144:             luminosidade_desejada-=10;
  2200     10AC  30F6               	movlw	246
  2201     10AD  1683               	bsf	3,5	;RP0=1, select bank3
  2202     10AE  1703               	bsf	3,6	;RP1=1, select bank3
  2203     10AF  07E9               	addwf	_luminosidade_desejada^(0+384),f
  2204     10B0  1803               	skipnc
  2205     10B1  0AEA               	incf	(_luminosidade_desejada+1)^(0+384),f
  2206     10B2  30FF               	movlw	255
  2207     10B3  07EA               	addwf	(_luminosidade_desejada+1)^(0+384),f
  2208                           
  2209                           ;newmain.c: 145:         }
  2210     10B4  28C5               	goto	l128
  2211     10B5                     l2967:
  2212                           
  2213                           ;newmain.c: 147:             luminosidade_desejada = 10;
  2214     10B5  300A               	movlw	10
  2215     10B6  1683               	bsf	3,5	;RP0=1, select bank3
  2216     10B7  1703               	bsf	3,6	;RP1=1, select bank3
  2217     10B8  00E9               	movwf	_luminosidade_desejada^(0+384)
  2218     10B9  3000               	movlw	0
  2219     10BA  00EA               	movwf	(_luminosidade_desejada^(0+384)+1)
  2220     10BB  28C5               	goto	l128
  2221     10BC                     l123:	
  2222                           ;newmain.c: 150:     else{
  2223                           
  2224                           
  2225                           ;newmain.c: 151:         if(PORTBbits.RB3){
  2226     10BC  1303               	bcf	3,6	;RP1=0, select bank0
  2227     10BD  1D86               	btfss	6,3	;volatile
  2228     10BE  28C0               	goto	u4161
  2229     10BF  28C1               	goto	u4160
  2230     10C0                     u4161:
  2231     10C0  28C5               	goto	l128
  2232     10C1                     u4160:
  2233     10C1                     l2969:
  2234                           
  2235                           ;newmain.c: 152:             btn_menos_aux = 0;
  2236     10C1  1283               	bcf	3,5	;RP0=0, select bank2
  2237     10C2  1703               	bsf	3,6	;RP1=1, select bank2
  2238     10C3  0192               	clrf	_btn_menos_aux^(0+256)
  2239     10C4  0193               	clrf	(_btn_menos_aux+1)^(0+256)
  2240     10C5                     l128:
  2241     10C5  0008               	return
  2242     10C6                     __end_of_verificaBtnMenos:
  2243                           
  2244                           	psect	text6
  2245     1D87                     __ptext6:	
  2246 ;; *************** function _verificaBtnMais *****************
  2247 ;; Defined at:
  2248 ;;		line 119 in file "newmain.c"
  2249 ;; Parameters:    Size  Location     Type
  2250 ;;		None
  2251 ;; Auto vars:     Size  Location     Type
  2252 ;;		None
  2253 ;; Return value:  Size  Location     Type
  2254 ;;                  1    wreg      void 
  2255 ;; Registers used:
  2256 ;;		wreg, status,2, status,0, btemp+1
  2257 ;; Tracked objects:
  2258 ;;		On entry : 0/0
  2259 ;;		On exit  : 0/0
  2260 ;;		Unchanged: 0/0
  2261 ;; Data sizes:     COMMON   BANK0   BANK1   BANK3   BANK2
  2262 ;;      Params:         0       0       0       0       0
  2263 ;;      Locals:         0       0       0       0       0
  2264 ;;      Temps:          0       0       0       0       0
  2265 ;;      Totals:         0       0       0       0       0
  2266 ;;Total ram usage:        0 bytes
  2267 ;; Hardware stack levels used: 1
  2268 ;; Hardware stack levels required when called: 1
  2269 ;; This function calls:
  2270 ;;		Nothing
  2271 ;; This function is called by:
  2272 ;;		_handleSetupMenu
  2273 ;; This function uses a non-reentrant model
  2274 ;;
  2275                           
  2276     1D87                     _verificaBtnMais:	
  2277                           ;psect for function _verificaBtnMais
  2278                           
  2279     1D87                     l2943:	
  2280                           ;incstack = 0
  2281                           ; Regs used in _verificaBtnMais: [wreg+status,2+status,0+btemp+1]
  2282                           
  2283                           
  2284                           ;newmain.c: 122:     if(!btn_mais_aux && !PORTBbits.RB2){
  2285     1D87  1683               	bsf	3,5	;RP0=1, select bank3
  2286     1D88  1703               	bsf	3,6	;RP1=1, select bank3
  2287     1D89  0867               	movf	_btn_mais_aux^(0+384),w
  2288     1D8A  0468               	iorwf	(_btn_mais_aux+1)^(0+384),w
  2289     1D8B  1D03               	btfss	3,2
  2290     1D8C  2D8E               	goto	u4091
  2291     1D8D  2D8F               	goto	u4090
  2292     1D8E                     u4091:
  2293     1D8E  2DB8               	goto	l115
  2294     1D8F                     u4090:
  2295     1D8F                     l2945:
  2296     1D8F  1283               	bcf	3,5	;RP0=0, select bank0
  2297     1D90  1303               	bcf	3,6	;RP1=0, select bank0
  2298     1D91  1906               	btfsc	6,2	;volatile
  2299     1D92  2D94               	goto	u4101
  2300     1D93  2D95               	goto	u4100
  2301     1D94                     u4101:
  2302     1D94  2DB8               	goto	l115
  2303     1D95                     u4100:
  2304     1D95                     l2947:
  2305                           
  2306                           ;newmain.c: 123:         btn_mais_aux = 1;
  2307     1D95  3001               	movlw	1
  2308     1D96  1683               	bsf	3,5	;RP0=1, select bank3
  2309     1D97  1703               	bsf	3,6	;RP1=1, select bank3
  2310     1D98  00E7               	movwf	_btn_mais_aux^(0+384)
  2311     1D99  3000               	movlw	0
  2312     1D9A  00E8               	movwf	(_btn_mais_aux^(0+384)+1)
  2313     1D9B                     l2949:
  2314                           
  2315                           ;newmain.c: 124:         if(luminosidade_desejada<1000){
  2316     1D9B  086A               	movf	(_luminosidade_desejada+1)^(0+384),w
  2317     1D9C  3A80               	xorlw	128
  2318     1D9D  00FF               	movwf	btemp+1
  2319     1D9E  3083               	movlw	131
  2320     1D9F  027F               	subwf	btemp+1,w
  2321     1DA0  1D03               	skipz
  2322     1DA1  2DA4               	goto	u4115
  2323     1DA2  30E8               	movlw	232
  2324     1DA3  0269               	subwf	_luminosidade_desejada^(0+384),w
  2325     1DA4                     u4115:
  2326     1DA4  1803               	skipnc
  2327     1DA5  2DA7               	goto	u4111
  2328     1DA6  2DA8               	goto	u4110
  2329     1DA7                     u4111:
  2330     1DA7  2DB1               	goto	l2953
  2331     1DA8                     u4110:
  2332     1DA8                     l2951:
  2333                           
  2334                           ;newmain.c: 125:             luminosidade_desejada+=10;
  2335     1DA8  300A               	movlw	10
  2336     1DA9  1683               	bsf	3,5	;RP0=1, select bank3
  2337     1DAA  1703               	bsf	3,6	;RP1=1, select bank3
  2338     1DAB  07E9               	addwf	_luminosidade_desejada^(0+384),f
  2339     1DAC  1803               	skipnc
  2340     1DAD  0AEA               	incf	(_luminosidade_desejada+1)^(0+384),f
  2341     1DAE  3000               	movlw	0
  2342     1DAF  07EA               	addwf	(_luminosidade_desejada+1)^(0+384),f
  2343                           
  2344                           ;newmain.c: 126:         }
  2345     1DB0  2DC2               	goto	l120
  2346     1DB1                     l2953:
  2347                           
  2348                           ;newmain.c: 128:             luminosidade_desejada = 1000;
  2349     1DB1  30E8               	movlw	232
  2350     1DB2  1683               	bsf	3,5	;RP0=1, select bank3
  2351     1DB3  1703               	bsf	3,6	;RP1=1, select bank3
  2352     1DB4  00E9               	movwf	_luminosidade_desejada^(0+384)
  2353     1DB5  3003               	movlw	3
  2354     1DB6  00EA               	movwf	(_luminosidade_desejada^(0+384)+1)
  2355     1DB7  2DC2               	goto	l120
  2356     1DB8                     l115:	
  2357                           ;newmain.c: 131:     else{
  2358                           
  2359                           
  2360                           ;newmain.c: 132:         if(PORTBbits.RB2){
  2361     1DB8  1283               	bcf	3,5	;RP0=0, select bank0
  2362     1DB9  1303               	bcf	3,6	;RP1=0, select bank0
  2363     1DBA  1D06               	btfss	6,2	;volatile
  2364     1DBB  2DBD               	goto	u4121
  2365     1DBC  2DBE               	goto	u4120
  2366     1DBD                     u4121:
  2367     1DBD  2DC2               	goto	l120
  2368     1DBE                     u4120:
  2369     1DBE                     l2955:
  2370                           
  2371                           ;newmain.c: 133:             btn_mais_aux = 0;
  2372     1DBE  1683               	bsf	3,5	;RP0=1, select bank3
  2373     1DBF  1703               	bsf	3,6	;RP1=1, select bank3
  2374     1DC0  01E7               	clrf	_btn_mais_aux^(0+384)
  2375     1DC1  01E8               	clrf	(_btn_mais_aux+1)^(0+384)
  2376     1DC2                     l120:
  2377     1DC2  0008               	return
  2378     1DC3                     __end_of_verificaBtnMais:
  2379                           
  2380                           	psect	text7
  2381     1D50                     __ptext7:	
  2382 ;; *************** function _escreveLCD *****************
  2383 ;; Defined at:
  2384 ;;		line 175 in file "newmain.c"
  2385 ;; Parameters:    Size  Location     Type
  2386 ;;  linha1          1    wreg     PTR unsigned char 
  2387 ;;		 -> STR_3(20), STR_1(16), 
  2388 ;;  linha2          2    5[BANK0 ] PTR unsigned char 
  2389 ;;		 -> main@texto_luminosidade(16), STR_2(8), 
  2390 ;; Auto vars:     Size  Location     Type
  2391 ;;  linha1          1    9[COMMON] PTR unsigned char 
  2392 ;;		 -> STR_3(20), STR_1(16), 
  2393 ;; Return value:  Size  Location     Type
  2394 ;;                  1    wreg      void 
  2395 ;; Registers used:
  2396 ;;		wreg, fsr0l, fsr0h, status,2, status,0, btemp+1, pclath, cstack
  2397 ;; Tracked objects:
  2398 ;;		On entry : 0/0
  2399 ;;		On exit  : 0/0
  2400 ;;		Unchanged: 0/0
  2401 ;; Data sizes:     COMMON   BANK0   BANK1   BANK3   BANK2
  2402 ;;      Params:         0       2       0       0       0
  2403 ;;      Locals:         1       0       0       0       0
  2404 ;;      Temps:          0       2       0       0       0
  2405 ;;      Totals:         1       4       0       0       0
  2406 ;;Total ram usage:        5 bytes
  2407 ;; Hardware stack levels used: 1
  2408 ;; Hardware stack levels required when called: 4
  2409 ;; This function calls:
  2410 ;;		_Lcd_Clear
  2411 ;;		_Lcd_Set_Cursor
  2412 ;;		_Lcd_Write_String
  2413 ;; This function is called by:
  2414 ;;		_handleSetupMenu
  2415 ;;		_main
  2416 ;; This function uses a non-reentrant model
  2417 ;;
  2418                           
  2419     1D50                     _escreveLCD:	
  2420                           ;psect for function _escreveLCD
  2421                           
  2422                           
  2423                           ;incstack = 0
  2424                           ; Regs used in _escreveLCD: [wreg-fsr0h+status,2+status,0+btemp+1+pclath+cstack]
  2425                           ;escreveLCD@linha1 stored from wreg
  2426     1D50  00F9               	movwf	escreveLCD@linha1
  2427     1D51                     l3939:
  2428                           
  2429                           ;newmain.c: 175: void escreveLCD(char* linha1, char* linha2);newmain.c: 176: {;newmain.c
      +                          : 178:     Lcd_Clear();
  2430     1D51  160A  158A  2448  160A  158A  	fcall	_Lcd_Clear
  2431                           
  2432                           ;newmain.c: 179:     Lcd_Set_Cursor(1,1);
  2433     1D56  01F6               	clrf	Lcd_Set_Cursor@b
  2434     1D57  0AF6               	incf	Lcd_Set_Cursor@b,f
  2435     1D58  3001               	movlw	1
  2436     1D59  160A  158A  2609  160A  158A  	fcall	_Lcd_Set_Cursor
  2437     1D5E                     l3941:
  2438                           
  2439                           ;newmain.c: 180:     Lcd_Write_String(linha1);
  2440     1D5E  0879               	movf	escreveLCD@linha1,w
  2441     1D5F  00F7               	movwf	Lcd_Write_String@a
  2442     1D60  3000               	movlw	0
  2443     1D61  1D03               	btfss	3,2
  2444     1D62  3080               	movlw	128
  2445     1D63  00F8               	movwf	Lcd_Write_String@a+1
  2446     1D64  160A  158A  25C3  160A  158A  	fcall	_Lcd_Write_String
  2447     1D69                     l3943:
  2448                           
  2449                           ;newmain.c: 182:     Lcd_Set_Cursor(2,1);
  2450     1D69  01F6               	clrf	Lcd_Set_Cursor@b
  2451     1D6A  0AF6               	incf	Lcd_Set_Cursor@b,f
  2452     1D6B  3002               	movlw	2
  2453     1D6C  160A  158A  2609  160A  158A  	fcall	_Lcd_Set_Cursor
  2454                           
  2455                           ;newmain.c: 183:     Lcd_Write_String(linha2);
  2456     1D71  1283               	bcf	3,5	;RP0=0, select bank0
  2457     1D72  1303               	bcf	3,6	;RP1=0, select bank0
  2458     1D73  0825               	movf	escreveLCD@linha2,w
  2459     1D74  00F7               	movwf	Lcd_Write_String@a
  2460     1D75  0826               	movf	escreveLCD@linha2+1,w
  2461     1D76  00F8               	movwf	Lcd_Write_String@a+1
  2462     1D77  160A  158A  25C3  160A  158A  	fcall	_Lcd_Write_String
  2463     1D7C                     l3945:
  2464                           
  2465                           ;newmain.c: 185:     _delay((unsigned long)((100)*(4000000/4000.0)));
  2466     1D7C  3082               	movlw	130
  2467     1D7D  1283               	bcf	3,5	;RP0=0, select bank0
  2468     1D7E  1303               	bcf	3,6	;RP1=0, select bank0
  2469     1D7F  00A8               	movwf	??_escreveLCD+1
  2470     1D80  30DD               	movlw	221
  2471     1D81  00A7               	movwf	??_escreveLCD
  2472     1D82                     u6027:
  2473     1D82  0BA7               	decfsz	??_escreveLCD,f
  2474     1D83  2D82               	goto	u6027
  2475     1D84  0BA8               	decfsz	??_escreveLCD+1,f
  2476     1D85  2D82               	goto	u6027
  2477     1D86                     l139:
  2478     1D86  0008               	return
  2479     1D87                     __end_of_escreveLCD:
  2480                           
  2481                           	psect	text8
  2482     1DC3                     __ptext8:	
  2483 ;; *************** function _Lcd_Write_String *****************
  2484 ;; Defined at:
  2485 ;;		line 97 in file "./lcd.h"
  2486 ;; Parameters:    Size  Location     Type
  2487 ;;  a               2    7[COMMON] PTR unsigned char 
  2488 ;;		 -> main@texto_luminosidade(16), STR_3(20), STR_2(8), STR_1(16), 
  2489 ;; Auto vars:     Size  Location     Type
  2490 ;;  i               2    3[BANK0 ] int 
  2491 ;; Return value:  Size  Location     Type
  2492 ;;                  1    wreg      void 
  2493 ;; Registers used:
  2494 ;;		wreg, fsr0l, fsr0h, status,2, status,0, btemp+1, pclath, cstack
  2495 ;; Tracked objects:
  2496 ;;		On entry : 0/0
  2497 ;;		On exit  : 0/0
  2498 ;;		Unchanged: 0/0
  2499 ;; Data sizes:     COMMON   BANK0   BANK1   BANK3   BANK2
  2500 ;;      Params:         2       0       0       0       0
  2501 ;;      Locals:         0       2       0       0       0
  2502 ;;      Temps:          0       3       0       0       0
  2503 ;;      Totals:         2       5       0       0       0
  2504 ;;Total ram usage:        7 bytes
  2505 ;; Hardware stack levels used: 1
  2506 ;; Hardware stack levels required when called: 3
  2507 ;; This function calls:
  2508 ;;		_Lcd_Write_Char
  2509 ;; This function is called by:
  2510 ;;		_escreveLCD
  2511 ;; This function uses a non-reentrant model
  2512 ;;
  2513                           
  2514     1DC3                     _Lcd_Write_String:	
  2515                           ;psect for function _Lcd_Write_String
  2516                           
  2517     1DC3                     l3863:	
  2518                           ;incstack = 0
  2519                           ; Regs used in _Lcd_Write_String: [wreg-fsr0h+status,2+status,0+btemp+1+pclath+cstack]
  2520                           
  2521                           
  2522                           ;./lcd.h: 97: void Lcd_Write_String(char *a);./lcd.h: 98: {;./lcd.h: 99:  int i;;./lcd.h
      +                          : 100:  for(i=0;a[i]!='\0';i++)
  2523     1DC3  1283               	bcf	3,5	;RP0=0, select bank0
  2524     1DC4  1303               	bcf	3,6	;RP1=0, select bank0
  2525     1DC5  01A3               	clrf	Lcd_Write_String@i
  2526     1DC6  01A4               	clrf	Lcd_Write_String@i+1
  2527     1DC7  2DEC               	goto	l3869
  2528     1DC8                     l3865:
  2529                           
  2530                           ;./lcd.h: 101:     Lcd_Write_Char(a[i]);
  2531     1DC8  0823               	movf	Lcd_Write_String@i,w
  2532     1DC9  0777               	addwf	Lcd_Write_String@a,w
  2533     1DCA  00A1               	movwf	??_Lcd_Write_String+1
  2534     1DCB  0878               	movf	Lcd_Write_String@a+1,w
  2535     1DCC  00A0               	movwf	??_Lcd_Write_String
  2536     1DCD  1803               	skipnc
  2537     1DCE  0AA0               	incf	??_Lcd_Write_String,f
  2538     1DCF  1FA3               	btfss	Lcd_Write_String@i,7
  2539     1DD0  2DD2               	goto	u5780
  2540     1DD1  03A0               	decf	??_Lcd_Write_String,f
  2541     1DD2                     u5780:
  2542     1DD2  1283               	bcf	3,5	;RP0=0, select bank0
  2543     1DD3  1303               	bcf	3,6	;RP1=0, select bank0
  2544     1DD4  0820               	movf	??_Lcd_Write_String,w
  2545     1DD5  00A2               	movwf	??_Lcd_Write_String+2
  2546     1DD6  0822               	movf	??_Lcd_Write_String+2,w
  2547     1DD7  00FF               	movwf	btemp+1
  2548     1DD8  0821               	movf	??_Lcd_Write_String+1,w
  2549     1DD9  0084               	movwf	4
  2550     1DDA  160A  118A  2000  160A  158A  	fcall	stringtab
  2551     1DDF  160A  158A  251D  160A  158A  	fcall	_Lcd_Write_Char
  2552     1DE4                     l3867:
  2553     1DE4  3001               	movlw	1
  2554     1DE5  1283               	bcf	3,5	;RP0=0, select bank0
  2555     1DE6  1303               	bcf	3,6	;RP1=0, select bank0
  2556     1DE7  07A3               	addwf	Lcd_Write_String@i,f
  2557     1DE8  1803               	skipnc
  2558     1DE9  0AA4               	incf	Lcd_Write_String@i+1,f
  2559     1DEA  3000               	movlw	0
  2560     1DEB  07A4               	addwf	Lcd_Write_String@i+1,f
  2561     1DEC                     l3869:
  2562     1DEC  0823               	movf	Lcd_Write_String@i,w
  2563     1DED  0777               	addwf	Lcd_Write_String@a,w
  2564     1DEE  00A1               	movwf	??_Lcd_Write_String+1
  2565     1DEF  0878               	movf	Lcd_Write_String@a+1,w
  2566     1DF0  00A0               	movwf	??_Lcd_Write_String
  2567     1DF1  1803               	skipnc
  2568     1DF2  0AA0               	incf	??_Lcd_Write_String,f
  2569     1DF3  1FA3               	btfss	Lcd_Write_String@i,7
  2570     1DF4  2DF6               	goto	u5790
  2571     1DF5  03A0               	decf	??_Lcd_Write_String,f
  2572     1DF6                     u5790:
  2573     1DF6  1283               	bcf	3,5	;RP0=0, select bank0
  2574     1DF7  1303               	bcf	3,6	;RP1=0, select bank0
  2575     1DF8  0820               	movf	??_Lcd_Write_String,w
  2576     1DF9  00A2               	movwf	??_Lcd_Write_String+2
  2577     1DFA  0822               	movf	??_Lcd_Write_String+2,w
  2578     1DFB  00FF               	movwf	btemp+1
  2579     1DFC  0821               	movf	??_Lcd_Write_String+1,w
  2580     1DFD  0084               	movwf	4
  2581     1DFE  160A  118A  2000  160A  158A  	fcall	stringtab
  2582     1E03  3A00               	xorlw	0
  2583     1E04  1D03               	skipz
  2584     1E05  2E07               	goto	u5801
  2585     1E06  2E08               	goto	u5800
  2586     1E07                     u5801:
  2587     1E07  2DC8               	goto	l3865
  2588     1E08                     u5800:
  2589     1E08                     l73:
  2590     1E08  0008               	return
  2591     1E09                     __end_of_Lcd_Write_String:
  2592                           
  2593                           	psect	text9
  2594     1D1D                     __ptext9:	
  2595 ;; *************** function _Lcd_Write_Char *****************
  2596 ;; Defined at:
  2597 ;;		line 81 in file "./lcd.h"
  2598 ;; Parameters:    Size  Location     Type
  2599 ;;  a               1    wreg     unsigned char 
  2600 ;; Auto vars:     Size  Location     Type
  2601 ;;  a               1    6[COMMON] unsigned char 
  2602 ;;  y               1    5[COMMON] unsigned char 
  2603 ;;  temp            1    4[COMMON] unsigned char 
  2604 ;; Return value:  Size  Location     Type
  2605 ;;                  1    wreg      void 
  2606 ;; Registers used:
  2607 ;;		wreg, status,2, status,0, pclath, cstack
  2608 ;; Tracked objects:
  2609 ;;		On entry : 0/0
  2610 ;;		On exit  : 0/0
  2611 ;;		Unchanged: 0/0
  2612 ;; Data sizes:     COMMON   BANK0   BANK1   BANK3   BANK2
  2613 ;;      Params:         0       0       0       0       0
  2614 ;;      Locals:         3       0       0       0       0
  2615 ;;      Temps:          1       0       0       0       0
  2616 ;;      Totals:         4       0       0       0       0
  2617 ;;Total ram usage:        4 bytes
  2618 ;; Hardware stack levels used: 1
  2619 ;; Hardware stack levels required when called: 2
  2620 ;; This function calls:
  2621 ;;		_Lcd_Port
  2622 ;; This function is called by:
  2623 ;;		_Lcd_Write_String
  2624 ;; This function uses a non-reentrant model
  2625 ;;
  2626                           
  2627     1D1D                     _Lcd_Write_Char:	
  2628                           ;psect for function _Lcd_Write_Char
  2629                           
  2630                           
  2631                           ;incstack = 0
  2632                           ; Regs used in _Lcd_Write_Char: [wreg+status,2+status,0+pclath+cstack]
  2633                           ;Lcd_Write_Char@a stored from wreg
  2634     1D1D  00F6               	movwf	Lcd_Write_Char@a
  2635     1D1E                     l3737:
  2636                           
  2637                           ;./lcd.h: 81: void Lcd_Write_Char(char a);./lcd.h: 82: {;./lcd.h: 83:    char temp,y;;./
      +                          lcd.h: 84:    temp = a&0x0F;
  2638     1D1E  0876               	movf	Lcd_Write_Char@a,w
  2639     1D1F  390F               	andlw	15
  2640     1D20  00F4               	movwf	Lcd_Write_Char@temp
  2641                           
  2642                           ;./lcd.h: 85:    y = a&0xF0;
  2643     1D21  0876               	movf	Lcd_Write_Char@a,w
  2644     1D22  39F0               	andlw	240
  2645     1D23  00F5               	movwf	Lcd_Write_Char@y
  2646     1D24                     l3739:
  2647                           
  2648                           ;./lcd.h: 86:    PORTDbits.RD2 = 1;
  2649     1D24  1283               	bcf	3,5	;RP0=0, select bank0
  2650     1D25  1303               	bcf	3,6	;RP1=0, select bank0
  2651     1D26  1508               	bsf	8,2	;volatile
  2652     1D27                     l3741:
  2653                           
  2654                           ;./lcd.h: 87:    Lcd_Port(y>>4);
  2655     1D27  0875               	movf	Lcd_Write_Char@y,w
  2656     1D28  00F3               	movwf	??_Lcd_Write_Char
  2657     1D29  3004               	movlw	4
  2658     1D2A                     u5625:
  2659     1D2A  1003               	clrc
  2660     1D2B  0CF3               	rrf	??_Lcd_Write_Char,f
  2661     1D2C  3EFF               	addlw	-1
  2662     1D2D  1D03               	skipz
  2663     1D2E  2D2A               	goto	u5625
  2664     1D2F  0873               	movf	??_Lcd_Write_Char,w
  2665     1D30  160A  158A  24D2  160A  158A  	fcall	_Lcd_Port
  2666     1D35                     l3743:
  2667                           
  2668                           ;./lcd.h: 88:    PORTDbits.RD3 = 1;
  2669     1D35  1283               	bcf	3,5	;RP0=0, select bank0
  2670     1D36  1303               	bcf	3,6	;RP1=0, select bank0
  2671     1D37  1588               	bsf	8,3	;volatile
  2672     1D38                     l3745:
  2673                           
  2674                           ;./lcd.h: 89:    _delay((unsigned long)((40)*(4000000/4000000.0)));
  2675     1D38  300D               	movlw	13
  2676     1D39  00F3               	movwf	??_Lcd_Write_Char
  2677     1D3A                     u6037:
  2678     1D3A  0BF3               	decfsz	??_Lcd_Write_Char,f
  2679     1D3B  2D3A               	goto	u6037
  2680     1D3C                     l3747:
  2681                           
  2682                           ;./lcd.h: 90:    PORTDbits.RD3 = 0;
  2683     1D3C  1283               	bcf	3,5	;RP0=0, select bank0
  2684     1D3D  1303               	bcf	3,6	;RP1=0, select bank0
  2685     1D3E  1188               	bcf	8,3	;volatile
  2686     1D3F                     l3749:
  2687                           
  2688                           ;./lcd.h: 91:    Lcd_Port(temp);
  2689     1D3F  0874               	movf	Lcd_Write_Char@temp,w
  2690     1D40  160A  158A  24D2  160A  158A  	fcall	_Lcd_Port
  2691     1D45                     l3751:
  2692                           
  2693                           ;./lcd.h: 92:    PORTDbits.RD3 = 1;
  2694     1D45  1283               	bcf	3,5	;RP0=0, select bank0
  2695     1D46  1303               	bcf	3,6	;RP1=0, select bank0
  2696     1D47  1588               	bsf	8,3	;volatile
  2697     1D48                     l3753:
  2698                           
  2699                           ;./lcd.h: 93:    _delay((unsigned long)((40)*(4000000/4000000.0)));
  2700     1D48  300D               	movlw	13
  2701     1D49  00F3               	movwf	??_Lcd_Write_Char
  2702     1D4A                     u6047:
  2703     1D4A  0BF3               	decfsz	??_Lcd_Write_Char,f
  2704     1D4B  2D4A               	goto	u6047
  2705     1D4C                     l3755:
  2706                           
  2707                           ;./lcd.h: 94:    PORTDbits.RD3 = 0;
  2708     1D4C  1283               	bcf	3,5	;RP0=0, select bank0
  2709     1D4D  1303               	bcf	3,6	;RP1=0, select bank0
  2710     1D4E  1188               	bcf	8,3	;volatile
  2711     1D4F                     l67:
  2712     1D4F  0008               	return
  2713     1D50                     __end_of_Lcd_Write_Char:
  2714                           
  2715                           	psect	text10
  2716     1E09                     __ptext10:	
  2717 ;; *************** function _Lcd_Set_Cursor *****************
  2718 ;; Defined at:
  2719 ;;		line 41 in file "./lcd.h"
  2720 ;; Parameters:    Size  Location     Type
  2721 ;;  a               1    wreg     unsigned char 
  2722 ;;  b               1    6[COMMON] unsigned char 
  2723 ;; Auto vars:     Size  Location     Type
  2724 ;;  a               1    0[BANK0 ] unsigned char 
  2725 ;;  temp            1    3[BANK0 ] unsigned char 
  2726 ;;  y               1    2[BANK0 ] unsigned char 
  2727 ;;  z               1    1[BANK0 ] unsigned char 
  2728 ;; Return value:  Size  Location     Type
  2729 ;;                  1    wreg      void 
  2730 ;; Registers used:
  2731 ;;		wreg, status,2, status,0, pclath, cstack
  2732 ;; Tracked objects:
  2733 ;;		On entry : 0/0
  2734 ;;		On exit  : 0/0
  2735 ;;		Unchanged: 0/0
  2736 ;; Data sizes:     COMMON   BANK0   BANK1   BANK3   BANK2
  2737 ;;      Params:         1       0       0       0       0
  2738 ;;      Locals:         0       4       0       0       0
  2739 ;;      Temps:          1       0       0       0       0
  2740 ;;      Totals:         2       4       0       0       0
  2741 ;;Total ram usage:        6 bytes
  2742 ;; Hardware stack levels used: 1
  2743 ;; Hardware stack levels required when called: 3
  2744 ;; This function calls:
  2745 ;;		_Lcd_Cmd
  2746 ;; This function is called by:
  2747 ;;		_escreveLCD
  2748 ;; This function uses a non-reentrant model
  2749 ;;
  2750                           
  2751     1E09                     _Lcd_Set_Cursor:	
  2752                           ;psect for function _Lcd_Set_Cursor
  2753                           
  2754                           
  2755                           ;incstack = 0
  2756                           ; Regs used in _Lcd_Set_Cursor: [wreg+status,2+status,0+pclath+cstack]
  2757                           ;Lcd_Set_Cursor@a stored from wreg
  2758     1E09  1283               	bcf	3,5	;RP0=0, select bank0
  2759     1E0A  1303               	bcf	3,6	;RP1=0, select bank0
  2760     1E0B  00A0               	movwf	Lcd_Set_Cursor@a
  2761     1E0C                     l3843:
  2762                           
  2763                           ;./lcd.h: 41: void Lcd_Set_Cursor(char a, char b);./lcd.h: 42: {;./lcd.h: 43:  char temp
      +                          ,z,y;;./lcd.h: 44:  if(a == 1)
  2764     1E0C  0320               	decf	Lcd_Set_Cursor@a,w
  2765     1E0D  1D03               	btfss	3,2
  2766     1E0E  2E10               	goto	u5741
  2767     1E0F  2E11               	goto	u5740
  2768     1E10                     u5741:
  2769     1E10  2E30               	goto	l3853
  2770     1E11                     u5740:
  2771     1E11                     l3845:
  2772                           
  2773                           ;./lcd.h: 45:  {;./lcd.h: 46:    temp = 0x80 + b - 1;
  2774     1E11  0876               	movf	Lcd_Set_Cursor@b,w
  2775     1E12  3E7F               	addlw	127
  2776     1E13  00A3               	movwf	Lcd_Set_Cursor@temp
  2777                           
  2778                           ;./lcd.h: 47:   z = temp>>4;
  2779     1E14  0823               	movf	Lcd_Set_Cursor@temp,w
  2780     1E15  00F7               	movwf	??_Lcd_Set_Cursor
  2781     1E16  3004               	movlw	4
  2782     1E17                     u5755:
  2783     1E17  1003               	clrc
  2784     1E18  0CF7               	rrf	??_Lcd_Set_Cursor,f
  2785     1E19  3EFF               	addlw	-1
  2786     1E1A  1D03               	skipz
  2787     1E1B  2E17               	goto	u5755
  2788     1E1C  0877               	movf	??_Lcd_Set_Cursor,w
  2789     1E1D  00A1               	movwf	Lcd_Set_Cursor@z
  2790     1E1E                     l3847:
  2791                           
  2792                           ;./lcd.h: 48:   y = temp & 0x0F;
  2793     1E1E  0823               	movf	Lcd_Set_Cursor@temp,w
  2794     1E1F  390F               	andlw	15
  2795     1E20  00A2               	movwf	Lcd_Set_Cursor@y
  2796     1E21                     l3849:
  2797                           
  2798                           ;./lcd.h: 49:   Lcd_Cmd(z);
  2799     1E21  0821               	movf	Lcd_Set_Cursor@z,w
  2800     1E22  160A  158A  249A  160A  158A  	fcall	_Lcd_Cmd
  2801     1E27                     l3851:
  2802                           
  2803                           ;./lcd.h: 50:   Lcd_Cmd(y);
  2804     1E27  1283               	bcf	3,5	;RP0=0, select bank0
  2805     1E28  1303               	bcf	3,6	;RP1=0, select bank0
  2806     1E29  0822               	movf	Lcd_Set_Cursor@y,w
  2807     1E2A  160A  158A  249A  160A  158A  	fcall	_Lcd_Cmd
  2808                           
  2809                           ;./lcd.h: 51:  }
  2810     1E2F  2E54               	goto	l61
  2811     1E30                     l3853:
  2812     1E30  3002               	movlw	2
  2813     1E31  0620               	xorwf	Lcd_Set_Cursor@a,w
  2814     1E32  1D03               	btfss	3,2
  2815     1E33  2E35               	goto	u5761
  2816     1E34  2E36               	goto	u5760
  2817     1E35                     u5761:
  2818     1E35  2E54               	goto	l61
  2819     1E36                     u5760:
  2820     1E36                     l3855:
  2821                           
  2822                           ;./lcd.h: 53:  {;./lcd.h: 54:   temp = 0xC0 + b - 1;
  2823     1E36  0876               	movf	Lcd_Set_Cursor@b,w
  2824     1E37  3EBF               	addlw	191
  2825     1E38  00A3               	movwf	Lcd_Set_Cursor@temp
  2826                           
  2827                           ;./lcd.h: 55:   z = temp>>4;
  2828     1E39  0823               	movf	Lcd_Set_Cursor@temp,w
  2829     1E3A  00F7               	movwf	??_Lcd_Set_Cursor
  2830     1E3B  3004               	movlw	4
  2831     1E3C                     u5775:
  2832     1E3C  1003               	clrc
  2833     1E3D  0CF7               	rrf	??_Lcd_Set_Cursor,f
  2834     1E3E  3EFF               	addlw	-1
  2835     1E3F  1D03               	skipz
  2836     1E40  2E3C               	goto	u5775
  2837     1E41  0877               	movf	??_Lcd_Set_Cursor,w
  2838     1E42  00A1               	movwf	Lcd_Set_Cursor@z
  2839     1E43                     l3857:
  2840                           
  2841                           ;./lcd.h: 56:   y = temp & 0x0F;
  2842     1E43  0823               	movf	Lcd_Set_Cursor@temp,w
  2843     1E44  390F               	andlw	15
  2844     1E45  00A2               	movwf	Lcd_Set_Cursor@y
  2845     1E46                     l3859:
  2846                           
  2847                           ;./lcd.h: 57:   Lcd_Cmd(z);
  2848     1E46  0821               	movf	Lcd_Set_Cursor@z,w
  2849     1E47  160A  158A  249A  160A  158A  	fcall	_Lcd_Cmd
  2850     1E4C                     l3861:
  2851                           
  2852                           ;./lcd.h: 58:   Lcd_Cmd(y);
  2853     1E4C  1283               	bcf	3,5	;RP0=0, select bank0
  2854     1E4D  1303               	bcf	3,6	;RP1=0, select bank0
  2855     1E4E  0822               	movf	Lcd_Set_Cursor@y,w
  2856     1E4F  160A  158A  249A  160A  158A  	fcall	_Lcd_Cmd
  2857     1E54                     l61:
  2858     1E54  0008               	return
  2859     1E55                     __end_of_Lcd_Set_Cursor:
  2860                           
  2861                           	psect	text11
  2862     1C48                     __ptext11:	
  2863 ;; *************** function _Lcd_Clear *****************
  2864 ;; Defined at:
  2865 ;;		line 35 in file "./lcd.h"
  2866 ;; Parameters:    Size  Location     Type
  2867 ;;		None
  2868 ;; Auto vars:     Size  Location     Type
  2869 ;;		None
  2870 ;; Return value:  Size  Location     Type
  2871 ;;                  1    wreg      void 
  2872 ;; Registers used:
  2873 ;;		wreg, status,2, status,0, pclath, cstack
  2874 ;; Tracked objects:
  2875 ;;		On entry : 0/0
  2876 ;;		On exit  : 0/0
  2877 ;;		Unchanged: 0/0
  2878 ;; Data sizes:     COMMON   BANK0   BANK1   BANK3   BANK2
  2879 ;;      Params:         0       0       0       0       0
  2880 ;;      Locals:         0       0       0       0       0
  2881 ;;      Temps:          0       0       0       0       0
  2882 ;;      Totals:         0       0       0       0       0
  2883 ;;Total ram usage:        0 bytes
  2884 ;; Hardware stack levels used: 1
  2885 ;; Hardware stack levels required when called: 3
  2886 ;; This function calls:
  2887 ;;		_Lcd_Cmd
  2888 ;; This function is called by:
  2889 ;;		_escreveLCD
  2890 ;; This function uses a non-reentrant model
  2891 ;;
  2892                           
  2893     1C48                     _Lcd_Clear:	
  2894                           ;psect for function _Lcd_Clear
  2895                           
  2896     1C48                     l3841:	
  2897                           ;incstack = 0
  2898                           ; Regs used in _Lcd_Clear: [wreg+status,2+status,0+pclath+cstack]
  2899                           
  2900                           
  2901                           ;./lcd.h: 37:  Lcd_Cmd(0);
  2902     1C48  3000               	movlw	0
  2903     1C49  160A  158A  249A  160A  158A  	fcall	_Lcd_Cmd
  2904                           
  2905                           ;./lcd.h: 38:  Lcd_Cmd(1);
  2906     1C4E  3001               	movlw	1
  2907     1C4F  160A  158A  249A  160A  158A  	fcall	_Lcd_Cmd
  2908     1C54                     l55:
  2909     1C54  0008               	return
  2910     1C55                     __end_of_Lcd_Clear:
  2911                           
  2912                           	psect	text12
  2913     1C55                     __ptext12:	
  2914 ;; *************** function _getValorADC *****************
  2915 ;; Defined at:
  2916 ;;		line 70 in file "newmain.c"
  2917 ;; Parameters:    Size  Location     Type
  2918 ;;		None
  2919 ;; Auto vars:     Size  Location     Type
  2920 ;;  valor           2    6[COMMON] int 
  2921 ;; Return value:  Size  Location     Type
  2922 ;;                  2    2[COMMON] int 
  2923 ;; Registers used:
  2924 ;;		wreg
  2925 ;; Tracked objects:
  2926 ;;		On entry : 0/0
  2927 ;;		On exit  : 0/0
  2928 ;;		Unchanged: 0/0
  2929 ;; Data sizes:     COMMON   BANK0   BANK1   BANK3   BANK2
  2930 ;;      Params:         2       0       0       0       0
  2931 ;;      Locals:         2       0       0       0       0
  2932 ;;      Temps:          2       0       0       0       0
  2933 ;;      Totals:         6       0       0       0       0
  2934 ;;Total ram usage:        6 bytes
  2935 ;; Hardware stack levels used: 1
  2936 ;; Hardware stack levels required when called: 1
  2937 ;; This function calls:
  2938 ;;		Nothing
  2939 ;; This function is called by:
  2940 ;;		_main
  2941 ;; This function uses a non-reentrant model
  2942 ;;
  2943                           
  2944     1C55                     _getValorADC:	
  2945                           ;psect for function _getValorADC
  2946                           
  2947     1C55                     l3129:	
  2948                           ;incstack = 0
  2949                           ; Regs used in _getValorADC: [wreg]
  2950                           
  2951                           
  2952                           ;newmain.c: 71:     int valor;;newmain.c: 74:     ADCON0bits.GO = 1;
  2953     1C55  1283               	bcf	3,5	;RP0=0, select bank0
  2954     1C56  1303               	bcf	3,6	;RP1=0, select bank0
  2955     1C57  151F               	bsf	31,2	;volatile
  2956     1C58                     l3131:
  2957                           
  2958                           ;newmain.c: 78:     _delay((unsigned long)((10)*(4000000/4000000.0)));
  2959     1C58  3003               	movlw	3
  2960     1C59  00F4               	movwf	??_getValorADC
  2961     1C5A                     u6057:
  2962     1C5A  0BF4               	decfsz	??_getValorADC,f
  2963     1C5B  2C5A               	goto	u6057
  2964                           
  2965                           ;newmain.c: 82:     valor = ADRESH;
  2966     1C5C  1283               	bcf	3,5	;RP0=0, select bank0
  2967     1C5D  1303               	bcf	3,6	;RP1=0, select bank0
  2968     1C5E  081E               	movf	30,w	;volatile
  2969     1C5F  00F4               	movwf	??_getValorADC
  2970     1C60  01F5               	clrf	??_getValorADC+1
  2971     1C61  0874               	movf	??_getValorADC,w
  2972     1C62  00F6               	movwf	getValorADC@valor
  2973     1C63  0875               	movf	??_getValorADC+1,w
  2974     1C64  00F7               	movwf	getValorADC@valor+1
  2975                           
  2976                           ;newmain.c: 83:     return valor;
  2977     1C65  0877               	movf	getValorADC@valor+1,w
  2978     1C66  00F3               	movwf	?_getValorADC+1
  2979     1C67  0876               	movf	getValorADC@valor,w
  2980     1C68  00F2               	movwf	?_getValorADC
  2981     1C69                     l95:
  2982     1C69  0008               	return
  2983     1C6A                     __end_of_getValorADC:
  2984                           
  2985                           	psect	text13
  2986     0380                     __ptext13:	
  2987 ;; *************** function _converteVoltsParaLux *****************
  2988 ;; Defined at:
  2989 ;;		line 217 in file "newmain.c"
  2990 ;; Parameters:    Size  Location     Type
  2991 ;;  v_ldr           4   28[BANK3 ] float 
  2992 ;; Auto vars:     Size  Location     Type
  2993 ;;  b               4   58[BANK3 ] float 
  2994 ;;  l_ldr           4   32[BANK3 ] float 
  2995 ;;  r_ldr           2   56[BANK3 ] int 
  2996 ;; Return value:  Size  Location     Type
  2997 ;;                  2   28[BANK3 ] int 
  2998 ;; Registers used:
  2999 ;;		wreg, fsr0l, fsr0h, status,2, status,0, btemp+1, pclath, cstack
  3000 ;; Tracked objects:
  3001 ;;		On entry : 0/0
  3002 ;;		On exit  : 0/0
  3003 ;;		Unchanged: 0/0
  3004 ;; Data sizes:     COMMON   BANK0   BANK1   BANK3   BANK2
  3005 ;;      Params:         0       0       0       4       0
  3006 ;;      Locals:         0       0       0      30       0
  3007 ;;      Temps:          0       0       0       0       0
  3008 ;;      Totals:         0       0       0      34       0
  3009 ;;Total ram usage:       34 bytes
  3010 ;; Hardware stack levels used: 1
  3011 ;; Hardware stack levels required when called: 6
  3012 ;; This function calls:
  3013 ;;		___fladd
  3014 ;;		___fldiv
  3015 ;;		___flmul
  3016 ;;		___flsub
  3017 ;;		___fltol
  3018 ;;		___xxtofl
  3019 ;;		_log10
  3020 ;;		_pow
  3021 ;; This function is called by:
  3022 ;;		_main
  3023 ;; This function uses a non-reentrant model
  3024 ;;
  3025                           
  3026     0380                     _converteVoltsParaLux:	
  3027                           ;psect for function _converteVoltsParaLux
  3028                           
  3029     0380                     l4061:	
  3030                           ;incstack = 0
  3031                           ; Regs used in _converteVoltsParaLux: [wreg-fsr0h+status,2+status,0+btemp+1+pclath+cstac
      +                          k]
  3032                           
  3033                           
  3034                           ;newmain.c: 218:     int r_ldr = (10000*v_ldr)/(5-v_ldr);
  3035     0380  1683               	bsf	3,5	;RP0=1, select bank3
  3036     0381  1703               	bsf	3,6	;RP1=1, select bank3
  3037     0382  082F               	movf	(converteVoltsParaLux@v_ldr+3)^(0+384),w
  3038     0383  1283               	bcf	3,5	;RP0=0, select bank0
  3039     0384  1303               	bcf	3,6	;RP1=0, select bank0
  3040     0385  00C0               	movwf	___flmul@a+3
  3041     0386  1683               	bsf	3,5	;RP0=1, select bank3
  3042     0387  1703               	bsf	3,6	;RP1=1, select bank3
  3043     0388  082E               	movf	(converteVoltsParaLux@v_ldr+2)^(0+384),w
  3044     0389  1283               	bcf	3,5	;RP0=0, select bank0
  3045     038A  1303               	bcf	3,6	;RP1=0, select bank0
  3046     038B  00BF               	movwf	___flmul@a+2
  3047     038C  1683               	bsf	3,5	;RP0=1, select bank3
  3048     038D  1703               	bsf	3,6	;RP1=1, select bank3
  3049     038E  082D               	movf	(converteVoltsParaLux@v_ldr+1)^(0+384),w
  3050     038F  1283               	bcf	3,5	;RP0=0, select bank0
  3051     0390  1303               	bcf	3,6	;RP1=0, select bank0
  3052     0391  00BE               	movwf	___flmul@a+1
  3053     0392  1683               	bsf	3,5	;RP0=1, select bank3
  3054     0393  1703               	bsf	3,6	;RP1=1, select bank3
  3055     0394  082C               	movf	converteVoltsParaLux@v_ldr^(0+384),w
  3056     0395  1283               	bcf	3,5	;RP0=0, select bank0
  3057     0396  1303               	bcf	3,6	;RP1=0, select bank0
  3058     0397  00BD               	movwf	___flmul@a
  3059     0398  3046               	movlw	70
  3060     0399  00BC               	movwf	___flmul@b+3
  3061     039A  301C               	movlw	28
  3062     039B  00BB               	movwf	___flmul@b+2
  3063     039C  3040               	movlw	64
  3064     039D  00BA               	movwf	___flmul@b+1
  3065     039E  3000               	movlw	0
  3066     039F  00B9               	movwf	___flmul@b
  3067     03A0  120A  118A  203B  120A  118A  	fcall	___flmul
  3068     03A5  1283               	bcf	3,5	;RP0=0, select bank0
  3069     03A6  1303               	bcf	3,6	;RP1=0, select bank0
  3070     03A7  083C               	movf	?___flmul+3,w
  3071     03A8  1683               	bsf	3,5	;RP0=1, select bank1
  3072     03A9  1303               	bcf	3,6	;RP1=0, select bank1
  3073     03AA  00C4               	movwf	(___fldiv@b+3)^(0+128)
  3074     03AB  1283               	bcf	3,5	;RP0=0, select bank0
  3075     03AC  1303               	bcf	3,6	;RP1=0, select bank0
  3076     03AD  083B               	movf	?___flmul+2,w
  3077     03AE  1683               	bsf	3,5	;RP0=1, select bank1
  3078     03AF  1303               	bcf	3,6	;RP1=0, select bank1
  3079     03B0  00C3               	movwf	(___fldiv@b+2)^(0+128)
  3080     03B1  1283               	bcf	3,5	;RP0=0, select bank0
  3081     03B2  1303               	bcf	3,6	;RP1=0, select bank0
  3082     03B3  083A               	movf	?___flmul+1,w
  3083     03B4  1683               	bsf	3,5	;RP0=1, select bank1
  3084     03B5  1303               	bcf	3,6	;RP1=0, select bank1
  3085     03B6  00C2               	movwf	(___fldiv@b+1)^(0+128)
  3086     03B7  1283               	bcf	3,5	;RP0=0, select bank0
  3087     03B8  1303               	bcf	3,6	;RP1=0, select bank0
  3088     03B9  0839               	movf	?___flmul,w
  3089     03BA  1683               	bsf	3,5	;RP0=1, select bank1
  3090     03BB  1303               	bcf	3,6	;RP1=0, select bank1
  3091     03BC  00C1               	movwf	___fldiv@b^(0+128)
  3092     03BD  3040               	movlw	64
  3093     03BE  00BC               	movwf	(___flsub@b+3)^(0+128)
  3094     03BF  30A0               	movlw	160
  3095     03C0  00BB               	movwf	(___flsub@b+2)^(0+128)
  3096     03C1  3000               	movlw	0
  3097     03C2  00BA               	movwf	(___flsub@b+1)^(0+128)
  3098     03C3  3000               	movlw	0
  3099     03C4  00B9               	movwf	___flsub@b^(0+128)
  3100     03C5  1683               	bsf	3,5	;RP0=1, select bank3
  3101     03C6  1703               	bsf	3,6	;RP1=1, select bank3
  3102     03C7  082F               	movf	(converteVoltsParaLux@v_ldr+3)^(0+384),w
  3103     03C8  1683               	bsf	3,5	;RP0=1, select bank1
  3104     03C9  1303               	bcf	3,6	;RP1=0, select bank1
  3105     03CA  00B8               	movwf	(___flsub@a+3)^(0+128)
  3106     03CB  1683               	bsf	3,5	;RP0=1, select bank3
  3107     03CC  1703               	bsf	3,6	;RP1=1, select bank3
  3108     03CD  082E               	movf	(converteVoltsParaLux@v_ldr+2)^(0+384),w
  3109     03CE  1683               	bsf	3,5	;RP0=1, select bank1
  3110     03CF  1303               	bcf	3,6	;RP1=0, select bank1
  3111     03D0  00B7               	movwf	(___flsub@a+2)^(0+128)
  3112     03D1  1683               	bsf	3,5	;RP0=1, select bank3
  3113     03D2  1703               	bsf	3,6	;RP1=1, select bank3
  3114     03D3  082D               	movf	(converteVoltsParaLux@v_ldr+1)^(0+384),w
  3115     03D4  1683               	bsf	3,5	;RP0=1, select bank1
  3116     03D5  1303               	bcf	3,6	;RP1=0, select bank1
  3117     03D6  00B6               	movwf	(___flsub@a+1)^(0+128)
  3118     03D7  1683               	bsf	3,5	;RP0=1, select bank3
  3119     03D8  1703               	bsf	3,6	;RP1=1, select bank3
  3120     03D9  082C               	movf	converteVoltsParaLux@v_ldr^(0+384),w
  3121     03DA  1683               	bsf	3,5	;RP0=1, select bank1
  3122     03DB  1303               	bcf	3,6	;RP1=0, select bank1
  3123     03DC  00B5               	movwf	___flsub@a^(0+128)
  3124     03DD  160A  158A  26A5  120A  118A  	fcall	___flsub
  3125     03E2  1683               	bsf	3,5	;RP0=1, select bank1
  3126     03E3  1303               	bcf	3,6	;RP1=0, select bank1
  3127     03E4  0838               	movf	(?___flsub+3)^(0+128),w
  3128     03E5  00C0               	movwf	(___fldiv@a+3)^(0+128)
  3129     03E6  0837               	movf	(?___flsub+2)^(0+128),w
  3130     03E7  00BF               	movwf	(___fldiv@a+2)^(0+128)
  3131     03E8  0836               	movf	(?___flsub+1)^(0+128),w
  3132     03E9  00BE               	movwf	(___fldiv@a+1)^(0+128)
  3133     03EA  0835               	movf	?___flsub^(0+128),w
  3134     03EB  00BD               	movwf	___fldiv@a^(0+128)
  3135     03EC  120A  118A  262D  120A  118A  	fcall	___fldiv
  3136     03F1  1683               	bsf	3,5	;RP0=1, select bank1
  3137     03F2  1303               	bcf	3,6	;RP1=0, select bank1
  3138     03F3  0840               	movf	(?___fldiv+3)^(0+128),w
  3139     03F4  00DA               	movwf	(___fltol@f1+3)^(0+128)
  3140     03F5  083F               	movf	(?___fldiv+2)^(0+128),w
  3141     03F6  00D9               	movwf	(___fltol@f1+2)^(0+128)
  3142     03F7  083E               	movf	(?___fldiv+1)^(0+128),w
  3143     03F8  00D8               	movwf	(___fltol@f1+1)^(0+128)
  3144     03F9  083D               	movf	?___fldiv^(0+128),w
  3145     03FA  00D7               	movwf	___fltol@f1^(0+128)
  3146     03FB  160A  118A  217F  120A  118A  	fcall	___fltol
  3147     0400  1683               	bsf	3,5	;RP0=1, select bank1
  3148     0401  1303               	bcf	3,6	;RP1=0, select bank1
  3149     0402  0858               	movf	(?___fltol+1)^(0+128),w
  3150     0403  1683               	bsf	3,5	;RP0=1, select bank3
  3151     0404  1703               	bsf	3,6	;RP1=1, select bank3
  3152     0405  00C9               	movwf	(converteVoltsParaLux@r_ldr+1)^(0+384)
  3153     0406  1683               	bsf	3,5	;RP0=1, select bank1
  3154     0407  1303               	bcf	3,6	;RP1=0, select bank1
  3155     0408  0857               	movf	?___fltol^(0+128),w
  3156     0409  1683               	bsf	3,5	;RP0=1, select bank3
  3157     040A  1703               	bsf	3,6	;RP1=1, select bank3
  3158     040B  00C8               	movwf	converteVoltsParaLux@r_ldr^(0+384)
  3159     040C                     l4063:
  3160                           
  3161                           ;newmain.c: 219:     float b = ((log10(4) - log10(9)) - 1)/990;
  3162     040C  3041               	movlw	65
  3163     040D  1683               	bsf	3,5	;RP0=1, select bank1
  3164     040E  1303               	bcf	3,6	;RP1=0, select bank1
  3165     040F  00B0               	movwf	(log10@x+3)^(0+128)
  3166     0410  3010               	movlw	16
  3167     0411  00AF               	movwf	(log10@x+2)^(0+128)
  3168     0412  3000               	movlw	0
  3169     0413  00AE               	movwf	(log10@x+1)^(0+128)
  3170     0414  3000               	movlw	0
  3171     0415  00AD               	movwf	log10@x^(0+128)
  3172     0416  160A  158A  274E  120A  118A  	fcall	_log10
  3173     041B  1683               	bsf	3,5	;RP0=1, select bank1
  3174     041C  1303               	bcf	3,6	;RP1=0, select bank1
  3175     041D  0830               	movf	(?_log10+3)^(0+128),w
  3176     041E  00B8               	movwf	(___flsub@a+3)^(0+128)
  3177     041F  082F               	movf	(?_log10+2)^(0+128),w
  3178     0420  00B7               	movwf	(___flsub@a+2)^(0+128)
  3179     0421  082E               	movf	(?_log10+1)^(0+128),w
  3180     0422  00B6               	movwf	(___flsub@a+1)^(0+128)
  3181     0423  082D               	movf	?_log10^(0+128),w
  3182     0424  00B5               	movwf	___flsub@a^(0+128)
  3183     0425  3040               	movlw	64
  3184     0426  00B0               	movwf	(log10@x+3)^(0+128)
  3185     0427  3080               	movlw	128
  3186     0428  00AF               	movwf	(log10@x+2)^(0+128)
  3187     0429  3000               	movlw	0
  3188     042A  00AE               	movwf	(log10@x+1)^(0+128)
  3189     042B  3000               	movlw	0
  3190     042C  00AD               	movwf	log10@x^(0+128)
  3191     042D  160A  158A  274E  120A  118A  	fcall	_log10
  3192     0432  1683               	bsf	3,5	;RP0=1, select bank1
  3193     0433  1303               	bcf	3,6	;RP1=0, select bank1
  3194     0434  0830               	movf	(?_log10+3)^(0+128),w
  3195     0435  00BC               	movwf	(___flsub@b+3)^(0+128)
  3196     0436  082F               	movf	(?_log10+2)^(0+128),w
  3197     0437  00BB               	movwf	(___flsub@b+2)^(0+128)
  3198     0438  082E               	movf	(?_log10+1)^(0+128),w
  3199     0439  00BA               	movwf	(___flsub@b+1)^(0+128)
  3200     043A  082D               	movf	?_log10^(0+128),w
  3201     043B  00B9               	movwf	___flsub@b^(0+128)
  3202     043C  160A  158A  26A5  120A  118A  	fcall	___flsub
  3203     0441  1683               	bsf	3,5	;RP0=1, select bank1
  3204     0442  1303               	bcf	3,6	;RP1=0, select bank1
  3205     0443  0838               	movf	(?___flsub+3)^(0+128),w
  3206     0444  1683               	bsf	3,5	;RP0=1, select bank3
  3207     0445  1703               	bsf	3,6	;RP1=1, select bank3
  3208     0446  00B7               	movwf	(_converteVoltsParaLux$1070+3)^(0+384)
  3209     0447  1683               	bsf	3,5	;RP0=1, select bank1
  3210     0448  1303               	bcf	3,6	;RP1=0, select bank1
  3211     0449  0837               	movf	(?___flsub+2)^(0+128),w
  3212     044A  1683               	bsf	3,5	;RP0=1, select bank3
  3213     044B  1703               	bsf	3,6	;RP1=1, select bank3
  3214     044C  00B6               	movwf	(_converteVoltsParaLux$1070+2)^(0+384)
  3215     044D  1683               	bsf	3,5	;RP0=1, select bank1
  3216     044E  1303               	bcf	3,6	;RP1=0, select bank1
  3217     044F  0836               	movf	(?___flsub+1)^(0+128),w
  3218     0450  1683               	bsf	3,5	;RP0=1, select bank3
  3219     0451  1703               	bsf	3,6	;RP1=1, select bank3
  3220     0452  00B5               	movwf	(_converteVoltsParaLux$1070+1)^(0+384)
  3221     0453  1683               	bsf	3,5	;RP0=1, select bank1
  3222     0454  1303               	bcf	3,6	;RP1=0, select bank1
  3223     0455  0835               	movf	?___flsub^(0+128),w
  3224     0456  1683               	bsf	3,5	;RP0=1, select bank3
  3225     0457  1703               	bsf	3,6	;RP1=1, select bank3
  3226     0458  00B4               	movwf	_converteVoltsParaLux$1070^(0+384)
  3227     0459                     l4065:
  3228                           
  3229                           ;newmain.c: 219:     float b = ((log10(4) - log10(9)) - 1)/990;
  3230     0459  3044               	movlw	68
  3231     045A  1683               	bsf	3,5	;RP0=1, select bank1
  3232     045B  1303               	bcf	3,6	;RP1=0, select bank1
  3233     045C  00C0               	movwf	(___fldiv@a+3)^(0+128)
  3234     045D  3077               	movlw	119
  3235     045E  00BF               	movwf	(___fldiv@a+2)^(0+128)
  3236     045F  3080               	movlw	128
  3237     0460  00BE               	movwf	(___fldiv@a+1)^(0+128)
  3238     0461  3000               	movlw	0
  3239     0462  00BD               	movwf	___fldiv@a^(0+128)
  3240     0463  30BF               	movlw	191
  3241     0464  1283               	bcf	3,5	;RP0=0, select bank0
  3242     0465  1303               	bcf	3,6	;RP1=0, select bank0
  3243     0466  00D6               	movwf	___fladd@b+3
  3244     0467  3080               	movlw	128
  3245     0468  00D5               	movwf	___fladd@b+2
  3246     0469  3000               	movlw	0
  3247     046A  00D4               	movwf	___fladd@b+1
  3248     046B  3000               	movlw	0
  3249     046C  00D3               	movwf	___fladd@b
  3250     046D  1683               	bsf	3,5	;RP0=1, select bank3
  3251     046E  1703               	bsf	3,6	;RP1=1, select bank3
  3252     046F  0837               	movf	(_converteVoltsParaLux$1070+3)^(0+384),w
  3253     0470  1283               	bcf	3,5	;RP0=0, select bank0
  3254     0471  1303               	bcf	3,6	;RP1=0, select bank0
  3255     0472  00DA               	movwf	___fladd@a+3
  3256     0473  1683               	bsf	3,5	;RP0=1, select bank3
  3257     0474  1703               	bsf	3,6	;RP1=1, select bank3
  3258     0475  0836               	movf	(_converteVoltsParaLux$1070+2)^(0+384),w
  3259     0476  1283               	bcf	3,5	;RP0=0, select bank0
  3260     0477  1303               	bcf	3,6	;RP1=0, select bank0
  3261     0478  00D9               	movwf	___fladd@a+2
  3262     0479  1683               	bsf	3,5	;RP0=1, select bank3
  3263     047A  1703               	bsf	3,6	;RP1=1, select bank3
  3264     047B  0835               	movf	(_converteVoltsParaLux$1070+1)^(0+384),w
  3265     047C  1283               	bcf	3,5	;RP0=0, select bank0
  3266     047D  1303               	bcf	3,6	;RP1=0, select bank0
  3267     047E  00D8               	movwf	___fladd@a+1
  3268     047F  1683               	bsf	3,5	;RP0=1, select bank3
  3269     0480  1703               	bsf	3,6	;RP1=1, select bank3
  3270     0481  0834               	movf	_converteVoltsParaLux$1070^(0+384),w
  3271     0482  1283               	bcf	3,5	;RP0=0, select bank0
  3272     0483  1303               	bcf	3,6	;RP1=0, select bank0
  3273     0484  00D7               	movwf	___fladd@a
  3274     0485  120A  158A  25A8  120A  118A  	fcall	___fladd
  3275     048A  1283               	bcf	3,5	;RP0=0, select bank0
  3276     048B  1303               	bcf	3,6	;RP1=0, select bank0
  3277     048C  0856               	movf	?___fladd+3,w
  3278     048D  1683               	bsf	3,5	;RP0=1, select bank1
  3279     048E  1303               	bcf	3,6	;RP1=0, select bank1
  3280     048F  00C4               	movwf	(___fldiv@b+3)^(0+128)
  3281     0490  1283               	bcf	3,5	;RP0=0, select bank0
  3282     0491  1303               	bcf	3,6	;RP1=0, select bank0
  3283     0492  0855               	movf	?___fladd+2,w
  3284     0493  1683               	bsf	3,5	;RP0=1, select bank1
  3285     0494  1303               	bcf	3,6	;RP1=0, select bank1
  3286     0495  00C3               	movwf	(___fldiv@b+2)^(0+128)
  3287     0496  1283               	bcf	3,5	;RP0=0, select bank0
  3288     0497  1303               	bcf	3,6	;RP1=0, select bank0
  3289     0498  0854               	movf	?___fladd+1,w
  3290     0499  1683               	bsf	3,5	;RP0=1, select bank1
  3291     049A  1303               	bcf	3,6	;RP1=0, select bank1
  3292     049B  00C2               	movwf	(___fldiv@b+1)^(0+128)
  3293     049C  1283               	bcf	3,5	;RP0=0, select bank0
  3294     049D  1303               	bcf	3,6	;RP1=0, select bank0
  3295     049E  0853               	movf	?___fladd,w
  3296     049F  1683               	bsf	3,5	;RP0=1, select bank1
  3297     04A0  1303               	bcf	3,6	;RP1=0, select bank1
  3298     04A1  00C1               	movwf	___fldiv@b^(0+128)
  3299     04A2  120A  118A  262D  120A  118A  	fcall	___fldiv
  3300     04A7  1683               	bsf	3,5	;RP0=1, select bank1
  3301     04A8  1303               	bcf	3,6	;RP1=0, select bank1
  3302     04A9  0840               	movf	(?___fldiv+3)^(0+128),w
  3303     04AA  1683               	bsf	3,5	;RP0=1, select bank3
  3304     04AB  1703               	bsf	3,6	;RP1=1, select bank3
  3305     04AC  00CD               	movwf	(converteVoltsParaLux@b+3)^(0+384)
  3306     04AD  1683               	bsf	3,5	;RP0=1, select bank1
  3307     04AE  1303               	bcf	3,6	;RP1=0, select bank1
  3308     04AF  083F               	movf	(?___fldiv+2)^(0+128),w
  3309     04B0  1683               	bsf	3,5	;RP0=1, select bank3
  3310     04B1  1703               	bsf	3,6	;RP1=1, select bank3
  3311     04B2  00CC               	movwf	(converteVoltsParaLux@b+2)^(0+384)
  3312     04B3  1683               	bsf	3,5	;RP0=1, select bank1
  3313     04B4  1303               	bcf	3,6	;RP1=0, select bank1
  3314     04B5  083E               	movf	(?___fldiv+1)^(0+128),w
  3315     04B6  1683               	bsf	3,5	;RP0=1, select bank3
  3316     04B7  1703               	bsf	3,6	;RP1=1, select bank3
  3317     04B8  00CB               	movwf	(converteVoltsParaLux@b+1)^(0+384)
  3318     04B9  1683               	bsf	3,5	;RP0=1, select bank1
  3319     04BA  1303               	bcf	3,6	;RP1=0, select bank1
  3320     04BB  083D               	movf	?___fldiv^(0+128),w
  3321     04BC  1683               	bsf	3,5	;RP0=1, select bank3
  3322     04BD  1703               	bsf	3,6	;RP1=1, select bank3
  3323     04BE  00CA               	movwf	converteVoltsParaLux@b^(0+384)
  3324     04BF                     l4067:
  3325                           
  3326                           ;newmain.c: 220:     float l_ldr =
  3327     04BF  0848               	movf	converteVoltsParaLux@r_ldr^(0+384),w
  3328     04C0  00F2               	movwf	___xxtofl@val
  3329     04C1  0849               	movf	(converteVoltsParaLux@r_ldr+1)^(0+384),w
  3330     04C2  00F3               	movwf	___xxtofl@val+1
  3331     04C3  3000               	movlw	0
  3332     04C4  1BF3               	btfsc	___xxtofl@val+1,7
  3333     04C5  30FF               	movlw	255
  3334     04C6  00F4               	movwf	___xxtofl@val+2
  3335     04C7  00F5               	movwf	___xxtofl@val+3
  3336     04C8  3001               	movlw	1
  3337     04C9  160A  118A  2342  120A  118A  	fcall	___xxtofl
  3338     04CE  0875               	movf	?___xxtofl+3,w
  3339     04CF  1683               	bsf	3,5	;RP0=1, select bank3
  3340     04D0  1703               	bsf	3,6	;RP1=1, select bank3
  3341     04D1  00BB               	movwf	(_converteVoltsParaLux$1071+3)^(0+384)
  3342     04D2  0874               	movf	?___xxtofl+2,w
  3343     04D3  00BA               	movwf	(_converteVoltsParaLux$1071+2)^(0+384)
  3344     04D4  0873               	movf	?___xxtofl+1,w
  3345     04D5  00B9               	movwf	(_converteVoltsParaLux$1071+1)^(0+384)
  3346     04D6  0872               	movf	?___xxtofl,w
  3347     04D7  00B8               	movwf	_converteVoltsParaLux$1071^(0+384)
  3348     04D8                     l4069:
  3349                           
  3350                           ;newmain.c: 220:     float l_ldr =
  3351     04D8  3043               	movlw	67
  3352     04D9  1683               	bsf	3,5	;RP0=1, select bank1
  3353     04DA  1303               	bcf	3,6	;RP1=0, select bank1
  3354     04DB  00B0               	movwf	(log10@x+3)^(0+128)
  3355     04DC  30C8               	movlw	200
  3356     04DD  00AF               	movwf	(log10@x+2)^(0+128)
  3357     04DE  3000               	movlw	0
  3358     04DF  00AE               	movwf	(log10@x+1)^(0+128)
  3359     04E0  3000               	movlw	0
  3360     04E1  00AD               	movwf	log10@x^(0+128)
  3361     04E2  160A  158A  274E  120A  118A  	fcall	_log10
  3362     04E7  1683               	bsf	3,5	;RP0=1, select bank1
  3363     04E8  1303               	bcf	3,6	;RP1=0, select bank1
  3364     04E9  0830               	movf	(?_log10+3)^(0+128),w
  3365     04EA  00B8               	movwf	(___flsub@a+3)^(0+128)
  3366     04EB  082F               	movf	(?_log10+2)^(0+128),w
  3367     04EC  00B7               	movwf	(___flsub@a+2)^(0+128)
  3368     04ED  082E               	movf	(?_log10+1)^(0+128),w
  3369     04EE  00B6               	movwf	(___flsub@a+1)^(0+128)
  3370     04EF  082D               	movf	?_log10^(0+128),w
  3371     04F0  00B5               	movwf	___flsub@a^(0+128)
  3372     04F1  1683               	bsf	3,5	;RP0=1, select bank3
  3373     04F2  1703               	bsf	3,6	;RP1=1, select bank3
  3374     04F3  083B               	movf	(_converteVoltsParaLux$1071+3)^(0+384),w
  3375     04F4  1683               	bsf	3,5	;RP0=1, select bank1
  3376     04F5  1303               	bcf	3,6	;RP1=0, select bank1
  3377     04F6  00B0               	movwf	(log10@x+3)^(0+128)
  3378     04F7  1683               	bsf	3,5	;RP0=1, select bank3
  3379     04F8  1703               	bsf	3,6	;RP1=1, select bank3
  3380     04F9  083A               	movf	(_converteVoltsParaLux$1071+2)^(0+384),w
  3381     04FA  1683               	bsf	3,5	;RP0=1, select bank1
  3382     04FB  1303               	bcf	3,6	;RP1=0, select bank1
  3383     04FC  00AF               	movwf	(log10@x+2)^(0+128)
  3384     04FD  1683               	bsf	3,5	;RP0=1, select bank3
  3385     04FE  1703               	bsf	3,6	;RP1=1, select bank3
  3386     04FF  0839               	movf	(_converteVoltsParaLux$1071+1)^(0+384),w
  3387     0500  1683               	bsf	3,5	;RP0=1, select bank1
  3388     0501  1303               	bcf	3,6	;RP1=0, select bank1
  3389     0502  00AE               	movwf	(log10@x+1)^(0+128)
  3390     0503  1683               	bsf	3,5	;RP0=1, select bank3
  3391     0504  1703               	bsf	3,6	;RP1=1, select bank3
  3392     0505  0838               	movf	_converteVoltsParaLux$1071^(0+384),w
  3393     0506  1683               	bsf	3,5	;RP0=1, select bank1
  3394     0507  1303               	bcf	3,6	;RP1=0, select bank1
  3395     0508  00AD               	movwf	log10@x^(0+128)
  3396     0509  160A  158A  274E  120A  118A  	fcall	_log10
  3397     050E  1683               	bsf	3,5	;RP0=1, select bank1
  3398     050F  1303               	bcf	3,6	;RP1=0, select bank1
  3399     0510  0830               	movf	(?_log10+3)^(0+128),w
  3400     0511  00BC               	movwf	(___flsub@b+3)^(0+128)
  3401     0512  082F               	movf	(?_log10+2)^(0+128),w
  3402     0513  00BB               	movwf	(___flsub@b+2)^(0+128)
  3403     0514  082E               	movf	(?_log10+1)^(0+128),w
  3404     0515  00BA               	movwf	(___flsub@b+1)^(0+128)
  3405     0516  082D               	movf	?_log10^(0+128),w
  3406     0517  00B9               	movwf	___flsub@b^(0+128)
  3407     0518  160A  158A  26A5  120A  118A  	fcall	___flsub
  3408     051D  1683               	bsf	3,5	;RP0=1, select bank1
  3409     051E  1303               	bcf	3,6	;RP1=0, select bank1
  3410     051F  0838               	movf	(?___flsub+3)^(0+128),w
  3411     0520  1683               	bsf	3,5	;RP0=1, select bank3
  3412     0521  1703               	bsf	3,6	;RP1=1, select bank3
  3413     0522  00BF               	movwf	(_converteVoltsParaLux$1072+3)^(0+384)
  3414     0523  1683               	bsf	3,5	;RP0=1, select bank1
  3415     0524  1303               	bcf	3,6	;RP1=0, select bank1
  3416     0525  0837               	movf	(?___flsub+2)^(0+128),w
  3417     0526  1683               	bsf	3,5	;RP0=1, select bank3
  3418     0527  1703               	bsf	3,6	;RP1=1, select bank3
  3419     0528  00BE               	movwf	(_converteVoltsParaLux$1072+2)^(0+384)
  3420     0529  1683               	bsf	3,5	;RP0=1, select bank1
  3421     052A  1303               	bcf	3,6	;RP1=0, select bank1
  3422     052B  0836               	movf	(?___flsub+1)^(0+128),w
  3423     052C  1683               	bsf	3,5	;RP0=1, select bank3
  3424     052D  1703               	bsf	3,6	;RP1=1, select bank3
  3425     052E  00BD               	movwf	(_converteVoltsParaLux$1072+1)^(0+384)
  3426     052F  1683               	bsf	3,5	;RP0=1, select bank1
  3427     0530  1303               	bcf	3,6	;RP1=0, select bank1
  3428     0531  0835               	movf	?___flsub^(0+128),w
  3429     0532  1683               	bsf	3,5	;RP0=1, select bank3
  3430     0533  1703               	bsf	3,6	;RP1=1, select bank3
  3431     0534  00BC               	movwf	_converteVoltsParaLux$1072^(0+384)
  3432     0535                     l4071:
  3433                           
  3434                           ;newmain.c: 220:     float l_ldr =
  3435     0535  30BF               	movlw	191
  3436     0536  009E               	movwf	(pow@y+3)^(0+384)
  3437     0537  3080               	movlw	128
  3438     0538  009D               	movwf	(pow@y+2)^(0+384)
  3439     0539  3000               	movlw	0
  3440     053A  009C               	movwf	(pow@y+1)^(0+384)
  3441     053B  3000               	movlw	0
  3442     053C  009B               	movwf	pow@y^(0+384)
  3443     053D  084D               	movf	(converteVoltsParaLux@b+3)^(0+384),w
  3444     053E  009A               	movwf	(pow@x+3)^(0+384)
  3445     053F  084C               	movf	(converteVoltsParaLux@b+2)^(0+384),w
  3446     0540  0099               	movwf	(pow@x+2)^(0+384)
  3447     0541  084B               	movf	(converteVoltsParaLux@b+1)^(0+384),w
  3448     0542  0098               	movwf	(pow@x+1)^(0+384)
  3449     0543  084A               	movf	converteVoltsParaLux@b^(0+384),w
  3450     0544  0097               	movwf	pow@x^(0+384)
  3451     0545  120A  158A  2160  120A  118A  	fcall	_pow
  3452     054A  1683               	bsf	3,5	;RP0=1, select bank3
  3453     054B  1703               	bsf	3,6	;RP1=1, select bank3
  3454     054C  081A               	movf	(?_pow+3)^(0+384),w
  3455     054D  00C3               	movwf	(_converteVoltsParaLux$1073+3)^(0+384)
  3456     054E  0819               	movf	(?_pow+2)^(0+384),w
  3457     054F  00C2               	movwf	(_converteVoltsParaLux$1073+2)^(0+384)
  3458     0550  0818               	movf	(?_pow+1)^(0+384),w
  3459     0551  00C1               	movwf	(_converteVoltsParaLux$1073+1)^(0+384)
  3460     0552  0817               	movf	?_pow^(0+384),w
  3461     0553  00C0               	movwf	_converteVoltsParaLux$1073^(0+384)
  3462     0554                     l4073:
  3463                           
  3464                           ;newmain.c: 220:     float l_ldr =
  3465     0554  3044               	movlw	68
  3466     0555  1283               	bcf	3,5	;RP0=0, select bank0
  3467     0556  1303               	bcf	3,6	;RP1=0, select bank0
  3468     0557  00BC               	movwf	___flmul@b+3
  3469     0558  307A               	movlw	122
  3470     0559  00BB               	movwf	___flmul@b+2
  3471     055A  3000               	movlw	0
  3472     055B  00BA               	movwf	___flmul@b+1
  3473     055C  3000               	movlw	0
  3474     055D  00B9               	movwf	___flmul@b
  3475     055E  1683               	bsf	3,5	;RP0=1, select bank3
  3476     055F  1703               	bsf	3,6	;RP1=1, select bank3
  3477     0560  084D               	movf	(converteVoltsParaLux@b+3)^(0+384),w
  3478     0561  1283               	bcf	3,5	;RP0=0, select bank0
  3479     0562  1303               	bcf	3,6	;RP1=0, select bank0
  3480     0563  00C0               	movwf	___flmul@a+3
  3481     0564  1683               	bsf	3,5	;RP0=1, select bank3
  3482     0565  1703               	bsf	3,6	;RP1=1, select bank3
  3483     0566  084C               	movf	(converteVoltsParaLux@b+2)^(0+384),w
  3484     0567  1283               	bcf	3,5	;RP0=0, select bank0
  3485     0568  1303               	bcf	3,6	;RP1=0, select bank0
  3486     0569  00BF               	movwf	___flmul@a+2
  3487     056A  1683               	bsf	3,5	;RP0=1, select bank3
  3488     056B  1703               	bsf	3,6	;RP1=1, select bank3
  3489     056C  084B               	movf	(converteVoltsParaLux@b+1)^(0+384),w
  3490     056D  1283               	bcf	3,5	;RP0=0, select bank0
  3491     056E  1303               	bcf	3,6	;RP1=0, select bank0
  3492     056F  00BE               	movwf	___flmul@a+1
  3493     0570  1683               	bsf	3,5	;RP0=1, select bank3
  3494     0571  1703               	bsf	3,6	;RP1=1, select bank3
  3495     0572  084A               	movf	converteVoltsParaLux@b^(0+384),w
  3496     0573  1283               	bcf	3,5	;RP0=0, select bank0
  3497     0574  1303               	bcf	3,6	;RP1=0, select bank0
  3498     0575  00BD               	movwf	___flmul@a
  3499     0576  120A  118A  203B  120A  118A  	fcall	___flmul
  3500     057B  1283               	bcf	3,5	;RP0=0, select bank0
  3501     057C  1303               	bcf	3,6	;RP1=0, select bank0
  3502     057D  083C               	movf	?___flmul+3,w
  3503     057E  00D6               	movwf	___fladd@b+3
  3504     057F  083B               	movf	?___flmul+2,w
  3505     0580  00D5               	movwf	___fladd@b+2
  3506     0581  083A               	movf	?___flmul+1,w
  3507     0582  00D4               	movwf	___fladd@b+1
  3508     0583  0839               	movf	?___flmul,w
  3509     0584  00D3               	movwf	___fladd@b
  3510     0585  1683               	bsf	3,5	;RP0=1, select bank3
  3511     0586  1703               	bsf	3,6	;RP1=1, select bank3
  3512     0587  083F               	movf	(_converteVoltsParaLux$1072+3)^(0+384),w
  3513     0588  1283               	bcf	3,5	;RP0=0, select bank0
  3514     0589  1303               	bcf	3,6	;RP1=0, select bank0
  3515     058A  00DA               	movwf	___fladd@a+3
  3516     058B  1683               	bsf	3,5	;RP0=1, select bank3
  3517     058C  1703               	bsf	3,6	;RP1=1, select bank3
  3518     058D  083E               	movf	(_converteVoltsParaLux$1072+2)^(0+384),w
  3519     058E  1283               	bcf	3,5	;RP0=0, select bank0
  3520     058F  1303               	bcf	3,6	;RP1=0, select bank0
  3521     0590  00D9               	movwf	___fladd@a+2
  3522     0591  1683               	bsf	3,5	;RP0=1, select bank3
  3523     0592  1703               	bsf	3,6	;RP1=1, select bank3
  3524     0593  083D               	movf	(_converteVoltsParaLux$1072+1)^(0+384),w
  3525     0594  1283               	bcf	3,5	;RP0=0, select bank0
  3526     0595  1303               	bcf	3,6	;RP1=0, select bank0
  3527     0596  00D8               	movwf	___fladd@a+1
  3528     0597  1683               	bsf	3,5	;RP0=1, select bank3
  3529     0598  1703               	bsf	3,6	;RP1=1, select bank3
  3530     0599  083C               	movf	_converteVoltsParaLux$1072^(0+384),w
  3531     059A  1283               	bcf	3,5	;RP0=0, select bank0
  3532     059B  1303               	bcf	3,6	;RP1=0, select bank0
  3533     059C  00D7               	movwf	___fladd@a
  3534     059D  120A  158A  25A8  120A  118A  	fcall	___fladd
  3535     05A2  1283               	bcf	3,5	;RP0=0, select bank0
  3536     05A3  1303               	bcf	3,6	;RP1=0, select bank0
  3537     05A4  0856               	movf	?___fladd+3,w
  3538     05A5  1683               	bsf	3,5	;RP0=1, select bank3
  3539     05A6  1703               	bsf	3,6	;RP1=1, select bank3
  3540     05A7  00C7               	movwf	(_converteVoltsParaLux$1074+3)^(0+384)
  3541     05A8  1283               	bcf	3,5	;RP0=0, select bank0
  3542     05A9  1303               	bcf	3,6	;RP1=0, select bank0
  3543     05AA  0855               	movf	?___fladd+2,w
  3544     05AB  1683               	bsf	3,5	;RP0=1, select bank3
  3545     05AC  1703               	bsf	3,6	;RP1=1, select bank3
  3546     05AD  00C6               	movwf	(_converteVoltsParaLux$1074+2)^(0+384)
  3547     05AE  1283               	bcf	3,5	;RP0=0, select bank0
  3548     05AF  1303               	bcf	3,6	;RP1=0, select bank0
  3549     05B0  0854               	movf	?___fladd+1,w
  3550     05B1  1683               	bsf	3,5	;RP0=1, select bank3
  3551     05B2  1703               	bsf	3,6	;RP1=1, select bank3
  3552     05B3  00C5               	movwf	(_converteVoltsParaLux$1074+1)^(0+384)
  3553     05B4  1283               	bcf	3,5	;RP0=0, select bank0
  3554     05B5  1303               	bcf	3,6	;RP1=0, select bank0
  3555     05B6  0853               	movf	?___fladd,w
  3556     05B7  1683               	bsf	3,5	;RP0=1, select bank3
  3557     05B8  1703               	bsf	3,6	;RP1=1, select bank3
  3558     05B9  00C4               	movwf	_converteVoltsParaLux$1074^(0+384)
  3559     05BA                     l4075:
  3560                           
  3561                           ;newmain.c: 220:     float l_ldr =
  3562     05BA  0843               	movf	(_converteVoltsParaLux$1073+3)^(0+384),w
  3563     05BB  1283               	bcf	3,5	;RP0=0, select bank0
  3564     05BC  1303               	bcf	3,6	;RP1=0, select bank0
  3565     05BD  00BC               	movwf	___flmul@b+3
  3566     05BE  1683               	bsf	3,5	;RP0=1, select bank3
  3567     05BF  1703               	bsf	3,6	;RP1=1, select bank3
  3568     05C0  0842               	movf	(_converteVoltsParaLux$1073+2)^(0+384),w
  3569     05C1  1283               	bcf	3,5	;RP0=0, select bank0
  3570     05C2  1303               	bcf	3,6	;RP1=0, select bank0
  3571     05C3  00BB               	movwf	___flmul@b+2
  3572     05C4  1683               	bsf	3,5	;RP0=1, select bank3
  3573     05C5  1703               	bsf	3,6	;RP1=1, select bank3
  3574     05C6  0841               	movf	(_converteVoltsParaLux$1073+1)^(0+384),w
  3575     05C7  1283               	bcf	3,5	;RP0=0, select bank0
  3576     05C8  1303               	bcf	3,6	;RP1=0, select bank0
  3577     05C9  00BA               	movwf	___flmul@b+1
  3578     05CA  1683               	bsf	3,5	;RP0=1, select bank3
  3579     05CB  1703               	bsf	3,6	;RP1=1, select bank3
  3580     05CC  0840               	movf	_converteVoltsParaLux$1073^(0+384),w
  3581     05CD  1283               	bcf	3,5	;RP0=0, select bank0
  3582     05CE  1303               	bcf	3,6	;RP1=0, select bank0
  3583     05CF  00B9               	movwf	___flmul@b
  3584     05D0  1683               	bsf	3,5	;RP0=1, select bank3
  3585     05D1  1703               	bsf	3,6	;RP1=1, select bank3
  3586     05D2  0847               	movf	(_converteVoltsParaLux$1074+3)^(0+384),w
  3587     05D3  1283               	bcf	3,5	;RP0=0, select bank0
  3588     05D4  1303               	bcf	3,6	;RP1=0, select bank0
  3589     05D5  00C0               	movwf	___flmul@a+3
  3590     05D6  1683               	bsf	3,5	;RP0=1, select bank3
  3591     05D7  1703               	bsf	3,6	;RP1=1, select bank3
  3592     05D8  0846               	movf	(_converteVoltsParaLux$1074+2)^(0+384),w
  3593     05D9  1283               	bcf	3,5	;RP0=0, select bank0
  3594     05DA  1303               	bcf	3,6	;RP1=0, select bank0
  3595     05DB  00BF               	movwf	___flmul@a+2
  3596     05DC  1683               	bsf	3,5	;RP0=1, select bank3
  3597     05DD  1703               	bsf	3,6	;RP1=1, select bank3
  3598     05DE  0845               	movf	(_converteVoltsParaLux$1074+1)^(0+384),w
  3599     05DF  1283               	bcf	3,5	;RP0=0, select bank0
  3600     05E0  1303               	bcf	3,6	;RP1=0, select bank0
  3601     05E1  00BE               	movwf	___flmul@a+1
  3602     05E2  1683               	bsf	3,5	;RP0=1, select bank3
  3603     05E3  1703               	bsf	3,6	;RP1=1, select bank3
  3604     05E4  0844               	movf	_converteVoltsParaLux$1074^(0+384),w
  3605     05E5  1283               	bcf	3,5	;RP0=0, select bank0
  3606     05E6  1303               	bcf	3,6	;RP1=0, select bank0
  3607     05E7  00BD               	movwf	___flmul@a
  3608     05E8  120A  118A  203B  120A  118A  	fcall	___flmul
  3609     05ED  1283               	bcf	3,5	;RP0=0, select bank0
  3610     05EE  1303               	bcf	3,6	;RP1=0, select bank0
  3611     05EF  083C               	movf	?___flmul+3,w
  3612     05F0  1683               	bsf	3,5	;RP0=1, select bank3
  3613     05F1  1703               	bsf	3,6	;RP1=1, select bank3
  3614     05F2  00B3               	movwf	(converteVoltsParaLux@l_ldr+3)^(0+384)
  3615     05F3  1283               	bcf	3,5	;RP0=0, select bank0
  3616     05F4  1303               	bcf	3,6	;RP1=0, select bank0
  3617     05F5  083B               	movf	?___flmul+2,w
  3618     05F6  1683               	bsf	3,5	;RP0=1, select bank3
  3619     05F7  1703               	bsf	3,6	;RP1=1, select bank3
  3620     05F8  00B2               	movwf	(converteVoltsParaLux@l_ldr+2)^(0+384)
  3621     05F9  1283               	bcf	3,5	;RP0=0, select bank0
  3622     05FA  1303               	bcf	3,6	;RP1=0, select bank0
  3623     05FB  083A               	movf	?___flmul+1,w
  3624     05FC  1683               	bsf	3,5	;RP0=1, select bank3
  3625     05FD  1703               	bsf	3,6	;RP1=1, select bank3
  3626     05FE  00B1               	movwf	(converteVoltsParaLux@l_ldr+1)^(0+384)
  3627     05FF  1283               	bcf	3,5	;RP0=0, select bank0
  3628     0600  1303               	bcf	3,6	;RP1=0, select bank0
  3629     0601  0839               	movf	?___flmul,w
  3630     0602  1683               	bsf	3,5	;RP0=1, select bank3
  3631     0603  1703               	bsf	3,6	;RP1=1, select bank3
  3632     0604  00B0               	movwf	converteVoltsParaLux@l_ldr^(0+384)
  3633     0605                     l4077:
  3634                           
  3635                           ;newmain.c: 232:     return l_ldr;
  3636     0605  0833               	movf	(converteVoltsParaLux@l_ldr+3)^(0+384),w
  3637     0606  1683               	bsf	3,5	;RP0=1, select bank1
  3638     0607  1303               	bcf	3,6	;RP1=0, select bank1
  3639     0608  00DA               	movwf	(___fltol@f1+3)^(0+128)
  3640     0609  1683               	bsf	3,5	;RP0=1, select bank3
  3641     060A  1703               	bsf	3,6	;RP1=1, select bank3
  3642     060B  0832               	movf	(converteVoltsParaLux@l_ldr+2)^(0+384),w
  3643     060C  1683               	bsf	3,5	;RP0=1, select bank1
  3644     060D  1303               	bcf	3,6	;RP1=0, select bank1
  3645     060E  00D9               	movwf	(___fltol@f1+2)^(0+128)
  3646     060F  1683               	bsf	3,5	;RP0=1, select bank3
  3647     0610  1703               	bsf	3,6	;RP1=1, select bank3
  3648     0611  0831               	movf	(converteVoltsParaLux@l_ldr+1)^(0+384),w
  3649     0612  1683               	bsf	3,5	;RP0=1, select bank1
  3650     0613  1303               	bcf	3,6	;RP1=0, select bank1
  3651     0614  00D8               	movwf	(___fltol@f1+1)^(0+128)
  3652     0615  1683               	bsf	3,5	;RP0=1, select bank3
  3653     0616  1703               	bsf	3,6	;RP1=1, select bank3
  3654     0617  0830               	movf	converteVoltsParaLux@l_ldr^(0+384),w
  3655     0618  1683               	bsf	3,5	;RP0=1, select bank1
  3656     0619  1303               	bcf	3,6	;RP1=0, select bank1
  3657     061A  00D7               	movwf	___fltol@f1^(0+128)
  3658     061B  160A  118A  217F  120A  118A  	fcall	___fltol
  3659     0620  1683               	bsf	3,5	;RP0=1, select bank1
  3660     0621  1303               	bcf	3,6	;RP1=0, select bank1
  3661     0622  0858               	movf	(?___fltol+1)^(0+128),w
  3662     0623  1683               	bsf	3,5	;RP0=1, select bank3
  3663     0624  1703               	bsf	3,6	;RP1=1, select bank3
  3664     0625  00AD               	movwf	(?_converteVoltsParaLux+1)^(0+384)
  3665     0626  1683               	bsf	3,5	;RP0=1, select bank1
  3666     0627  1303               	bcf	3,6	;RP1=0, select bank1
  3667     0628  0857               	movf	?___fltol^(0+128),w
  3668     0629  1683               	bsf	3,5	;RP0=1, select bank3
  3669     062A  1703               	bsf	3,6	;RP1=1, select bank3
  3670     062B  00AC               	movwf	?_converteVoltsParaLux^(0+384)
  3671     062C                     l154:
  3672     062C  0008               	return
  3673     062D                     __end_of_converteVoltsParaLux:
  3674                           
  3675                           	psect	text14
  3676     0960                     __ptext14:	
  3677 ;; *************** function _pow *****************
  3678 ;; Defined at:
  3679 ;;		line 5 in file "C:\Program Files\Microchip\xc8\v2.41\pic\sources\c90\common\pow.c"
  3680 ;; Parameters:    Size  Location     Type
  3681 ;;  x               4    7[BANK3 ] int 
  3682 ;;  y               4   11[BANK3 ] int 
  3683 ;; Auto vars:     Size  Location     Type
  3684 ;;  yi              4   24[BANK3 ] unsigned long 
  3685 ;;  sign            1   23[BANK3 ] unsigned char 
  3686 ;; Return value:  Size  Location     Type
  3687 ;;                  4    7[BANK3 ] unsigned char 
  3688 ;; Registers used:
  3689 ;;		wreg, fsr0l, fsr0h, status,2, status,0, btemp+1, pclath, cstack
  3690 ;; Tracked objects:
  3691 ;;		On entry : 0/0
  3692 ;;		On exit  : 0/0
  3693 ;;		Unchanged: 0/0
  3694 ;; Data sizes:     COMMON   BANK0   BANK1   BANK3   BANK2
  3695 ;;      Params:         0       0       0       8       0
  3696 ;;      Locals:         0       0       0      13       0
  3697 ;;      Temps:          0       0       0       0       0
  3698 ;;      Totals:         0       0       0      21       0
  3699 ;;Total ram usage:       21 bytes
  3700 ;; Hardware stack levels used: 1
  3701 ;; Hardware stack levels required when called: 5
  3702 ;; This function calls:
  3703 ;;		___fleq
  3704 ;;		___flge
  3705 ;;		___flmul
  3706 ;;		___flneg
  3707 ;;		___fltol
  3708 ;;		___xxtofl
  3709 ;;		_exp
  3710 ;;		_log
  3711 ;; This function is called by:
  3712 ;;		_converteVoltsParaLux
  3713 ;; This function uses a non-reentrant model
  3714 ;;
  3715                           
  3716     0960                     _pow:	
  3717                           ;psect for function _pow
  3718                           
  3719     0960                     l3953:	
  3720                           ;incstack = 0
  3721                           ; Regs used in _pow: [wreg-fsr0h+status,2+status,0+btemp+1+pclath+cstack]
  3722                           
  3723     0960  1683               	bsf	3,5	;RP0=1, select bank3
  3724     0961  1703               	bsf	3,6	;RP1=1, select bank3
  3725     0962  01A7               	clrf	pow@sign^(0+384)
  3726     0963                     l3955:
  3727     0963  081A               	movf	(pow@x+3)^(0+384),w
  3728     0964  1283               	bcf	3,5	;RP0=0, select bank0
  3729     0965  1303               	bcf	3,6	;RP1=0, select bank0
  3730     0966  00A9               	movwf	___fleq@ff1+3
  3731     0967  1683               	bsf	3,5	;RP0=1, select bank3
  3732     0968  1703               	bsf	3,6	;RP1=1, select bank3
  3733     0969  0819               	movf	(pow@x+2)^(0+384),w
  3734     096A  1283               	bcf	3,5	;RP0=0, select bank0
  3735     096B  1303               	bcf	3,6	;RP1=0, select bank0
  3736     096C  00A8               	movwf	___fleq@ff1+2
  3737     096D  1683               	bsf	3,5	;RP0=1, select bank3
  3738     096E  1703               	bsf	3,6	;RP1=1, select bank3
  3739     096F  0818               	movf	(pow@x+1)^(0+384),w
  3740     0970  1283               	bcf	3,5	;RP0=0, select bank0
  3741     0971  1303               	bcf	3,6	;RP1=0, select bank0
  3742     0972  00A7               	movwf	___fleq@ff1+1
  3743     0973  1683               	bsf	3,5	;RP0=1, select bank3
  3744     0974  1703               	bsf	3,6	;RP1=1, select bank3
  3745     0975  0817               	movf	pow@x^(0+384),w
  3746     0976  1283               	bcf	3,5	;RP0=0, select bank0
  3747     0977  1303               	bcf	3,6	;RP1=0, select bank0
  3748     0978  00A6               	movwf	___fleq@ff1
  3749     0979  3000               	movlw	0
  3750     097A  00AD               	movwf	___fleq@ff2+3
  3751     097B  3000               	movlw	0
  3752     097C  00AC               	movwf	___fleq@ff2+2
  3753     097D  3000               	movlw	0
  3754     097E  00AB               	movwf	___fleq@ff2+1
  3755     097F  3000               	movlw	0
  3756     0980  00AA               	movwf	___fleq@ff2
  3757     0981  160A  158A  2655  120A  158A  	fcall	___fleq
  3758     0986  1C03               	btfss	3,0
  3759     0987  2989               	goto	u5911
  3760     0988  298A               	goto	u5910
  3761     0989                     u5911:
  3762     0989  29B6               	goto	l3963
  3763     098A                     u5910:
  3764     098A                     l3957:
  3765     098A  3000               	movlw	0
  3766     098B  00F5               	movwf	___flge@ff1+3
  3767     098C  3000               	movlw	0
  3768     098D  00F4               	movwf	___flge@ff1+2
  3769     098E  3000               	movlw	0
  3770     098F  00F3               	movwf	___flge@ff1+1
  3771     0990  3000               	movlw	0
  3772     0991  00F2               	movwf	___flge@ff1
  3773     0992  1683               	bsf	3,5	;RP0=1, select bank3
  3774     0993  1703               	bsf	3,6	;RP1=1, select bank3
  3775     0994  081E               	movf	(pow@y+3)^(0+384),w
  3776     0995  00F9               	movwf	___flge@ff2+3
  3777     0996  081D               	movf	(pow@y+2)^(0+384),w
  3778     0997  00F8               	movwf	___flge@ff2+2
  3779     0998  081C               	movf	(pow@y+1)^(0+384),w
  3780     0999  00F7               	movwf	___flge@ff2+1
  3781     099A  081B               	movf	pow@y^(0+384),w
  3782     099B  00F6               	movwf	___flge@ff2
  3783     099C  160A  118A  21F7  120A  158A  	fcall	___flge
  3784     09A1  1C03               	btfss	3,0
  3785     09A2  29A4               	goto	u5921
  3786     09A3  29A5               	goto	u5920
  3787     09A4                     u5921:
  3788     09A4  29AB               	goto	l746
  3789     09A5                     u5920:
  3790     09A5                     l3959:
  3791     09A5  3021               	movlw	33
  3792     09A6  1283               	bcf	3,5	;RP0=0, select bank2
  3793     09A7  1703               	bsf	3,6	;RP1=1, select bank2
  3794     09A8  0090               	movwf	_errno^(0+256)
  3795     09A9  3000               	movlw	0
  3796     09AA  0091               	movwf	(_errno^(0+256)+1)
  3797     09AB                     l746:
  3798     09AB  3000               	movlw	0
  3799     09AC  1683               	bsf	3,5	;RP0=1, select bank3
  3800     09AD  1703               	bsf	3,6	;RP1=1, select bank3
  3801     09AE  009A               	movwf	(?_pow+3)^(0+384)
  3802     09AF  3000               	movlw	0
  3803     09B0  0099               	movwf	(?_pow+2)^(0+384)
  3804     09B1  3000               	movlw	0
  3805     09B2  0098               	movwf	(?_pow+1)^(0+384)
  3806     09B3  3000               	movlw	0
  3807     09B4  0097               	movwf	?_pow^(0+384)
  3808     09B5  2B70               	goto	l747
  3809     09B6                     l3963:
  3810     09B6  1683               	bsf	3,5	;RP0=1, select bank3
  3811     09B7  1703               	bsf	3,6	;RP1=1, select bank3
  3812     09B8  081E               	movf	(pow@y+3)^(0+384),w
  3813     09B9  1283               	bcf	3,5	;RP0=0, select bank0
  3814     09BA  1303               	bcf	3,6	;RP1=0, select bank0
  3815     09BB  00A9               	movwf	___fleq@ff1+3
  3816     09BC  1683               	bsf	3,5	;RP0=1, select bank3
  3817     09BD  1703               	bsf	3,6	;RP1=1, select bank3
  3818     09BE  081D               	movf	(pow@y+2)^(0+384),w
  3819     09BF  1283               	bcf	3,5	;RP0=0, select bank0
  3820     09C0  1303               	bcf	3,6	;RP1=0, select bank0
  3821     09C1  00A8               	movwf	___fleq@ff1+2
  3822     09C2  1683               	bsf	3,5	;RP0=1, select bank3
  3823     09C3  1703               	bsf	3,6	;RP1=1, select bank3
  3824     09C4  081C               	movf	(pow@y+1)^(0+384),w
  3825     09C5  1283               	bcf	3,5	;RP0=0, select bank0
  3826     09C6  1303               	bcf	3,6	;RP1=0, select bank0
  3827     09C7  00A7               	movwf	___fleq@ff1+1
  3828     09C8  1683               	bsf	3,5	;RP0=1, select bank3
  3829     09C9  1703               	bsf	3,6	;RP1=1, select bank3
  3830     09CA  081B               	movf	pow@y^(0+384),w
  3831     09CB  1283               	bcf	3,5	;RP0=0, select bank0
  3832     09CC  1303               	bcf	3,6	;RP1=0, select bank0
  3833     09CD  00A6               	movwf	___fleq@ff1
  3834     09CE  3000               	movlw	0
  3835     09CF  00AD               	movwf	___fleq@ff2+3
  3836     09D0  3000               	movlw	0
  3837     09D1  00AC               	movwf	___fleq@ff2+2
  3838     09D2  3000               	movlw	0
  3839     09D3  00AB               	movwf	___fleq@ff2+1
  3840     09D4  3000               	movlw	0
  3841     09D5  00AA               	movwf	___fleq@ff2
  3842     09D6  160A  158A  2655  120A  158A  	fcall	___fleq
  3843     09DB  1C03               	btfss	3,0
  3844     09DC  29DE               	goto	u5931
  3845     09DD  29DF               	goto	u5930
  3846     09DE                     u5931:
  3847     09DE  29EA               	goto	l3969
  3848     09DF                     u5930:
  3849     09DF                     l3965:
  3850     09DF  303F               	movlw	63
  3851     09E0  1683               	bsf	3,5	;RP0=1, select bank3
  3852     09E1  1703               	bsf	3,6	;RP1=1, select bank3
  3853     09E2  009A               	movwf	(?_pow+3)^(0+384)
  3854     09E3  3080               	movlw	128
  3855     09E4  0099               	movwf	(?_pow+2)^(0+384)
  3856     09E5  3000               	movlw	0
  3857     09E6  0098               	movwf	(?_pow+1)^(0+384)
  3858     09E7  3000               	movlw	0
  3859     09E8  0097               	movwf	?_pow^(0+384)
  3860     09E9  2B70               	goto	l747
  3861     09EA                     l3969:
  3862     09EA  1683               	bsf	3,5	;RP0=1, select bank3
  3863     09EB  1703               	bsf	3,6	;RP1=1, select bank3
  3864     09EC  081A               	movf	(pow@x+3)^(0+384),w
  3865     09ED  00F5               	movwf	___flge@ff1+3
  3866     09EE  0819               	movf	(pow@x+2)^(0+384),w
  3867     09EF  00F4               	movwf	___flge@ff1+2
  3868     09F0  0818               	movf	(pow@x+1)^(0+384),w
  3869     09F1  00F3               	movwf	___flge@ff1+1
  3870     09F2  0817               	movf	pow@x^(0+384),w
  3871     09F3  00F2               	movwf	___flge@ff1
  3872     09F4  3000               	movlw	0
  3873     09F5  00F9               	movwf	___flge@ff2+3
  3874     09F6  3000               	movlw	0
  3875     09F7  00F8               	movwf	___flge@ff2+2
  3876     09F8  3000               	movlw	0
  3877     09F9  00F7               	movwf	___flge@ff2+1
  3878     09FA  3000               	movlw	0
  3879     09FB  00F6               	movwf	___flge@ff2
  3880     09FC  160A  118A  21F7  120A  158A  	fcall	___flge
  3881     0A01  1803               	btfsc	3,0
  3882     0A02  2A04               	goto	u5941
  3883     0A03  2A05               	goto	u5940
  3884     0A04                     u5941:
  3885     0A04  2AA0               	goto	l3981
  3886     0A05                     u5940:
  3887     0A05                     l3971:
  3888     0A05  1683               	bsf	3,5	;RP0=1, select bank3
  3889     0A06  1703               	bsf	3,6	;RP1=1, select bank3
  3890     0A07  081E               	movf	(pow@y+3)^(0+384),w
  3891     0A08  1683               	bsf	3,5	;RP0=1, select bank1
  3892     0A09  1303               	bcf	3,6	;RP1=0, select bank1
  3893     0A0A  00DA               	movwf	(___fltol@f1+3)^(0+128)
  3894     0A0B  1683               	bsf	3,5	;RP0=1, select bank3
  3895     0A0C  1703               	bsf	3,6	;RP1=1, select bank3
  3896     0A0D  081D               	movf	(pow@y+2)^(0+384),w
  3897     0A0E  1683               	bsf	3,5	;RP0=1, select bank1
  3898     0A0F  1303               	bcf	3,6	;RP1=0, select bank1
  3899     0A10  00D9               	movwf	(___fltol@f1+2)^(0+128)
  3900     0A11  1683               	bsf	3,5	;RP0=1, select bank3
  3901     0A12  1703               	bsf	3,6	;RP1=1, select bank3
  3902     0A13  081C               	movf	(pow@y+1)^(0+384),w
  3903     0A14  1683               	bsf	3,5	;RP0=1, select bank1
  3904     0A15  1303               	bcf	3,6	;RP1=0, select bank1
  3905     0A16  00D8               	movwf	(___fltol@f1+1)^(0+128)
  3906     0A17  1683               	bsf	3,5	;RP0=1, select bank3
  3907     0A18  1703               	bsf	3,6	;RP1=1, select bank3
  3908     0A19  081B               	movf	pow@y^(0+384),w
  3909     0A1A  1683               	bsf	3,5	;RP0=1, select bank1
  3910     0A1B  1303               	bcf	3,6	;RP1=0, select bank1
  3911     0A1C  00D7               	movwf	___fltol@f1^(0+128)
  3912     0A1D  160A  118A  217F  120A  158A  	fcall	___fltol
  3913     0A22  1683               	bsf	3,5	;RP0=1, select bank1
  3914     0A23  1303               	bcf	3,6	;RP1=0, select bank1
  3915     0A24  085A               	movf	(?___fltol+3)^(0+128),w
  3916     0A25  1683               	bsf	3,5	;RP0=1, select bank3
  3917     0A26  1703               	bsf	3,6	;RP1=1, select bank3
  3918     0A27  00AB               	movwf	(pow@yi+3)^(0+384)
  3919     0A28  1683               	bsf	3,5	;RP0=1, select bank1
  3920     0A29  1303               	bcf	3,6	;RP1=0, select bank1
  3921     0A2A  0859               	movf	(?___fltol+2)^(0+128),w
  3922     0A2B  1683               	bsf	3,5	;RP0=1, select bank3
  3923     0A2C  1703               	bsf	3,6	;RP1=1, select bank3
  3924     0A2D  00AA               	movwf	(pow@yi+2)^(0+384)
  3925     0A2E  1683               	bsf	3,5	;RP0=1, select bank1
  3926     0A2F  1303               	bcf	3,6	;RP1=0, select bank1
  3927     0A30  0858               	movf	(?___fltol+1)^(0+128),w
  3928     0A31  1683               	bsf	3,5	;RP0=1, select bank3
  3929     0A32  1703               	bsf	3,6	;RP1=1, select bank3
  3930     0A33  00A9               	movwf	(pow@yi+1)^(0+384)
  3931     0A34  1683               	bsf	3,5	;RP0=1, select bank1
  3932     0A35  1303               	bcf	3,6	;RP1=0, select bank1
  3933     0A36  0857               	movf	?___fltol^(0+128),w
  3934     0A37  1683               	bsf	3,5	;RP0=1, select bank3
  3935     0A38  1703               	bsf	3,6	;RP1=1, select bank3
  3936     0A39  00A8               	movwf	pow@yi^(0+384)
  3937     0A3A  082B               	movf	(pow@yi+3)^(0+384),w
  3938     0A3B  00F5               	movwf	___xxtofl@val+3
  3939     0A3C  082A               	movf	(pow@yi+2)^(0+384),w
  3940     0A3D  00F4               	movwf	___xxtofl@val+2
  3941     0A3E  0829               	movf	(pow@yi+1)^(0+384),w
  3942     0A3F  00F3               	movwf	___xxtofl@val+1
  3943     0A40  0828               	movf	pow@yi^(0+384),w
  3944     0A41  00F2               	movwf	___xxtofl@val
  3945     0A42  3000               	movlw	0
  3946     0A43  160A  118A  2342  120A  158A  	fcall	___xxtofl
  3947     0A48  0875               	movf	?___xxtofl+3,w
  3948     0A49  1283               	bcf	3,5	;RP0=0, select bank0
  3949     0A4A  1303               	bcf	3,6	;RP1=0, select bank0
  3950     0A4B  00A9               	movwf	___fleq@ff1+3
  3951     0A4C  0874               	movf	?___xxtofl+2,w
  3952     0A4D  00A8               	movwf	___fleq@ff1+2
  3953     0A4E  0873               	movf	?___xxtofl+1,w
  3954     0A4F  00A7               	movwf	___fleq@ff1+1
  3955     0A50  0872               	movf	?___xxtofl,w
  3956     0A51  00A6               	movwf	___fleq@ff1
  3957     0A52  1683               	bsf	3,5	;RP0=1, select bank3
  3958     0A53  1703               	bsf	3,6	;RP1=1, select bank3
  3959     0A54  081E               	movf	(pow@y+3)^(0+384),w
  3960     0A55  1283               	bcf	3,5	;RP0=0, select bank0
  3961     0A56  1303               	bcf	3,6	;RP1=0, select bank0
  3962     0A57  00AD               	movwf	___fleq@ff2+3
  3963     0A58  1683               	bsf	3,5	;RP0=1, select bank3
  3964     0A59  1703               	bsf	3,6	;RP1=1, select bank3
  3965     0A5A  081D               	movf	(pow@y+2)^(0+384),w
  3966     0A5B  1283               	bcf	3,5	;RP0=0, select bank0
  3967     0A5C  1303               	bcf	3,6	;RP1=0, select bank0
  3968     0A5D  00AC               	movwf	___fleq@ff2+2
  3969     0A5E  1683               	bsf	3,5	;RP0=1, select bank3
  3970     0A5F  1703               	bsf	3,6	;RP1=1, select bank3
  3971     0A60  081C               	movf	(pow@y+1)^(0+384),w
  3972     0A61  1283               	bcf	3,5	;RP0=0, select bank0
  3973     0A62  1303               	bcf	3,6	;RP1=0, select bank0
  3974     0A63  00AB               	movwf	___fleq@ff2+1
  3975     0A64  1683               	bsf	3,5	;RP0=1, select bank3
  3976     0A65  1703               	bsf	3,6	;RP1=1, select bank3
  3977     0A66  081B               	movf	pow@y^(0+384),w
  3978     0A67  1283               	bcf	3,5	;RP0=0, select bank0
  3979     0A68  1303               	bcf	3,6	;RP1=0, select bank0
  3980     0A69  00AA               	movwf	___fleq@ff2
  3981     0A6A  160A  158A  2655  120A  158A  	fcall	___fleq
  3982     0A6F  1803               	btfsc	3,0
  3983     0A70  2A72               	goto	u5951
  3984     0A71  2A73               	goto	u5950
  3985     0A72                     u5951:
  3986     0A72  2A84               	goto	l3977
  3987     0A73                     u5950:
  3988     0A73                     l3973:
  3989     0A73  3021               	movlw	33
  3990     0A74  1283               	bcf	3,5	;RP0=0, select bank2
  3991     0A75  1703               	bsf	3,6	;RP1=1, select bank2
  3992     0A76  0090               	movwf	_errno^(0+256)
  3993     0A77  3000               	movlw	0
  3994     0A78  0091               	movwf	(_errno^(0+256)+1)
  3995     0A79  3000               	movlw	0
  3996     0A7A  1683               	bsf	3,5	;RP0=1, select bank3
  3997     0A7B  1703               	bsf	3,6	;RP1=1, select bank3
  3998     0A7C  009A               	movwf	(?_pow+3)^(0+384)
  3999     0A7D  3000               	movlw	0
  4000     0A7E  0099               	movwf	(?_pow+2)^(0+384)
  4001     0A7F  3000               	movlw	0
  4002     0A80  0098               	movwf	(?_pow+1)^(0+384)
  4003     0A81  3000               	movlw	0
  4004     0A82  0097               	movwf	?_pow^(0+384)
  4005     0A83  2B70               	goto	l747
  4006     0A84                     l3977:
  4007     0A84  1683               	bsf	3,5	;RP0=1, select bank3
  4008     0A85  1703               	bsf	3,6	;RP1=1, select bank3
  4009     0A86  0828               	movf	pow@yi^(0+384),w
  4010     0A87  3901               	andlw	1
  4011     0A88  00A7               	movwf	pow@sign^(0+384)
  4012     0A89                     l3979:
  4013     0A89  081A               	movf	(pow@x+3)^(0+384),w
  4014     0A8A  00F5               	movwf	___flneg@f1+3
  4015     0A8B  0819               	movf	(pow@x+2)^(0+384),w
  4016     0A8C  00F4               	movwf	___flneg@f1+2
  4017     0A8D  0818               	movf	(pow@x+1)^(0+384),w
  4018     0A8E  00F3               	movwf	___flneg@f1+1
  4019     0A8F  0817               	movf	pow@x^(0+384),w
  4020     0A90  00F2               	movwf	___flneg@f1
  4021     0A91  160A  158A  243D  120A  158A  	fcall	___flneg
  4022     0A96  0875               	movf	?___flneg+3,w
  4023     0A97  1683               	bsf	3,5	;RP0=1, select bank3
  4024     0A98  1703               	bsf	3,6	;RP1=1, select bank3
  4025     0A99  009A               	movwf	(pow@x+3)^(0+384)
  4026     0A9A  0874               	movf	?___flneg+2,w
  4027     0A9B  0099               	movwf	(pow@x+2)^(0+384)
  4028     0A9C  0873               	movf	?___flneg+1,w
  4029     0A9D  0098               	movwf	(pow@x+1)^(0+384)
  4030     0A9E  0872               	movf	?___flneg,w
  4031     0A9F  0097               	movwf	pow@x^(0+384)
  4032     0AA0                     l3981:
  4033     0AA0  1683               	bsf	3,5	;RP0=1, select bank3
  4034     0AA1  1703               	bsf	3,6	;RP1=1, select bank3
  4035     0AA2  081A               	movf	(pow@x+3)^(0+384),w
  4036     0AA3  1683               	bsf	3,5	;RP0=1, select bank1
  4037     0AA4  1303               	bcf	3,6	;RP1=0, select bank1
  4038     0AA5  00AC               	movwf	(log@x+3)^(0+128)
  4039     0AA6  1683               	bsf	3,5	;RP0=1, select bank3
  4040     0AA7  1703               	bsf	3,6	;RP1=1, select bank3
  4041     0AA8  0819               	movf	(pow@x+2)^(0+384),w
  4042     0AA9  1683               	bsf	3,5	;RP0=1, select bank1
  4043     0AAA  1303               	bcf	3,6	;RP1=0, select bank1
  4044     0AAB  00AB               	movwf	(log@x+2)^(0+128)
  4045     0AAC  1683               	bsf	3,5	;RP0=1, select bank3
  4046     0AAD  1703               	bsf	3,6	;RP1=1, select bank3
  4047     0AAE  0818               	movf	(pow@x+1)^(0+384),w
  4048     0AAF  1683               	bsf	3,5	;RP0=1, select bank1
  4049     0AB0  1303               	bcf	3,6	;RP1=0, select bank1
  4050     0AB1  00AA               	movwf	(log@x+1)^(0+128)
  4051     0AB2  1683               	bsf	3,5	;RP0=1, select bank3
  4052     0AB3  1703               	bsf	3,6	;RP1=1, select bank3
  4053     0AB4  0817               	movf	pow@x^(0+384),w
  4054     0AB5  1683               	bsf	3,5	;RP0=1, select bank1
  4055     0AB6  1303               	bcf	3,6	;RP1=0, select bank1
  4056     0AB7  00A9               	movwf	log@x^(0+128)
  4057     0AB8  160A  118A  268C  120A  158A  	fcall	_log
  4058     0ABD  1683               	bsf	3,5	;RP0=1, select bank1
  4059     0ABE  1303               	bcf	3,6	;RP1=0, select bank1
  4060     0ABF  082C               	movf	(?_log+3)^(0+128),w
  4061     0AC0  1683               	bsf	3,5	;RP0=1, select bank3
  4062     0AC1  1703               	bsf	3,6	;RP1=1, select bank3
  4063     0AC2  00A2               	movwf	(_pow$1076+3)^(0+384)
  4064     0AC3  1683               	bsf	3,5	;RP0=1, select bank1
  4065     0AC4  1303               	bcf	3,6	;RP1=0, select bank1
  4066     0AC5  082B               	movf	(?_log+2)^(0+128),w
  4067     0AC6  1683               	bsf	3,5	;RP0=1, select bank3
  4068     0AC7  1703               	bsf	3,6	;RP1=1, select bank3
  4069     0AC8  00A1               	movwf	(_pow$1076+2)^(0+384)
  4070     0AC9  1683               	bsf	3,5	;RP0=1, select bank1
  4071     0ACA  1303               	bcf	3,6	;RP1=0, select bank1
  4072     0ACB  082A               	movf	(?_log+1)^(0+128),w
  4073     0ACC  1683               	bsf	3,5	;RP0=1, select bank3
  4074     0ACD  1703               	bsf	3,6	;RP1=1, select bank3
  4075     0ACE  00A0               	movwf	(_pow$1076+1)^(0+384)
  4076     0ACF  1683               	bsf	3,5	;RP0=1, select bank1
  4077     0AD0  1303               	bcf	3,6	;RP1=0, select bank1
  4078     0AD1  0829               	movf	?_log^(0+128),w
  4079     0AD2  1683               	bsf	3,5	;RP0=1, select bank3
  4080     0AD3  1703               	bsf	3,6	;RP1=1, select bank3
  4081     0AD4  009F               	movwf	_pow$1076^(0+384)
  4082     0AD5                     l3983:
  4083     0AD5  081E               	movf	(pow@y+3)^(0+384),w
  4084     0AD6  1283               	bcf	3,5	;RP0=0, select bank0
  4085     0AD7  1303               	bcf	3,6	;RP1=0, select bank0
  4086     0AD8  00BC               	movwf	___flmul@b+3
  4087     0AD9  1683               	bsf	3,5	;RP0=1, select bank3
  4088     0ADA  1703               	bsf	3,6	;RP1=1, select bank3
  4089     0ADB  081D               	movf	(pow@y+2)^(0+384),w
  4090     0ADC  1283               	bcf	3,5	;RP0=0, select bank0
  4091     0ADD  1303               	bcf	3,6	;RP1=0, select bank0
  4092     0ADE  00BB               	movwf	___flmul@b+2
  4093     0ADF  1683               	bsf	3,5	;RP0=1, select bank3
  4094     0AE0  1703               	bsf	3,6	;RP1=1, select bank3
  4095     0AE1  081C               	movf	(pow@y+1)^(0+384),w
  4096     0AE2  1283               	bcf	3,5	;RP0=0, select bank0
  4097     0AE3  1303               	bcf	3,6	;RP1=0, select bank0
  4098     0AE4  00BA               	movwf	___flmul@b+1
  4099     0AE5  1683               	bsf	3,5	;RP0=1, select bank3
  4100     0AE6  1703               	bsf	3,6	;RP1=1, select bank3
  4101     0AE7  081B               	movf	pow@y^(0+384),w
  4102     0AE8  1283               	bcf	3,5	;RP0=0, select bank0
  4103     0AE9  1303               	bcf	3,6	;RP1=0, select bank0
  4104     0AEA  00B9               	movwf	___flmul@b
  4105     0AEB  1683               	bsf	3,5	;RP0=1, select bank3
  4106     0AEC  1703               	bsf	3,6	;RP1=1, select bank3
  4107     0AED  0822               	movf	(_pow$1076+3)^(0+384),w
  4108     0AEE  1283               	bcf	3,5	;RP0=0, select bank0
  4109     0AEF  1303               	bcf	3,6	;RP1=0, select bank0
  4110     0AF0  00C0               	movwf	___flmul@a+3
  4111     0AF1  1683               	bsf	3,5	;RP0=1, select bank3
  4112     0AF2  1703               	bsf	3,6	;RP1=1, select bank3
  4113     0AF3  0821               	movf	(_pow$1076+2)^(0+384),w
  4114     0AF4  1283               	bcf	3,5	;RP0=0, select bank0
  4115     0AF5  1303               	bcf	3,6	;RP1=0, select bank0
  4116     0AF6  00BF               	movwf	___flmul@a+2
  4117     0AF7  1683               	bsf	3,5	;RP0=1, select bank3
  4118     0AF8  1703               	bsf	3,6	;RP1=1, select bank3
  4119     0AF9  0820               	movf	(_pow$1076+1)^(0+384),w
  4120     0AFA  1283               	bcf	3,5	;RP0=0, select bank0
  4121     0AFB  1303               	bcf	3,6	;RP1=0, select bank0
  4122     0AFC  00BE               	movwf	___flmul@a+1
  4123     0AFD  1683               	bsf	3,5	;RP0=1, select bank3
  4124     0AFE  1703               	bsf	3,6	;RP1=1, select bank3
  4125     0AFF  081F               	movf	_pow$1076^(0+384),w
  4126     0B00  1283               	bcf	3,5	;RP0=0, select bank0
  4127     0B01  1303               	bcf	3,6	;RP1=0, select bank0
  4128     0B02  00BD               	movwf	___flmul@a
  4129     0B03  120A  118A  203B  120A  158A  	fcall	___flmul
  4130     0B08  1283               	bcf	3,5	;RP0=0, select bank0
  4131     0B09  1303               	bcf	3,6	;RP1=0, select bank0
  4132     0B0A  083C               	movf	?___flmul+3,w
  4133     0B0B  1683               	bsf	3,5	;RP0=1, select bank3
  4134     0B0C  1703               	bsf	3,6	;RP1=1, select bank3
  4135     0B0D  00A6               	movwf	(_pow$1077+3)^(0+384)
  4136     0B0E  1283               	bcf	3,5	;RP0=0, select bank0
  4137     0B0F  1303               	bcf	3,6	;RP1=0, select bank0
  4138     0B10  083B               	movf	?___flmul+2,w
  4139     0B11  1683               	bsf	3,5	;RP0=1, select bank3
  4140     0B12  1703               	bsf	3,6	;RP1=1, select bank3
  4141     0B13  00A5               	movwf	(_pow$1077+2)^(0+384)
  4142     0B14  1283               	bcf	3,5	;RP0=0, select bank0
  4143     0B15  1303               	bcf	3,6	;RP1=0, select bank0
  4144     0B16  083A               	movf	?___flmul+1,w
  4145     0B17  1683               	bsf	3,5	;RP0=1, select bank3
  4146     0B18  1703               	bsf	3,6	;RP1=1, select bank3
  4147     0B19  00A4               	movwf	(_pow$1077+1)^(0+384)
  4148     0B1A  1283               	bcf	3,5	;RP0=0, select bank0
  4149     0B1B  1303               	bcf	3,6	;RP1=0, select bank0
  4150     0B1C  0839               	movf	?___flmul,w
  4151     0B1D  1683               	bsf	3,5	;RP0=1, select bank3
  4152     0B1E  1703               	bsf	3,6	;RP1=1, select bank3
  4153     0B1F  00A3               	movwf	_pow$1077^(0+384)
  4154     0B20                     l3985:
  4155     0B20  0826               	movf	(_pow$1077+3)^(0+384),w
  4156     0B21  1683               	bsf	3,5	;RP0=1, select bank1
  4157     0B22  1303               	bcf	3,6	;RP1=0, select bank1
  4158     0B23  00EE               	movwf	(exp@x+3)^(0+128)
  4159     0B24  1683               	bsf	3,5	;RP0=1, select bank3
  4160     0B25  1703               	bsf	3,6	;RP1=1, select bank3
  4161     0B26  0825               	movf	(_pow$1077+2)^(0+384),w
  4162     0B27  1683               	bsf	3,5	;RP0=1, select bank1
  4163     0B28  1303               	bcf	3,6	;RP1=0, select bank1
  4164     0B29  00ED               	movwf	(exp@x+2)^(0+128)
  4165     0B2A  1683               	bsf	3,5	;RP0=1, select bank3
  4166     0B2B  1703               	bsf	3,6	;RP1=1, select bank3
  4167     0B2C  0824               	movf	(_pow$1077+1)^(0+384),w
  4168     0B2D  1683               	bsf	3,5	;RP0=1, select bank1
  4169     0B2E  1303               	bcf	3,6	;RP1=0, select bank1
  4170     0B2F  00EC               	movwf	(exp@x+1)^(0+128)
  4171     0B30  1683               	bsf	3,5	;RP0=1, select bank3
  4172     0B31  1703               	bsf	3,6	;RP1=1, select bank3
  4173     0B32  0823               	movf	_pow$1077^(0+384),w
  4174     0B33  1683               	bsf	3,5	;RP0=1, select bank1
  4175     0B34  1303               	bcf	3,6	;RP1=0, select bank1
  4176     0B35  00EB               	movwf	exp@x^(0+128)
  4177     0B36  120A  158A  2371  120A  158A  	fcall	_exp
  4178     0B3B  1683               	bsf	3,5	;RP0=1, select bank1
  4179     0B3C  1303               	bcf	3,6	;RP1=0, select bank1
  4180     0B3D  086E               	movf	(?_exp+3)^(0+128),w
  4181     0B3E  1683               	bsf	3,5	;RP0=1, select bank3
  4182     0B3F  1703               	bsf	3,6	;RP1=1, select bank3
  4183     0B40  009A               	movwf	(pow@x+3)^(0+384)
  4184     0B41  1683               	bsf	3,5	;RP0=1, select bank1
  4185     0B42  1303               	bcf	3,6	;RP1=0, select bank1
  4186     0B43  086D               	movf	(?_exp+2)^(0+128),w
  4187     0B44  1683               	bsf	3,5	;RP0=1, select bank3
  4188     0B45  1703               	bsf	3,6	;RP1=1, select bank3
  4189     0B46  0099               	movwf	(pow@x+2)^(0+384)
  4190     0B47  1683               	bsf	3,5	;RP0=1, select bank1
  4191     0B48  1303               	bcf	3,6	;RP1=0, select bank1
  4192     0B49  086C               	movf	(?_exp+1)^(0+128),w
  4193     0B4A  1683               	bsf	3,5	;RP0=1, select bank3
  4194     0B4B  1703               	bsf	3,6	;RP1=1, select bank3
  4195     0B4C  0098               	movwf	(pow@x+1)^(0+384)
  4196     0B4D  1683               	bsf	3,5	;RP0=1, select bank1
  4197     0B4E  1303               	bcf	3,6	;RP1=0, select bank1
  4198     0B4F  086B               	movf	?_exp^(0+128),w
  4199     0B50  1683               	bsf	3,5	;RP0=1, select bank3
  4200     0B51  1703               	bsf	3,6	;RP1=1, select bank3
  4201     0B52  0097               	movwf	pow@x^(0+384)
  4202     0B53                     l3987:
  4203     0B53  0827               	movf	pow@sign^(0+384),w
  4204     0B54  1903               	btfsc	3,2
  4205     0B55  2B57               	goto	u5961
  4206     0B56  2B58               	goto	u5960
  4207     0B57                     u5961:
  4208     0B57  2B70               	goto	l751
  4209     0B58                     u5960:
  4210     0B58                     l3989:
  4211     0B58  081A               	movf	(pow@x+3)^(0+384),w
  4212     0B59  00F5               	movwf	___flneg@f1+3
  4213     0B5A  0819               	movf	(pow@x+2)^(0+384),w
  4214     0B5B  00F4               	movwf	___flneg@f1+2
  4215     0B5C  0818               	movf	(pow@x+1)^(0+384),w
  4216     0B5D  00F3               	movwf	___flneg@f1+1
  4217     0B5E  0817               	movf	pow@x^(0+384),w
  4218     0B5F  00F2               	movwf	___flneg@f1
  4219     0B60  160A  158A  243D  120A  158A  	fcall	___flneg
  4220     0B65  0875               	movf	?___flneg+3,w
  4221     0B66  1683               	bsf	3,5	;RP0=1, select bank3
  4222     0B67  1703               	bsf	3,6	;RP1=1, select bank3
  4223     0B68  009A               	movwf	(?_pow+3)^(0+384)
  4224     0B69  0874               	movf	?___flneg+2,w
  4225     0B6A  0099               	movwf	(?_pow+2)^(0+384)
  4226     0B6B  0873               	movf	?___flneg+1,w
  4227     0B6C  0098               	movwf	(?_pow+1)^(0+384)
  4228     0B6D  0872               	movf	?___flneg,w
  4229     0B6E  0097               	movwf	?_pow^(0+384)
  4230     0B6F  2B70               	goto	l747
  4231     0B70                     l751:
  4232     0B70                     l747:
  4233     0B70  0008               	return
  4234     0B71                     __end_of_pow:
  4235                           
  4236                           	psect	text15
  4237     0B71                     __ptext15:	
  4238 ;; *************** function _exp *****************
  4239 ;; Defined at:
  4240 ;;		line 12 in file "C:\Program Files\Microchip\xc8\v2.41\pic\sources\c90\common\exp.c"
  4241 ;; Parameters:    Size  Location     Type
  4242 ;;  x               4   75[BANK1 ] unsigned char 
  4243 ;; Auto vars:     Size  Location     Type
  4244 ;;  exponent        2    4[BANK3 ] int 
  4245 ;;  sign            1    6[BANK3 ] unsigned char 
  4246 ;; Return value:  Size  Location     Type
  4247 ;;                  4   75[BANK1 ] unsigned char 
  4248 ;; Registers used:
  4249 ;;		wreg, fsr0l, fsr0h, status,2, status,0, btemp+1, pclath, cstack
  4250 ;; Tracked objects:
  4251 ;;		On entry : 0/0
  4252 ;;		On exit  : 0/0
  4253 ;;		Unchanged: 0/0
  4254 ;; Data sizes:     COMMON   BANK0   BANK1   BANK3   BANK2
  4255 ;;      Params:         0       0       4       0       0
  4256 ;;      Locals:         0       0       0       7       0
  4257 ;;      Temps:          0       0       0       0       0
  4258 ;;      Totals:         0       0       4       7       0
  4259 ;;Total ram usage:       11 bytes
  4260 ;; Hardware stack levels used: 1
  4261 ;; Hardware stack levels required when called: 4
  4262 ;; This function calls:
  4263 ;;		___fldiv
  4264 ;;		___fleq
  4265 ;;		___flge
  4266 ;;		___flmul
  4267 ;;		___flneg
  4268 ;;		___flsub
  4269 ;;		___fltol
  4270 ;;		___xxtofl
  4271 ;;		_eval_poly
  4272 ;;		_floor
  4273 ;;		_ldexp
  4274 ;; This function is called by:
  4275 ;;		_pow
  4276 ;; This function uses a non-reentrant model
  4277 ;;
  4278                           
  4279     0B71                     _exp:	
  4280                           ;psect for function _exp
  4281                           
  4282     0B71                     l3893:	
  4283                           ;incstack = 0
  4284                           ; Regs used in _exp: [wreg-fsr0h+status,2+status,0+btemp+1+pclath+cstack]
  4285                           
  4286     0B71  1683               	bsf	3,5	;RP0=1, select bank1
  4287     0B72  1303               	bcf	3,6	;RP1=0, select bank1
  4288     0B73  086E               	movf	(exp@x+3)^(0+128),w
  4289     0B74  1283               	bcf	3,5	;RP0=0, select bank0
  4290     0B75  1303               	bcf	3,6	;RP1=0, select bank0
  4291     0B76  00A9               	movwf	___fleq@ff1+3
  4292     0B77  1683               	bsf	3,5	;RP0=1, select bank1
  4293     0B78  1303               	bcf	3,6	;RP1=0, select bank1
  4294     0B79  086D               	movf	(exp@x+2)^(0+128),w
  4295     0B7A  1283               	bcf	3,5	;RP0=0, select bank0
  4296     0B7B  1303               	bcf	3,6	;RP1=0, select bank0
  4297     0B7C  00A8               	movwf	___fleq@ff1+2
  4298     0B7D  1683               	bsf	3,5	;RP0=1, select bank1
  4299     0B7E  1303               	bcf	3,6	;RP1=0, select bank1
  4300     0B7F  086C               	movf	(exp@x+1)^(0+128),w
  4301     0B80  1283               	bcf	3,5	;RP0=0, select bank0
  4302     0B81  1303               	bcf	3,6	;RP1=0, select bank0
  4303     0B82  00A7               	movwf	___fleq@ff1+1
  4304     0B83  1683               	bsf	3,5	;RP0=1, select bank1
  4305     0B84  1303               	bcf	3,6	;RP1=0, select bank1
  4306     0B85  086B               	movf	exp@x^(0+128),w
  4307     0B86  1283               	bcf	3,5	;RP0=0, select bank0
  4308     0B87  1303               	bcf	3,6	;RP1=0, select bank0
  4309     0B88  00A6               	movwf	___fleq@ff1
  4310     0B89  3000               	movlw	0
  4311     0B8A  00AD               	movwf	___fleq@ff2+3
  4312     0B8B  3000               	movlw	0
  4313     0B8C  00AC               	movwf	___fleq@ff2+2
  4314     0B8D  3000               	movlw	0
  4315     0B8E  00AB               	movwf	___fleq@ff2+1
  4316     0B8F  3000               	movlw	0
  4317     0B90  00AA               	movwf	___fleq@ff2
  4318     0B91  160A  158A  2655  120A  158A  	fcall	___fleq
  4319     0B96  1C03               	btfss	3,0
  4320     0B97  2B99               	goto	u5831
  4321     0B98  2B9A               	goto	u5830
  4322     0B99                     u5831:
  4323     0B99  2BA5               	goto	l3899
  4324     0B9A                     u5830:
  4325     0B9A                     l3895:
  4326     0B9A  303F               	movlw	63
  4327     0B9B  1683               	bsf	3,5	;RP0=1, select bank1
  4328     0B9C  1303               	bcf	3,6	;RP1=0, select bank1
  4329     0B9D  00EE               	movwf	(?_exp+3)^(0+128)
  4330     0B9E  3080               	movlw	128
  4331     0B9F  00ED               	movwf	(?_exp+2)^(0+128)
  4332     0BA0  3000               	movlw	0
  4333     0BA1  00EC               	movwf	(?_exp+1)^(0+128)
  4334     0BA2  3000               	movlw	0
  4335     0BA3  00EB               	movwf	?_exp^(0+128)
  4336     0BA4  2DA7               	goto	l765
  4337     0BA5                     l3899:
  4338     0BA5  3044               	movlw	68
  4339     0BA6  00F5               	movwf	___flge@ff1+3
  4340     0BA7  3031               	movlw	49
  4341     0BA8  00F4               	movwf	___flge@ff1+2
  4342     0BA9  3072               	movlw	114
  4343     0BAA  00F3               	movwf	___flge@ff1+1
  4344     0BAB  3018               	movlw	24
  4345     0BAC  00F2               	movwf	___flge@ff1
  4346     0BAD  1683               	bsf	3,5	;RP0=1, select bank1
  4347     0BAE  1303               	bcf	3,6	;RP1=0, select bank1
  4348     0BAF  086E               	movf	(exp@x+3)^(0+128),w
  4349     0BB0  00F9               	movwf	___flge@ff2+3
  4350     0BB1  086D               	movf	(exp@x+2)^(0+128),w
  4351     0BB2  00F8               	movwf	___flge@ff2+2
  4352     0BB3  086C               	movf	(exp@x+1)^(0+128),w
  4353     0BB4  00F7               	movwf	___flge@ff2+1
  4354     0BB5  086B               	movf	exp@x^(0+128),w
  4355     0BB6  00F6               	movwf	___flge@ff2
  4356     0BB7  160A  118A  21F7  120A  158A  	fcall	___flge
  4357     0BBC  1803               	btfsc	3,0
  4358     0BBD  2BBF               	goto	u5841
  4359     0BBE  2BC0               	goto	u5840
  4360     0BBF                     u5841:
  4361     0BBF  2BD1               	goto	l3905
  4362     0BC0                     u5840:
  4363     0BC0                     l3901:
  4364     0BC0  3022               	movlw	34
  4365     0BC1  1283               	bcf	3,5	;RP0=0, select bank2
  4366     0BC2  1703               	bsf	3,6	;RP1=1, select bank2
  4367     0BC3  0090               	movwf	_errno^(0+256)
  4368     0BC4  3000               	movlw	0
  4369     0BC5  0091               	movwf	(_errno^(0+256)+1)
  4370     0BC6  307F               	movlw	127
  4371     0BC7  1683               	bsf	3,5	;RP0=1, select bank1
  4372     0BC8  1303               	bcf	3,6	;RP1=0, select bank1
  4373     0BC9  00EE               	movwf	(?_exp+3)^(0+128)
  4374     0BCA  307F               	movlw	127
  4375     0BCB  00ED               	movwf	(?_exp+2)^(0+128)
  4376     0BCC  30FF               	movlw	255
  4377     0BCD  00EC               	movwf	(?_exp+1)^(0+128)
  4378     0BCE  30FF               	movlw	255
  4379     0BCF  00EB               	movwf	?_exp^(0+128)
  4380     0BD0  2DA7               	goto	l765
  4381     0BD1                     l3905:
  4382     0BD1  1683               	bsf	3,5	;RP0=1, select bank1
  4383     0BD2  1303               	bcf	3,6	;RP1=0, select bank1
  4384     0BD3  086E               	movf	(exp@x+3)^(0+128),w
  4385     0BD4  00F5               	movwf	___flge@ff1+3
  4386     0BD5  086D               	movf	(exp@x+2)^(0+128),w
  4387     0BD6  00F4               	movwf	___flge@ff1+2
  4388     0BD7  086C               	movf	(exp@x+1)^(0+128),w
  4389     0BD8  00F3               	movwf	___flge@ff1+1
  4390     0BD9  086B               	movf	exp@x^(0+128),w
  4391     0BDA  00F2               	movwf	___flge@ff1
  4392     0BDB  30C4               	movlw	196
  4393     0BDC  00F9               	movwf	___flge@ff2+3
  4394     0BDD  303A               	movlw	58
  4395     0BDE  00F8               	movwf	___flge@ff2+2
  4396     0BDF  3048               	movlw	72
  4397     0BE0  00F7               	movwf	___flge@ff2+1
  4398     0BE1  3087               	movlw	135
  4399     0BE2  00F6               	movwf	___flge@ff2
  4400     0BE3  160A  118A  21F7  120A  158A  	fcall	___flge
  4401     0BE8  1803               	btfsc	3,0
  4402     0BE9  2BEB               	goto	u5851
  4403     0BEA  2BEC               	goto	u5850
  4404     0BEB                     u5851:
  4405     0BEB  2BFD               	goto	l3911
  4406     0BEC                     u5850:
  4407     0BEC                     l3907:
  4408     0BEC  3022               	movlw	34
  4409     0BED  1283               	bcf	3,5	;RP0=0, select bank2
  4410     0BEE  1703               	bsf	3,6	;RP1=1, select bank2
  4411     0BEF  0090               	movwf	_errno^(0+256)
  4412     0BF0  3000               	movlw	0
  4413     0BF1  0091               	movwf	(_errno^(0+256)+1)
  4414     0BF2  3000               	movlw	0
  4415     0BF3  1683               	bsf	3,5	;RP0=1, select bank1
  4416     0BF4  1303               	bcf	3,6	;RP1=0, select bank1
  4417     0BF5  00EE               	movwf	(?_exp+3)^(0+128)
  4418     0BF6  3000               	movlw	0
  4419     0BF7  00ED               	movwf	(?_exp+2)^(0+128)
  4420     0BF8  3000               	movlw	0
  4421     0BF9  00EC               	movwf	(?_exp+1)^(0+128)
  4422     0BFA  3000               	movlw	0
  4423     0BFB  00EB               	movwf	?_exp^(0+128)
  4424     0BFC  2DA7               	goto	l765
  4425     0BFD                     l3911:
  4426     0BFD  1683               	bsf	3,5	;RP0=1, select bank1
  4427     0BFE  1303               	bcf	3,6	;RP1=0, select bank1
  4428     0BFF  086E               	movf	(exp@x+3)^(0+128),w
  4429     0C00  00F5               	movwf	___flge@ff1+3
  4430     0C01  086D               	movf	(exp@x+2)^(0+128),w
  4431     0C02  00F4               	movwf	___flge@ff1+2
  4432     0C03  086C               	movf	(exp@x+1)^(0+128),w
  4433     0C04  00F3               	movwf	___flge@ff1+1
  4434     0C05  086B               	movf	exp@x^(0+128),w
  4435     0C06  00F2               	movwf	___flge@ff1
  4436     0C07  3000               	movlw	0
  4437     0C08  00F9               	movwf	___flge@ff2+3
  4438     0C09  3000               	movlw	0
  4439     0C0A  00F8               	movwf	___flge@ff2+2
  4440     0C0B  3000               	movlw	0
  4441     0C0C  00F7               	movwf	___flge@ff2+1
  4442     0C0D  3000               	movlw	0
  4443     0C0E  00F6               	movwf	___flge@ff2
  4444     0C0F  160A  118A  21F7  120A  158A  	fcall	___flge
  4445     0C14  1C03               	btfss	3,0
  4446     0C15  2C17               	goto	u5861
  4447     0C16  2C19               	goto	u5860
  4448     0C17                     u5861:
  4449     0C17  3001               	movlw	1
  4450     0C18  2C1A               	goto	u5870
  4451     0C19                     u5860:
  4452     0C19  3000               	movlw	0
  4453     0C1A                     u5870:
  4454     0C1A  1683               	bsf	3,5	;RP0=1, select bank3
  4455     0C1B  1703               	bsf	3,6	;RP1=1, select bank3
  4456     0C1C  0096               	movwf	exp@sign^(0+384)
  4457     0C1D                     l3913:
  4458     0C1D  0816               	movf	exp@sign^(0+384),w
  4459     0C1E  1903               	btfsc	3,2
  4460     0C1F  2C21               	goto	u5881
  4461     0C20  2C22               	goto	u5880
  4462     0C21                     u5881:
  4463     0C21  2C3B               	goto	l3917
  4464     0C22                     u5880:
  4465     0C22                     l3915:
  4466     0C22  1683               	bsf	3,5	;RP0=1, select bank1
  4467     0C23  1303               	bcf	3,6	;RP1=0, select bank1
  4468     0C24  086E               	movf	(exp@x+3)^(0+128),w
  4469     0C25  00F5               	movwf	___flneg@f1+3
  4470     0C26  086D               	movf	(exp@x+2)^(0+128),w
  4471     0C27  00F4               	movwf	___flneg@f1+2
  4472     0C28  086C               	movf	(exp@x+1)^(0+128),w
  4473     0C29  00F3               	movwf	___flneg@f1+1
  4474     0C2A  086B               	movf	exp@x^(0+128),w
  4475     0C2B  00F2               	movwf	___flneg@f1
  4476     0C2C  160A  158A  243D  120A  158A  	fcall	___flneg
  4477     0C31  0875               	movf	?___flneg+3,w
  4478     0C32  1683               	bsf	3,5	;RP0=1, select bank1
  4479     0C33  1303               	bcf	3,6	;RP1=0, select bank1
  4480     0C34  00EE               	movwf	(exp@x+3)^(0+128)
  4481     0C35  0874               	movf	?___flneg+2,w
  4482     0C36  00ED               	movwf	(exp@x+2)^(0+128)
  4483     0C37  0873               	movf	?___flneg+1,w
  4484     0C38  00EC               	movwf	(exp@x+1)^(0+128)
  4485     0C39  0872               	movf	?___flneg,w
  4486     0C3A  00EB               	movwf	exp@x^(0+128)
  4487     0C3B                     l3917:
  4488     0C3B  303F               	movlw	63
  4489     0C3C  1283               	bcf	3,5	;RP0=0, select bank0
  4490     0C3D  1303               	bcf	3,6	;RP1=0, select bank0
  4491     0C3E  00BC               	movwf	___flmul@b+3
  4492     0C3F  30B8               	movlw	184
  4493     0C40  00BB               	movwf	___flmul@b+2
  4494     0C41  30AA               	movlw	170
  4495     0C42  00BA               	movwf	___flmul@b+1
  4496     0C43  303B               	movlw	59
  4497     0C44  00B9               	movwf	___flmul@b
  4498     0C45  1683               	bsf	3,5	;RP0=1, select bank1
  4499     0C46  1303               	bcf	3,6	;RP1=0, select bank1
  4500     0C47  086E               	movf	(exp@x+3)^(0+128),w
  4501     0C48  1283               	bcf	3,5	;RP0=0, select bank0
  4502     0C49  1303               	bcf	3,6	;RP1=0, select bank0
  4503     0C4A  00C0               	movwf	___flmul@a+3
  4504     0C4B  1683               	bsf	3,5	;RP0=1, select bank1
  4505     0C4C  1303               	bcf	3,6	;RP1=0, select bank1
  4506     0C4D  086D               	movf	(exp@x+2)^(0+128),w
  4507     0C4E  1283               	bcf	3,5	;RP0=0, select bank0
  4508     0C4F  1303               	bcf	3,6	;RP1=0, select bank0
  4509     0C50  00BF               	movwf	___flmul@a+2
  4510     0C51  1683               	bsf	3,5	;RP0=1, select bank1
  4511     0C52  1303               	bcf	3,6	;RP1=0, select bank1
  4512     0C53  086C               	movf	(exp@x+1)^(0+128),w
  4513     0C54  1283               	bcf	3,5	;RP0=0, select bank0
  4514     0C55  1303               	bcf	3,6	;RP1=0, select bank0
  4515     0C56  00BE               	movwf	___flmul@a+1
  4516     0C57  1683               	bsf	3,5	;RP0=1, select bank1
  4517     0C58  1303               	bcf	3,6	;RP1=0, select bank1
  4518     0C59  086B               	movf	exp@x^(0+128),w
  4519     0C5A  1283               	bcf	3,5	;RP0=0, select bank0
  4520     0C5B  1303               	bcf	3,6	;RP1=0, select bank0
  4521     0C5C  00BD               	movwf	___flmul@a
  4522     0C5D  120A  118A  203B  120A  158A  	fcall	___flmul
  4523     0C62  1283               	bcf	3,5	;RP0=0, select bank0
  4524     0C63  1303               	bcf	3,6	;RP1=0, select bank0
  4525     0C64  083C               	movf	?___flmul+3,w
  4526     0C65  1683               	bsf	3,5	;RP0=1, select bank1
  4527     0C66  1303               	bcf	3,6	;RP1=0, select bank1
  4528     0C67  00EE               	movwf	(exp@x+3)^(0+128)
  4529     0C68  1283               	bcf	3,5	;RP0=0, select bank0
  4530     0C69  1303               	bcf	3,6	;RP1=0, select bank0
  4531     0C6A  083B               	movf	?___flmul+2,w
  4532     0C6B  1683               	bsf	3,5	;RP0=1, select bank1
  4533     0C6C  1303               	bcf	3,6	;RP1=0, select bank1
  4534     0C6D  00ED               	movwf	(exp@x+2)^(0+128)
  4535     0C6E  1283               	bcf	3,5	;RP0=0, select bank0
  4536     0C6F  1303               	bcf	3,6	;RP1=0, select bank0
  4537     0C70  083A               	movf	?___flmul+1,w
  4538     0C71  1683               	bsf	3,5	;RP0=1, select bank1
  4539     0C72  1303               	bcf	3,6	;RP1=0, select bank1
  4540     0C73  00EC               	movwf	(exp@x+1)^(0+128)
  4541     0C74  1283               	bcf	3,5	;RP0=0, select bank0
  4542     0C75  1303               	bcf	3,6	;RP1=0, select bank0
  4543     0C76  0839               	movf	?___flmul,w
  4544     0C77  1683               	bsf	3,5	;RP0=1, select bank1
  4545     0C78  1303               	bcf	3,6	;RP1=0, select bank1
  4546     0C79  00EB               	movwf	exp@x^(0+128)
  4547     0C7A                     l3919:
  4548     0C7A  086E               	movf	(exp@x+3)^(0+128),w
  4549     0C7B  00E4               	movwf	(floor@x+3)^(0+128)
  4550     0C7C  086D               	movf	(exp@x+2)^(0+128),w
  4551     0C7D  00E3               	movwf	(floor@x+2)^(0+128)
  4552     0C7E  086C               	movf	(exp@x+1)^(0+128),w
  4553     0C7F  00E2               	movwf	(floor@x+1)^(0+128)
  4554     0C80  086B               	movf	exp@x^(0+128),w
  4555     0C81  00E1               	movwf	floor@x^(0+128)
  4556     0C82  120A  158A  2077  120A  158A  	fcall	_floor
  4557     0C87  1683               	bsf	3,5	;RP0=1, select bank1
  4558     0C88  1303               	bcf	3,6	;RP1=0, select bank1
  4559     0C89  0864               	movf	(?_floor+3)^(0+128),w
  4560     0C8A  1683               	bsf	3,5	;RP0=1, select bank3
  4561     0C8B  1703               	bsf	3,6	;RP1=1, select bank3
  4562     0C8C  0093               	movwf	(_exp$1078+3)^(0+384)
  4563     0C8D  1683               	bsf	3,5	;RP0=1, select bank1
  4564     0C8E  1303               	bcf	3,6	;RP1=0, select bank1
  4565     0C8F  0863               	movf	(?_floor+2)^(0+128),w
  4566     0C90  1683               	bsf	3,5	;RP0=1, select bank3
  4567     0C91  1703               	bsf	3,6	;RP1=1, select bank3
  4568     0C92  0092               	movwf	(_exp$1078+2)^(0+384)
  4569     0C93  1683               	bsf	3,5	;RP0=1, select bank1
  4570     0C94  1303               	bcf	3,6	;RP1=0, select bank1
  4571     0C95  0862               	movf	(?_floor+1)^(0+128),w
  4572     0C96  1683               	bsf	3,5	;RP0=1, select bank3
  4573     0C97  1703               	bsf	3,6	;RP1=1, select bank3
  4574     0C98  0091               	movwf	(_exp$1078+1)^(0+384)
  4575     0C99  1683               	bsf	3,5	;RP0=1, select bank1
  4576     0C9A  1303               	bcf	3,6	;RP1=0, select bank1
  4577     0C9B  0861               	movf	?_floor^(0+128),w
  4578     0C9C  1683               	bsf	3,5	;RP0=1, select bank3
  4579     0C9D  1703               	bsf	3,6	;RP1=1, select bank3
  4580     0C9E  0090               	movwf	_exp$1078^(0+384)
  4581     0C9F                     l3921:
  4582     0C9F  0813               	movf	(_exp$1078+3)^(0+384),w
  4583     0CA0  1683               	bsf	3,5	;RP0=1, select bank1
  4584     0CA1  1303               	bcf	3,6	;RP1=0, select bank1
  4585     0CA2  00DA               	movwf	(___fltol@f1+3)^(0+128)
  4586     0CA3  1683               	bsf	3,5	;RP0=1, select bank3
  4587     0CA4  1703               	bsf	3,6	;RP1=1, select bank3
  4588     0CA5  0812               	movf	(_exp$1078+2)^(0+384),w
  4589     0CA6  1683               	bsf	3,5	;RP0=1, select bank1
  4590     0CA7  1303               	bcf	3,6	;RP1=0, select bank1
  4591     0CA8  00D9               	movwf	(___fltol@f1+2)^(0+128)
  4592     0CA9  1683               	bsf	3,5	;RP0=1, select bank3
  4593     0CAA  1703               	bsf	3,6	;RP1=1, select bank3
  4594     0CAB  0811               	movf	(_exp$1078+1)^(0+384),w
  4595     0CAC  1683               	bsf	3,5	;RP0=1, select bank1
  4596     0CAD  1303               	bcf	3,6	;RP1=0, select bank1
  4597     0CAE  00D8               	movwf	(___fltol@f1+1)^(0+128)
  4598     0CAF  1683               	bsf	3,5	;RP0=1, select bank3
  4599     0CB0  1703               	bsf	3,6	;RP1=1, select bank3
  4600     0CB1  0810               	movf	_exp$1078^(0+384),w
  4601     0CB2  1683               	bsf	3,5	;RP0=1, select bank1
  4602     0CB3  1303               	bcf	3,6	;RP1=0, select bank1
  4603     0CB4  00D7               	movwf	___fltol@f1^(0+128)
  4604     0CB5  160A  118A  217F  120A  158A  	fcall	___fltol
  4605     0CBA  1683               	bsf	3,5	;RP0=1, select bank1
  4606     0CBB  1303               	bcf	3,6	;RP1=0, select bank1
  4607     0CBC  0858               	movf	(?___fltol+1)^(0+128),w
  4608     0CBD  1683               	bsf	3,5	;RP0=1, select bank3
  4609     0CBE  1703               	bsf	3,6	;RP1=1, select bank3
  4610     0CBF  0095               	movwf	(exp@exponent+1)^(0+384)
  4611     0CC0  1683               	bsf	3,5	;RP0=1, select bank1
  4612     0CC1  1303               	bcf	3,6	;RP1=0, select bank1
  4613     0CC2  0857               	movf	?___fltol^(0+128),w
  4614     0CC3  1683               	bsf	3,5	;RP0=1, select bank3
  4615     0CC4  1703               	bsf	3,6	;RP1=1, select bank3
  4616     0CC5  0094               	movwf	exp@exponent^(0+384)
  4617     0CC6                     l3923:
  4618     0CC6  0814               	movf	exp@exponent^(0+384),w
  4619     0CC7  00F2               	movwf	___xxtofl@val
  4620     0CC8  0815               	movf	(exp@exponent+1)^(0+384),w
  4621     0CC9  00F3               	movwf	___xxtofl@val+1
  4622     0CCA  3000               	movlw	0
  4623     0CCB  1BF3               	btfsc	___xxtofl@val+1,7
  4624     0CCC  30FF               	movlw	255
  4625     0CCD  00F4               	movwf	___xxtofl@val+2
  4626     0CCE  00F5               	movwf	___xxtofl@val+3
  4627     0CCF  3001               	movlw	1
  4628     0CD0  160A  118A  2342  120A  158A  	fcall	___xxtofl
  4629     0CD5  0875               	movf	?___xxtofl+3,w
  4630     0CD6  1683               	bsf	3,5	;RP0=1, select bank1
  4631     0CD7  1303               	bcf	3,6	;RP1=0, select bank1
  4632     0CD8  00B8               	movwf	(___flsub@a+3)^(0+128)
  4633     0CD9  0874               	movf	?___xxtofl+2,w
  4634     0CDA  00B7               	movwf	(___flsub@a+2)^(0+128)
  4635     0CDB  0873               	movf	?___xxtofl+1,w
  4636     0CDC  00B6               	movwf	(___flsub@a+1)^(0+128)
  4637     0CDD  0872               	movf	?___xxtofl,w
  4638     0CDE  00B5               	movwf	___flsub@a^(0+128)
  4639     0CDF  086E               	movf	(exp@x+3)^(0+128),w
  4640     0CE0  00BC               	movwf	(___flsub@b+3)^(0+128)
  4641     0CE1  086D               	movf	(exp@x+2)^(0+128),w
  4642     0CE2  00BB               	movwf	(___flsub@b+2)^(0+128)
  4643     0CE3  086C               	movf	(exp@x+1)^(0+128),w
  4644     0CE4  00BA               	movwf	(___flsub@b+1)^(0+128)
  4645     0CE5  086B               	movf	exp@x^(0+128),w
  4646     0CE6  00B9               	movwf	___flsub@b^(0+128)
  4647     0CE7  160A  158A  26A5  120A  158A  	fcall	___flsub
  4648     0CEC  1683               	bsf	3,5	;RP0=1, select bank1
  4649     0CED  1303               	bcf	3,6	;RP1=0, select bank1
  4650     0CEE  0838               	movf	(?___flsub+3)^(0+128),w
  4651     0CEF  00EE               	movwf	(exp@x+3)^(0+128)
  4652     0CF0  0837               	movf	(?___flsub+2)^(0+128),w
  4653     0CF1  00ED               	movwf	(exp@x+2)^(0+128)
  4654     0CF2  0836               	movf	(?___flsub+1)^(0+128),w
  4655     0CF3  00EC               	movwf	(exp@x+1)^(0+128)
  4656     0CF4  0835               	movf	?___flsub^(0+128),w
  4657     0CF5  00EB               	movwf	exp@x^(0+128)
  4658     0CF6                     l3925:
  4659     0CF6  086E               	movf	(exp@x+3)^(0+128),w
  4660     0CF7  1283               	bcf	3,5	;RP0=0, select bank0
  4661     0CF8  1303               	bcf	3,6	;RP1=0, select bank0
  4662     0CF9  00EA               	movwf	eval_poly@x+3
  4663     0CFA  1683               	bsf	3,5	;RP0=1, select bank1
  4664     0CFB  1303               	bcf	3,6	;RP1=0, select bank1
  4665     0CFC  086D               	movf	(exp@x+2)^(0+128),w
  4666     0CFD  1283               	bcf	3,5	;RP0=0, select bank0
  4667     0CFE  1303               	bcf	3,6	;RP1=0, select bank0
  4668     0CFF  00E9               	movwf	eval_poly@x+2
  4669     0D00  1683               	bsf	3,5	;RP0=1, select bank1
  4670     0D01  1303               	bcf	3,6	;RP1=0, select bank1
  4671     0D02  086C               	movf	(exp@x+1)^(0+128),w
  4672     0D03  1283               	bcf	3,5	;RP0=0, select bank0
  4673     0D04  1303               	bcf	3,6	;RP1=0, select bank0
  4674     0D05  00E8               	movwf	eval_poly@x+1
  4675     0D06  1683               	bsf	3,5	;RP0=1, select bank1
  4676     0D07  1303               	bcf	3,6	;RP1=0, select bank1
  4677     0D08  086B               	movf	exp@x^(0+128),w
  4678     0D09  1283               	bcf	3,5	;RP0=0, select bank0
  4679     0D0A  1303               	bcf	3,6	;RP1=0, select bank0
  4680     0D0B  00E7               	movwf	eval_poly@x
  4681     0D0C  3001               	movlw	(low ((exp@coeff-__stringbase)| (0+32768)))& (0+255)
  4682     0D0D  00EB               	movwf	eval_poly@d
  4683     0D0E  3009               	movlw	9
  4684     0D0F  00EC               	movwf	eval_poly@n
  4685     0D10  3000               	movlw	0
  4686     0D11  00ED               	movwf	eval_poly@n+1
  4687     0D12  160A  118A  25A4  120A  158A  	fcall	_eval_poly
  4688     0D17  1283               	bcf	3,5	;RP0=0, select bank0
  4689     0D18  1303               	bcf	3,6	;RP1=0, select bank0
  4690     0D19  086A               	movf	?_eval_poly+3,w
  4691     0D1A  1683               	bsf	3,5	;RP0=1, select bank1
  4692     0D1B  1303               	bcf	3,6	;RP1=0, select bank1
  4693     0D1C  00AC               	movwf	(ldexp@value+3)^(0+128)
  4694     0D1D  1283               	bcf	3,5	;RP0=0, select bank0
  4695     0D1E  1303               	bcf	3,6	;RP1=0, select bank0
  4696     0D1F  0869               	movf	?_eval_poly+2,w
  4697     0D20  1683               	bsf	3,5	;RP0=1, select bank1
  4698     0D21  1303               	bcf	3,6	;RP1=0, select bank1
  4699     0D22  00AB               	movwf	(ldexp@value+2)^(0+128)
  4700     0D23  1283               	bcf	3,5	;RP0=0, select bank0
  4701     0D24  1303               	bcf	3,6	;RP1=0, select bank0
  4702     0D25  0868               	movf	?_eval_poly+1,w
  4703     0D26  1683               	bsf	3,5	;RP0=1, select bank1
  4704     0D27  1303               	bcf	3,6	;RP1=0, select bank1
  4705     0D28  00AA               	movwf	(ldexp@value+1)^(0+128)
  4706     0D29  1283               	bcf	3,5	;RP0=0, select bank0
  4707     0D2A  1303               	bcf	3,6	;RP1=0, select bank0
  4708     0D2B  0867               	movf	?_eval_poly,w
  4709     0D2C  1683               	bsf	3,5	;RP0=1, select bank1
  4710     0D2D  1303               	bcf	3,6	;RP1=0, select bank1
  4711     0D2E  00A9               	movwf	ldexp@value^(0+128)
  4712     0D2F  1683               	bsf	3,5	;RP0=1, select bank3
  4713     0D30  1703               	bsf	3,6	;RP1=1, select bank3
  4714     0D31  0815               	movf	(exp@exponent+1)^(0+384),w
  4715     0D32  1683               	bsf	3,5	;RP0=1, select bank1
  4716     0D33  1303               	bcf	3,6	;RP1=0, select bank1
  4717     0D34  00AE               	movwf	(ldexp@newexp+1)^(0+128)
  4718     0D35  1683               	bsf	3,5	;RP0=1, select bank3
  4719     0D36  1703               	bsf	3,6	;RP1=1, select bank3
  4720     0D37  0814               	movf	exp@exponent^(0+384),w
  4721     0D38  1683               	bsf	3,5	;RP0=1, select bank1
  4722     0D39  1303               	bcf	3,6	;RP1=0, select bank1
  4723     0D3A  00AD               	movwf	ldexp@newexp^(0+128)
  4724     0D3B  160A  118A  24C0  120A  158A  	fcall	_ldexp
  4725     0D40  1683               	bsf	3,5	;RP0=1, select bank1
  4726     0D41  1303               	bcf	3,6	;RP1=0, select bank1
  4727     0D42  082C               	movf	(?_ldexp+3)^(0+128),w
  4728     0D43  00EE               	movwf	(exp@x+3)^(0+128)
  4729     0D44  082B               	movf	(?_ldexp+2)^(0+128),w
  4730     0D45  00ED               	movwf	(exp@x+2)^(0+128)
  4731     0D46  082A               	movf	(?_ldexp+1)^(0+128),w
  4732     0D47  00EC               	movwf	(exp@x+1)^(0+128)
  4733     0D48  0829               	movf	?_ldexp^(0+128),w
  4734     0D49  00EB               	movwf	exp@x^(0+128)
  4735     0D4A                     l3927:
  4736     0D4A  1683               	bsf	3,5	;RP0=1, select bank3
  4737     0D4B  1703               	bsf	3,6	;RP1=1, select bank3
  4738     0D4C  0816               	movf	exp@sign^(0+384),w
  4739     0D4D  1903               	btfsc	3,2
  4740     0D4E  2D50               	goto	u5891
  4741     0D4F  2D51               	goto	u5890
  4742     0D50                     u5891:
  4743     0D50  2DA7               	goto	l769
  4744     0D51                     u5890:
  4745     0D51                     l3929:
  4746     0D51  1683               	bsf	3,5	;RP0=1, select bank1
  4747     0D52  1303               	bcf	3,6	;RP1=0, select bank1
  4748     0D53  086E               	movf	(exp@x+3)^(0+128),w
  4749     0D54  1283               	bcf	3,5	;RP0=0, select bank0
  4750     0D55  1303               	bcf	3,6	;RP1=0, select bank0
  4751     0D56  00A9               	movwf	___fleq@ff1+3
  4752     0D57  1683               	bsf	3,5	;RP0=1, select bank1
  4753     0D58  1303               	bcf	3,6	;RP1=0, select bank1
  4754     0D59  086D               	movf	(exp@x+2)^(0+128),w
  4755     0D5A  1283               	bcf	3,5	;RP0=0, select bank0
  4756     0D5B  1303               	bcf	3,6	;RP1=0, select bank0
  4757     0D5C  00A8               	movwf	___fleq@ff1+2
  4758     0D5D  1683               	bsf	3,5	;RP0=1, select bank1
  4759     0D5E  1303               	bcf	3,6	;RP1=0, select bank1
  4760     0D5F  086C               	movf	(exp@x+1)^(0+128),w
  4761     0D60  1283               	bcf	3,5	;RP0=0, select bank0
  4762     0D61  1303               	bcf	3,6	;RP1=0, select bank0
  4763     0D62  00A7               	movwf	___fleq@ff1+1
  4764     0D63  1683               	bsf	3,5	;RP0=1, select bank1
  4765     0D64  1303               	bcf	3,6	;RP1=0, select bank1
  4766     0D65  086B               	movf	exp@x^(0+128),w
  4767     0D66  1283               	bcf	3,5	;RP0=0, select bank0
  4768     0D67  1303               	bcf	3,6	;RP1=0, select bank0
  4769     0D68  00A6               	movwf	___fleq@ff1
  4770     0D69  307F               	movlw	127
  4771     0D6A  00AD               	movwf	___fleq@ff2+3
  4772     0D6B  307F               	movlw	127
  4773     0D6C  00AC               	movwf	___fleq@ff2+2
  4774     0D6D  30FF               	movlw	255
  4775     0D6E  00AB               	movwf	___fleq@ff2+1
  4776     0D6F  30FF               	movlw	255
  4777     0D70  00AA               	movwf	___fleq@ff2
  4778     0D71  160A  158A  2655  120A  158A  	fcall	___fleq
  4779     0D76  1C03               	btfss	3,0
  4780     0D77  2D79               	goto	u5901
  4781     0D78  2D7A               	goto	u5900
  4782     0D79                     u5901:
  4783     0D79  2D85               	goto	l3935
  4784     0D7A                     u5900:
  4785     0D7A                     l3931:
  4786     0D7A  3000               	movlw	0
  4787     0D7B  1683               	bsf	3,5	;RP0=1, select bank1
  4788     0D7C  1303               	bcf	3,6	;RP1=0, select bank1
  4789     0D7D  00EE               	movwf	(?_exp+3)^(0+128)
  4790     0D7E  3000               	movlw	0
  4791     0D7F  00ED               	movwf	(?_exp+2)^(0+128)
  4792     0D80  3000               	movlw	0
  4793     0D81  00EC               	movwf	(?_exp+1)^(0+128)
  4794     0D82  3000               	movlw	0
  4795     0D83  00EB               	movwf	?_exp^(0+128)
  4796     0D84  2DA7               	goto	l765
  4797     0D85                     l3935:
  4798     0D85  1683               	bsf	3,5	;RP0=1, select bank1
  4799     0D86  1303               	bcf	3,6	;RP1=0, select bank1
  4800     0D87  086E               	movf	(exp@x+3)^(0+128),w
  4801     0D88  00C0               	movwf	(___fldiv@a+3)^(0+128)
  4802     0D89  086D               	movf	(exp@x+2)^(0+128),w
  4803     0D8A  00BF               	movwf	(___fldiv@a+2)^(0+128)
  4804     0D8B  086C               	movf	(exp@x+1)^(0+128),w
  4805     0D8C  00BE               	movwf	(___fldiv@a+1)^(0+128)
  4806     0D8D  086B               	movf	exp@x^(0+128),w
  4807     0D8E  00BD               	movwf	___fldiv@a^(0+128)
  4808     0D8F  303F               	movlw	63
  4809     0D90  00C4               	movwf	(___fldiv@b+3)^(0+128)
  4810     0D91  3080               	movlw	128
  4811     0D92  00C3               	movwf	(___fldiv@b+2)^(0+128)
  4812     0D93  3000               	movlw	0
  4813     0D94  00C2               	movwf	(___fldiv@b+1)^(0+128)
  4814     0D95  3000               	movlw	0
  4815     0D96  00C1               	movwf	___fldiv@b^(0+128)
  4816     0D97  120A  118A  262D  120A  158A  	fcall	___fldiv
  4817     0D9C  1683               	bsf	3,5	;RP0=1, select bank1
  4818     0D9D  1303               	bcf	3,6	;RP1=0, select bank1
  4819     0D9E  0840               	movf	(?___fldiv+3)^(0+128),w
  4820     0D9F  00EE               	movwf	(?_exp+3)^(0+128)
  4821     0DA0  083F               	movf	(?___fldiv+2)^(0+128),w
  4822     0DA1  00ED               	movwf	(?_exp+2)^(0+128)
  4823     0DA2  083E               	movf	(?___fldiv+1)^(0+128),w
  4824     0DA3  00EC               	movwf	(?_exp+1)^(0+128)
  4825     0DA4  083D               	movf	?___fldiv^(0+128),w
  4826     0DA5  00EB               	movwf	?_exp^(0+128)
  4827     0DA6  2DA7               	goto	l765
  4828     0DA7                     l769:
  4829     0DA7                     l765:
  4830     0DA7  0008               	return
  4831     0DA8                     __end_of_exp:
  4832                           
  4833                           	psect	text16
  4834     14C0                     __ptext16:	
  4835 ;; *************** function _ldexp *****************
  4836 ;; Defined at:
  4837 ;;		line 277 in file "C:\Program Files\Microchip\xc8\v2.41\pic\sources\c90\common\frexp.c"
  4838 ;; Parameters:    Size  Location     Type
  4839 ;;  value           4    9[BANK1 ] unsigned char 
  4840 ;;  newexp          2   13[BANK1 ] int 
  4841 ;; Auto vars:     Size  Location     Type
  4842 ;;		None
  4843 ;; Return value:  Size  Location     Type
  4844 ;;                  4    9[BANK1 ] int 
  4845 ;; Registers used:
  4846 ;;		wreg, status,2, status,0, btemp+1, pclath, cstack
  4847 ;; Tracked objects:
  4848 ;;		On entry : 0/0
  4849 ;;		On exit  : 0/0
  4850 ;;		Unchanged: 0/0
  4851 ;; Data sizes:     COMMON   BANK0   BANK1   BANK3   BANK2
  4852 ;;      Params:         0       0       6       0       0
  4853 ;;      Locals:         0       0       0       0       0
  4854 ;;      Temps:          0       2       0       0       0
  4855 ;;      Totals:         0       2       6       0       0
  4856 ;;Total ram usage:        8 bytes
  4857 ;; Hardware stack levels used: 1
  4858 ;; Hardware stack levels required when called: 2
  4859 ;; This function calls:
  4860 ;;		___fleq
  4861 ;;		___flge
  4862 ;; This function is called by:
  4863 ;;		_exp
  4864 ;; This function uses a non-reentrant model
  4865 ;;
  4866                           
  4867     14C0                     _ldexp:	
  4868                           ;psect for function _ldexp
  4869                           
  4870     14C0                     l3773:	
  4871                           ;incstack = 0
  4872                           ; Regs used in _ldexp: [wreg+status,2+status,0+btemp+1+pclath+cstack]
  4873                           
  4874     14C0  1683               	bsf	3,5	;RP0=1, select bank1
  4875     14C1  1303               	bcf	3,6	;RP1=0, select bank1
  4876     14C2  082C               	movf	(ldexp@value+3)^(0+128),w
  4877     14C3  1283               	bcf	3,5	;RP0=0, select bank0
  4878     14C4  1303               	bcf	3,6	;RP1=0, select bank0
  4879     14C5  00A9               	movwf	___fleq@ff1+3
  4880     14C6  1683               	bsf	3,5	;RP0=1, select bank1
  4881     14C7  1303               	bcf	3,6	;RP1=0, select bank1
  4882     14C8  082B               	movf	(ldexp@value+2)^(0+128),w
  4883     14C9  1283               	bcf	3,5	;RP0=0, select bank0
  4884     14CA  1303               	bcf	3,6	;RP1=0, select bank0
  4885     14CB  00A8               	movwf	___fleq@ff1+2
  4886     14CC  1683               	bsf	3,5	;RP0=1, select bank1
  4887     14CD  1303               	bcf	3,6	;RP1=0, select bank1
  4888     14CE  082A               	movf	(ldexp@value+1)^(0+128),w
  4889     14CF  1283               	bcf	3,5	;RP0=0, select bank0
  4890     14D0  1303               	bcf	3,6	;RP1=0, select bank0
  4891     14D1  00A7               	movwf	___fleq@ff1+1
  4892     14D2  1683               	bsf	3,5	;RP0=1, select bank1
  4893     14D3  1303               	bcf	3,6	;RP1=0, select bank1
  4894     14D4  0829               	movf	ldexp@value^(0+128),w
  4895     14D5  1283               	bcf	3,5	;RP0=0, select bank0
  4896     14D6  1303               	bcf	3,6	;RP1=0, select bank0
  4897     14D7  00A6               	movwf	___fleq@ff1
  4898     14D8  3000               	movlw	0
  4899     14D9  00AD               	movwf	___fleq@ff2+3
  4900     14DA  3000               	movlw	0
  4901     14DB  00AC               	movwf	___fleq@ff2+2
  4902     14DC  3000               	movlw	0
  4903     14DD  00AB               	movwf	___fleq@ff2+1
  4904     14DE  3000               	movlw	0
  4905     14DF  00AA               	movwf	___fleq@ff2
  4906     14E0  160A  158A  2655  160A  118A  	fcall	___fleq
  4907     14E5  1C03               	btfss	3,0
  4908     14E6  2CE8               	goto	u5661
  4909     14E7  2CE9               	goto	u5660
  4910     14E8                     u5661:
  4911     14E8  2CF4               	goto	l3779
  4912     14E9                     u5660:
  4913     14E9                     l3775:
  4914     14E9  3000               	movlw	0
  4915     14EA  1683               	bsf	3,5	;RP0=1, select bank1
  4916     14EB  1303               	bcf	3,6	;RP1=0, select bank1
  4917     14EC  00AC               	movwf	(?_ldexp+3)^(0+128)
  4918     14ED  3000               	movlw	0
  4919     14EE  00AB               	movwf	(?_ldexp+2)^(0+128)
  4920     14EF  3000               	movlw	0
  4921     14F0  00AA               	movwf	(?_ldexp+1)^(0+128)
  4922     14F1  3000               	movlw	0
  4923     14F2  00A9               	movwf	?_ldexp^(0+128)
  4924     14F3  2DA3               	goto	l730
  4925     14F4                     l3779:
  4926     14F4  1683               	bsf	3,5	;RP0=1, select bank1
  4927     14F5  1303               	bcf	3,6	;RP1=0, select bank1
  4928     14F6  082C               	movf	(ldexp@value^(0+128)+3),w
  4929     14F7  397F               	andlw	127
  4930     14F8  1283               	bcf	3,5	;RP0=0, select bank0
  4931     14F9  1303               	bcf	3,6	;RP1=0, select bank0
  4932     14FA  00EE               	movwf	??_ldexp
  4933     14FB  01EF               	clrf	??_ldexp+1
  4934     14FC  1003               	clrc
  4935     14FD  0DEE               	rlf	??_ldexp,f
  4936     14FE  0DEF               	rlf	??_ldexp+1,f
  4937     14FF  086E               	movf	??_ldexp,w
  4938     1500  1683               	bsf	3,5	;RP0=1, select bank1
  4939     1501  1303               	bcf	3,6	;RP1=0, select bank1
  4940     1502  07AD               	addwf	ldexp@newexp^(0+128),f
  4941     1503  1803               	skipnc
  4942     1504  0AAE               	incf	(ldexp@newexp+1)^(0+128),f
  4943     1505  1283               	bcf	3,5	;RP0=0, select bank0
  4944     1506  1303               	bcf	3,6	;RP1=0, select bank0
  4945     1507  086F               	movf	??_ldexp+1,w
  4946     1508  1683               	bsf	3,5	;RP0=1, select bank1
  4947     1509  1303               	bcf	3,6	;RP1=0, select bank1
  4948     150A  07AE               	addwf	(ldexp@newexp+1)^(0+128),f
  4949     150B  0D2B               	rlf	(ldexp@value^(0+128)+2),w
  4950     150C  0D2B               	rlf	(ldexp@value^(0+128)+2),w
  4951     150D  3901               	andlw	1
  4952     150E  1283               	bcf	3,5	;RP0=0, select bank0
  4953     150F  1303               	bcf	3,6	;RP1=0, select bank0
  4954     1510  00EE               	movwf	??_ldexp
  4955     1511  01EF               	clrf	??_ldexp+1
  4956     1512  086E               	movf	??_ldexp,w
  4957     1513  1683               	bsf	3,5	;RP0=1, select bank1
  4958     1514  1303               	bcf	3,6	;RP1=0, select bank1
  4959     1515  07AD               	addwf	ldexp@newexp^(0+128),f
  4960     1516  1803               	skipnc
  4961     1517  0AAE               	incf	(ldexp@newexp+1)^(0+128),f
  4962     1518  1283               	bcf	3,5	;RP0=0, select bank0
  4963     1519  1303               	bcf	3,6	;RP1=0, select bank0
  4964     151A  086F               	movf	??_ldexp+1,w
  4965     151B  1683               	bsf	3,5	;RP0=1, select bank1
  4966     151C  1303               	bcf	3,6	;RP1=0, select bank1
  4967     151D  07AE               	addwf	(ldexp@newexp+1)^(0+128),f
  4968     151E                     l3781:
  4969     151E  1FAE               	btfss	(ldexp@newexp+1)^(0+128),7
  4970     151F  2D21               	goto	u5671
  4971     1520  2D22               	goto	u5670
  4972     1521                     u5671:
  4973     1521  2D33               	goto	l3789
  4974     1522                     u5670:
  4975     1522                     l3783:
  4976     1522  3022               	movlw	34
  4977     1523  1283               	bcf	3,5	;RP0=0, select bank2
  4978     1524  1703               	bsf	3,6	;RP1=1, select bank2
  4979     1525  0090               	movwf	_errno^(0+256)
  4980     1526  3000               	movlw	0
  4981     1527  0091               	movwf	(_errno^(0+256)+1)
  4982     1528  3000               	movlw	0
  4983     1529  1683               	bsf	3,5	;RP0=1, select bank1
  4984     152A  1303               	bcf	3,6	;RP1=0, select bank1
  4985     152B  00AC               	movwf	(?_ldexp+3)^(0+128)
  4986     152C  3000               	movlw	0
  4987     152D  00AB               	movwf	(?_ldexp+2)^(0+128)
  4988     152E  3000               	movlw	0
  4989     152F  00AA               	movwf	(?_ldexp+1)^(0+128)
  4990     1530  3000               	movlw	0
  4991     1531  00A9               	movwf	?_ldexp^(0+128)
  4992     1532  2DA3               	goto	l730
  4993     1533                     l3789:
  4994     1533  082E               	movf	(ldexp@newexp+1)^(0+128),w
  4995     1534  3A80               	xorlw	128
  4996     1535  00FF               	movwf	btemp+1
  4997     1536  3081               	movlw	129
  4998     1537  027F               	subwf	btemp+1,w
  4999     1538  1D03               	skipz
  5000     1539  2D3C               	goto	u5685
  5001     153A  3000               	movlw	0
  5002     153B  022D               	subwf	ldexp@newexp^(0+128),w
  5003     153C                     u5685:
  5004     153C  1C03               	skipc
  5005     153D  2D3F               	goto	u5681
  5006     153E  2D40               	goto	u5680
  5007     153F                     u5681:
  5008     153F  2D77               	goto	l3805
  5009     1540                     u5680:
  5010     1540                     l3791:
  5011     1540  3022               	movlw	34
  5012     1541  1283               	bcf	3,5	;RP0=0, select bank2
  5013     1542  1703               	bsf	3,6	;RP1=1, select bank2
  5014     1543  0090               	movwf	_errno^(0+256)
  5015     1544  3000               	movlw	0
  5016     1545  0091               	movwf	(_errno^(0+256)+1)
  5017     1546                     l3793:
  5018     1546  1683               	bsf	3,5	;RP0=1, select bank1
  5019     1547  1303               	bcf	3,6	;RP1=0, select bank1
  5020     1548  082C               	movf	(ldexp@value+3)^(0+128),w
  5021     1549  00F5               	movwf	___flge@ff1+3
  5022     154A  082B               	movf	(ldexp@value+2)^(0+128),w
  5023     154B  00F4               	movwf	___flge@ff1+2
  5024     154C  082A               	movf	(ldexp@value+1)^(0+128),w
  5025     154D  00F3               	movwf	___flge@ff1+1
  5026     154E  0829               	movf	ldexp@value^(0+128),w
  5027     154F  00F2               	movwf	___flge@ff1
  5028     1550  3000               	movlw	0
  5029     1551  00F9               	movwf	___flge@ff2+3
  5030     1552  3000               	movlw	0
  5031     1553  00F8               	movwf	___flge@ff2+2
  5032     1554  3000               	movlw	0
  5033     1555  00F7               	movwf	___flge@ff2+1
  5034     1556  3000               	movlw	0
  5035     1557  00F6               	movwf	___flge@ff2
  5036     1558  160A  118A  21F7  160A  118A  	fcall	___flge
  5037     155D  1803               	btfsc	3,0
  5038     155E  2D60               	goto	u5691
  5039     155F  2D61               	goto	u5690
  5040     1560                     u5691:
  5041     1560  2D6C               	goto	l3801
  5042     1561                     u5690:
  5043     1561                     l3795:
  5044     1561  30FF               	movlw	255
  5045     1562  1683               	bsf	3,5	;RP0=1, select bank1
  5046     1563  1303               	bcf	3,6	;RP1=0, select bank1
  5047     1564  00AC               	movwf	(?_ldexp+3)^(0+128)
  5048     1565  307F               	movlw	127
  5049     1566  00AB               	movwf	(?_ldexp+2)^(0+128)
  5050     1567  30FF               	movlw	255
  5051     1568  00AA               	movwf	(?_ldexp+1)^(0+128)
  5052     1569  30FF               	movlw	255
  5053     156A  00A9               	movwf	?_ldexp^(0+128)
  5054     156B  2DA3               	goto	l730
  5055     156C                     l3801:
  5056     156C  307F               	movlw	127
  5057     156D  1683               	bsf	3,5	;RP0=1, select bank1
  5058     156E  1303               	bcf	3,6	;RP1=0, select bank1
  5059     156F  00AC               	movwf	(?_ldexp+3)^(0+128)
  5060     1570  307F               	movlw	127
  5061     1571  00AB               	movwf	(?_ldexp+2)^(0+128)
  5062     1572  30FF               	movlw	255
  5063     1573  00AA               	movwf	(?_ldexp+1)^(0+128)
  5064     1574  30FF               	movlw	255
  5065     1575  00A9               	movwf	?_ldexp^(0+128)
  5066     1576  2DA3               	goto	l730
  5067     1577                     l3805:
  5068     1577  1683               	bsf	3,5	;RP0=1, select bank1
  5069     1578  1303               	bcf	3,6	;RP1=0, select bank1
  5070     1579  082E               	movf	(ldexp@newexp+1)^(0+128),w
  5071     157A  1283               	bcf	3,5	;RP0=0, select bank0
  5072     157B  1303               	bcf	3,6	;RP1=0, select bank0
  5073     157C  00EF               	movwf	??_ldexp+1
  5074     157D  1683               	bsf	3,5	;RP0=1, select bank1
  5075     157E  1303               	bcf	3,6	;RP1=0, select bank1
  5076     157F  082D               	movf	ldexp@newexp^(0+128),w
  5077     1580  1283               	bcf	3,5	;RP0=0, select bank0
  5078     1581  1303               	bcf	3,6	;RP1=0, select bank0
  5079     1582  00EE               	movwf	??_ldexp
  5080     1583  0D6F               	rlf	??_ldexp+1,w
  5081     1584  0CEF               	rrf	??_ldexp+1,f
  5082     1585  0CEE               	rrf	??_ldexp,f
  5083     1586  1683               	bsf	3,5	;RP0=1, select bank1
  5084     1587  1303               	bcf	3,6	;RP1=0, select bank1
  5085     1588  082C               	movf	(ldexp@value^(0+128)+3),w
  5086     1589  1283               	bcf	3,5	;RP0=0, select bank0
  5087     158A  1303               	bcf	3,6	;RP1=0, select bank0
  5088     158B  066E               	xorwf	??_ldexp,w
  5089     158C  3980               	andlw	-128
  5090     158D  066E               	xorwf	??_ldexp,w
  5091     158E  1683               	bsf	3,5	;RP0=1, select bank1
  5092     158F  1303               	bcf	3,6	;RP1=0, select bank1
  5093     1590  00AC               	movwf	(ldexp@value^(0+128)+3)
  5094     1591  082D               	movf	ldexp@newexp^(0+128),w
  5095     1592  3901               	andlw	1
  5096     1593  1283               	bcf	3,5	;RP0=0, select bank0
  5097     1594  1303               	bcf	3,6	;RP1=0, select bank0
  5098     1595  00EE               	movwf	??_ldexp
  5099     1596  0CEE               	rrf	??_ldexp,f
  5100     1597  0CEE               	rrf	??_ldexp,f
  5101     1598  1683               	bsf	3,5	;RP0=1, select bank1
  5102     1599  1303               	bcf	3,6	;RP1=0, select bank1
  5103     159A  082B               	movf	(ldexp@value^(0+128)+2),w
  5104     159B  1283               	bcf	3,5	;RP0=0, select bank0
  5105     159C  1303               	bcf	3,6	;RP1=0, select bank0
  5106     159D  066E               	xorwf	??_ldexp,w
  5107     159E  397F               	andlw	-129
  5108     159F  066E               	xorwf	??_ldexp,w
  5109     15A0  1683               	bsf	3,5	;RP0=1, select bank1
  5110     15A1  1303               	bcf	3,6	;RP1=0, select bank1
  5111     15A2  00AB               	movwf	(ldexp@value^(0+128)+2)
  5112     15A3                     l3807:
  5113     15A3                     l730:
  5114     15A3  0008               	return
  5115     15A4                     __end_of_ldexp:
  5116                           
  5117                           	psect	text17
  5118     0877                     __ptext17:	
  5119 ;; *************** function _floor *****************
  5120 ;; Defined at:
  5121 ;;		line 13 in file "C:\Program Files\Microchip\xc8\v2.41\pic\sources\c90\common\floor.c"
  5122 ;; Parameters:    Size  Location     Type
  5123 ;;  x               4   65[BANK1 ] int 
  5124 ;; Auto vars:     Size  Location     Type
  5125 ;;  i               4   69[BANK1 ] int 
  5126 ;;  expon           2   73[BANK1 ] int 
  5127 ;; Return value:  Size  Location     Type
  5128 ;;                  4   65[BANK1 ] int 
  5129 ;; Registers used:
  5130 ;;		wreg, fsr0l, fsr0h, status,2, status,0, btemp+1, pclath, cstack
  5131 ;; Tracked objects:
  5132 ;;		On entry : 0/0
  5133 ;;		On exit  : 0/0
  5134 ;;		Unchanged: 0/0
  5135 ;; Data sizes:     COMMON   BANK0   BANK1   BANK3   BANK2
  5136 ;;      Params:         0       0       4       0       0
  5137 ;;      Locals:         0       0       6       0       0
  5138 ;;      Temps:          0       0       0       0       0
  5139 ;;      Totals:         0       0      10       0       0
  5140 ;;Total ram usage:       10 bytes
  5141 ;; Hardware stack levels used: 1
  5142 ;; Hardware stack levels required when called: 3
  5143 ;; This function calls:
  5144 ;;		___fladd
  5145 ;;		___flge
  5146 ;;		___fltol
  5147 ;;		___xxtofl
  5148 ;;		_frexp
  5149 ;; This function is called by:
  5150 ;;		_exp
  5151 ;; This function uses a non-reentrant model
  5152 ;;
  5153                           
  5154     0877                     _floor:	
  5155                           ;psect for function _floor
  5156                           
  5157     0877                     l3811:	
  5158                           ;incstack = 0
  5159                           ; Regs used in _floor: [wreg-fsr0h+status,2+status,0+btemp+1+pclath+cstack]
  5160                           
  5161     0877  1683               	bsf	3,5	;RP0=1, select bank1
  5162     0878  1303               	bcf	3,6	;RP1=0, select bank1
  5163     0879  0864               	movf	(floor@x+3)^(0+128),w
  5164     087A  1283               	bcf	3,5	;RP0=0, select bank0
  5165     087B  1303               	bcf	3,6	;RP1=0, select bank0
  5166     087C  00B5               	movwf	frexp@value+3
  5167     087D  1683               	bsf	3,5	;RP0=1, select bank1
  5168     087E  1303               	bcf	3,6	;RP1=0, select bank1
  5169     087F  0863               	movf	(floor@x+2)^(0+128),w
  5170     0880  1283               	bcf	3,5	;RP0=0, select bank0
  5171     0881  1303               	bcf	3,6	;RP1=0, select bank0
  5172     0882  00B4               	movwf	frexp@value+2
  5173     0883  1683               	bsf	3,5	;RP0=1, select bank1
  5174     0884  1303               	bcf	3,6	;RP1=0, select bank1
  5175     0885  0862               	movf	(floor@x+1)^(0+128),w
  5176     0886  1283               	bcf	3,5	;RP0=0, select bank0
  5177     0887  1303               	bcf	3,6	;RP1=0, select bank0
  5178     0888  00B3               	movwf	frexp@value+1
  5179     0889  1683               	bsf	3,5	;RP0=1, select bank1
  5180     088A  1303               	bcf	3,6	;RP1=0, select bank1
  5181     088B  0861               	movf	floor@x^(0+128),w
  5182     088C  1283               	bcf	3,5	;RP0=0, select bank0
  5183     088D  1303               	bcf	3,6	;RP1=0, select bank0
  5184     088E  00B2               	movwf	frexp@value
  5185     088F  30E9               	movlw	(low (floor@expon| 0))& (0+255)
  5186     0890  00B6               	movwf	frexp@eptr
  5187     0891  160A  118A  20C6  120A  158A  	fcall	_frexp
  5188     0896                     l3813:
  5189     0896  1683               	bsf	3,5	;RP0=1, select bank1
  5190     0897  1303               	bcf	3,6	;RP1=0, select bank1
  5191     0898  1FEA               	btfss	(floor@expon+1)^(0+128),7
  5192     0899  289B               	goto	u5701
  5193     089A  289C               	goto	u5700
  5194     089B                     u5701:
  5195     089B  28CB               	goto	l3825
  5196     089C                     u5700:
  5197     089C                     l3815:
  5198     089C  0864               	movf	(floor@x+3)^(0+128),w
  5199     089D  00F5               	movwf	___flge@ff1+3
  5200     089E  0863               	movf	(floor@x+2)^(0+128),w
  5201     089F  00F4               	movwf	___flge@ff1+2
  5202     08A0  0862               	movf	(floor@x+1)^(0+128),w
  5203     08A1  00F3               	movwf	___flge@ff1+1
  5204     08A2  0861               	movf	floor@x^(0+128),w
  5205     08A3  00F2               	movwf	___flge@ff1
  5206     08A4  3000               	movlw	0
  5207     08A5  00F9               	movwf	___flge@ff2+3
  5208     08A6  3000               	movlw	0
  5209     08A7  00F8               	movwf	___flge@ff2+2
  5210     08A8  3000               	movlw	0
  5211     08A9  00F7               	movwf	___flge@ff2+1
  5212     08AA  3000               	movlw	0
  5213     08AB  00F6               	movwf	___flge@ff2
  5214     08AC  160A  118A  21F7  120A  158A  	fcall	___flge
  5215     08B1  1803               	btfsc	3,0
  5216     08B2  28B4               	goto	u5711
  5217     08B3  28B5               	goto	u5710
  5218     08B4                     u5711:
  5219     08B4  28C0               	goto	l3821
  5220     08B5                     u5710:
  5221     08B5                     l3817:
  5222     08B5  30BF               	movlw	191
  5223     08B6  1683               	bsf	3,5	;RP0=1, select bank1
  5224     08B7  1303               	bcf	3,6	;RP1=0, select bank1
  5225     08B8  00E4               	movwf	(?_floor+3)^(0+128)
  5226     08B9  3080               	movlw	128
  5227     08BA  00E3               	movwf	(?_floor+2)^(0+128)
  5228     08BB  3000               	movlw	0
  5229     08BC  00E2               	movwf	(?_floor+1)^(0+128)
  5230     08BD  3000               	movlw	0
  5231     08BE  00E1               	movwf	?_floor^(0+128)
  5232     08BF  295F               	goto	l777
  5233     08C0                     l3821:
  5234     08C0  3000               	movlw	0
  5235     08C1  1683               	bsf	3,5	;RP0=1, select bank1
  5236     08C2  1303               	bcf	3,6	;RP1=0, select bank1
  5237     08C3  00E4               	movwf	(?_floor+3)^(0+128)
  5238     08C4  3000               	movlw	0
  5239     08C5  00E3               	movwf	(?_floor+2)^(0+128)
  5240     08C6  3000               	movlw	0
  5241     08C7  00E2               	movwf	(?_floor+1)^(0+128)
  5242     08C8  3000               	movlw	0
  5243     08C9  00E1               	movwf	?_floor^(0+128)
  5244     08CA  295F               	goto	l777
  5245     08CB                     l3825:
  5246     08CB  3000               	movlw	0
  5247     08CC  026A               	subwf	(floor@expon+1)^(0+128),w
  5248     08CD  301D               	movlw	29
  5249     08CE  1903               	skipnz
  5250     08CF  0269               	subwf	floor@expon^(0+128),w
  5251     08D0  1C03               	skipc
  5252     08D1  28D3               	goto	u5721
  5253     08D2  28D4               	goto	u5720
  5254     08D3                     u5721:
  5255     08D3  28D5               	goto	l3829
  5256     08D4                     u5720:
  5257     08D4                     l3827:
  5258     08D4  295F               	goto	l777
  5259     08D5                     l3829:
  5260     08D5  0864               	movf	(floor@x+3)^(0+128),w
  5261     08D6  00DA               	movwf	(___fltol@f1+3)^(0+128)
  5262     08D7  0863               	movf	(floor@x+2)^(0+128),w
  5263     08D8  00D9               	movwf	(___fltol@f1+2)^(0+128)
  5264     08D9  0862               	movf	(floor@x+1)^(0+128),w
  5265     08DA  00D8               	movwf	(___fltol@f1+1)^(0+128)
  5266     08DB  0861               	movf	floor@x^(0+128),w
  5267     08DC  00D7               	movwf	___fltol@f1^(0+128)
  5268     08DD  160A  118A  217F  120A  158A  	fcall	___fltol
  5269     08E2  1683               	bsf	3,5	;RP0=1, select bank1
  5270     08E3  1303               	bcf	3,6	;RP1=0, select bank1
  5271     08E4  085A               	movf	(?___fltol+3)^(0+128),w
  5272     08E5  00F5               	movwf	___xxtofl@val+3
  5273     08E6  0859               	movf	(?___fltol+2)^(0+128),w
  5274     08E7  00F4               	movwf	___xxtofl@val+2
  5275     08E8  0858               	movf	(?___fltol+1)^(0+128),w
  5276     08E9  00F3               	movwf	___xxtofl@val+1
  5277     08EA  0857               	movf	?___fltol^(0+128),w
  5278     08EB  00F2               	movwf	___xxtofl@val
  5279     08EC  3001               	movlw	1
  5280     08ED  160A  118A  2342  120A  158A  	fcall	___xxtofl
  5281     08F2  0875               	movf	?___xxtofl+3,w
  5282     08F3  1683               	bsf	3,5	;RP0=1, select bank1
  5283     08F4  1303               	bcf	3,6	;RP1=0, select bank1
  5284     08F5  00E8               	movwf	(floor@i+3)^(0+128)
  5285     08F6  0874               	movf	?___xxtofl+2,w
  5286     08F7  00E7               	movwf	(floor@i+2)^(0+128)
  5287     08F8  0873               	movf	?___xxtofl+1,w
  5288     08F9  00E6               	movwf	(floor@i+1)^(0+128)
  5289     08FA  0872               	movf	?___xxtofl,w
  5290     08FB  00E5               	movwf	floor@i^(0+128)
  5291     08FC                     l3831:
  5292     08FC  0864               	movf	(floor@x+3)^(0+128),w
  5293     08FD  00F5               	movwf	___flge@ff1+3
  5294     08FE  0863               	movf	(floor@x+2)^(0+128),w
  5295     08FF  00F4               	movwf	___flge@ff1+2
  5296     0900  0862               	movf	(floor@x+1)^(0+128),w
  5297     0901  00F3               	movwf	___flge@ff1+1
  5298     0902  0861               	movf	floor@x^(0+128),w
  5299     0903  00F2               	movwf	___flge@ff1
  5300     0904  0868               	movf	(floor@i+3)^(0+128),w
  5301     0905  00F9               	movwf	___flge@ff2+3
  5302     0906  0867               	movf	(floor@i+2)^(0+128),w
  5303     0907  00F8               	movwf	___flge@ff2+2
  5304     0908  0866               	movf	(floor@i+1)^(0+128),w
  5305     0909  00F7               	movwf	___flge@ff2+1
  5306     090A  0865               	movf	floor@i^(0+128),w
  5307     090B  00F6               	movwf	___flge@ff2
  5308     090C  160A  118A  21F7  120A  158A  	fcall	___flge
  5309     0911  1803               	btfsc	3,0
  5310     0912  2914               	goto	u5731
  5311     0913  2915               	goto	u5730
  5312     0914                     u5731:
  5313     0914  2955               	goto	l3837
  5314     0915                     u5730:
  5315     0915                     l3833:
  5316     0915  30BF               	movlw	191
  5317     0916  1283               	bcf	3,5	;RP0=0, select bank0
  5318     0917  1303               	bcf	3,6	;RP1=0, select bank0
  5319     0918  00D6               	movwf	___fladd@b+3
  5320     0919  3080               	movlw	128
  5321     091A  00D5               	movwf	___fladd@b+2
  5322     091B  3000               	movlw	0
  5323     091C  00D4               	movwf	___fladd@b+1
  5324     091D  3000               	movlw	0
  5325     091E  00D3               	movwf	___fladd@b
  5326     091F  1683               	bsf	3,5	;RP0=1, select bank1
  5327     0920  1303               	bcf	3,6	;RP1=0, select bank1
  5328     0921  0868               	movf	(floor@i+3)^(0+128),w
  5329     0922  1283               	bcf	3,5	;RP0=0, select bank0
  5330     0923  1303               	bcf	3,6	;RP1=0, select bank0
  5331     0924  00DA               	movwf	___fladd@a+3
  5332     0925  1683               	bsf	3,5	;RP0=1, select bank1
  5333     0926  1303               	bcf	3,6	;RP1=0, select bank1
  5334     0927  0867               	movf	(floor@i+2)^(0+128),w
  5335     0928  1283               	bcf	3,5	;RP0=0, select bank0
  5336     0929  1303               	bcf	3,6	;RP1=0, select bank0
  5337     092A  00D9               	movwf	___fladd@a+2
  5338     092B  1683               	bsf	3,5	;RP0=1, select bank1
  5339     092C  1303               	bcf	3,6	;RP1=0, select bank1
  5340     092D  0866               	movf	(floor@i+1)^(0+128),w
  5341     092E  1283               	bcf	3,5	;RP0=0, select bank0
  5342     092F  1303               	bcf	3,6	;RP1=0, select bank0
  5343     0930  00D8               	movwf	___fladd@a+1
  5344     0931  1683               	bsf	3,5	;RP0=1, select bank1
  5345     0932  1303               	bcf	3,6	;RP1=0, select bank1
  5346     0933  0865               	movf	floor@i^(0+128),w
  5347     0934  1283               	bcf	3,5	;RP0=0, select bank0
  5348     0935  1303               	bcf	3,6	;RP1=0, select bank0
  5349     0936  00D7               	movwf	___fladd@a
  5350     0937  120A  158A  25A8  120A  158A  	fcall	___fladd
  5351     093C  1283               	bcf	3,5	;RP0=0, select bank0
  5352     093D  1303               	bcf	3,6	;RP1=0, select bank0
  5353     093E  0856               	movf	?___fladd+3,w
  5354     093F  1683               	bsf	3,5	;RP0=1, select bank1
  5355     0940  1303               	bcf	3,6	;RP1=0, select bank1
  5356     0941  00E4               	movwf	(?_floor+3)^(0+128)
  5357     0942  1283               	bcf	3,5	;RP0=0, select bank0
  5358     0943  1303               	bcf	3,6	;RP1=0, select bank0
  5359     0944  0855               	movf	?___fladd+2,w
  5360     0945  1683               	bsf	3,5	;RP0=1, select bank1
  5361     0946  1303               	bcf	3,6	;RP1=0, select bank1
  5362     0947  00E3               	movwf	(?_floor+2)^(0+128)
  5363     0948  1283               	bcf	3,5	;RP0=0, select bank0
  5364     0949  1303               	bcf	3,6	;RP1=0, select bank0
  5365     094A  0854               	movf	?___fladd+1,w
  5366     094B  1683               	bsf	3,5	;RP0=1, select bank1
  5367     094C  1303               	bcf	3,6	;RP1=0, select bank1
  5368     094D  00E2               	movwf	(?_floor+1)^(0+128)
  5369     094E  1283               	bcf	3,5	;RP0=0, select bank0
  5370     094F  1303               	bcf	3,6	;RP1=0, select bank0
  5371     0950  0853               	movf	?___fladd,w
  5372     0951  1683               	bsf	3,5	;RP0=1, select bank1
  5373     0952  1303               	bcf	3,6	;RP1=0, select bank1
  5374     0953  00E1               	movwf	?_floor^(0+128)
  5375     0954  295F               	goto	l777
  5376     0955                     l3837:
  5377     0955  1683               	bsf	3,5	;RP0=1, select bank1
  5378     0956  1303               	bcf	3,6	;RP1=0, select bank1
  5379     0957  0868               	movf	(floor@i+3)^(0+128),w
  5380     0958  00E4               	movwf	(?_floor+3)^(0+128)
  5381     0959  0867               	movf	(floor@i+2)^(0+128),w
  5382     095A  00E3               	movwf	(?_floor+2)^(0+128)
  5383     095B  0866               	movf	(floor@i+1)^(0+128),w
  5384     095C  00E2               	movwf	(?_floor+1)^(0+128)
  5385     095D  0865               	movf	floor@i^(0+128),w
  5386     095E  00E1               	movwf	?_floor^(0+128)
  5387     095F                     l777:
  5388     095F  0008               	return
  5389     0960                     __end_of_floor:
  5390                           
  5391                           	psect	text18
  5392     117F                     __ptext18:	
  5393 ;; *************** function ___fltol *****************
  5394 ;; Defined at:
  5395 ;;		line 43 in file "C:\Program Files\Microchip\xc8\v2.41\pic\sources\c90\common\fltol.c"
  5396 ;; Parameters:    Size  Location     Type
  5397 ;;  f1              4   55[BANK1 ] int 
  5398 ;; Auto vars:     Size  Location     Type
  5399 ;;  exp1            1   64[BANK1 ] unsigned char 
  5400 ;;  sign1           1   63[BANK1 ] unsigned char 
  5401 ;; Return value:  Size  Location     Type
  5402 ;;                  4   55[BANK1 ] long 
  5403 ;; Registers used:
  5404 ;;		wreg, status,2, status,0, btemp+1
  5405 ;; Tracked objects:
  5406 ;;		On entry : 0/0
  5407 ;;		On exit  : 0/0
  5408 ;;		Unchanged: 0/0
  5409 ;; Data sizes:     COMMON   BANK0   BANK1   BANK3   BANK2
  5410 ;;      Params:         0       0       4       0       0
  5411 ;;      Locals:         0       0       2       0       0
  5412 ;;      Temps:          0       0       4       0       0
  5413 ;;      Totals:         0       0      10       0       0
  5414 ;;Total ram usage:       10 bytes
  5415 ;; Hardware stack levels used: 1
  5416 ;; Hardware stack levels required when called: 1
  5417 ;; This function calls:
  5418 ;;		Nothing
  5419 ;; This function is called by:
  5420 ;;		_converteVoltsParaLux
  5421 ;;		_pow
  5422 ;;		_exp
  5423 ;;		_floor
  5424 ;; This function uses a non-reentrant model
  5425 ;;
  5426                           
  5427     117F                     ___fltol:	
  5428                           ;psect for function ___fltol
  5429                           
  5430     117F                     l2129:	
  5431                           ;incstack = 0
  5432                           ; Regs used in ___fltol: [wreg+status,2+status,0+btemp+1]
  5433                           
  5434     117F  1003               	clrc
  5435     1180  1683               	bsf	3,5	;RP0=1, select bank1
  5436     1181  1303               	bcf	3,6	;RP1=0, select bank1
  5437     1182  0D59               	rlf	(___fltol@f1+2)^(0+128),w
  5438     1183  0D5A               	rlf	(___fltol@f1+3)^(0+128),w
  5439     1184  00E0               	movwf	___fltol@exp1^(0+128)
  5440     1185  0860               	movf	___fltol@exp1^(0+128),w
  5441     1186  1D03               	btfss	3,2
  5442     1187  2989               	goto	u2421
  5443     1188  298A               	goto	u2420
  5444     1189                     u2421:
  5445     1189  2993               	goto	l2135
  5446     118A                     u2420:
  5447     118A                     l2131:
  5448     118A  3000               	movlw	0
  5449     118B  00DA               	movwf	(?___fltol+3)^(0+128)
  5450     118C  3000               	movlw	0
  5451     118D  00D9               	movwf	(?___fltol+2)^(0+128)
  5452     118E  3000               	movlw	0
  5453     118F  00D8               	movwf	(?___fltol+1)^(0+128)
  5454     1190  3000               	movlw	0
  5455     1191  00D7               	movwf	?___fltol^(0+128)
  5456     1192  29F6               	goto	l434
  5457     1193                     l2135:
  5458     1193  0857               	movf	___fltol@f1^(0+128),w
  5459     1194  00DB               	movwf	??___fltol^(0+128)
  5460     1195  0858               	movf	(___fltol@f1+1)^(0+128),w
  5461     1196  00DC               	movwf	(??___fltol^(0+128)+1)
  5462     1197  0859               	movf	(___fltol@f1+2)^(0+128),w
  5463     1198  00DD               	movwf	(??___fltol^(0+128)+2)
  5464     1199  085A               	movf	(___fltol@f1+3)^(0+128),w
  5465     119A  00DE               	movwf	(??___fltol^(0+128)+3)
  5466     119B  301F               	movlw	31
  5467     119C                     u2435:
  5468     119C  1003               	clrc
  5469     119D  0CDE               	rrf	(??___fltol^(0+128)+3),f
  5470     119E  0CDD               	rrf	(??___fltol^(0+128)+2),f
  5471     119F  0CDC               	rrf	(??___fltol^(0+128)+1),f
  5472     11A0  0CDB               	rrf	??___fltol^(0+128),f
  5473     11A1                     u2430:
  5474     11A1  3EFF               	addlw	-1
  5475     11A2  1D03               	skipz
  5476     11A3  299C               	goto	u2435
  5477     11A4  085B               	movf	??___fltol^(0+128),w
  5478     11A5  00DF               	movwf	___fltol@sign1^(0+128)
  5479     11A6                     l2137:
  5480     11A6  17D9               	bsf	(___fltol@f1^(0+128)+2),7
  5481     11A7                     l2139:
  5482     11A7  30FF               	movlw	255
  5483     11A8  05D7               	andwf	___fltol@f1^(0+128),f
  5484     11A9  30FF               	movlw	255
  5485     11AA  05D8               	andwf	(___fltol@f1+1)^(0+128),f
  5486     11AB  30FF               	movlw	255
  5487     11AC  05D9               	andwf	(___fltol@f1+2)^(0+128),f
  5488     11AD  3000               	movlw	0
  5489     11AE  05DA               	andwf	(___fltol@f1+3)^(0+128),f
  5490     11AF                     l2141:
  5491     11AF  3096               	movlw	150
  5492     11B0  02E0               	subwf	___fltol@exp1^(0+128),f
  5493     11B1                     l2143:
  5494     11B1  1FE0               	btfss	___fltol@exp1^(0+128),7
  5495     11B2  29B4               	goto	u2441
  5496     11B3  29B5               	goto	u2440
  5497     11B4                     u2441:
  5498     11B4  29CF               	goto	l2155
  5499     11B5                     u2440:
  5500     11B5                     l2145:
  5501     11B5  0860               	movf	___fltol@exp1^(0+128),w
  5502     11B6  3A80               	xorlw	128
  5503     11B7  3E97               	addlw	151
  5504     11B8  1803               	skipnc
  5505     11B9  29BB               	goto	u2451
  5506     11BA  29BC               	goto	u2450
  5507     11BB                     u2451:
  5508     11BB  29BD               	goto	l2151
  5509     11BC                     u2450:
  5510     11BC  298A               	goto	l2131
  5511     11BD                     l2151:
  5512     11BD  3001               	movlw	1
  5513     11BE                     u2465:
  5514     11BE  1003               	clrc
  5515     11BF  0CDA               	rrf	(___fltol@f1+3)^(0+128),f
  5516     11C0  0CD9               	rrf	(___fltol@f1+2)^(0+128),f
  5517     11C1  0CD8               	rrf	(___fltol@f1+1)^(0+128),f
  5518     11C2  0CD7               	rrf	___fltol@f1^(0+128),f
  5519     11C3  3EFF               	addlw	-1
  5520     11C4  1D03               	skipz
  5521     11C5  29BE               	goto	u2465
  5522     11C6                     l2153:
  5523     11C6  3001               	movlw	1
  5524     11C7  00FF               	movwf	btemp+1
  5525     11C8  087F               	movf	btemp+1,w
  5526     11C9  07E0               	addwf	___fltol@exp1^(0+128),f
  5527     11CA  1D03               	btfss	3,2
  5528     11CB  29CD               	goto	u2471
  5529     11CC  29CE               	goto	u2470
  5530     11CD                     u2471:
  5531     11CD  29BD               	goto	l2151
  5532     11CE                     u2470:
  5533     11CE  29E6               	goto	l2163
  5534     11CF                     l2155:
  5535     11CF  3020               	movlw	32
  5536     11D0  0260               	subwf	___fltol@exp1^(0+128),w
  5537     11D1  1C03               	skipc
  5538     11D2  29D4               	goto	u2481
  5539     11D3  29D5               	goto	u2480
  5540     11D4                     u2481:
  5541     11D4  29E1               	goto	l441
  5542     11D5                     u2480:
  5543     11D5  298A               	goto	l2131
  5544     11D6                     l2161:
  5545     11D6  3001               	movlw	1
  5546     11D7  00DB               	movwf	??___fltol^(0+128)
  5547     11D8                     u2495:
  5548     11D8  1003               	clrc
  5549     11D9  0DD7               	rlf	___fltol@f1^(0+128),f
  5550     11DA  0DD8               	rlf	(___fltol@f1+1)^(0+128),f
  5551     11DB  0DD9               	rlf	(___fltol@f1+2)^(0+128),f
  5552     11DC  0DDA               	rlf	(___fltol@f1+3)^(0+128),f
  5553     11DD  0BDB               	decfsz	??___fltol^(0+128),f
  5554     11DE  29D8               	goto	u2495
  5555     11DF  3001               	movlw	1
  5556     11E0  02E0               	subwf	___fltol@exp1^(0+128),f
  5557     11E1                     l441:
  5558     11E1  0860               	movf	___fltol@exp1^(0+128),w
  5559     11E2  1D03               	btfss	3,2
  5560     11E3  29E5               	goto	u2501
  5561     11E4  29E6               	goto	u2500
  5562     11E5                     u2501:
  5563     11E5  29D6               	goto	l2161
  5564     11E6                     u2500:
  5565     11E6                     l2163:
  5566     11E6  085F               	movf	___fltol@sign1^(0+128),w
  5567     11E7  1903               	btfsc	3,2
  5568     11E8  29EA               	goto	u2511
  5569     11E9  29EB               	goto	u2510
  5570     11EA                     u2511:
  5571     11EA  29F6               	goto	l444
  5572     11EB                     u2510:
  5573     11EB                     l2165:
  5574     11EB  09D7               	comf	___fltol@f1^(0+128),f
  5575     11EC  09D8               	comf	(___fltol@f1+1)^(0+128),f
  5576     11ED  09D9               	comf	(___fltol@f1+2)^(0+128),f
  5577     11EE  09DA               	comf	(___fltol@f1+3)^(0+128),f
  5578     11EF  0AD7               	incf	___fltol@f1^(0+128),f
  5579     11F0  1903               	skipnz
  5580     11F1  0AD8               	incf	(___fltol@f1+1)^(0+128),f
  5581     11F2  1903               	skipnz
  5582     11F3  0AD9               	incf	(___fltol@f1+2)^(0+128),f
  5583     11F4  1903               	skipnz
  5584     11F5  0ADA               	incf	(___fltol@f1+3)^(0+128),f
  5585     11F6                     l444:
  5586     11F6                     l434:
  5587     11F6  0008               	return
  5588     11F7                     __end_of___fltol:
  5589                           
  5590                           	psect	text19
  5591     1EA5                     __ptext19:	
  5592 ;; *************** function ___flsub *****************
  5593 ;; Defined at:
  5594 ;;		line 242 in file "C:\Program Files\Microchip\xc8\v2.41\pic\sources\c90\common\sprcadd.c"
  5595 ;; Parameters:    Size  Location     Type
  5596 ;;  a               4   21[BANK1 ] long 
  5597 ;;  b               4   25[BANK1 ] long 
  5598 ;; Auto vars:     Size  Location     Type
  5599 ;;		None
  5600 ;; Return value:  Size  Location     Type
  5601 ;;                  4   21[BANK1 ] long 
  5602 ;; Registers used:
  5603 ;;		wreg, status,2, status,0, btemp+1, pclath, cstack
  5604 ;; Tracked objects:
  5605 ;;		On entry : 0/0
  5606 ;;		On exit  : 0/0
  5607 ;;		Unchanged: 0/0
  5608 ;; Data sizes:     COMMON   BANK0   BANK1   BANK3   BANK2
  5609 ;;      Params:         0       0       8       0       0
  5610 ;;      Locals:         0       0       0       0       0
  5611 ;;      Temps:          0       0       0       0       0
  5612 ;;      Totals:         0       0       8       0       0
  5613 ;;Total ram usage:        8 bytes
  5614 ;; Hardware stack levels used: 1
  5615 ;; Hardware stack levels required when called: 2
  5616 ;; This function calls:
  5617 ;;		___fladd
  5618 ;; This function is called by:
  5619 ;;		_converteVoltsParaLux
  5620 ;;		_exp
  5621 ;; This function uses a non-reentrant model
  5622 ;;
  5623                           
  5624     1EA5                     ___flsub:	
  5625                           ;psect for function ___flsub
  5626                           
  5627     1EA5                     l3757:	
  5628                           ;incstack = 0
  5629                           ; Regs used in ___flsub: [wreg+status,2+status,0+btemp+1+pclath+cstack]
  5630                           
  5631     1EA5  3080               	movlw	128
  5632     1EA6  1683               	bsf	3,5	;RP0=1, select bank1
  5633     1EA7  1303               	bcf	3,6	;RP1=0, select bank1
  5634     1EA8  06B8               	xorwf	(___flsub@a+3)^(0+128),f
  5635     1EA9                     l3759:
  5636     1EA9  083C               	movf	(___flsub@b+3)^(0+128),w
  5637     1EAA  1283               	bcf	3,5	;RP0=0, select bank0
  5638     1EAB  1303               	bcf	3,6	;RP1=0, select bank0
  5639     1EAC  00D6               	movwf	___fladd@b+3
  5640     1EAD  1683               	bsf	3,5	;RP0=1, select bank1
  5641     1EAE  1303               	bcf	3,6	;RP1=0, select bank1
  5642     1EAF  083B               	movf	(___flsub@b+2)^(0+128),w
  5643     1EB0  1283               	bcf	3,5	;RP0=0, select bank0
  5644     1EB1  1303               	bcf	3,6	;RP1=0, select bank0
  5645     1EB2  00D5               	movwf	___fladd@b+2
  5646     1EB3  1683               	bsf	3,5	;RP0=1, select bank1
  5647     1EB4  1303               	bcf	3,6	;RP1=0, select bank1
  5648     1EB5  083A               	movf	(___flsub@b+1)^(0+128),w
  5649     1EB6  1283               	bcf	3,5	;RP0=0, select bank0
  5650     1EB7  1303               	bcf	3,6	;RP1=0, select bank0
  5651     1EB8  00D4               	movwf	___fladd@b+1
  5652     1EB9  1683               	bsf	3,5	;RP0=1, select bank1
  5653     1EBA  1303               	bcf	3,6	;RP1=0, select bank1
  5654     1EBB  0839               	movf	___flsub@b^(0+128),w
  5655     1EBC  1283               	bcf	3,5	;RP0=0, select bank0
  5656     1EBD  1303               	bcf	3,6	;RP1=0, select bank0
  5657     1EBE  00D3               	movwf	___fladd@b
  5658     1EBF  1683               	bsf	3,5	;RP0=1, select bank1
  5659     1EC0  1303               	bcf	3,6	;RP1=0, select bank1
  5660     1EC1  0838               	movf	(___flsub@a+3)^(0+128),w
  5661     1EC2  1283               	bcf	3,5	;RP0=0, select bank0
  5662     1EC3  1303               	bcf	3,6	;RP1=0, select bank0
  5663     1EC4  00DA               	movwf	___fladd@a+3
  5664     1EC5  1683               	bsf	3,5	;RP0=1, select bank1
  5665     1EC6  1303               	bcf	3,6	;RP1=0, select bank1
  5666     1EC7  0837               	movf	(___flsub@a+2)^(0+128),w
  5667     1EC8  1283               	bcf	3,5	;RP0=0, select bank0
  5668     1EC9  1303               	bcf	3,6	;RP1=0, select bank0
  5669     1ECA  00D9               	movwf	___fladd@a+2
  5670     1ECB  1683               	bsf	3,5	;RP0=1, select bank1
  5671     1ECC  1303               	bcf	3,6	;RP1=0, select bank1
  5672     1ECD  0836               	movf	(___flsub@a+1)^(0+128),w
  5673     1ECE  1283               	bcf	3,5	;RP0=0, select bank0
  5674     1ECF  1303               	bcf	3,6	;RP1=0, select bank0
  5675     1ED0  00D8               	movwf	___fladd@a+1
  5676     1ED1  1683               	bsf	3,5	;RP0=1, select bank1
  5677     1ED2  1303               	bcf	3,6	;RP1=0, select bank1
  5678     1ED3  0835               	movf	___flsub@a^(0+128),w
  5679     1ED4  1283               	bcf	3,5	;RP0=0, select bank0
  5680     1ED5  1303               	bcf	3,6	;RP1=0, select bank0
  5681     1ED6  00D7               	movwf	___fladd@a
  5682     1ED7  120A  158A  25A8  160A  158A  	fcall	___fladd
  5683     1EDC  1283               	bcf	3,5	;RP0=0, select bank0
  5684     1EDD  1303               	bcf	3,6	;RP1=0, select bank0
  5685     1EDE  0856               	movf	?___fladd+3,w
  5686     1EDF  1683               	bsf	3,5	;RP0=1, select bank1
  5687     1EE0  1303               	bcf	3,6	;RP1=0, select bank1
  5688     1EE1  00B8               	movwf	(?___flsub+3)^(0+128)
  5689     1EE2  1283               	bcf	3,5	;RP0=0, select bank0
  5690     1EE3  1303               	bcf	3,6	;RP1=0, select bank0
  5691     1EE4  0855               	movf	?___fladd+2,w
  5692     1EE5  1683               	bsf	3,5	;RP0=1, select bank1
  5693     1EE6  1303               	bcf	3,6	;RP1=0, select bank1
  5694     1EE7  00B7               	movwf	(?___flsub+2)^(0+128)
  5695     1EE8  1283               	bcf	3,5	;RP0=0, select bank0
  5696     1EE9  1303               	bcf	3,6	;RP1=0, select bank0
  5697     1EEA  0854               	movf	?___fladd+1,w
  5698     1EEB  1683               	bsf	3,5	;RP0=1, select bank1
  5699     1EEC  1303               	bcf	3,6	;RP1=0, select bank1
  5700     1EED  00B6               	movwf	(?___flsub+1)^(0+128)
  5701     1EEE  1283               	bcf	3,5	;RP0=0, select bank0
  5702     1EEF  1303               	bcf	3,6	;RP1=0, select bank0
  5703     1EF0  0853               	movf	?___fladd,w
  5704     1EF1  1683               	bsf	3,5	;RP0=1, select bank1
  5705     1EF2  1303               	bcf	3,6	;RP1=0, select bank1
  5706     1EF3  00B5               	movwf	?___flsub^(0+128)
  5707     1EF4                     l587:
  5708     1EF4  0008               	return
  5709     1EF5                     __end_of___flsub:
  5710                           
  5711                           	psect	text20
  5712     1C3D                     __ptext20:	
  5713 ;; *************** function ___flneg *****************
  5714 ;; Defined at:
  5715 ;;		line 15 in file "C:\Program Files\Microchip\xc8\v2.41\pic\sources\c90\common\flneg.c"
  5716 ;; Parameters:    Size  Location     Type
  5717 ;;  f1              4    2[COMMON] long 
  5718 ;; Auto vars:     Size  Location     Type
  5719 ;;		None
  5720 ;; Return value:  Size  Location     Type
  5721 ;;                  4    2[COMMON] long 
  5722 ;; Registers used:
  5723 ;;		wreg
  5724 ;; Tracked objects:
  5725 ;;		On entry : 0/0
  5726 ;;		On exit  : 0/0
  5727 ;;		Unchanged: 0/0
  5728 ;; Data sizes:     COMMON   BANK0   BANK1   BANK3   BANK2
  5729 ;;      Params:         4       0       0       0       0
  5730 ;;      Locals:         0       0       0       0       0
  5731 ;;      Temps:          0       0       0       0       0
  5732 ;;      Totals:         4       0       0       0       0
  5733 ;;Total ram usage:        4 bytes
  5734 ;; Hardware stack levels used: 1
  5735 ;; Hardware stack levels required when called: 1
  5736 ;; This function calls:
  5737 ;;		Nothing
  5738 ;; This function is called by:
  5739 ;;		_pow
  5740 ;;		_exp
  5741 ;; This function uses a non-reentrant model
  5742 ;;
  5743                           
  5744     1C3D                     ___flneg:	
  5745                           ;psect for function ___flneg
  5746                           
  5747     1C3D                     l2607:	
  5748                           ;incstack = 0
  5749                           ; Regs used in ___flneg: [wreg]
  5750                           
  5751     1C3D  0875               	movf	___flneg@f1+3,w
  5752     1C3E  0474               	iorwf	___flneg@f1+2,w
  5753     1C3F  0473               	iorwf	___flneg@f1+1,w
  5754     1C40  0472               	iorwf	___flneg@f1,w
  5755     1C41  1903               	skipnz
  5756     1C42  2C44               	goto	u3511
  5757     1C43  2C45               	goto	u3510
  5758     1C44                     u3511:
  5759     1C44  2C47               	goto	l2611
  5760     1C45                     u3510:
  5761     1C45                     l2609:
  5762     1C45  3080               	movlw	128
  5763     1C46  06F5               	xorwf	___flneg@f1+3,f
  5764     1C47                     l2611:
  5765     1C47                     l430:
  5766     1C47  0008               	return
  5767     1C48                     __end_of___flneg:
  5768                           
  5769                           	psect	text21
  5770     1F4E                     __ptext21:	
  5771 ;; *************** function _log10 *****************
  5772 ;; Defined at:
  5773 ;;		line 39 in file "C:\Program Files\Microchip\xc8\v2.41\pic\sources\c90\common\log.c"
  5774 ;; Parameters:    Size  Location     Type
  5775 ;;  x               4   13[BANK1 ] long 
  5776 ;; Auto vars:     Size  Location     Type
  5777 ;;		None
  5778 ;; Return value:  Size  Location     Type
  5779 ;;                  4   13[BANK1 ] long 
  5780 ;; Registers used:
  5781 ;;		wreg, fsr0l, fsr0h, status,2, status,0, btemp+1, pclath, cstack
  5782 ;; Tracked objects:
  5783 ;;		On entry : 0/0
  5784 ;;		On exit  : 0/0
  5785 ;;		Unchanged: 0/0
  5786 ;; Data sizes:     COMMON   BANK0   BANK1   BANK3   BANK2
  5787 ;;      Params:         0       0       4       0       0
  5788 ;;      Locals:         0       0       4       0       0
  5789 ;;      Temps:          0       0       0       0       0
  5790 ;;      Totals:         0       0       8       0       0
  5791 ;;Total ram usage:        8 bytes
  5792 ;; Hardware stack levels used: 1
  5793 ;; Hardware stack levels required when called: 5
  5794 ;; This function calls:
  5795 ;;		___flmul
  5796 ;;		_log
  5797 ;; This function is called by:
  5798 ;;		_converteVoltsParaLux
  5799 ;; This function uses a non-reentrant model
  5800 ;;
  5801                           
  5802     1F4E                     _log10:	
  5803                           ;psect for function _log10
  5804                           
  5805     1F4E                     l3947:	
  5806                           ;incstack = 0
  5807                           ; Regs used in _log10: [wreg-fsr0h+status,2+status,0+btemp+1+pclath+cstack]
  5808                           
  5809     1F4E  1683               	bsf	3,5	;RP0=1, select bank1
  5810     1F4F  1303               	bcf	3,6	;RP1=0, select bank1
  5811     1F50  0830               	movf	(log10@x+3)^(0+128),w
  5812     1F51  00AC               	movwf	(log@x+3)^(0+128)
  5813     1F52  082F               	movf	(log10@x+2)^(0+128),w
  5814     1F53  00AB               	movwf	(log@x+2)^(0+128)
  5815     1F54  082E               	movf	(log10@x+1)^(0+128),w
  5816     1F55  00AA               	movwf	(log@x+1)^(0+128)
  5817     1F56  082D               	movf	log10@x^(0+128),w
  5818     1F57  00A9               	movwf	log@x^(0+128)
  5819     1F58  160A  118A  268C  160A  158A  	fcall	_log
  5820     1F5D  1683               	bsf	3,5	;RP0=1, select bank1
  5821     1F5E  1303               	bcf	3,6	;RP1=0, select bank1
  5822     1F5F  082C               	movf	(?_log+3)^(0+128),w
  5823     1F60  00B4               	movwf	(_log10$1075+3)^(0+128)
  5824     1F61  082B               	movf	(?_log+2)^(0+128),w
  5825     1F62  00B3               	movwf	(_log10$1075+2)^(0+128)
  5826     1F63  082A               	movf	(?_log+1)^(0+128),w
  5827     1F64  00B2               	movwf	(_log10$1075+1)^(0+128)
  5828     1F65  0829               	movf	?_log^(0+128),w
  5829     1F66  00B1               	movwf	_log10$1075^(0+128)
  5830     1F67                     l3949:
  5831     1F67  303E               	movlw	62
  5832     1F68  1283               	bcf	3,5	;RP0=0, select bank0
  5833     1F69  1303               	bcf	3,6	;RP1=0, select bank0
  5834     1F6A  00BC               	movwf	___flmul@b+3
  5835     1F6B  30DE               	movlw	222
  5836     1F6C  00BB               	movwf	___flmul@b+2
  5837     1F6D  305B               	movlw	91
  5838     1F6E  00BA               	movwf	___flmul@b+1
  5839     1F6F  30D9               	movlw	217
  5840     1F70  00B9               	movwf	___flmul@b
  5841     1F71  1683               	bsf	3,5	;RP0=1, select bank1
  5842     1F72  1303               	bcf	3,6	;RP1=0, select bank1
  5843     1F73  0834               	movf	(_log10$1075+3)^(0+128),w
  5844     1F74  1283               	bcf	3,5	;RP0=0, select bank0
  5845     1F75  1303               	bcf	3,6	;RP1=0, select bank0
  5846     1F76  00C0               	movwf	___flmul@a+3
  5847     1F77  1683               	bsf	3,5	;RP0=1, select bank1
  5848     1F78  1303               	bcf	3,6	;RP1=0, select bank1
  5849     1F79  0833               	movf	(_log10$1075+2)^(0+128),w
  5850     1F7A  1283               	bcf	3,5	;RP0=0, select bank0
  5851     1F7B  1303               	bcf	3,6	;RP1=0, select bank0
  5852     1F7C  00BF               	movwf	___flmul@a+2
  5853     1F7D  1683               	bsf	3,5	;RP0=1, select bank1
  5854     1F7E  1303               	bcf	3,6	;RP1=0, select bank1
  5855     1F7F  0832               	movf	(_log10$1075+1)^(0+128),w
  5856     1F80  1283               	bcf	3,5	;RP0=0, select bank0
  5857     1F81  1303               	bcf	3,6	;RP1=0, select bank0
  5858     1F82  00BE               	movwf	___flmul@a+1
  5859     1F83  1683               	bsf	3,5	;RP0=1, select bank1
  5860     1F84  1303               	bcf	3,6	;RP1=0, select bank1
  5861     1F85  0831               	movf	_log10$1075^(0+128),w
  5862     1F86  1283               	bcf	3,5	;RP0=0, select bank0
  5863     1F87  1303               	bcf	3,6	;RP1=0, select bank0
  5864     1F88  00BD               	movwf	___flmul@a
  5865     1F89  120A  118A  203B  160A  158A  	fcall	___flmul
  5866     1F8E  1283               	bcf	3,5	;RP0=0, select bank0
  5867     1F8F  1303               	bcf	3,6	;RP1=0, select bank0
  5868     1F90  083C               	movf	?___flmul+3,w
  5869     1F91  1683               	bsf	3,5	;RP0=1, select bank1
  5870     1F92  1303               	bcf	3,6	;RP1=0, select bank1
  5871     1F93  00B0               	movwf	(?_log10+3)^(0+128)
  5872     1F94  1283               	bcf	3,5	;RP0=0, select bank0
  5873     1F95  1303               	bcf	3,6	;RP1=0, select bank0
  5874     1F96  083B               	movf	?___flmul+2,w
  5875     1F97  1683               	bsf	3,5	;RP0=1, select bank1
  5876     1F98  1303               	bcf	3,6	;RP1=0, select bank1
  5877     1F99  00AF               	movwf	(?_log10+2)^(0+128)
  5878     1F9A  1283               	bcf	3,5	;RP0=0, select bank0
  5879     1F9B  1303               	bcf	3,6	;RP1=0, select bank0
  5880     1F9C  083A               	movf	?___flmul+1,w
  5881     1F9D  1683               	bsf	3,5	;RP0=1, select bank1
  5882     1F9E  1303               	bcf	3,6	;RP1=0, select bank1
  5883     1F9F  00AE               	movwf	(?_log10+1)^(0+128)
  5884     1FA0  1283               	bcf	3,5	;RP0=0, select bank0
  5885     1FA1  1303               	bcf	3,6	;RP1=0, select bank0
  5886     1FA2  0839               	movf	?___flmul,w
  5887     1FA3  1683               	bsf	3,5	;RP0=1, select bank1
  5888     1FA4  1303               	bcf	3,6	;RP1=0, select bank1
  5889     1FA5  00AD               	movwf	?_log10^(0+128)
  5890     1FA6                     l712:
  5891     1FA6  0008               	return
  5892     1FA7                     __end_of_log10:
  5893                           
  5894                           	psect	text22
  5895     168C                     __ptext22:	
  5896 ;; *************** function _log *****************
  5897 ;; Defined at:
  5898 ;;		line 5 in file "C:\Program Files\Microchip\xc8\v2.41\pic\sources\c90\common\log.c"
  5899 ;; Parameters:    Size  Location     Type
  5900 ;;  x               4    9[BANK1 ] long 
  5901 ;; Auto vars:     Size  Location     Type
  5902 ;;  exponent        2   78[BANK0 ] int 
  5903 ;; Return value:  Size  Location     Type
  5904 ;;                  4    9[BANK1 ] int 
  5905 ;; Registers used:
  5906 ;;		wreg, fsr0l, fsr0h, status,2, status,0, btemp+1, pclath, cstack
  5907 ;; Tracked objects:
  5908 ;;		On entry : 0/0
  5909 ;;		On exit  : 0/0
  5910 ;;		Unchanged: 0/0
  5911 ;; Data sizes:     COMMON   BANK0   BANK1   BANK3   BANK2
  5912 ;;      Params:         0       0       4       0       0
  5913 ;;      Locals:         0       2       0       0       0
  5914 ;;      Temps:          0       0       0       0       0
  5915 ;;      Totals:         0       2       4       0       0
  5916 ;;Total ram usage:        6 bytes
  5917 ;; Hardware stack levels used: 1
  5918 ;; Hardware stack levels required when called: 4
  5919 ;; This function calls:
  5920 ;;		___fladd
  5921 ;;		___fleq
  5922 ;;		___flge
  5923 ;;		___flmul
  5924 ;;		___xxtofl
  5925 ;;		_eval_poly
  5926 ;;		_frexp
  5927 ;; This function is called by:
  5928 ;;		_log10
  5929 ;;		_pow
  5930 ;; This function uses a non-reentrant model
  5931 ;;
  5932                           
  5933     168C                     _log:	
  5934                           ;psect for function _log
  5935                           
  5936     168C                     l3871:	
  5937                           ;incstack = 0
  5938                           ; Regs used in _log: [wreg-fsr0h+status,2+status,0+btemp+1+pclath+cstack]
  5939                           
  5940     168C  1683               	bsf	3,5	;RP0=1, select bank1
  5941     168D  1303               	bcf	3,6	;RP1=0, select bank1
  5942     168E  082C               	movf	(log@x+3)^(0+128),w
  5943     168F  00F5               	movwf	___flge@ff1+3
  5944     1690  082B               	movf	(log@x+2)^(0+128),w
  5945     1691  00F4               	movwf	___flge@ff1+2
  5946     1692  082A               	movf	(log@x+1)^(0+128),w
  5947     1693  00F3               	movwf	___flge@ff1+1
  5948     1694  0829               	movf	log@x^(0+128),w
  5949     1695  00F2               	movwf	___flge@ff1
  5950     1696  3000               	movlw	0
  5951     1697  00F9               	movwf	___flge@ff2+3
  5952     1698  3000               	movlw	0
  5953     1699  00F8               	movwf	___flge@ff2+2
  5954     169A  3000               	movlw	0
  5955     169B  00F7               	movwf	___flge@ff2+1
  5956     169C  3000               	movlw	0
  5957     169D  00F6               	movwf	___flge@ff2
  5958     169E  160A  118A  21F7  160A  118A  	fcall	___flge
  5959     16A3  1803               	btfsc	3,0
  5960     16A4  2EA6               	goto	u5811
  5961     16A5  2EA7               	goto	u5810
  5962     16A6                     u5811:
  5963     16A6  2EB8               	goto	l3877
  5964     16A7                     u5810:
  5965     16A7                     l3873:
  5966     16A7  3021               	movlw	33
  5967     16A8  1283               	bcf	3,5	;RP0=0, select bank2
  5968     16A9  1703               	bsf	3,6	;RP1=1, select bank2
  5969     16AA  0090               	movwf	_errno^(0+256)
  5970     16AB  3000               	movlw	0
  5971     16AC  0091               	movwf	(_errno^(0+256)+1)
  5972     16AD  3000               	movlw	0
  5973     16AE  1683               	bsf	3,5	;RP0=1, select bank1
  5974     16AF  1303               	bcf	3,6	;RP1=0, select bank1
  5975     16B0  00AC               	movwf	(?_log+3)^(0+128)
  5976     16B1  3000               	movlw	0
  5977     16B2  00AB               	movwf	(?_log+2)^(0+128)
  5978     16B3  3000               	movlw	0
  5979     16B4  00AA               	movwf	(?_log+1)^(0+128)
  5980     16B5  3000               	movlw	0
  5981     16B6  00A9               	movwf	?_log^(0+128)
  5982     16B7  2FFF               	goto	l708
  5983     16B8                     l3877:
  5984     16B8  1683               	bsf	3,5	;RP0=1, select bank1
  5985     16B9  1303               	bcf	3,6	;RP1=0, select bank1
  5986     16BA  082C               	movf	(log@x+3)^(0+128),w
  5987     16BB  1283               	bcf	3,5	;RP0=0, select bank0
  5988     16BC  1303               	bcf	3,6	;RP1=0, select bank0
  5989     16BD  00A9               	movwf	___fleq@ff1+3
  5990     16BE  1683               	bsf	3,5	;RP0=1, select bank1
  5991     16BF  1303               	bcf	3,6	;RP1=0, select bank1
  5992     16C0  082B               	movf	(log@x+2)^(0+128),w
  5993     16C1  1283               	bcf	3,5	;RP0=0, select bank0
  5994     16C2  1303               	bcf	3,6	;RP1=0, select bank0
  5995     16C3  00A8               	movwf	___fleq@ff1+2
  5996     16C4  1683               	bsf	3,5	;RP0=1, select bank1
  5997     16C5  1303               	bcf	3,6	;RP1=0, select bank1
  5998     16C6  082A               	movf	(log@x+1)^(0+128),w
  5999     16C7  1283               	bcf	3,5	;RP0=0, select bank0
  6000     16C8  1303               	bcf	3,6	;RP1=0, select bank0
  6001     16C9  00A7               	movwf	___fleq@ff1+1
  6002     16CA  1683               	bsf	3,5	;RP0=1, select bank1
  6003     16CB  1303               	bcf	3,6	;RP1=0, select bank1
  6004     16CC  0829               	movf	log@x^(0+128),w
  6005     16CD  1283               	bcf	3,5	;RP0=0, select bank0
  6006     16CE  1303               	bcf	3,6	;RP1=0, select bank0
  6007     16CF  00A6               	movwf	___fleq@ff1
  6008     16D0  3000               	movlw	0
  6009     16D1  00AD               	movwf	___fleq@ff2+3
  6010     16D2  3000               	movlw	0
  6011     16D3  00AC               	movwf	___fleq@ff2+2
  6012     16D4  3000               	movlw	0
  6013     16D5  00AB               	movwf	___fleq@ff2+1
  6014     16D6  3000               	movlw	0
  6015     16D7  00AA               	movwf	___fleq@ff2
  6016     16D8  160A  158A  2655  160A  118A  	fcall	___fleq
  6017     16DD  1C03               	btfss	3,0
  6018     16DE  2EE0               	goto	u5821
  6019     16DF  2EE1               	goto	u5820
  6020     16E0                     u5821:
  6021     16E0  2EF2               	goto	l3883
  6022     16E1                     u5820:
  6023     16E1                     l3879:
  6024     16E1  3022               	movlw	34
  6025     16E2  1283               	bcf	3,5	;RP0=0, select bank2
  6026     16E3  1703               	bsf	3,6	;RP1=1, select bank2
  6027     16E4  0090               	movwf	_errno^(0+256)
  6028     16E5  3000               	movlw	0
  6029     16E6  0091               	movwf	(_errno^(0+256)+1)
  6030     16E7  3000               	movlw	0
  6031     16E8  1683               	bsf	3,5	;RP0=1, select bank1
  6032     16E9  1303               	bcf	3,6	;RP1=0, select bank1
  6033     16EA  00AC               	movwf	(?_log+3)^(0+128)
  6034     16EB  3000               	movlw	0
  6035     16EC  00AB               	movwf	(?_log+2)^(0+128)
  6036     16ED  3000               	movlw	0
  6037     16EE  00AA               	movwf	(?_log+1)^(0+128)
  6038     16EF  3000               	movlw	0
  6039     16F0  00A9               	movwf	?_log^(0+128)
  6040     16F1  2FFF               	goto	l708
  6041     16F2                     l3883:
  6042     16F2  30BF               	movlw	191
  6043     16F3  1283               	bcf	3,5	;RP0=0, select bank0
  6044     16F4  1303               	bcf	3,6	;RP1=0, select bank0
  6045     16F5  00D6               	movwf	___fladd@b+3
  6046     16F6  3080               	movlw	128
  6047     16F7  00D5               	movwf	___fladd@b+2
  6048     16F8  3000               	movlw	0
  6049     16F9  00D4               	movwf	___fladd@b+1
  6050     16FA  3000               	movlw	0
  6051     16FB  00D3               	movwf	___fladd@b
  6052     16FC  3040               	movlw	64
  6053     16FD  00BC               	movwf	___flmul@b+3
  6054     16FE  3000               	movlw	0
  6055     16FF  00BB               	movwf	___flmul@b+2
  6056     1700  3000               	movlw	0
  6057     1701  00BA               	movwf	___flmul@b+1
  6058     1702  3000               	movlw	0
  6059     1703  00B9               	movwf	___flmul@b
  6060     1704  306E               	movlw	(low (log@exponent| 0))& (0+255)
  6061     1705  00B6               	movwf	frexp@eptr
  6062     1706  1683               	bsf	3,5	;RP0=1, select bank1
  6063     1707  1303               	bcf	3,6	;RP1=0, select bank1
  6064     1708  082C               	movf	(log@x+3)^(0+128),w
  6065     1709  1283               	bcf	3,5	;RP0=0, select bank0
  6066     170A  1303               	bcf	3,6	;RP1=0, select bank0
  6067     170B  00B5               	movwf	frexp@value+3
  6068     170C  1683               	bsf	3,5	;RP0=1, select bank1
  6069     170D  1303               	bcf	3,6	;RP1=0, select bank1
  6070     170E  082B               	movf	(log@x+2)^(0+128),w
  6071     170F  1283               	bcf	3,5	;RP0=0, select bank0
  6072     1710  1303               	bcf	3,6	;RP1=0, select bank0
  6073     1711  00B4               	movwf	frexp@value+2
  6074     1712  1683               	bsf	3,5	;RP0=1, select bank1
  6075     1713  1303               	bcf	3,6	;RP1=0, select bank1
  6076     1714  082A               	movf	(log@x+1)^(0+128),w
  6077     1715  1283               	bcf	3,5	;RP0=0, select bank0
  6078     1716  1303               	bcf	3,6	;RP1=0, select bank0
  6079     1717  00B3               	movwf	frexp@value+1
  6080     1718  1683               	bsf	3,5	;RP0=1, select bank1
  6081     1719  1303               	bcf	3,6	;RP1=0, select bank1
  6082     171A  0829               	movf	log@x^(0+128),w
  6083     171B  1283               	bcf	3,5	;RP0=0, select bank0
  6084     171C  1303               	bcf	3,6	;RP1=0, select bank0
  6085     171D  00B2               	movwf	frexp@value
  6086     171E  160A  118A  20C6  160A  118A  	fcall	_frexp
  6087     1723  1283               	bcf	3,5	;RP0=0, select bank0
  6088     1724  1303               	bcf	3,6	;RP1=0, select bank0
  6089     1725  0835               	movf	?_frexp+3,w
  6090     1726  00C0               	movwf	___flmul@a+3
  6091     1727  0834               	movf	?_frexp+2,w
  6092     1728  00BF               	movwf	___flmul@a+2
  6093     1729  0833               	movf	?_frexp+1,w
  6094     172A  00BE               	movwf	___flmul@a+1
  6095     172B  0832               	movf	?_frexp,w
  6096     172C  00BD               	movwf	___flmul@a
  6097     172D  120A  118A  203B  160A  118A  	fcall	___flmul
  6098     1732  1283               	bcf	3,5	;RP0=0, select bank0
  6099     1733  1303               	bcf	3,6	;RP1=0, select bank0
  6100     1734  083C               	movf	?___flmul+3,w
  6101     1735  00DA               	movwf	___fladd@a+3
  6102     1736  083B               	movf	?___flmul+2,w
  6103     1737  00D9               	movwf	___fladd@a+2
  6104     1738  083A               	movf	?___flmul+1,w
  6105     1739  00D8               	movwf	___fladd@a+1
  6106     173A  0839               	movf	?___flmul,w
  6107     173B  00D7               	movwf	___fladd@a
  6108     173C  120A  158A  25A8  160A  118A  	fcall	___fladd
  6109     1741  1283               	bcf	3,5	;RP0=0, select bank0
  6110     1742  1303               	bcf	3,6	;RP1=0, select bank0
  6111     1743  0856               	movf	?___fladd+3,w
  6112     1744  1683               	bsf	3,5	;RP0=1, select bank1
  6113     1745  1303               	bcf	3,6	;RP1=0, select bank1
  6114     1746  00AC               	movwf	(log@x+3)^(0+128)
  6115     1747  1283               	bcf	3,5	;RP0=0, select bank0
  6116     1748  1303               	bcf	3,6	;RP1=0, select bank0
  6117     1749  0855               	movf	?___fladd+2,w
  6118     174A  1683               	bsf	3,5	;RP0=1, select bank1
  6119     174B  1303               	bcf	3,6	;RP1=0, select bank1
  6120     174C  00AB               	movwf	(log@x+2)^(0+128)
  6121     174D  1283               	bcf	3,5	;RP0=0, select bank0
  6122     174E  1303               	bcf	3,6	;RP1=0, select bank0
  6123     174F  0854               	movf	?___fladd+1,w
  6124     1750  1683               	bsf	3,5	;RP0=1, select bank1
  6125     1751  1303               	bcf	3,6	;RP1=0, select bank1
  6126     1752  00AA               	movwf	(log@x+1)^(0+128)
  6127     1753  1283               	bcf	3,5	;RP0=0, select bank0
  6128     1754  1303               	bcf	3,6	;RP1=0, select bank0
  6129     1755  0853               	movf	?___fladd,w
  6130     1756  1683               	bsf	3,5	;RP0=1, select bank1
  6131     1757  1303               	bcf	3,6	;RP1=0, select bank1
  6132     1758  00A9               	movwf	log@x^(0+128)
  6133     1759                     l3885:
  6134     1759  30FF               	movlw	255
  6135     175A  1283               	bcf	3,5	;RP0=0, select bank0
  6136     175B  1303               	bcf	3,6	;RP1=0, select bank0
  6137     175C  07EE               	addwf	log@exponent,f
  6138     175D  1803               	skipnc
  6139     175E  0AEF               	incf	log@exponent+1,f
  6140     175F  30FF               	movlw	255
  6141     1760  07EF               	addwf	log@exponent+1,f
  6142     1761                     l3887:
  6143     1761  1683               	bsf	3,5	;RP0=1, select bank1
  6144     1762  1303               	bcf	3,6	;RP1=0, select bank1
  6145     1763  082C               	movf	(log@x+3)^(0+128),w
  6146     1764  1283               	bcf	3,5	;RP0=0, select bank0
  6147     1765  1303               	bcf	3,6	;RP1=0, select bank0
  6148     1766  00EA               	movwf	eval_poly@x+3
  6149     1767  1683               	bsf	3,5	;RP0=1, select bank1
  6150     1768  1303               	bcf	3,6	;RP1=0, select bank1
  6151     1769  082B               	movf	(log@x+2)^(0+128),w
  6152     176A  1283               	bcf	3,5	;RP0=0, select bank0
  6153     176B  1303               	bcf	3,6	;RP1=0, select bank0
  6154     176C  00E9               	movwf	eval_poly@x+2
  6155     176D  1683               	bsf	3,5	;RP0=1, select bank1
  6156     176E  1303               	bcf	3,6	;RP1=0, select bank1
  6157     176F  082A               	movf	(log@x+1)^(0+128),w
  6158     1770  1283               	bcf	3,5	;RP0=0, select bank0
  6159     1771  1303               	bcf	3,6	;RP1=0, select bank0
  6160     1772  00E8               	movwf	eval_poly@x+1
  6161     1773  1683               	bsf	3,5	;RP0=1, select bank1
  6162     1774  1303               	bcf	3,6	;RP1=0, select bank1
  6163     1775  0829               	movf	log@x^(0+128),w
  6164     1776  1283               	bcf	3,5	;RP0=0, select bank0
  6165     1777  1303               	bcf	3,6	;RP1=0, select bank0
  6166     1778  00E7               	movwf	eval_poly@x
  6167     1779  3029               	movlw	(low ((log@coeff-__stringbase)| (0+32768)))& (0+255)
  6168     177A  00EB               	movwf	eval_poly@d
  6169     177B  3008               	movlw	8
  6170     177C  00EC               	movwf	eval_poly@n
  6171     177D  3000               	movlw	0
  6172     177E  00ED               	movwf	eval_poly@n+1
  6173     177F  160A  118A  25A4  160A  118A  	fcall	_eval_poly
  6174     1784  1283               	bcf	3,5	;RP0=0, select bank0
  6175     1785  1303               	bcf	3,6	;RP1=0, select bank0
  6176     1786  086A               	movf	?_eval_poly+3,w
  6177     1787  1683               	bsf	3,5	;RP0=1, select bank1
  6178     1788  1303               	bcf	3,6	;RP1=0, select bank1
  6179     1789  00AC               	movwf	(log@x+3)^(0+128)
  6180     178A  1283               	bcf	3,5	;RP0=0, select bank0
  6181     178B  1303               	bcf	3,6	;RP1=0, select bank0
  6182     178C  0869               	movf	?_eval_poly+2,w
  6183     178D  1683               	bsf	3,5	;RP0=1, select bank1
  6184     178E  1303               	bcf	3,6	;RP1=0, select bank1
  6185     178F  00AB               	movwf	(log@x+2)^(0+128)
  6186     1790  1283               	bcf	3,5	;RP0=0, select bank0
  6187     1791  1303               	bcf	3,6	;RP1=0, select bank0
  6188     1792  0868               	movf	?_eval_poly+1,w
  6189     1793  1683               	bsf	3,5	;RP0=1, select bank1
  6190     1794  1303               	bcf	3,6	;RP1=0, select bank1
  6191     1795  00AA               	movwf	(log@x+1)^(0+128)
  6192     1796  1283               	bcf	3,5	;RP0=0, select bank0
  6193     1797  1303               	bcf	3,6	;RP1=0, select bank0
  6194     1798  0867               	movf	?_eval_poly,w
  6195     1799  1683               	bsf	3,5	;RP0=1, select bank1
  6196     179A  1303               	bcf	3,6	;RP1=0, select bank1
  6197     179B  00A9               	movwf	log@x^(0+128)
  6198     179C                     l3889:
  6199     179C  082C               	movf	(log@x+3)^(0+128),w
  6200     179D  1283               	bcf	3,5	;RP0=0, select bank0
  6201     179E  1303               	bcf	3,6	;RP1=0, select bank0
  6202     179F  00D6               	movwf	___fladd@b+3
  6203     17A0  1683               	bsf	3,5	;RP0=1, select bank1
  6204     17A1  1303               	bcf	3,6	;RP1=0, select bank1
  6205     17A2  082B               	movf	(log@x+2)^(0+128),w
  6206     17A3  1283               	bcf	3,5	;RP0=0, select bank0
  6207     17A4  1303               	bcf	3,6	;RP1=0, select bank0
  6208     17A5  00D5               	movwf	___fladd@b+2
  6209     17A6  1683               	bsf	3,5	;RP0=1, select bank1
  6210     17A7  1303               	bcf	3,6	;RP1=0, select bank1
  6211     17A8  082A               	movf	(log@x+1)^(0+128),w
  6212     17A9  1283               	bcf	3,5	;RP0=0, select bank0
  6213     17AA  1303               	bcf	3,6	;RP1=0, select bank0
  6214     17AB  00D4               	movwf	___fladd@b+1
  6215     17AC  1683               	bsf	3,5	;RP0=1, select bank1
  6216     17AD  1303               	bcf	3,6	;RP1=0, select bank1
  6217     17AE  0829               	movf	log@x^(0+128),w
  6218     17AF  1283               	bcf	3,5	;RP0=0, select bank0
  6219     17B0  1303               	bcf	3,6	;RP1=0, select bank0
  6220     17B1  00D3               	movwf	___fladd@b
  6221     17B2  303F               	movlw	63
  6222     17B3  00BC               	movwf	___flmul@b+3
  6223     17B4  3031               	movlw	49
  6224     17B5  00BB               	movwf	___flmul@b+2
  6225     17B6  3072               	movlw	114
  6226     17B7  00BA               	movwf	___flmul@b+1
  6227     17B8  3018               	movlw	24
  6228     17B9  00B9               	movwf	___flmul@b
  6229     17BA  086E               	movf	log@exponent,w
  6230     17BB  00F2               	movwf	___xxtofl@val
  6231     17BC  086F               	movf	log@exponent+1,w
  6232     17BD  00F3               	movwf	___xxtofl@val+1
  6233     17BE  3000               	movlw	0
  6234     17BF  1BF3               	btfsc	___xxtofl@val+1,7
  6235     17C0  30FF               	movlw	255
  6236     17C1  00F4               	movwf	___xxtofl@val+2
  6237     17C2  00F5               	movwf	___xxtofl@val+3
  6238     17C3  3001               	movlw	1
  6239     17C4  160A  118A  2342  160A  118A  	fcall	___xxtofl
  6240     17C9  0875               	movf	?___xxtofl+3,w
  6241     17CA  1283               	bcf	3,5	;RP0=0, select bank0
  6242     17CB  1303               	bcf	3,6	;RP1=0, select bank0
  6243     17CC  00C0               	movwf	___flmul@a+3
  6244     17CD  0874               	movf	?___xxtofl+2,w
  6245     17CE  00BF               	movwf	___flmul@a+2
  6246     17CF  0873               	movf	?___xxtofl+1,w
  6247     17D0  00BE               	movwf	___flmul@a+1
  6248     17D1  0872               	movf	?___xxtofl,w
  6249     17D2  00BD               	movwf	___flmul@a
  6250     17D3  120A  118A  203B  160A  118A  	fcall	___flmul
  6251     17D8  1283               	bcf	3,5	;RP0=0, select bank0
  6252     17D9  1303               	bcf	3,6	;RP1=0, select bank0
  6253     17DA  083C               	movf	?___flmul+3,w
  6254     17DB  00DA               	movwf	___fladd@a+3
  6255     17DC  083B               	movf	?___flmul+2,w
  6256     17DD  00D9               	movwf	___fladd@a+2
  6257     17DE  083A               	movf	?___flmul+1,w
  6258     17DF  00D8               	movwf	___fladd@a+1
  6259     17E0  0839               	movf	?___flmul,w
  6260     17E1  00D7               	movwf	___fladd@a
  6261     17E2  120A  158A  25A8  160A  118A  	fcall	___fladd
  6262     17E7  1283               	bcf	3,5	;RP0=0, select bank0
  6263     17E8  1303               	bcf	3,6	;RP1=0, select bank0
  6264     17E9  0856               	movf	?___fladd+3,w
  6265     17EA  1683               	bsf	3,5	;RP0=1, select bank1
  6266     17EB  1303               	bcf	3,6	;RP1=0, select bank1
  6267     17EC  00AC               	movwf	(?_log+3)^(0+128)
  6268     17ED  1283               	bcf	3,5	;RP0=0, select bank0
  6269     17EE  1303               	bcf	3,6	;RP1=0, select bank0
  6270     17EF  0855               	movf	?___fladd+2,w
  6271     17F0  1683               	bsf	3,5	;RP0=1, select bank1
  6272     17F1  1303               	bcf	3,6	;RP1=0, select bank1
  6273     17F2  00AB               	movwf	(?_log+2)^(0+128)
  6274     17F3  1283               	bcf	3,5	;RP0=0, select bank0
  6275     17F4  1303               	bcf	3,6	;RP1=0, select bank0
  6276     17F5  0854               	movf	?___fladd+1,w
  6277     17F6  1683               	bsf	3,5	;RP0=1, select bank1
  6278     17F7  1303               	bcf	3,6	;RP1=0, select bank1
  6279     17F8  00AA               	movwf	(?_log+1)^(0+128)
  6280     17F9  1283               	bcf	3,5	;RP0=0, select bank0
  6281     17FA  1303               	bcf	3,6	;RP1=0, select bank0
  6282     17FB  0853               	movf	?___fladd,w
  6283     17FC  1683               	bsf	3,5	;RP0=1, select bank1
  6284     17FD  1303               	bcf	3,6	;RP1=0, select bank1
  6285     17FE  00A9               	movwf	?_log^(0+128)
  6286     17FF                     l708:
  6287     17FF  0008               	return
  6288     1800                     __end_of_log:
  6289                           
  6290                           	psect	text23
  6291     10C6                     __ptext23:	
  6292 ;; *************** function _frexp *****************
  6293 ;; Defined at:
  6294 ;;		line 254 in file "C:\Program Files\Microchip\xc8\v2.41\pic\sources\c90\common\frexp.c"
  6295 ;; Parameters:    Size  Location     Type
  6296 ;;  value           4   18[BANK0 ] int 
  6297 ;;  eptr            1   22[BANK0 ] PTR int 
  6298 ;;		 -> floor@expon(2), log@exponent(2), 
  6299 ;; Auto vars:     Size  Location     Type
  6300 ;;		None
  6301 ;; Return value:  Size  Location     Type
  6302 ;;                  4   18[BANK0 ] PTR int 
  6303 ;; Registers used:
  6304 ;;		wreg, fsr0l, fsr0h, status,2, status,0, btemp+1, pclath, cstack
  6305 ;; Tracked objects:
  6306 ;;		On entry : 0/0
  6307 ;;		On exit  : 0/0
  6308 ;;		Unchanged: 0/0
  6309 ;; Data sizes:     COMMON   BANK0   BANK1   BANK3   BANK2
  6310 ;;      Params:         0       5       0       0       0
  6311 ;;      Locals:         0       0       0       0       0
  6312 ;;      Temps:          0       2       0       0       0
  6313 ;;      Totals:         0       7       0       0       0
  6314 ;;Total ram usage:        7 bytes
  6315 ;; Hardware stack levels used: 1
  6316 ;; Hardware stack levels required when called: 2
  6317 ;; This function calls:
  6318 ;;		___fleq
  6319 ;; This function is called by:
  6320 ;;		_log
  6321 ;;		_floor
  6322 ;; This function uses a non-reentrant model
  6323 ;;
  6324                           
  6325     10C6                     _frexp:	
  6326                           ;psect for function _frexp
  6327                           
  6328     10C6                     l3707:	
  6329                           ;incstack = 0
  6330                           ; Regs used in _frexp: [wreg-fsr0h+status,2+status,0+btemp+1+pclath+cstack]
  6331                           
  6332     10C6  1283               	bcf	3,5	;RP0=0, select bank0
  6333     10C7  1303               	bcf	3,6	;RP1=0, select bank0
  6334     10C8  0835               	movf	frexp@value+3,w
  6335     10C9  00A9               	movwf	___fleq@ff1+3
  6336     10CA  0834               	movf	frexp@value+2,w
  6337     10CB  00A8               	movwf	___fleq@ff1+2
  6338     10CC  0833               	movf	frexp@value+1,w
  6339     10CD  00A7               	movwf	___fleq@ff1+1
  6340     10CE  0832               	movf	frexp@value,w
  6341     10CF  00A6               	movwf	___fleq@ff1
  6342     10D0  3000               	movlw	0
  6343     10D1  00AD               	movwf	___fleq@ff2+3
  6344     10D2  3000               	movlw	0
  6345     10D3  00AC               	movwf	___fleq@ff2+2
  6346     10D4  3000               	movlw	0
  6347     10D5  00AB               	movwf	___fleq@ff2+1
  6348     10D6  3000               	movlw	0
  6349     10D7  00AA               	movwf	___fleq@ff2
  6350     10D8  160A  158A  2655  160A  118A  	fcall	___fleq
  6351     10DD  1C03               	btfss	3,0
  6352     10DE  28E0               	goto	u5611
  6353     10DF  28E1               	goto	u5610
  6354     10E0                     u5611:
  6355     10E0  28F2               	goto	l3715
  6356     10E1                     u5610:
  6357     10E1                     l3709:
  6358     10E1  1283               	bcf	3,5	;RP0=0, select bank0
  6359     10E2  1303               	bcf	3,6	;RP1=0, select bank0
  6360     10E3  0836               	movf	frexp@eptr,w
  6361     10E4  0084               	movwf	4
  6362     10E5  1383               	bcf	3,7	;select IRP bank0
  6363     10E6  0180               	clrf	0
  6364     10E7  0A84               	incf	4,f
  6365     10E8  0180               	clrf	0
  6366     10E9                     l3711:
  6367     10E9  3000               	movlw	0
  6368     10EA  00B5               	movwf	?_frexp+3
  6369     10EB  3000               	movlw	0
  6370     10EC  00B4               	movwf	?_frexp+2
  6371     10ED  3000               	movlw	0
  6372     10EE  00B3               	movwf	?_frexp+1
  6373     10EF  3000               	movlw	0
  6374     10F0  00B2               	movwf	?_frexp
  6375     10F1  2921               	goto	l726
  6376     10F2                     l3715:
  6377     10F2  1283               	bcf	3,5	;RP0=0, select bank0
  6378     10F3  1303               	bcf	3,6	;RP1=0, select bank0
  6379     10F4  0835               	movf	frexp@value+3,w
  6380     10F5  397F               	andlw	127
  6381     10F6  00B7               	movwf	??_frexp
  6382     10F7  01B8               	clrf	??_frexp+1
  6383     10F8  1003               	clrc
  6384     10F9  0DB7               	rlf	??_frexp,f
  6385     10FA  0DB8               	rlf	??_frexp+1,f
  6386     10FB  0836               	movf	frexp@eptr,w
  6387     10FC  0084               	movwf	4
  6388     10FD  0837               	movf	??_frexp,w
  6389     10FE  1383               	bcf	3,7	;select IRP bank0
  6390     10FF  0080               	movwf	0
  6391     1100  0A84               	incf	4,f
  6392     1101  0838               	movf	??_frexp+1,w
  6393     1102  0080               	movwf	0
  6394     1103  0D34               	rlf	frexp@value+2,w
  6395     1104  0D34               	rlf	frexp@value+2,w
  6396     1105  3901               	andlw	1
  6397     1106  00B7               	movwf	??_frexp
  6398     1107  01B8               	clrf	??_frexp+1
  6399     1108  0836               	movf	frexp@eptr,w
  6400     1109  0084               	movwf	4
  6401     110A  0837               	movf	??_frexp,w
  6402     110B  0480               	iorwf	0,f
  6403     110C  0A84               	incf	4,f
  6404     110D  0838               	movf	??_frexp+1,w
  6405     110E  0480               	iorwf	0,f
  6406     110F                     l3717:
  6407     110F  0836               	movf	frexp@eptr,w
  6408     1110  0084               	movwf	4
  6409     1111  3082               	movlw	130
  6410     1112  0780               	addwf	0,f
  6411     1113  0F84               	incfsz	4,f
  6412     1114  0800               	movf	0,w
  6413     1115  1803               	skipnc
  6414     1116  0A00               	incf	0,w
  6415     1117  00FF               	movwf	btemp+1
  6416     1118  30FF               	movlw	255
  6417     1119  077F               	addwf	btemp+1,w
  6418     111A  0080               	movwf	0
  6419     111B  0384               	decf	4,f
  6420     111C                     l3719:
  6421     111C  0835               	movf	frexp@value+3,w
  6422     111D  3980               	andlw	-128
  6423     111E  383F               	iorlw	63
  6424     111F  00B5               	movwf	frexp@value+3
  6425     1120                     l3721:
  6426     1120  13B4               	bcf	frexp@value+2,7
  6427     1121                     l3723:
  6428     1121                     l726:
  6429     1121  0008               	return
  6430     1122                     __end_of_frexp:
  6431                           
  6432                           	psect	text24
  6433     1E55                     __ptext24:	
  6434 ;; *************** function ___fleq *****************
  6435 ;; Defined at:
  6436 ;;		line 4 in file "C:\Program Files\Microchip\xc8\v2.41\pic\sources\c90\common\fleq.c"
  6437 ;; Parameters:    Size  Location     Type
  6438 ;;  ff1             4    6[BANK0 ] PTR int 
  6439 ;;  ff2             4   10[BANK0 ] PTR int 
  6440 ;; Auto vars:     Size  Location     Type
  6441 ;;		None
  6442 ;; Return value:  Size  Location     Type
  6443 ;;		None               void
  6444 ;; Registers used:
  6445 ;;		wreg, status,2, status,0
  6446 ;; Tracked objects:
  6447 ;;		On entry : 0/0
  6448 ;;		On exit  : 0/0
  6449 ;;		Unchanged: 0/0
  6450 ;; Data sizes:     COMMON   BANK0   BANK1   BANK3   BANK2
  6451 ;;      Params:         0       8       0       0       0
  6452 ;;      Locals:         0       0       0       0       0
  6453 ;;      Temps:          0       4       0       0       0
  6454 ;;      Totals:         0      12       0       0       0
  6455 ;;Total ram usage:       12 bytes
  6456 ;; Hardware stack levels used: 1
  6457 ;; Hardware stack levels required when called: 1
  6458 ;; This function calls:
  6459 ;;		Nothing
  6460 ;; This function is called by:
  6461 ;;		_log
  6462 ;;		_frexp
  6463 ;;		_ldexp
  6464 ;;		_pow
  6465 ;;		_exp
  6466 ;; This function uses a non-reentrant model
  6467 ;;
  6468                           
  6469     1E55                     ___fleq:	
  6470                           ;psect for function ___fleq
  6471                           
  6472     1E55                     l3261:	
  6473                           ;incstack = 0
  6474                           ; Regs used in ___fleq: [wreg+status,2+status,0]
  6475                           
  6476     1E55  3000               	movlw	0
  6477     1E56  1283               	bcf	3,5	;RP0=0, select bank0
  6478     1E57  1303               	bcf	3,6	;RP1=0, select bank0
  6479     1E58  0526               	andwf	___fleq@ff1,w
  6480     1E59  00AE               	movwf	??___fleq
  6481     1E5A  3000               	movlw	0
  6482     1E5B  0527               	andwf	___fleq@ff1+1,w
  6483     1E5C  00AF               	movwf	??___fleq+1
  6484     1E5D  3080               	movlw	128
  6485     1E5E  0528               	andwf	___fleq@ff1+2,w
  6486     1E5F  00B0               	movwf	??___fleq+2
  6487     1E60  307F               	movlw	127
  6488     1E61  0529               	andwf	___fleq@ff1+3,w
  6489     1E62  00B1               	movwf	??___fleq+3
  6490     1E63  0831               	movf	??___fleq+3,w
  6491     1E64  0430               	iorwf	??___fleq+2,w
  6492     1E65  042F               	iorwf	??___fleq+1,w
  6493     1E66  042E               	iorwf	??___fleq,w
  6494     1E67  1D03               	skipz
  6495     1E68  2E6A               	goto	u4471
  6496     1E69  2E6B               	goto	u4470
  6497     1E6A                     u4471:
  6498     1E6A  2E73               	goto	l417
  6499     1E6B                     u4470:
  6500     1E6B                     l3263:
  6501     1E6B  3000               	movlw	0
  6502     1E6C  00A9               	movwf	___fleq@ff1+3
  6503     1E6D  3000               	movlw	0
  6504     1E6E  00A8               	movwf	___fleq@ff1+2
  6505     1E6F  3000               	movlw	0
  6506     1E70  00A7               	movwf	___fleq@ff1+1
  6507     1E71  3000               	movlw	0
  6508     1E72  00A6               	movwf	___fleq@ff1
  6509     1E73                     l417:
  6510     1E73  3000               	movlw	0
  6511     1E74  052A               	andwf	___fleq@ff2,w
  6512     1E75  00AE               	movwf	??___fleq
  6513     1E76  3000               	movlw	0
  6514     1E77  052B               	andwf	___fleq@ff2+1,w
  6515     1E78  00AF               	movwf	??___fleq+1
  6516     1E79  3080               	movlw	128
  6517     1E7A  052C               	andwf	___fleq@ff2+2,w
  6518     1E7B  00B0               	movwf	??___fleq+2
  6519     1E7C  307F               	movlw	127
  6520     1E7D  052D               	andwf	___fleq@ff2+3,w
  6521     1E7E  00B1               	movwf	??___fleq+3
  6522     1E7F  0831               	movf	??___fleq+3,w
  6523     1E80  0430               	iorwf	??___fleq+2,w
  6524     1E81  042F               	iorwf	??___fleq+1,w
  6525     1E82  042E               	iorwf	??___fleq,w
  6526     1E83  1D03               	skipz
  6527     1E84  2E86               	goto	u4481
  6528     1E85  2E87               	goto	u4480
  6529     1E86                     u4481:
  6530     1E86  2E8F               	goto	l418
  6531     1E87                     u4480:
  6532     1E87                     l3265:
  6533     1E87  3000               	movlw	0
  6534     1E88  00AD               	movwf	___fleq@ff2+3
  6535     1E89  3000               	movlw	0
  6536     1E8A  00AC               	movwf	___fleq@ff2+2
  6537     1E8B  3000               	movlw	0
  6538     1E8C  00AB               	movwf	___fleq@ff2+1
  6539     1E8D  3000               	movlw	0
  6540     1E8E  00AA               	movwf	___fleq@ff2
  6541     1E8F                     l418:
  6542     1E8F  082D               	movf	___fleq@ff2+3,w
  6543     1E90  0629               	xorwf	___fleq@ff1+3,w
  6544     1E91  1D03               	skipz
  6545     1E92  2E9D               	goto	u4495
  6546     1E93  082C               	movf	___fleq@ff2+2,w
  6547     1E94  0628               	xorwf	___fleq@ff1+2,w
  6548     1E95  1D03               	skipz
  6549     1E96  2E9D               	goto	u4495
  6550     1E97  082B               	movf	___fleq@ff2+1,w
  6551     1E98  0627               	xorwf	___fleq@ff1+1,w
  6552     1E99  1D03               	skipz
  6553     1E9A  2E9D               	goto	u4495
  6554     1E9B  082A               	movf	___fleq@ff2,w
  6555     1E9C  0626               	xorwf	___fleq@ff1,w
  6556     1E9D                     u4495:
  6557     1E9D  1903               	skipnz
  6558     1E9E  2EA0               	goto	u4491
  6559     1E9F  2EA1               	goto	u4490
  6560     1EA0                     u4491:
  6561     1EA0  2EA3               	goto	l3269
  6562     1EA1                     u4490:
  6563     1EA1                     l3267:
  6564     1EA1  1003               	clrc
  6565     1EA2  2EA4               	goto	l419
  6566     1EA3                     l3269:
  6567     1EA3  1403               	setc
  6568     1EA4                     l419:
  6569     1EA4  0008               	return
  6570     1EA5                     __end_of___fleq:
  6571                           
  6572                           	psect	text25
  6573     15A4                     __ptext25:	
  6574 ;; *************** function _eval_poly *****************
  6575 ;; Defined at:
  6576 ;;		line 4 in file "C:\Program Files\Microchip\xc8\v2.41\pic\sources\c90\common\evalpoly.c"
  6577 ;; Parameters:    Size  Location     Type
  6578 ;;  x               4   71[BANK0 ] PTR int 
  6579 ;;  d               1   75[BANK0 ] PTR const 
  6580 ;;		 -> exp@coeff(40), log@coeff(36), 
  6581 ;;  n               2   76[BANK0 ] int 
  6582 ;; Auto vars:     Size  Location     Type
  6583 ;;  res             4    5[BANK1 ] int 
  6584 ;; Return value:  Size  Location     Type
  6585 ;;                  4   71[BANK0 ] int 
  6586 ;; Registers used:
  6587 ;;		wreg, fsr0l, fsr0h, status,2, status,0, btemp+1, pclath, cstack
  6588 ;; Tracked objects:
  6589 ;;		On entry : 0/0
  6590 ;;		On exit  : 0/0
  6591 ;;		Unchanged: 0/0
  6592 ;; Data sizes:     COMMON   BANK0   BANK1   BANK3   BANK2
  6593 ;;      Params:         0       7       0       0       0
  6594 ;;      Locals:         0       0       4       0       0
  6595 ;;      Temps:          0       0       5       0       0
  6596 ;;      Totals:         0       7       9       0       0
  6597 ;;Total ram usage:       16 bytes
  6598 ;; Hardware stack levels used: 1
  6599 ;; Hardware stack levels required when called: 3
  6600 ;; This function calls:
  6601 ;;		___fladd
  6602 ;;		___flmul
  6603 ;; This function is called by:
  6604 ;;		_log
  6605 ;;		_exp
  6606 ;; This function uses a non-reentrant model
  6607 ;;
  6608                           
  6609     15A4                     _eval_poly:	
  6610                           ;psect for function _eval_poly
  6611                           
  6612     15A4                     l3763:	
  6613                           ;incstack = 0
  6614                           ; Regs used in _eval_poly: [wreg-fsr0h+status,2+status,0+btemp+1+pclath+cstack]
  6615                           
  6616     15A4  1283               	bcf	3,5	;RP0=0, select bank0
  6617     15A5  1303               	bcf	3,6	;RP1=0, select bank0
  6618     15A6  086C               	movf	eval_poly@n,w
  6619     15A7  1683               	bsf	3,5	;RP0=1, select bank1
  6620     15A8  1303               	bcf	3,6	;RP1=0, select bank1
  6621     15A9  00A0               	movwf	??_eval_poly^(0+128)
  6622     15AA  3001               	movlw	1
  6623     15AB                     u5635:
  6624     15AB  1003               	clrc
  6625     15AC  0DA0               	rlf	??_eval_poly^(0+128),f
  6626     15AD  3EFF               	addlw	-1
  6627     15AE  1D03               	skipz
  6628     15AF  2DAB               	goto	u5635
  6629     15B0  1003               	clrc
  6630     15B1  0D20               	rlf	??_eval_poly^(0+128),w
  6631     15B2  1283               	bcf	3,5	;RP0=0, select bank0
  6632     15B3  1303               	bcf	3,6	;RP1=0, select bank0
  6633     15B4  076B               	addwf	eval_poly@d,w
  6634     15B5  0084               	movwf	4
  6635     15B6  160A  118A  200A  160A  118A  	fcall	stringdir
  6636     15BB  1683               	bsf	3,5	;RP0=1, select bank1
  6637     15BC  1303               	bcf	3,6	;RP1=0, select bank1
  6638     15BD  00A1               	movwf	(??_eval_poly+1)^(0+128)
  6639     15BE  160A  118A  200A  160A  118A  	fcall	stringdir
  6640     15C3  00A2               	movwf	((??_eval_poly+1)^(0+128)+1)
  6641     15C4  160A  118A  200A  160A  118A  	fcall	stringdir
  6642     15C9  00A3               	movwf	((??_eval_poly+1)^(0+128)+2)
  6643     15CA  160A  118A  200A  160A  118A  	fcall	stringdir
  6644     15CF  00A4               	movwf	((??_eval_poly+1)^(0+128)+3)
  6645     15D0  0824               	movf	(??_eval_poly+4)^(0+128),w
  6646     15D1  00A8               	movwf	(eval_poly@res+3)^(0+128)
  6647     15D2  0823               	movf	(??_eval_poly+3)^(0+128),w
  6648     15D3  00A7               	movwf	(eval_poly@res+2)^(0+128)
  6649     15D4  0822               	movf	(??_eval_poly+2)^(0+128),w
  6650     15D5  00A6               	movwf	(eval_poly@res+1)^(0+128)
  6651     15D6  0821               	movf	(??_eval_poly+1)^(0+128),w
  6652     15D7  00A5               	movwf	eval_poly@res^(0+128)
  6653     15D8  2E6B               	goto	l3767
  6654     15D9                     l3765:
  6655     15D9  30FF               	movlw	255
  6656     15DA  07EC               	addwf	eval_poly@n,f
  6657     15DB  1803               	skipnc
  6658     15DC  0AED               	incf	eval_poly@n+1,f
  6659     15DD  30FF               	movlw	255
  6660     15DE  07ED               	addwf	eval_poly@n+1,f
  6661     15DF  086C               	movf	eval_poly@n,w
  6662     15E0  1683               	bsf	3,5	;RP0=1, select bank1
  6663     15E1  1303               	bcf	3,6	;RP1=0, select bank1
  6664     15E2  00A0               	movwf	??_eval_poly^(0+128)
  6665     15E3  3001               	movlw	1
  6666     15E4                     u5645:
  6667     15E4  1003               	clrc
  6668     15E5  0DA0               	rlf	??_eval_poly^(0+128),f
  6669     15E6  3EFF               	addlw	-1
  6670     15E7  1D03               	skipz
  6671     15E8  2DE4               	goto	u5645
  6672     15E9  1003               	clrc
  6673     15EA  0D20               	rlf	??_eval_poly^(0+128),w
  6674     15EB  1283               	bcf	3,5	;RP0=0, select bank0
  6675     15EC  1303               	bcf	3,6	;RP1=0, select bank0
  6676     15ED  076B               	addwf	eval_poly@d,w
  6677     15EE  0084               	movwf	4
  6678     15EF  160A  118A  200A  160A  118A  	fcall	stringdir
  6679     15F4  1683               	bsf	3,5	;RP0=1, select bank1
  6680     15F5  1303               	bcf	3,6	;RP1=0, select bank1
  6681     15F6  00A1               	movwf	(??_eval_poly+1)^(0+128)
  6682     15F7  160A  118A  200A  160A  118A  	fcall	stringdir
  6683     15FC  00A2               	movwf	((??_eval_poly+1)^(0+128)+1)
  6684     15FD  160A  118A  200A  160A  118A  	fcall	stringdir
  6685     1602  00A3               	movwf	((??_eval_poly+1)^(0+128)+2)
  6686     1603  160A  118A  200A  160A  118A  	fcall	stringdir
  6687     1608  00A4               	movwf	((??_eval_poly+1)^(0+128)+3)
  6688     1609  0824               	movf	(??_eval_poly+4)^(0+128),w
  6689     160A  1283               	bcf	3,5	;RP0=0, select bank0
  6690     160B  1303               	bcf	3,6	;RP1=0, select bank0
  6691     160C  00D6               	movwf	___fladd@b+3
  6692     160D  1683               	bsf	3,5	;RP0=1, select bank1
  6693     160E  1303               	bcf	3,6	;RP1=0, select bank1
  6694     160F  0823               	movf	(??_eval_poly+3)^(0+128),w
  6695     1610  1283               	bcf	3,5	;RP0=0, select bank0
  6696     1611  1303               	bcf	3,6	;RP1=0, select bank0
  6697     1612  00D5               	movwf	___fladd@b+2
  6698     1613  1683               	bsf	3,5	;RP0=1, select bank1
  6699     1614  1303               	bcf	3,6	;RP1=0, select bank1
  6700     1615  0822               	movf	(??_eval_poly+2)^(0+128),w
  6701     1616  1283               	bcf	3,5	;RP0=0, select bank0
  6702     1617  1303               	bcf	3,6	;RP1=0, select bank0
  6703     1618  00D4               	movwf	___fladd@b+1
  6704     1619  1683               	bsf	3,5	;RP0=1, select bank1
  6705     161A  1303               	bcf	3,6	;RP1=0, select bank1
  6706     161B  0821               	movf	(??_eval_poly+1)^(0+128),w
  6707     161C  1283               	bcf	3,5	;RP0=0, select bank0
  6708     161D  1303               	bcf	3,6	;RP1=0, select bank0
  6709     161E  00D3               	movwf	___fladd@b
  6710     161F  1683               	bsf	3,5	;RP0=1, select bank1
  6711     1620  1303               	bcf	3,6	;RP1=0, select bank1
  6712     1621  0828               	movf	(eval_poly@res+3)^(0+128),w
  6713     1622  1283               	bcf	3,5	;RP0=0, select bank0
  6714     1623  1303               	bcf	3,6	;RP1=0, select bank0
  6715     1624  00BC               	movwf	___flmul@b+3
  6716     1625  1683               	bsf	3,5	;RP0=1, select bank1
  6717     1626  1303               	bcf	3,6	;RP1=0, select bank1
  6718     1627  0827               	movf	(eval_poly@res+2)^(0+128),w
  6719     1628  1283               	bcf	3,5	;RP0=0, select bank0
  6720     1629  1303               	bcf	3,6	;RP1=0, select bank0
  6721     162A  00BB               	movwf	___flmul@b+2
  6722     162B  1683               	bsf	3,5	;RP0=1, select bank1
  6723     162C  1303               	bcf	3,6	;RP1=0, select bank1
  6724     162D  0826               	movf	(eval_poly@res+1)^(0+128),w
  6725     162E  1283               	bcf	3,5	;RP0=0, select bank0
  6726     162F  1303               	bcf	3,6	;RP1=0, select bank0
  6727     1630  00BA               	movwf	___flmul@b+1
  6728     1631  1683               	bsf	3,5	;RP0=1, select bank1
  6729     1632  1303               	bcf	3,6	;RP1=0, select bank1
  6730     1633  0825               	movf	eval_poly@res^(0+128),w
  6731     1634  1283               	bcf	3,5	;RP0=0, select bank0
  6732     1635  1303               	bcf	3,6	;RP1=0, select bank0
  6733     1636  00B9               	movwf	___flmul@b
  6734     1637  086A               	movf	eval_poly@x+3,w
  6735     1638  00C0               	movwf	___flmul@a+3
  6736     1639  0869               	movf	eval_poly@x+2,w
  6737     163A  00BF               	movwf	___flmul@a+2
  6738     163B  0868               	movf	eval_poly@x+1,w
  6739     163C  00BE               	movwf	___flmul@a+1
  6740     163D  0867               	movf	eval_poly@x,w
  6741     163E  00BD               	movwf	___flmul@a
  6742     163F  120A  118A  203B  160A  118A  	fcall	___flmul
  6743     1644  1283               	bcf	3,5	;RP0=0, select bank0
  6744     1645  1303               	bcf	3,6	;RP1=0, select bank0
  6745     1646  083C               	movf	?___flmul+3,w
  6746     1647  00DA               	movwf	___fladd@a+3
  6747     1648  083B               	movf	?___flmul+2,w
  6748     1649  00D9               	movwf	___fladd@a+2
  6749     164A  083A               	movf	?___flmul+1,w
  6750     164B  00D8               	movwf	___fladd@a+1
  6751     164C  0839               	movf	?___flmul,w
  6752     164D  00D7               	movwf	___fladd@a
  6753     164E  120A  158A  25A8  160A  118A  	fcall	___fladd
  6754     1653  1283               	bcf	3,5	;RP0=0, select bank0
  6755     1654  1303               	bcf	3,6	;RP1=0, select bank0
  6756     1655  0856               	movf	?___fladd+3,w
  6757     1656  1683               	bsf	3,5	;RP0=1, select bank1
  6758     1657  1303               	bcf	3,6	;RP1=0, select bank1
  6759     1658  00A8               	movwf	(eval_poly@res+3)^(0+128)
  6760     1659  1283               	bcf	3,5	;RP0=0, select bank0
  6761     165A  1303               	bcf	3,6	;RP1=0, select bank0
  6762     165B  0855               	movf	?___fladd+2,w
  6763     165C  1683               	bsf	3,5	;RP0=1, select bank1
  6764     165D  1303               	bcf	3,6	;RP1=0, select bank1
  6765     165E  00A7               	movwf	(eval_poly@res+2)^(0+128)
  6766     165F  1283               	bcf	3,5	;RP0=0, select bank0
  6767     1660  1303               	bcf	3,6	;RP1=0, select bank0
  6768     1661  0854               	movf	?___fladd+1,w
  6769     1662  1683               	bsf	3,5	;RP0=1, select bank1
  6770     1663  1303               	bcf	3,6	;RP1=0, select bank1
  6771     1664  00A6               	movwf	(eval_poly@res+1)^(0+128)
  6772     1665  1283               	bcf	3,5	;RP0=0, select bank0
  6773     1666  1303               	bcf	3,6	;RP1=0, select bank0
  6774     1667  0853               	movf	?___fladd,w
  6775     1668  1683               	bsf	3,5	;RP0=1, select bank1
  6776     1669  1303               	bcf	3,6	;RP1=0, select bank1
  6777     166A  00A5               	movwf	eval_poly@res^(0+128)
  6778     166B                     l3767:
  6779     166B  1283               	bcf	3,5	;RP0=0, select bank0
  6780     166C  1303               	bcf	3,6	;RP1=0, select bank0
  6781     166D  086C               	movf	eval_poly@n,w
  6782     166E  046D               	iorwf	eval_poly@n+1,w
  6783     166F  1D03               	btfss	3,2
  6784     1670  2E72               	goto	u5651
  6785     1671  2E73               	goto	u5650
  6786     1672                     u5651:
  6787     1672  2DD9               	goto	l3765
  6788     1673                     u5650:
  6789     1673                     l3769:
  6790     1673  1683               	bsf	3,5	;RP0=1, select bank1
  6791     1674  1303               	bcf	3,6	;RP1=0, select bank1
  6792     1675  0828               	movf	(eval_poly@res+3)^(0+128),w
  6793     1676  1283               	bcf	3,5	;RP0=0, select bank0
  6794     1677  1303               	bcf	3,6	;RP1=0, select bank0
  6795     1678  00EA               	movwf	?_eval_poly+3
  6796     1679  1683               	bsf	3,5	;RP0=1, select bank1
  6797     167A  1303               	bcf	3,6	;RP1=0, select bank1
  6798     167B  0827               	movf	(eval_poly@res+2)^(0+128),w
  6799     167C  1283               	bcf	3,5	;RP0=0, select bank0
  6800     167D  1303               	bcf	3,6	;RP1=0, select bank0
  6801     167E  00E9               	movwf	?_eval_poly+2
  6802     167F  1683               	bsf	3,5	;RP0=1, select bank1
  6803     1680  1303               	bcf	3,6	;RP1=0, select bank1
  6804     1681  0826               	movf	(eval_poly@res+1)^(0+128),w
  6805     1682  1283               	bcf	3,5	;RP0=0, select bank0
  6806     1683  1303               	bcf	3,6	;RP1=0, select bank0
  6807     1684  00E8               	movwf	?_eval_poly+1
  6808     1685  1683               	bsf	3,5	;RP0=1, select bank1
  6809     1686  1303               	bcf	3,6	;RP1=0, select bank1
  6810     1687  0825               	movf	eval_poly@res^(0+128),w
  6811     1688  1283               	bcf	3,5	;RP0=0, select bank0
  6812     1689  1303               	bcf	3,6	;RP1=0, select bank0
  6813     168A  00E7               	movwf	?_eval_poly
  6814     168B                     l720:
  6815     168B  0008               	return
  6816     168C                     __end_of_eval_poly:
  6817                           
  6818                           	psect	text26
  6819     0DA8                     __ptext26:	
  6820 ;; *************** function ___fladd *****************
  6821 ;; Defined at:
  6822 ;;		line 10 in file "C:\Program Files\Microchip\xc8\v2.41\pic\sources\c90\common\sprcadd.c"
  6823 ;; Parameters:    Size  Location     Type
  6824 ;;  b               4   51[BANK0 ] int 
  6825 ;;  a               4   55[BANK0 ] int 
  6826 ;; Auto vars:     Size  Location     Type
  6827 ;;  grs             1   70[BANK0 ] unsigned char 
  6828 ;;  bexp            1   69[BANK0 ] unsigned char 
  6829 ;;  aexp            1   68[BANK0 ] unsigned char 
  6830 ;;  signs           1   67[BANK0 ] unsigned char 
  6831 ;; Return value:  Size  Location     Type
  6832 ;;                  4   51[BANK0 ] unsigned char 
  6833 ;; Registers used:
  6834 ;;		wreg, status,2, status,0, btemp+1
  6835 ;; Tracked objects:
  6836 ;;		On entry : 0/0
  6837 ;;		On exit  : 0/0
  6838 ;;		Unchanged: 0/0
  6839 ;; Data sizes:     COMMON   BANK0   BANK1   BANK3   BANK2
  6840 ;;      Params:         0       8       0       0       0
  6841 ;;      Locals:         0       4       0       0       0
  6842 ;;      Temps:          0       8       0       0       0
  6843 ;;      Totals:         0      20       0       0       0
  6844 ;;Total ram usage:       20 bytes
  6845 ;; Hardware stack levels used: 1
  6846 ;; Hardware stack levels required when called: 1
  6847 ;; This function calls:
  6848 ;;		Nothing
  6849 ;; This function is called by:
  6850 ;;		_converteVoltsParaLux
  6851 ;;		___flsub
  6852 ;;		_log
  6853 ;;		_eval_poly
  6854 ;;		_floor
  6855 ;; This function uses a non-reentrant model
  6856 ;;
  6857                           
  6858     0DA8                     ___fladd:	
  6859                           ;psect for function ___fladd
  6860                           
  6861     0DA8                     l3317:	
  6862                           ;incstack = 0
  6863                           ; Regs used in ___fladd: [wreg+status,2+status,0+btemp+1]
  6864                           
  6865     0DA8  1283               	bcf	3,5	;RP0=0, select bank0
  6866     0DA9  1303               	bcf	3,6	;RP1=0, select bank0
  6867     0DAA  0856               	movf	___fladd@b+3,w
  6868     0DAB  3980               	andlw	128
  6869     0DAC  00E3               	movwf	___fladd@signs
  6870     0DAD                     l3319:
  6871     0DAD  0856               	movf	___fladd@b+3,w
  6872     0DAE  00DB               	movwf	??___fladd
  6873     0DAF  075B               	addwf	??___fladd,w
  6874     0DB0  00E5               	movwf	___fladd@bexp
  6875     0DB1                     l3321:
  6876     0DB1  1FD5               	btfss	___fladd@b+2,7
  6877     0DB2  2DB4               	goto	u4641
  6878     0DB3  2DB5               	goto	u4640
  6879     0DB4                     u4641:
  6880     0DB4  2DB6               	goto	l3325
  6881     0DB5                     u4640:
  6882     0DB5                     l3323:
  6883     0DB5  1465               	bsf	___fladd@bexp,0
  6884     0DB6                     l3325:
  6885     0DB6  0865               	movf	___fladd@bexp,w
  6886     0DB7  1903               	btfsc	3,2
  6887     0DB8  2DBA               	goto	u4651
  6888     0DB9  2DBB               	goto	u4650
  6889     0DBA                     u4651:
  6890     0DBA  2DCB               	goto	l3335
  6891     0DBB                     u4650:
  6892     0DBB                     l3327:
  6893     0DBB  0A65               	incf	___fladd@bexp,w
  6894     0DBC  1D03               	btfss	3,2
  6895     0DBD  2DBF               	goto	u4661
  6896     0DBE  2DC0               	goto	u4660
  6897     0DBF                     u4661:
  6898     0DBF  2DC8               	goto	l3331
  6899     0DC0                     u4660:
  6900     0DC0                     l3329:
  6901     0DC0  3000               	movlw	0
  6902     0DC1  00D6               	movwf	___fladd@b+3
  6903     0DC2  3000               	movlw	0
  6904     0DC3  00D5               	movwf	___fladd@b+2
  6905     0DC4  3000               	movlw	0
  6906     0DC5  00D4               	movwf	___fladd@b+1
  6907     0DC6  3000               	movlw	0
  6908     0DC7  00D3               	movwf	___fladd@b
  6909     0DC8                     l3331:
  6910     0DC8  17D5               	bsf	___fladd@b+2,7
  6911     0DC9                     l3333:
  6912     0DC9  01D6               	clrf	___fladd@b+3
  6913     0DCA  2DD3               	goto	l3337
  6914     0DCB                     l3335:
  6915     0DCB  3000               	movlw	0
  6916     0DCC  00D6               	movwf	___fladd@b+3
  6917     0DCD  3000               	movlw	0
  6918     0DCE  00D5               	movwf	___fladd@b+2
  6919     0DCF  3000               	movlw	0
  6920     0DD0  00D4               	movwf	___fladd@b+1
  6921     0DD1  3000               	movlw	0
  6922     0DD2  00D3               	movwf	___fladd@b
  6923     0DD3                     l3337:
  6924     0DD3  085A               	movf	___fladd@a+3,w
  6925     0DD4  3980               	andlw	128
  6926     0DD5  00E4               	movwf	___fladd@aexp
  6927     0DD6                     l3339:
  6928     0DD6  0864               	movf	___fladd@aexp,w
  6929     0DD7  0663               	xorwf	___fladd@signs,w
  6930     0DD8  1903               	skipnz
  6931     0DD9  2DDB               	goto	u4671
  6932     0DDA  2DDC               	goto	u4670
  6933     0DDB                     u4671:
  6934     0DDB  2DDD               	goto	l3343
  6935     0DDC                     u4670:
  6936     0DDC                     l3341:
  6937     0DDC  1763               	bsf	___fladd@signs,6
  6938     0DDD                     l3343:
  6939     0DDD  085A               	movf	___fladd@a+3,w
  6940     0DDE  00DB               	movwf	??___fladd
  6941     0DDF  075B               	addwf	??___fladd,w
  6942     0DE0  00E4               	movwf	___fladd@aexp
  6943     0DE1                     l3345:
  6944     0DE1  1FD9               	btfss	___fladd@a+2,7
  6945     0DE2  2DE4               	goto	u4681
  6946     0DE3  2DE5               	goto	u4680
  6947     0DE4                     u4681:
  6948     0DE4  2DE6               	goto	l3349
  6949     0DE5                     u4680:
  6950     0DE5                     l3347:
  6951     0DE5  1464               	bsf	___fladd@aexp,0
  6952     0DE6                     l3349:
  6953     0DE6  0864               	movf	___fladd@aexp,w
  6954     0DE7  1903               	btfsc	3,2
  6955     0DE8  2DEA               	goto	u4691
  6956     0DE9  2DEB               	goto	u4690
  6957     0DEA                     u4691:
  6958     0DEA  2DFB               	goto	l3359
  6959     0DEB                     u4690:
  6960     0DEB                     l3351:
  6961     0DEB  0A64               	incf	___fladd@aexp,w
  6962     0DEC  1D03               	btfss	3,2
  6963     0DED  2DEF               	goto	u4701
  6964     0DEE  2DF0               	goto	u4700
  6965     0DEF                     u4701:
  6966     0DEF  2DF8               	goto	l3355
  6967     0DF0                     u4700:
  6968     0DF0                     l3353:
  6969     0DF0  3000               	movlw	0
  6970     0DF1  00DA               	movwf	___fladd@a+3
  6971     0DF2  3000               	movlw	0
  6972     0DF3  00D9               	movwf	___fladd@a+2
  6973     0DF4  3000               	movlw	0
  6974     0DF5  00D8               	movwf	___fladd@a+1
  6975     0DF6  3000               	movlw	0
  6976     0DF7  00D7               	movwf	___fladd@a
  6977     0DF8                     l3355:
  6978     0DF8  17D9               	bsf	___fladd@a+2,7
  6979     0DF9                     l3357:
  6980     0DF9  01DA               	clrf	___fladd@a+3
  6981     0DFA  2E03               	goto	l541
  6982     0DFB                     l3359:
  6983     0DFB  3000               	movlw	0
  6984     0DFC  00DA               	movwf	___fladd@a+3
  6985     0DFD  3000               	movlw	0
  6986     0DFE  00D9               	movwf	___fladd@a+2
  6987     0DFF  3000               	movlw	0
  6988     0E00  00D8               	movwf	___fladd@a+1
  6989     0E01  3000               	movlw	0
  6990     0E02  00D7               	movwf	___fladd@a
  6991     0E03                     l541:
  6992     0E03  0865               	movf	___fladd@bexp,w
  6993     0E04  0264               	subwf	___fladd@aexp,w
  6994     0E05  1803               	skipnc
  6995     0E06  2E08               	goto	u4711
  6996     0E07  2E09               	goto	u4710
  6997     0E08                     u4711:
  6998     0E08  2E2F               	goto	l3395
  6999     0E09                     u4710:
  7000     0E09                     l3361:
  7001     0E09  1F63               	btfss	___fladd@signs,6
  7002     0E0A  2E0C               	goto	u4721
  7003     0E0B  2E0D               	goto	u4720
  7004     0E0C                     u4721:
  7005     0E0C  2E11               	goto	l3365
  7006     0E0D                     u4720:
  7007     0E0D                     l3363:
  7008     0E0D  3080               	movlw	128
  7009     0E0E  00FF               	movwf	btemp+1
  7010     0E0F  087F               	movf	btemp+1,w
  7011     0E10  06E3               	xorwf	___fladd@signs,f
  7012     0E11                     l3365:
  7013     0E11  0865               	movf	___fladd@bexp,w
  7014     0E12  00E6               	movwf	___fladd@grs
  7015     0E13                     l3367:
  7016     0E13  0864               	movf	___fladd@aexp,w
  7017     0E14  00E5               	movwf	___fladd@bexp
  7018     0E15                     l3369:
  7019     0E15  0866               	movf	___fladd@grs,w
  7020     0E16  00E4               	movwf	___fladd@aexp
  7021     0E17                     l3371:
  7022     0E17  0853               	movf	___fladd@b,w
  7023     0E18  00E6               	movwf	___fladd@grs
  7024     0E19                     l3373:
  7025     0E19  0857               	movf	___fladd@a,w
  7026     0E1A  00D3               	movwf	___fladd@b
  7027     0E1B                     l3375:
  7028     0E1B  0866               	movf	___fladd@grs,w
  7029     0E1C  00D7               	movwf	___fladd@a
  7030     0E1D                     l3377:
  7031     0E1D  0854               	movf	___fladd@b+1,w
  7032     0E1E  00E6               	movwf	___fladd@grs
  7033     0E1F                     l3379:
  7034     0E1F  0858               	movf	___fladd@a+1,w
  7035     0E20  00D4               	movwf	___fladd@b+1
  7036     0E21                     l3381:
  7037     0E21  0866               	movf	___fladd@grs,w
  7038     0E22  00D8               	movwf	___fladd@a+1
  7039     0E23                     l3383:
  7040     0E23  0855               	movf	___fladd@b+2,w
  7041     0E24  00E6               	movwf	___fladd@grs
  7042     0E25                     l3385:
  7043     0E25  0859               	movf	___fladd@a+2,w
  7044     0E26  00D5               	movwf	___fladd@b+2
  7045     0E27                     l3387:
  7046     0E27  0866               	movf	___fladd@grs,w
  7047     0E28  00D9               	movwf	___fladd@a+2
  7048     0E29                     l3389:
  7049     0E29  0856               	movf	___fladd@b+3,w
  7050     0E2A  00E6               	movwf	___fladd@grs
  7051     0E2B                     l3391:
  7052     0E2B  085A               	movf	___fladd@a+3,w
  7053     0E2C  00D6               	movwf	___fladd@b+3
  7054     0E2D                     l3393:
  7055     0E2D  0866               	movf	___fladd@grs,w
  7056     0E2E  00DA               	movwf	___fladd@a+3
  7057     0E2F                     l3395:
  7058     0E2F  01E6               	clrf	___fladd@grs
  7059     0E30                     l3397:
  7060     0E30  0864               	movf	___fladd@aexp,w
  7061     0E31  00DB               	movwf	??___fladd
  7062     0E32  01DC               	clrf	??___fladd+1
  7063     0E33  085C               	movf	??___fladd+1,w
  7064     0E34  00DE               	movwf	??___fladd+3
  7065     0E35  0865               	movf	___fladd@bexp,w
  7066     0E36  025B               	subwf	??___fladd,w
  7067     0E37  00DD               	movwf	??___fladd+2
  7068     0E38  1C03               	skipc
  7069     0E39  03DE               	decf	??___fladd+3,f
  7070     0E3A  085E               	movf	??___fladd+3,w
  7071     0E3B  3A80               	xorlw	128
  7072     0E3C  00FF               	movwf	btemp+1
  7073     0E3D  3080               	movlw	128
  7074     0E3E  027F               	subwf	btemp+1,w
  7075     0E3F  1D03               	skipz
  7076     0E40  2E43               	goto	u4735
  7077     0E41  301A               	movlw	26
  7078     0E42  025D               	subwf	??___fladd+2,w
  7079     0E43                     u4735:
  7080     0E43  1C03               	skipc
  7081     0E44  2E46               	goto	u4731
  7082     0E45  2E47               	goto	u4730
  7083     0E46                     u4731:
  7084     0E46  2E7E               	goto	l3413
  7085     0E47                     u4730:
  7086     0E47                     l3399:
  7087     0E47  1283               	bcf	3,5	;RP0=0, select bank0
  7088     0E48  1303               	bcf	3,6	;RP1=0, select bank0
  7089     0E49  0856               	movf	___fladd@b+3,w
  7090     0E4A  0455               	iorwf	___fladd@b+2,w
  7091     0E4B  0454               	iorwf	___fladd@b+1,w
  7092     0E4C  0453               	iorwf	___fladd@b,w
  7093     0E4D  1D03               	skipz
  7094     0E4E  2E50               	goto	u4741
  7095     0E4F  2E52               	goto	u4740
  7096     0E50                     u4741:
  7097     0E50  3001               	movlw	1
  7098     0E51  2E53               	goto	u4750
  7099     0E52                     u4740:
  7100     0E52  3000               	movlw	0
  7101     0E53                     u4750:
  7102     0E53  00E6               	movwf	___fladd@grs
  7103     0E54  3000               	movlw	0
  7104     0E55  00D6               	movwf	___fladd@b+3
  7105     0E56  3000               	movlw	0
  7106     0E57  00D5               	movwf	___fladd@b+2
  7107     0E58  3000               	movlw	0
  7108     0E59  00D4               	movwf	___fladd@b+1
  7109     0E5A  3000               	movlw	0
  7110     0E5B  00D3               	movwf	___fladd@b
  7111     0E5C  0864               	movf	___fladd@aexp,w
  7112     0E5D  00E5               	movwf	___fladd@bexp
  7113     0E5E  2E86               	goto	l545
  7114     0E5F                     l547:
  7115     0E5F  1C66               	btfss	___fladd@grs,0
  7116     0E60  2E62               	goto	u4761
  7117     0E61  2E63               	goto	u4760
  7118     0E62                     u4761:
  7119     0E62  2E6A               	goto	l3403
  7120     0E63                     u4760:
  7121     0E63                     l3401:
  7122     0E63  0866               	movf	___fladd@grs,w
  7123     0E64  00DB               	movwf	??___fladd
  7124     0E65  1003               	clrc
  7125     0E66  0C5B               	rrf	??___fladd,w
  7126     0E67  3801               	iorlw	1
  7127     0E68  00E6               	movwf	___fladd@grs
  7128     0E69  2E6C               	goto	l3405
  7129     0E6A                     l3403:
  7130     0E6A  1003               	clrc
  7131     0E6B  0CE6               	rrf	___fladd@grs,f
  7132     0E6C                     l3405:
  7133     0E6C  1C53               	btfss	___fladd@b,0
  7134     0E6D  2E6F               	goto	u4771
  7135     0E6E  2E70               	goto	u4770
  7136     0E6F                     u4771:
  7137     0E6F  2E71               	goto	l3409
  7138     0E70                     u4770:
  7139     0E70                     l3407:
  7140     0E70  17E6               	bsf	___fladd@grs,7
  7141     0E71                     l3409:
  7142     0E71  3001               	movlw	1
  7143     0E72  00DB               	movwf	??___fladd
  7144     0E73                     u4785:
  7145     0E73  0D56               	rlf	___fladd@b+3,w
  7146     0E74  0CD6               	rrf	___fladd@b+3,f
  7147     0E75  0CD5               	rrf	___fladd@b+2,f
  7148     0E76  0CD4               	rrf	___fladd@b+1,f
  7149     0E77  0CD3               	rrf	___fladd@b,f
  7150     0E78  0BDB               	decfsz	??___fladd& (0+127),f
  7151     0E79  2E73               	goto	u4785
  7152     0E7A                     l3411:
  7153     0E7A  3001               	movlw	1
  7154     0E7B  00FF               	movwf	btemp+1
  7155     0E7C  087F               	movf	btemp+1,w
  7156     0E7D  07E5               	addwf	___fladd@bexp,f
  7157     0E7E                     l3413:
  7158     0E7E  1283               	bcf	3,5	;RP0=0, select bank0
  7159     0E7F  1303               	bcf	3,6	;RP1=0, select bank0
  7160     0E80  0864               	movf	___fladd@aexp,w
  7161     0E81  0265               	subwf	___fladd@bexp,w
  7162     0E82  1C03               	skipc
  7163     0E83  2E85               	goto	u4791
  7164     0E84  2E86               	goto	u4790
  7165     0E85                     u4791:
  7166     0E85  2E5F               	goto	l547
  7167     0E86                     u4790:
  7168     0E86                     l545:
  7169     0E86  1B63               	btfsc	___fladd@signs,6
  7170     0E87  2E89               	goto	u4801
  7171     0E88  2E8A               	goto	u4800
  7172     0E89                     u4801:
  7173     0E89  2ED3               	goto	l3439
  7174     0E8A                     u4800:
  7175     0E8A                     l3415:
  7176     0E8A  0865               	movf	___fladd@bexp,w
  7177     0E8B  1D03               	btfss	3,2
  7178     0E8C  2E8E               	goto	u4811
  7179     0E8D  2E8F               	goto	u4810
  7180     0E8E                     u4811:
  7181     0E8E  2E98               	goto	l3421
  7182     0E8F                     u4810:
  7183     0E8F                     l3417:
  7184     0E8F  3000               	movlw	0
  7185     0E90  00D6               	movwf	?___fladd+3
  7186     0E91  3000               	movlw	0
  7187     0E92  00D5               	movwf	?___fladd+2
  7188     0E93  3000               	movlw	0
  7189     0E94  00D4               	movwf	?___fladd+1
  7190     0E95  3000               	movlw	0
  7191     0E96  00D3               	movwf	?___fladd
  7192     0E97  2FFF               	goto	l554
  7193     0E98                     l3421:
  7194     0E98  0857               	movf	___fladd@a,w
  7195     0E99  07D3               	addwf	___fladd@b,f
  7196     0E9A  0858               	movf	___fladd@a+1,w
  7197     0E9B  1103               	clrz
  7198     0E9C  1803               	skipnc
  7199     0E9D  3E01               	addlw	1
  7200     0E9E  1903               	skipnz
  7201     0E9F  2EA1               	goto	u4821
  7202     0EA0  07D4               	addwf	___fladd@b+1,f
  7203     0EA1                     u4821:
  7204     0EA1  0859               	movf	___fladd@a+2,w
  7205     0EA2  1103               	clrz
  7206     0EA3  1803               	skipnc
  7207     0EA4  3E01               	addlw	1
  7208     0EA5  1903               	skipnz
  7209     0EA6  2EA8               	goto	u4822
  7210     0EA7  07D5               	addwf	___fladd@b+2,f
  7211     0EA8                     u4822:
  7212     0EA8  085A               	movf	___fladd@a+3,w
  7213     0EA9  1103               	clrz
  7214     0EAA  1803               	skipnc
  7215     0EAB  3E01               	addlw	1
  7216     0EAC  1903               	skipnz
  7217     0EAD  2EAF               	goto	u4823
  7218     0EAE  07D6               	addwf	___fladd@b+3,f
  7219     0EAF                     u4823:
  7220     0EAF                     l3423:
  7221     0EAF  1C56               	btfss	___fladd@b+3,0
  7222     0EB0  2EB2               	goto	u4831
  7223     0EB1  2EB3               	goto	u4830
  7224     0EB2                     u4831:
  7225     0EB2  2F87               	goto	l3475
  7226     0EB3                     u4830:
  7227     0EB3                     l3425:
  7228     0EB3  1C66               	btfss	___fladd@grs,0
  7229     0EB4  2EB6               	goto	u4841
  7230     0EB5  2EB7               	goto	u4840
  7231     0EB6                     u4841:
  7232     0EB6  2EBE               	goto	l3429
  7233     0EB7                     u4840:
  7234     0EB7                     l3427:
  7235     0EB7  0866               	movf	___fladd@grs,w
  7236     0EB8  00DB               	movwf	??___fladd
  7237     0EB9  1003               	clrc
  7238     0EBA  0C5B               	rrf	??___fladd,w
  7239     0EBB  3801               	iorlw	1
  7240     0EBC  00E6               	movwf	___fladd@grs
  7241     0EBD  2EC0               	goto	l3431
  7242     0EBE                     l3429:
  7243     0EBE  1003               	clrc
  7244     0EBF  0CE6               	rrf	___fladd@grs,f
  7245     0EC0                     l3431:
  7246     0EC0  1C53               	btfss	___fladd@b,0
  7247     0EC1  2EC3               	goto	u4851
  7248     0EC2  2EC4               	goto	u4850
  7249     0EC3                     u4851:
  7250     0EC3  2EC5               	goto	l3435
  7251     0EC4                     u4850:
  7252     0EC4                     l3433:
  7253     0EC4  17E6               	bsf	___fladd@grs,7
  7254     0EC5                     l3435:
  7255     0EC5  3001               	movlw	1
  7256     0EC6  00DB               	movwf	??___fladd
  7257     0EC7                     u4865:
  7258     0EC7  0D56               	rlf	___fladd@b+3,w
  7259     0EC8  0CD6               	rrf	___fladd@b+3,f
  7260     0EC9  0CD5               	rrf	___fladd@b+2,f
  7261     0ECA  0CD4               	rrf	___fladd@b+1,f
  7262     0ECB  0CD3               	rrf	___fladd@b,f
  7263     0ECC  0BDB               	decfsz	??___fladd& (0+127),f
  7264     0ECD  2EC7               	goto	u4865
  7265     0ECE                     l3437:
  7266     0ECE  3001               	movlw	1
  7267     0ECF  00FF               	movwf	btemp+1
  7268     0ED0  087F               	movf	btemp+1,w
  7269     0ED1  07E5               	addwf	___fladd@bexp,f
  7270     0ED2  2F87               	goto	l3475
  7271     0ED3                     l3439:
  7272     0ED3  0856               	movf	___fladd@b+3,w
  7273     0ED4  3A80               	xorlw	128
  7274     0ED5  00FF               	movwf	btemp+1
  7275     0ED6  085A               	movf	___fladd@a+3,w
  7276     0ED7  3A80               	xorlw	128
  7277     0ED8  027F               	subwf	btemp+1,w
  7278     0ED9  1D03               	skipz
  7279     0EDA  2EE5               	goto	u4873
  7280     0EDB  0859               	movf	___fladd@a+2,w
  7281     0EDC  0255               	subwf	___fladd@b+2,w
  7282     0EDD  1D03               	skipz
  7283     0EDE  2EE5               	goto	u4873
  7284     0EDF  0858               	movf	___fladd@a+1,w
  7285     0EE0  0254               	subwf	___fladd@b+1,w
  7286     0EE1  1D03               	skipz
  7287     0EE2  2EE5               	goto	u4873
  7288     0EE3  0857               	movf	___fladd@a,w
  7289     0EE4  0253               	subwf	___fladd@b,w
  7290     0EE5                     u4873:
  7291     0EE5  1803               	skipnc
  7292     0EE6  2EE8               	goto	u4871
  7293     0EE7  2EE9               	goto	u4870
  7294     0EE8                     u4871:
  7295     0EE8  2F41               	goto	l3451
  7296     0EE9                     u4870:
  7297     0EE9                     l3441:
  7298     0EE9  30FF               	movlw	255
  7299     0EEA  00DB               	movwf	??___fladd
  7300     0EEB  30FF               	movlw	255
  7301     0EEC  00DC               	movwf	??___fladd+1
  7302     0EED  30FF               	movlw	255
  7303     0EEE  00DD               	movwf	??___fladd+2
  7304     0EEF  30FF               	movlw	255
  7305     0EF0  00DE               	movwf	??___fladd+3
  7306     0EF1  0857               	movf	___fladd@a,w
  7307     0EF2  00DF               	movwf	??___fladd+4
  7308     0EF3  0858               	movf	___fladd@a+1,w
  7309     0EF4  00E0               	movwf	??___fladd+5
  7310     0EF5  0859               	movf	___fladd@a+2,w
  7311     0EF6  00E1               	movwf	??___fladd+6
  7312     0EF7  085A               	movf	___fladd@a+3,w
  7313     0EF8  00E2               	movwf	??___fladd+7
  7314     0EF9  0853               	movf	___fladd@b,w
  7315     0EFA  02DF               	subwf	??___fladd+4,f
  7316     0EFB  0854               	movf	___fladd@b+1,w
  7317     0EFC  1C03               	skipc
  7318     0EFD  0F54               	incfsz	___fladd@b+1,w
  7319     0EFE  2F00               	goto	u4881
  7320     0EFF  2F01               	goto	u4882
  7321     0F00                     u4881:
  7322     0F00  02E0               	subwf	??___fladd+5,f
  7323     0F01                     u4882:
  7324     0F01  0855               	movf	___fladd@b+2,w
  7325     0F02  1C03               	skipc
  7326     0F03  0F55               	incfsz	___fladd@b+2,w
  7327     0F04  2F06               	goto	u4883
  7328     0F05  2F07               	goto	u4884
  7329     0F06                     u4883:
  7330     0F06  02E1               	subwf	??___fladd+6,f
  7331     0F07                     u4884:
  7332     0F07  0856               	movf	___fladd@b+3,w
  7333     0F08  1C03               	skipc
  7334     0F09  0F56               	incfsz	___fladd@b+3,w
  7335     0F0A  2F0C               	goto	u4885
  7336     0F0B  2F0D               	goto	u4886
  7337     0F0C                     u4885:
  7338     0F0C  02E2               	subwf	??___fladd+7,f
  7339     0F0D                     u4886:
  7340     0F0D  085F               	movf	??___fladd+4,w
  7341     0F0E  07DB               	addwf	??___fladd,f
  7342     0F0F  0860               	movf	??___fladd+5,w
  7343     0F10  1803               	skipnc
  7344     0F11  0F60               	incfsz	??___fladd+5,w
  7345     0F12  2F14               	goto	u4890
  7346     0F13  2F15               	goto	u4891
  7347     0F14                     u4890:
  7348     0F14  07DC               	addwf	??___fladd+1,f
  7349     0F15                     u4891:
  7350     0F15  0861               	movf	??___fladd+6,w
  7351     0F16  1803               	skipnc
  7352     0F17  0F61               	incfsz	??___fladd+6,w
  7353     0F18  2F1A               	goto	u4892
  7354     0F19  2F1B               	goto	u4893
  7355     0F1A                     u4892:
  7356     0F1A  07DD               	addwf	??___fladd+2,f
  7357     0F1B                     u4893:
  7358     0F1B  0862               	movf	??___fladd+7,w
  7359     0F1C  1803               	skipnc
  7360     0F1D  0A62               	incf	??___fladd+7,w
  7361     0F1E  07DE               	addwf	??___fladd+3,f
  7362     0F1F  085E               	movf	??___fladd+3,w
  7363     0F20  00D6               	movwf	___fladd@b+3
  7364     0F21  085D               	movf	??___fladd+2,w
  7365     0F22  00D5               	movwf	___fladd@b+2
  7366     0F23  085C               	movf	??___fladd+1,w
  7367     0F24  00D4               	movwf	___fladd@b+1
  7368     0F25  085B               	movf	??___fladd,w
  7369     0F26  00D3               	movwf	___fladd@b
  7370     0F27                     l3443:
  7371     0F27  3080               	movlw	128
  7372     0F28  00FF               	movwf	btemp+1
  7373     0F29  087F               	movf	btemp+1,w
  7374     0F2A  06E3               	xorwf	___fladd@signs,f
  7375     0F2B                     l3445:
  7376     0F2B  09E6               	comf	___fladd@grs,f
  7377     0F2C  0AE6               	incf	___fladd@grs,f
  7378     0F2D                     l3447:
  7379     0F2D  0866               	movf	___fladd@grs,w
  7380     0F2E  1D03               	btfss	3,2
  7381     0F2F  2F31               	goto	u4901
  7382     0F30  2F32               	goto	u4900
  7383     0F31                     u4901:
  7384     0F31  2F4F               	goto	l562
  7385     0F32                     u4900:
  7386     0F32                     l3449:
  7387     0F32  3001               	movlw	1
  7388     0F33  07D3               	addwf	___fladd@b,f
  7389     0F34  3000               	movlw	0
  7390     0F35  1803               	skipnc
  7391     0F36  3001               	movlw	1
  7392     0F37  07D4               	addwf	___fladd@b+1,f
  7393     0F38  3000               	movlw	0
  7394     0F39  1803               	skipnc
  7395     0F3A  3001               	movlw	1
  7396     0F3B  07D5               	addwf	___fladd@b+2,f
  7397     0F3C  3000               	movlw	0
  7398     0F3D  1803               	skipnc
  7399     0F3E  3001               	movlw	1
  7400     0F3F  07D6               	addwf	___fladd@b+3,f
  7401     0F40  2F4F               	goto	l562
  7402     0F41                     l3451:
  7403     0F41  0857               	movf	___fladd@a,w
  7404     0F42  02D3               	subwf	___fladd@b,f
  7405     0F43  0858               	movf	___fladd@a+1,w
  7406     0F44  1C03               	skipc
  7407     0F45  0F58               	incfsz	___fladd@a+1,w
  7408     0F46  02D4               	subwf	___fladd@b+1,f
  7409     0F47  0859               	movf	___fladd@a+2,w
  7410     0F48  1C03               	skipc
  7411     0F49  0F59               	incfsz	___fladd@a+2,w
  7412     0F4A  02D5               	subwf	___fladd@b+2,f
  7413     0F4B  085A               	movf	___fladd@a+3,w
  7414     0F4C  1C03               	skipc
  7415     0F4D  0F5A               	incfsz	___fladd@a+3,w
  7416     0F4E  02D6               	subwf	___fladd@b+3,f
  7417     0F4F                     l562:
  7418     0F4F  0856               	movf	___fladd@b+3,w
  7419     0F50  0455               	iorwf	___fladd@b+2,w
  7420     0F51  0454               	iorwf	___fladd@b+1,w
  7421     0F52  0453               	iorwf	___fladd@b,w
  7422     0F53  1D03               	skipz
  7423     0F54  2F56               	goto	u4911
  7424     0F55  2F57               	goto	u4910
  7425     0F56                     u4911:
  7426     0F56  2F83               	goto	l3473
  7427     0F57                     u4910:
  7428     0F57                     l3453:
  7429     0F57  0866               	movf	___fladd@grs,w
  7430     0F58  1D03               	btfss	3,2
  7431     0F59  2F5B               	goto	u4921
  7432     0F5A  2F5C               	goto	u4920
  7433     0F5B                     u4921:
  7434     0F5B  2F83               	goto	l3473
  7435     0F5C                     u4920:
  7436     0F5C                     l3455:
  7437     0F5C  3000               	movlw	0
  7438     0F5D  00D6               	movwf	?___fladd+3
  7439     0F5E  3000               	movlw	0
  7440     0F5F  00D5               	movwf	?___fladd+2
  7441     0F60  3000               	movlw	0
  7442     0F61  00D4               	movwf	?___fladd+1
  7443     0F62  3000               	movlw	0
  7444     0F63  00D3               	movwf	?___fladd
  7445     0F64  2FFF               	goto	l554
  7446     0F65                     l3459:
  7447     0F65  3001               	movlw	1
  7448     0F66  00DB               	movwf	??___fladd
  7449     0F67                     u4935:
  7450     0F67  1003               	clrc
  7451     0F68  0DD3               	rlf	___fladd@b,f
  7452     0F69  0DD4               	rlf	___fladd@b+1,f
  7453     0F6A  0DD5               	rlf	___fladd@b+2,f
  7454     0F6B  0DD6               	rlf	___fladd@b+3,f
  7455     0F6C  0BDB               	decfsz	??___fladd,f
  7456     0F6D  2F67               	goto	u4935
  7457     0F6E                     l3461:
  7458     0F6E  1FE6               	btfss	___fladd@grs,7
  7459     0F6F  2F71               	goto	u4941
  7460     0F70  2F72               	goto	u4940
  7461     0F71                     u4941:
  7462     0F71  2F73               	goto	l566
  7463     0F72                     u4940:
  7464     0F72                     l3463:
  7465     0F72  1453               	bsf	___fladd@b,0
  7466     0F73                     l566:
  7467     0F73  1C66               	btfss	___fladd@grs,0
  7468     0F74  2F76               	goto	u4951
  7469     0F75  2F77               	goto	u4950
  7470     0F76                     u4951:
  7471     0F76  2F7A               	goto	l3467
  7472     0F77                     u4950:
  7473     0F77                     l3465:
  7474     0F77  1403               	setc
  7475     0F78  0DE6               	rlf	___fladd@grs,f
  7476     0F79  2F7C               	goto	l3469
  7477     0F7A                     l3467:
  7478     0F7A  1003               	clrc
  7479     0F7B  0DE6               	rlf	___fladd@grs,f
  7480     0F7C                     l3469:
  7481     0F7C  0865               	movf	___fladd@bexp,w
  7482     0F7D  1903               	btfsc	3,2
  7483     0F7E  2F80               	goto	u4961
  7484     0F7F  2F81               	goto	u4960
  7485     0F80                     u4961:
  7486     0F80  2F83               	goto	l3473
  7487     0F81                     u4960:
  7488     0F81                     l3471:
  7489     0F81  3001               	movlw	1
  7490     0F82  02E5               	subwf	___fladd@bexp,f
  7491     0F83                     l3473:
  7492     0F83  1FD5               	btfss	___fladd@b+2,7
  7493     0F84  2F86               	goto	u4971
  7494     0F85  2F87               	goto	u4970
  7495     0F86                     u4971:
  7496     0F86  2F65               	goto	l3459
  7497     0F87                     u4970:
  7498     0F87                     l3475:
  7499     0F87  01E4               	clrf	___fladd@aexp
  7500     0F88                     l3477:
  7501     0F88  1FE6               	btfss	___fladd@grs,7
  7502     0F89  2F8B               	goto	u4981
  7503     0F8A  2F8C               	goto	u4980
  7504     0F8B                     u4981:
  7505     0F8B  2F9A               	goto	l3485
  7506     0F8C                     u4980:
  7507     0F8C                     l3479:
  7508     0F8C  0866               	movf	___fladd@grs,w
  7509     0F8D  397F               	andlw	127
  7510     0F8E  1903               	btfsc	3,2
  7511     0F8F  2F91               	goto	u4991
  7512     0F90  2F92               	goto	u4990
  7513     0F91                     u4991:
  7514     0F91  2F95               	goto	l572
  7515     0F92                     u4990:
  7516     0F92                     l3481:
  7517     0F92  01E4               	clrf	___fladd@aexp
  7518     0F93  0AE4               	incf	___fladd@aexp,f
  7519     0F94  2F9A               	goto	l3485
  7520     0F95                     l572:
  7521     0F95  1C53               	btfss	___fladd@b,0
  7522     0F96  2F98               	goto	u5001
  7523     0F97  2F99               	goto	u5000
  7524     0F98                     u5001:
  7525     0F98  2F9A               	goto	l3485
  7526     0F99                     u5000:
  7527     0F99  2F92               	goto	l3481
  7528     0F9A                     l3485:
  7529     0F9A  0864               	movf	___fladd@aexp,w
  7530     0F9B  1903               	btfsc	3,2
  7531     0F9C  2F9E               	goto	u5011
  7532     0F9D  2F9F               	goto	u5010
  7533     0F9E                     u5011:
  7534     0F9E  2FD3               	goto	l3495
  7535     0F9F                     u5010:
  7536     0F9F                     l3487:
  7537     0F9F  3001               	movlw	1
  7538     0FA0  07D3               	addwf	___fladd@b,f
  7539     0FA1  3000               	movlw	0
  7540     0FA2  1803               	skipnc
  7541     0FA3  3001               	movlw	1
  7542     0FA4  07D4               	addwf	___fladd@b+1,f
  7543     0FA5  3000               	movlw	0
  7544     0FA6  1803               	skipnc
  7545     0FA7  3001               	movlw	1
  7546     0FA8  07D5               	addwf	___fladd@b+2,f
  7547     0FA9  3000               	movlw	0
  7548     0FAA  1803               	skipnc
  7549     0FAB  3001               	movlw	1
  7550     0FAC  07D6               	addwf	___fladd@b+3,f
  7551     0FAD                     l3489:
  7552     0FAD  1C56               	btfss	___fladd@b+3,0
  7553     0FAE  2FB0               	goto	u5021
  7554     0FAF  2FB1               	goto	u5020
  7555     0FB0                     u5021:
  7556     0FB0  2FD3               	goto	l3495
  7557     0FB1                     u5020:
  7558     0FB1                     l3491:
  7559     0FB1  0853               	movf	___fladd@b,w
  7560     0FB2  00DB               	movwf	??___fladd
  7561     0FB3  0854               	movf	___fladd@b+1,w
  7562     0FB4  00DC               	movwf	??___fladd+1
  7563     0FB5  0855               	movf	___fladd@b+2,w
  7564     0FB6  00DD               	movwf	??___fladd+2
  7565     0FB7  0856               	movf	___fladd@b+3,w
  7566     0FB8  00DE               	movwf	??___fladd+3
  7567     0FB9  3001               	movlw	1
  7568     0FBA  00DF               	movwf	??___fladd+4
  7569     0FBB                     u5035:
  7570     0FBB  0D5E               	rlf	??___fladd+3,w
  7571     0FBC  0CDE               	rrf	??___fladd+3,f
  7572     0FBD  0CDD               	rrf	??___fladd+2,f
  7573     0FBE  0CDC               	rrf	??___fladd+1,f
  7574     0FBF  0CDB               	rrf	??___fladd,f
  7575     0FC0                     u5030:
  7576     0FC0  0BDF               	decfsz	??___fladd+4,f
  7577     0FC1  2FBB               	goto	u5035
  7578     0FC2  085E               	movf	??___fladd+3,w
  7579     0FC3  00D6               	movwf	___fladd@b+3
  7580     0FC4  085D               	movf	??___fladd+2,w
  7581     0FC5  00D5               	movwf	___fladd@b+2
  7582     0FC6  085C               	movf	??___fladd+1,w
  7583     0FC7  00D4               	movwf	___fladd@b+1
  7584     0FC8  085B               	movf	??___fladd,w
  7585     0FC9  00D3               	movwf	___fladd@b
  7586     0FCA  0A65               	incf	___fladd@bexp,w
  7587     0FCB  1903               	btfsc	3,2
  7588     0FCC  2FCE               	goto	u5041
  7589     0FCD  2FCF               	goto	u5040
  7590     0FCE                     u5041:
  7591     0FCE  2FD3               	goto	l3495
  7592     0FCF                     u5040:
  7593     0FCF                     l3493:
  7594     0FCF  3001               	movlw	1
  7595     0FD0  00FF               	movwf	btemp+1
  7596     0FD1  087F               	movf	btemp+1,w
  7597     0FD2  07E5               	addwf	___fladd@bexp,f
  7598     0FD3                     l3495:
  7599     0FD3  0A65               	incf	___fladd@bexp,w
  7600     0FD4  1903               	btfsc	3,2
  7601     0FD5  2FD7               	goto	u5051
  7602     0FD6  2FD8               	goto	u5050
  7603     0FD7                     u5051:
  7604     0FD7  2FDD               	goto	l3499
  7605     0FD8                     u5050:
  7606     0FD8                     l3497:
  7607     0FD8  0865               	movf	___fladd@bexp,w
  7608     0FD9  1D03               	btfss	3,2
  7609     0FDA  2FDC               	goto	u5061
  7610     0FDB  2FDD               	goto	u5060
  7611     0FDC                     u5061:
  7612     0FDC  2FEB               	goto	l3505
  7613     0FDD                     u5060:
  7614     0FDD                     l3499:
  7615     0FDD  3000               	movlw	0
  7616     0FDE  00D6               	movwf	___fladd@b+3
  7617     0FDF  3000               	movlw	0
  7618     0FE0  00D5               	movwf	___fladd@b+2
  7619     0FE1  3000               	movlw	0
  7620     0FE2  00D4               	movwf	___fladd@b+1
  7621     0FE3  3000               	movlw	0
  7622     0FE4  00D3               	movwf	___fladd@b
  7623     0FE5                     l3501:
  7624     0FE5  0865               	movf	___fladd@bexp,w
  7625     0FE6  1D03               	btfss	3,2
  7626     0FE7  2FE9               	goto	u5071
  7627     0FE8  2FEA               	goto	u5070
  7628     0FE9                     u5071:
  7629     0FE9  2FEB               	goto	l3505
  7630     0FEA                     u5070:
  7631     0FEA                     l3503:
  7632     0FEA  01E3               	clrf	___fladd@signs
  7633     0FEB                     l3505:
  7634     0FEB  1C65               	btfss	___fladd@bexp,0
  7635     0FEC  2FEE               	goto	u5081
  7636     0FED  2FEF               	goto	u5080
  7637     0FEE                     u5081:
  7638     0FEE  2FF1               	goto	l3509
  7639     0FEF                     u5080:
  7640     0FEF                     l3507:
  7641     0FEF  17D5               	bsf	___fladd@b+2,7
  7642     0FF0  2FF5               	goto	l3511
  7643     0FF1                     l3509:
  7644     0FF1  307F               	movlw	127
  7645     0FF2  00FF               	movwf	btemp+1
  7646     0FF3  087F               	movf	btemp+1,w
  7647     0FF4  05D5               	andwf	___fladd@b+2,f
  7648     0FF5                     l3511:
  7649     0FF5  0865               	movf	___fladd@bexp,w
  7650     0FF6  00DB               	movwf	??___fladd
  7651     0FF7  1003               	clrc
  7652     0FF8  0C5B               	rrf	??___fladd,w
  7653     0FF9  00D6               	movwf	___fladd@b+3
  7654     0FFA                     l3513:
  7655     0FFA  1FE3               	btfss	___fladd@signs,7
  7656     0FFB  2FFD               	goto	u5091
  7657     0FFC  2FFE               	goto	u5090
  7658     0FFD                     u5091:
  7659     0FFD  2FFF               	goto	l584
  7660     0FFE                     u5090:
  7661     0FFE                     l3515:
  7662     0FFE  17D6               	bsf	___fladd@b+3,7
  7663     0FFF                     l584:
  7664     0FFF                     l554:
  7665     0FFF  0008               	return
  7666     1000                     __end_of___fladd:
  7667                           
  7668                           	psect	text27
  7669     1342                     __ptext27:	
  7670 ;; *************** function ___xxtofl *****************
  7671 ;; Defined at:
  7672 ;;		line 10 in file "C:\Program Files\Microchip\xc8\v2.41\pic\sources\c90\common\xxtofl.c"
  7673 ;; Parameters:    Size  Location     Type
  7674 ;;  sign            1    wreg     unsigned char 
  7675 ;;  val             4    2[COMMON] long 
  7676 ;; Auto vars:     Size  Location     Type
  7677 ;;  sign            1    0[BANK0 ] unsigned char 
  7678 ;;  arg             4    2[BANK0 ] unsigned long 
  7679 ;;  exp             1    1[BANK0 ] unsigned char 
  7680 ;; Return value:  Size  Location     Type
  7681 ;;                  4    2[COMMON] unsigned char 
  7682 ;; Registers used:
  7683 ;;		wreg, status,2, status,0, btemp+1
  7684 ;; Tracked objects:
  7685 ;;		On entry : 0/0
  7686 ;;		On exit  : 0/0
  7687 ;;		Unchanged: 0/0
  7688 ;; Data sizes:     COMMON   BANK0   BANK1   BANK3   BANK2
  7689 ;;      Params:         4       0       0       0       0
  7690 ;;      Locals:         0       6       0       0       0
  7691 ;;      Temps:          4       0       0       0       0
  7692 ;;      Totals:         8       6       0       0       0
  7693 ;;Total ram usage:       14 bytes
  7694 ;; Hardware stack levels used: 1
  7695 ;; Hardware stack levels required when called: 1
  7696 ;; This function calls:
  7697 ;;		Nothing
  7698 ;; This function is called by:
  7699 ;;		_converteVoltsParaLux
  7700 ;;		_main
  7701 ;;		_log
  7702 ;;		_pow
  7703 ;;		_exp
  7704 ;;		_floor
  7705 ;; This function uses a non-reentrant model
  7706 ;;
  7707                           
  7708     1342                     ___xxtofl:	
  7709                           ;psect for function ___xxtofl
  7710                           
  7711                           
  7712                           ;incstack = 0
  7713                           ; Regs used in ___xxtofl: [wreg+status,2+status,0+btemp+1]
  7714                           ;___xxtofl@sign stored from wreg
  7715     1342  1283               	bcf	3,5	;RP0=0, select bank0
  7716     1343  1303               	bcf	3,6	;RP1=0, select bank0
  7717     1344  00A0               	movwf	___xxtofl@sign
  7718     1345                     l3659:
  7719     1345  0820               	movf	___xxtofl@sign,w
  7720     1346  1903               	btfsc	3,2
  7721     1347  2B49               	goto	u5471
  7722     1348  2B4A               	goto	u5470
  7723     1349                     u5471:
  7724     1349  2B5E               	goto	l3665
  7725     134A                     u5470:
  7726     134A                     l3661:
  7727     134A  1FF5               	btfss	___xxtofl@val+3,7
  7728     134B  2B4D               	goto	u5481
  7729     134C  2B4E               	goto	u5480
  7730     134D                     u5481:
  7731     134D  2B5E               	goto	l3665
  7732     134E                     u5480:
  7733     134E                     l3663:
  7734     134E  0972               	comf	___xxtofl@val,w
  7735     134F  00A2               	movwf	___xxtofl@arg
  7736     1350  0973               	comf	___xxtofl@val+1,w
  7737     1351  00A3               	movwf	___xxtofl@arg+1
  7738     1352  0974               	comf	___xxtofl@val+2,w
  7739     1353  00A4               	movwf	___xxtofl@arg+2
  7740     1354  0975               	comf	___xxtofl@val+3,w
  7741     1355  00A5               	movwf	___xxtofl@arg+3
  7742     1356  0AA2               	incf	___xxtofl@arg,f
  7743     1357  1903               	skipnz
  7744     1358  0AA3               	incf	___xxtofl@arg+1,f
  7745     1359  1903               	skipnz
  7746     135A  0AA4               	incf	___xxtofl@arg+2,f
  7747     135B  1903               	skipnz
  7748     135C  0AA5               	incf	___xxtofl@arg+3,f
  7749     135D  2B66               	goto	l681
  7750     135E                     l3665:
  7751     135E  0875               	movf	___xxtofl@val+3,w
  7752     135F  00A5               	movwf	___xxtofl@arg+3
  7753     1360  0874               	movf	___xxtofl@val+2,w
  7754     1361  00A4               	movwf	___xxtofl@arg+2
  7755     1362  0873               	movf	___xxtofl@val+1,w
  7756     1363  00A3               	movwf	___xxtofl@arg+1
  7757     1364  0872               	movf	___xxtofl@val,w
  7758     1365  00A2               	movwf	___xxtofl@arg
  7759     1366                     l681:
  7760     1366  0875               	movf	___xxtofl@val+3,w
  7761     1367  0474               	iorwf	___xxtofl@val+2,w
  7762     1368  0473               	iorwf	___xxtofl@val+1,w
  7763     1369  0472               	iorwf	___xxtofl@val,w
  7764     136A  1D03               	skipz
  7765     136B  2B6D               	goto	u5491
  7766     136C  2B6E               	goto	u5490
  7767     136D                     u5491:
  7768     136D  2B77               	goto	l3671
  7769     136E                     u5490:
  7770     136E                     l3667:
  7771     136E  3000               	movlw	0
  7772     136F  00F5               	movwf	?___xxtofl+3
  7773     1370  3000               	movlw	0
  7774     1371  00F4               	movwf	?___xxtofl+2
  7775     1372  3000               	movlw	0
  7776     1373  00F3               	movwf	?___xxtofl+1
  7777     1374  3000               	movlw	0
  7778     1375  00F2               	movwf	?___xxtofl
  7779     1376  2BFB               	goto	l683
  7780     1377                     l3671:
  7781     1377  3096               	movlw	150
  7782     1378  00A1               	movwf	___xxtofl@exp
  7783     1379  2B87               	goto	l3677
  7784     137A                     l3673:
  7785     137A  3001               	movlw	1
  7786     137B  00FF               	movwf	btemp+1
  7787     137C  087F               	movf	btemp+1,w
  7788     137D  07A1               	addwf	___xxtofl@exp,f
  7789     137E                     l3675:
  7790     137E  3001               	movlw	1
  7791     137F                     u5505:
  7792     137F  1003               	clrc
  7793     1380  0CA5               	rrf	___xxtofl@arg+3,f
  7794     1381  0CA4               	rrf	___xxtofl@arg+2,f
  7795     1382  0CA3               	rrf	___xxtofl@arg+1,f
  7796     1383  0CA2               	rrf	___xxtofl@arg,f
  7797     1384  3EFF               	addlw	-1
  7798     1385  1D03               	skipz
  7799     1386  2B7F               	goto	u5505
  7800     1387                     l3677:
  7801     1387  30FE               	movlw	254
  7802     1388  0525               	andwf	___xxtofl@arg+3,w
  7803     1389  1D03               	btfss	3,2
  7804     138A  2B8C               	goto	u5511
  7805     138B  2B8D               	goto	u5510
  7806     138C                     u5511:
  7807     138C  2B7A               	goto	l3673
  7808     138D                     u5510:
  7809     138D  2BA9               	goto	l3685
  7810     138E                     l3679:
  7811     138E  3001               	movlw	1
  7812     138F  00FF               	movwf	btemp+1
  7813     1390  087F               	movf	btemp+1,w
  7814     1391  07A1               	addwf	___xxtofl@exp,f
  7815     1392                     l3681:
  7816     1392  3001               	movlw	1
  7817     1393  07A2               	addwf	___xxtofl@arg,f
  7818     1394  3000               	movlw	0
  7819     1395  1803               	skipnc
  7820     1396  3001               	movlw	1
  7821     1397  07A3               	addwf	___xxtofl@arg+1,f
  7822     1398  3000               	movlw	0
  7823     1399  1803               	skipnc
  7824     139A  3001               	movlw	1
  7825     139B  07A4               	addwf	___xxtofl@arg+2,f
  7826     139C  3000               	movlw	0
  7827     139D  1803               	skipnc
  7828     139E  3001               	movlw	1
  7829     139F  07A5               	addwf	___xxtofl@arg+3,f
  7830     13A0                     l3683:
  7831     13A0  3001               	movlw	1
  7832     13A1                     u5525:
  7833     13A1  1003               	clrc
  7834     13A2  0CA5               	rrf	___xxtofl@arg+3,f
  7835     13A3  0CA4               	rrf	___xxtofl@arg+2,f
  7836     13A4  0CA3               	rrf	___xxtofl@arg+1,f
  7837     13A5  0CA2               	rrf	___xxtofl@arg,f
  7838     13A6  3EFF               	addlw	-1
  7839     13A7  1D03               	skipz
  7840     13A8  2BA1               	goto	u5525
  7841     13A9                     l3685:
  7842     13A9  30FF               	movlw	255
  7843     13AA  0525               	andwf	___xxtofl@arg+3,w
  7844     13AB  1D03               	btfss	3,2
  7845     13AC  2BAE               	goto	u5531
  7846     13AD  2BAF               	goto	u5530
  7847     13AE                     u5531:
  7848     13AE  2B8E               	goto	l3679
  7849     13AF                     u5530:
  7850     13AF  2BBB               	goto	l3689
  7851     13B0                     l3687:
  7852     13B0  3001               	movlw	1
  7853     13B1  02A1               	subwf	___xxtofl@exp,f
  7854     13B2  3001               	movlw	1
  7855     13B3  00F6               	movwf	??___xxtofl
  7856     13B4                     u5545:
  7857     13B4  1003               	clrc
  7858     13B5  0DA2               	rlf	___xxtofl@arg,f
  7859     13B6  0DA3               	rlf	___xxtofl@arg+1,f
  7860     13B7  0DA4               	rlf	___xxtofl@arg+2,f
  7861     13B8  0DA5               	rlf	___xxtofl@arg+3,f
  7862     13B9  0BF6               	decfsz	??___xxtofl,f
  7863     13BA  2BB4               	goto	u5545
  7864     13BB                     l3689:
  7865     13BB  1BA4               	btfsc	___xxtofl@arg+2,7
  7866     13BC  2BBE               	goto	u5551
  7867     13BD  2BBF               	goto	u5550
  7868     13BE                     u5551:
  7869     13BE  2BC5               	goto	l694
  7870     13BF                     u5550:
  7871     13BF                     l3691:
  7872     13BF  3002               	movlw	2
  7873     13C0  0221               	subwf	___xxtofl@exp,w
  7874     13C1  1803               	skipnc
  7875     13C2  2BC4               	goto	u5561
  7876     13C3  2BC5               	goto	u5560
  7877     13C4                     u5561:
  7878     13C4  2BB0               	goto	l3687
  7879     13C5                     u5560:
  7880     13C5                     l694:
  7881     13C5  1821               	btfsc	___xxtofl@exp,0
  7882     13C6  2BC8               	goto	u5571
  7883     13C7  2BC9               	goto	u5570
  7884     13C8                     u5571:
  7885     13C8  2BD1               	goto	l695
  7886     13C9                     u5570:
  7887     13C9                     l3693:
  7888     13C9  30FF               	movlw	255
  7889     13CA  05A2               	andwf	___xxtofl@arg,f
  7890     13CB  30FF               	movlw	255
  7891     13CC  05A3               	andwf	___xxtofl@arg+1,f
  7892     13CD  307F               	movlw	127
  7893     13CE  05A4               	andwf	___xxtofl@arg+2,f
  7894     13CF  30FF               	movlw	255
  7895     13D0  05A5               	andwf	___xxtofl@arg+3,f
  7896     13D1                     l695:
  7897     13D1  1003               	clrc
  7898     13D2  0CA1               	rrf	___xxtofl@exp,f
  7899     13D3                     l3695:
  7900     13D3  0821               	movf	___xxtofl@exp,w
  7901     13D4  00F6               	movwf	??___xxtofl
  7902     13D5  01F7               	clrf	??___xxtofl+1
  7903     13D6  01F8               	clrf	??___xxtofl+2
  7904     13D7  01F9               	clrf	??___xxtofl+3
  7905     13D8  3018               	movlw	24
  7906     13D9                     u5585:
  7907     13D9  1003               	clrc
  7908     13DA  0DF6               	rlf	??___xxtofl,f
  7909     13DB  0DF7               	rlf	??___xxtofl+1,f
  7910     13DC  0DF8               	rlf	??___xxtofl+2,f
  7911     13DD  0DF9               	rlf	??___xxtofl+3,f
  7912     13DE                     u5580:
  7913     13DE  3EFF               	addlw	-1
  7914     13DF  1D03               	skipz
  7915     13E0  2BD9               	goto	u5585
  7916     13E1  0876               	movf	??___xxtofl,w
  7917     13E2  04A2               	iorwf	___xxtofl@arg,f
  7918     13E3  0877               	movf	??___xxtofl+1,w
  7919     13E4  04A3               	iorwf	___xxtofl@arg+1,f
  7920     13E5  0878               	movf	??___xxtofl+2,w
  7921     13E6  04A4               	iorwf	___xxtofl@arg+2,f
  7922     13E7  0879               	movf	??___xxtofl+3,w
  7923     13E8  04A5               	iorwf	___xxtofl@arg+3,f
  7924     13E9                     l3697:
  7925     13E9  0820               	movf	___xxtofl@sign,w
  7926     13EA  1903               	btfsc	3,2
  7927     13EB  2BED               	goto	u5591
  7928     13EC  2BEE               	goto	u5590
  7929     13ED                     u5591:
  7930     13ED  2BF3               	goto	l3703
  7931     13EE                     u5590:
  7932     13EE                     l3699:
  7933     13EE  1FF5               	btfss	___xxtofl@val+3,7
  7934     13EF  2BF1               	goto	u5601
  7935     13F0  2BF2               	goto	u5600
  7936     13F1                     u5601:
  7937     13F1  2BF3               	goto	l3703
  7938     13F2                     u5600:
  7939     13F2                     l3701:
  7940     13F2  17A5               	bsf	___xxtofl@arg+3,7
  7941     13F3                     l3703:
  7942     13F3  0825               	movf	___xxtofl@arg+3,w
  7943     13F4  00F5               	movwf	?___xxtofl+3
  7944     13F5  0824               	movf	___xxtofl@arg+2,w
  7945     13F6  00F4               	movwf	?___xxtofl+2
  7946     13F7  0823               	movf	___xxtofl@arg+1,w
  7947     13F8  00F3               	movwf	?___xxtofl+1
  7948     13F9  0822               	movf	___xxtofl@arg,w
  7949     13FA  00F2               	movwf	?___xxtofl
  7950     13FB                     l683:
  7951     13FB  0008               	return
  7952     13FC                     __end_of___xxtofl:
  7953                           
  7954                           	psect	text28
  7955     11F7                     __ptext28:	
  7956 ;; *************** function ___flge *****************
  7957 ;; Defined at:
  7958 ;;		line 4 in file "C:\Program Files\Microchip\xc8\v2.41\pic\sources\c90\common\flge.c"
  7959 ;; Parameters:    Size  Location     Type
  7960 ;;  ff1             4    2[COMMON] unsigned char 
  7961 ;;  ff2             4    6[COMMON] unsigned char 
  7962 ;; Auto vars:     Size  Location     Type
  7963 ;;		None
  7964 ;; Return value:  Size  Location     Type
  7965 ;;		None               void
  7966 ;; Registers used:
  7967 ;;		wreg, status,2, status,0
  7968 ;; Tracked objects:
  7969 ;;		On entry : 0/0
  7970 ;;		On exit  : 0/0
  7971 ;;		Unchanged: 0/0
  7972 ;; Data sizes:     COMMON   BANK0   BANK1   BANK3   BANK2
  7973 ;;      Params:         8       0       0       0       0
  7974 ;;      Locals:         0       0       0       0       0
  7975 ;;      Temps:          0       4       0       0       0
  7976 ;;      Totals:         8       4       0       0       0
  7977 ;;Total ram usage:       12 bytes
  7978 ;; Hardware stack levels used: 1
  7979 ;; Hardware stack levels required when called: 1
  7980 ;; This function calls:
  7981 ;;		Nothing
  7982 ;; This function is called by:
  7983 ;;		_log
  7984 ;;		_ldexp
  7985 ;;		_pow
  7986 ;;		_exp
  7987 ;;		_floor
  7988 ;; This function uses a non-reentrant model
  7989 ;;
  7990                           
  7991     11F7                     ___flge:	
  7992                           ;psect for function ___flge
  7993                           
  7994     11F7                     l3297:	
  7995                           ;incstack = 0
  7996                           ; Regs used in ___flge: [wreg+status,2+status,0]
  7997                           
  7998     11F7  3000               	movlw	0
  7999     11F8  0572               	andwf	___flge@ff1,w
  8000     11F9  1283               	bcf	3,5	;RP0=0, select bank0
  8001     11FA  1303               	bcf	3,6	;RP1=0, select bank0
  8002     11FB  00A0               	movwf	??___flge
  8003     11FC  3000               	movlw	0
  8004     11FD  0573               	andwf	___flge@ff1+1,w
  8005     11FE  00A1               	movwf	??___flge+1
  8006     11FF  3080               	movlw	128
  8007     1200  0574               	andwf	___flge@ff1+2,w
  8008     1201  00A2               	movwf	??___flge+2
  8009     1202  307F               	movlw	127
  8010     1203  0575               	andwf	___flge@ff1+3,w
  8011     1204  00A3               	movwf	??___flge+3
  8012     1205  0823               	movf	??___flge+3,w
  8013     1206  0422               	iorwf	??___flge+2,w
  8014     1207  0421               	iorwf	??___flge+1,w
  8015     1208  0420               	iorwf	??___flge,w
  8016     1209  1D03               	skipz
  8017     120A  2A0C               	goto	u4571
  8018     120B  2A0D               	goto	u4570
  8019     120C                     u4571:
  8020     120C  2A15               	goto	l422
  8021     120D                     u4570:
  8022     120D                     l3299:
  8023     120D  3000               	movlw	0
  8024     120E  00F5               	movwf	___flge@ff1+3
  8025     120F  3000               	movlw	0
  8026     1210  00F4               	movwf	___flge@ff1+2
  8027     1211  3000               	movlw	0
  8028     1212  00F3               	movwf	___flge@ff1+1
  8029     1213  3000               	movlw	0
  8030     1214  00F2               	movwf	___flge@ff1
  8031     1215                     l422:
  8032     1215  3000               	movlw	0
  8033     1216  0576               	andwf	___flge@ff2,w
  8034     1217  00A0               	movwf	??___flge
  8035     1218  3000               	movlw	0
  8036     1219  0577               	andwf	___flge@ff2+1,w
  8037     121A  00A1               	movwf	??___flge+1
  8038     121B  3080               	movlw	128
  8039     121C  0578               	andwf	___flge@ff2+2,w
  8040     121D  00A2               	movwf	??___flge+2
  8041     121E  307F               	movlw	127
  8042     121F  0579               	andwf	___flge@ff2+3,w
  8043     1220  00A3               	movwf	??___flge+3
  8044     1221  0823               	movf	??___flge+3,w
  8045     1222  0422               	iorwf	??___flge+2,w
  8046     1223  0421               	iorwf	??___flge+1,w
  8047     1224  0420               	iorwf	??___flge,w
  8048     1225  1D03               	skipz
  8049     1226  2A28               	goto	u4581
  8050     1227  2A29               	goto	u4580
  8051     1228                     u4581:
  8052     1228  2A31               	goto	l3303
  8053     1229                     u4580:
  8054     1229                     l3301:
  8055     1229  3000               	movlw	0
  8056     122A  00F9               	movwf	___flge@ff2+3
  8057     122B  3000               	movlw	0
  8058     122C  00F8               	movwf	___flge@ff2+2
  8059     122D  3000               	movlw	0
  8060     122E  00F7               	movwf	___flge@ff2+1
  8061     122F  3000               	movlw	0
  8062     1230  00F6               	movwf	___flge@ff2
  8063     1231                     l3303:
  8064     1231  1FF5               	btfss	___flge@ff1+3,7
  8065     1232  2A34               	goto	u4591
  8066     1233  2A35               	goto	u4590
  8067     1234                     u4591:
  8068     1234  2A59               	goto	l3307
  8069     1235                     u4590:
  8070     1235                     l3305:
  8071     1235  3000               	movlw	0
  8072     1236  00A0               	movwf	??___flge
  8073     1237  3000               	movlw	0
  8074     1238  00A1               	movwf	??___flge+1
  8075     1239  3000               	movlw	0
  8076     123A  00A2               	movwf	??___flge+2
  8077     123B  3080               	movlw	128
  8078     123C  00A3               	movwf	??___flge+3
  8079     123D  0872               	movf	___flge@ff1,w
  8080     123E  02A0               	subwf	??___flge,f
  8081     123F  0873               	movf	___flge@ff1+1,w
  8082     1240  1C03               	skipc
  8083     1241  0F73               	incfsz	___flge@ff1+1,w
  8084     1242  2A44               	goto	u4601
  8085     1243  2A45               	goto	u4602
  8086     1244                     u4601:
  8087     1244  02A1               	subwf	??___flge+1,f
  8088     1245                     u4602:
  8089     1245  0874               	movf	___flge@ff1+2,w
  8090     1246  1C03               	skipc
  8091     1247  0F74               	incfsz	___flge@ff1+2,w
  8092     1248  2A4A               	goto	u4603
  8093     1249  2A4B               	goto	u4604
  8094     124A                     u4603:
  8095     124A  02A2               	subwf	??___flge+2,f
  8096     124B                     u4604:
  8097     124B  0875               	movf	___flge@ff1+3,w
  8098     124C  1C03               	skipc
  8099     124D  0F75               	incfsz	___flge@ff1+3,w
  8100     124E  2A50               	goto	u4605
  8101     124F  2A51               	goto	u4606
  8102     1250                     u4605:
  8103     1250  02A3               	subwf	??___flge+3,f
  8104     1251                     u4606:
  8105     1251  0823               	movf	??___flge+3,w
  8106     1252  00F5               	movwf	___flge@ff1+3
  8107     1253  0822               	movf	??___flge+2,w
  8108     1254  00F4               	movwf	___flge@ff1+2
  8109     1255  0821               	movf	??___flge+1,w
  8110     1256  00F3               	movwf	___flge@ff1+1
  8111     1257  0820               	movf	??___flge,w
  8112     1258  00F2               	movwf	___flge@ff1
  8113     1259                     l3307:
  8114     1259  1FF9               	btfss	___flge@ff2+3,7
  8115     125A  2A5C               	goto	u4611
  8116     125B  2A5D               	goto	u4610
  8117     125C                     u4611:
  8118     125C  2A81               	goto	l425
  8119     125D                     u4610:
  8120     125D                     l3309:
  8121     125D  3000               	movlw	0
  8122     125E  00A0               	movwf	??___flge
  8123     125F  3000               	movlw	0
  8124     1260  00A1               	movwf	??___flge+1
  8125     1261  3000               	movlw	0
  8126     1262  00A2               	movwf	??___flge+2
  8127     1263  3080               	movlw	128
  8128     1264  00A3               	movwf	??___flge+3
  8129     1265  0876               	movf	___flge@ff2,w
  8130     1266  02A0               	subwf	??___flge,f
  8131     1267  0877               	movf	___flge@ff2+1,w
  8132     1268  1C03               	skipc
  8133     1269  0F77               	incfsz	___flge@ff2+1,w
  8134     126A  2A6C               	goto	u4621
  8135     126B  2A6D               	goto	u4622
  8136     126C                     u4621:
  8137     126C  02A1               	subwf	??___flge+1,f
  8138     126D                     u4622:
  8139     126D  0878               	movf	___flge@ff2+2,w
  8140     126E  1C03               	skipc
  8141     126F  0F78               	incfsz	___flge@ff2+2,w
  8142     1270  2A72               	goto	u4623
  8143     1271  2A73               	goto	u4624
  8144     1272                     u4623:
  8145     1272  02A2               	subwf	??___flge+2,f
  8146     1273                     u4624:
  8147     1273  0879               	movf	___flge@ff2+3,w
  8148     1274  1C03               	skipc
  8149     1275  0F79               	incfsz	___flge@ff2+3,w
  8150     1276  2A78               	goto	u4625
  8151     1277  2A79               	goto	u4626
  8152     1278                     u4625:
  8153     1278  02A3               	subwf	??___flge+3,f
  8154     1279                     u4626:
  8155     1279  0823               	movf	??___flge+3,w
  8156     127A  00F9               	movwf	___flge@ff2+3
  8157     127B  0822               	movf	??___flge+2,w
  8158     127C  00F8               	movwf	___flge@ff2+2
  8159     127D  0821               	movf	??___flge+1,w
  8160     127E  00F7               	movwf	___flge@ff2+1
  8161     127F  0820               	movf	??___flge,w
  8162     1280  00F6               	movwf	___flge@ff2
  8163     1281                     l425:
  8164     1281  3080               	movlw	128
  8165     1282  06F5               	xorwf	___flge@ff1+3,f
  8166     1283  3080               	movlw	128
  8167     1284  06F9               	xorwf	___flge@ff2+3,f
  8168     1285  0879               	movf	___flge@ff2+3,w
  8169     1286  0275               	subwf	___flge@ff1+3,w
  8170     1287  1D03               	skipz
  8171     1288  2A93               	goto	u4635
  8172     1289  0878               	movf	___flge@ff2+2,w
  8173     128A  0274               	subwf	___flge@ff1+2,w
  8174     128B  1D03               	skipz
  8175     128C  2A93               	goto	u4635
  8176     128D  0877               	movf	___flge@ff2+1,w
  8177     128E  0273               	subwf	___flge@ff1+1,w
  8178     128F  1D03               	skipz
  8179     1290  2A93               	goto	u4635
  8180     1291  0876               	movf	___flge@ff2,w
  8181     1292  0272               	subwf	___flge@ff1,w
  8182     1293                     u4635:
  8183     1293  1803               	skipnc
  8184     1294  2A96               	goto	u4631
  8185     1295  2A97               	goto	u4630
  8186     1296                     u4631:
  8187     1296  2A99               	goto	l3313
  8188     1297                     u4630:
  8189     1297                     l3311:
  8190     1297  1003               	clrc
  8191     1298  2A9A               	goto	l426
  8192     1299                     l3313:
  8193     1299  1403               	setc
  8194     129A                     l426:
  8195     129A  0008               	return
  8196     129B                     __end_of___flge:
  8197                           
  8198                           	psect	text29
  8199     1EF5                     __ptext29:	
  8200 ;; *************** function _converteLeituraAnParaVolts *****************
  8201 ;; Defined at:
  8202 ;;		line 212 in file "newmain.c"
  8203 ;; Parameters:    Size  Location     Type
  8204 ;;  leitura         4   55[BANK1 ] float 
  8205 ;; Auto vars:     Size  Location     Type
  8206 ;;		None
  8207 ;; Return value:  Size  Location     Type
  8208 ;;                  4   55[BANK1 ] float 
  8209 ;; Registers used:
  8210 ;;		wreg, status,2, status,0, btemp+1, pclath, cstack
  8211 ;; Tracked objects:
  8212 ;;		On entry : 0/0
  8213 ;;		On exit  : 0/0
  8214 ;;		Unchanged: 0/0
  8215 ;; Data sizes:     COMMON   BANK0   BANK1   BANK3   BANK2
  8216 ;;      Params:         0       0       4       0       0
  8217 ;;      Locals:         0       0       0       0       0
  8218 ;;      Temps:          0       0       0       0       0
  8219 ;;      Totals:         0       0       4       0       0
  8220 ;;Total ram usage:        4 bytes
  8221 ;; Hardware stack levels used: 1
  8222 ;; Hardware stack levels required when called: 3
  8223 ;; This function calls:
  8224 ;;		___fldiv
  8225 ;;		___flmul
  8226 ;; This function is called by:
  8227 ;;		_main
  8228 ;; This function uses a non-reentrant model
  8229 ;;
  8230                           
  8231     1EF5                     _converteLeituraAnParaVolts:	
  8232                           ;psect for function _converteLeituraAnParaVolts
  8233                           
  8234     1EF5                     l4057:	
  8235                           ;incstack = 0
  8236                           ; Regs used in _converteLeituraAnParaVolts: [wreg+status,2+status,0+btemp+1+pclath+cstac
      +                          k]
  8237                           
  8238                           
  8239                           ;newmain.c: 212: float converteLeituraAnParaVolts(float leitura);newmain.c: 213: {;newma
      +                          in.c: 214:     return leitura * 5/255;
  8240     1EF5  3043               	movlw	67
  8241     1EF6  1683               	bsf	3,5	;RP0=1, select bank1
  8242     1EF7  1303               	bcf	3,6	;RP1=0, select bank1
  8243     1EF8  00C0               	movwf	(___fldiv@a+3)^(0+128)
  8244     1EF9  307F               	movlw	127
  8245     1EFA  00BF               	movwf	(___fldiv@a+2)^(0+128)
  8246     1EFB  3000               	movlw	0
  8247     1EFC  00BE               	movwf	(___fldiv@a+1)^(0+128)
  8248     1EFD  3000               	movlw	0
  8249     1EFE  00BD               	movwf	___fldiv@a^(0+128)
  8250     1EFF  3040               	movlw	64
  8251     1F00  1283               	bcf	3,5	;RP0=0, select bank0
  8252     1F01  1303               	bcf	3,6	;RP1=0, select bank0
  8253     1F02  00BC               	movwf	___flmul@b+3
  8254     1F03  30A0               	movlw	160
  8255     1F04  00BB               	movwf	___flmul@b+2
  8256     1F05  3000               	movlw	0
  8257     1F06  00BA               	movwf	___flmul@b+1
  8258     1F07  3000               	movlw	0
  8259     1F08  00B9               	movwf	___flmul@b
  8260     1F09  1683               	bsf	3,5	;RP0=1, select bank1
  8261     1F0A  1303               	bcf	3,6	;RP1=0, select bank1
  8262     1F0B  085A               	movf	(converteLeituraAnParaVolts@leitura+3)^(0+128),w
  8263     1F0C  1283               	bcf	3,5	;RP0=0, select bank0
  8264     1F0D  1303               	bcf	3,6	;RP1=0, select bank0
  8265     1F0E  00C0               	movwf	___flmul@a+3
  8266     1F0F  1683               	bsf	3,5	;RP0=1, select bank1
  8267     1F10  1303               	bcf	3,6	;RP1=0, select bank1
  8268     1F11  0859               	movf	(converteLeituraAnParaVolts@leitura+2)^(0+128),w
  8269     1F12  1283               	bcf	3,5	;RP0=0, select bank0
  8270     1F13  1303               	bcf	3,6	;RP1=0, select bank0
  8271     1F14  00BF               	movwf	___flmul@a+2
  8272     1F15  1683               	bsf	3,5	;RP0=1, select bank1
  8273     1F16  1303               	bcf	3,6	;RP1=0, select bank1
  8274     1F17  0858               	movf	(converteLeituraAnParaVolts@leitura+1)^(0+128),w
  8275     1F18  1283               	bcf	3,5	;RP0=0, select bank0
  8276     1F19  1303               	bcf	3,6	;RP1=0, select bank0
  8277     1F1A  00BE               	movwf	___flmul@a+1
  8278     1F1B  1683               	bsf	3,5	;RP0=1, select bank1
  8279     1F1C  1303               	bcf	3,6	;RP1=0, select bank1
  8280     1F1D  0857               	movf	converteLeituraAnParaVolts@leitura^(0+128),w
  8281     1F1E  1283               	bcf	3,5	;RP0=0, select bank0
  8282     1F1F  1303               	bcf	3,6	;RP1=0, select bank0
  8283     1F20  00BD               	movwf	___flmul@a
  8284     1F21  120A  118A  203B  160A  158A  	fcall	___flmul
  8285     1F26  1283               	bcf	3,5	;RP0=0, select bank0
  8286     1F27  1303               	bcf	3,6	;RP1=0, select bank0
  8287     1F28  083C               	movf	?___flmul+3,w
  8288     1F29  1683               	bsf	3,5	;RP0=1, select bank1
  8289     1F2A  1303               	bcf	3,6	;RP1=0, select bank1
  8290     1F2B  00C4               	movwf	(___fldiv@b+3)^(0+128)
  8291     1F2C  1283               	bcf	3,5	;RP0=0, select bank0
  8292     1F2D  1303               	bcf	3,6	;RP1=0, select bank0
  8293     1F2E  083B               	movf	?___flmul+2,w
  8294     1F2F  1683               	bsf	3,5	;RP0=1, select bank1
  8295     1F30  1303               	bcf	3,6	;RP1=0, select bank1
  8296     1F31  00C3               	movwf	(___fldiv@b+2)^(0+128)
  8297     1F32  1283               	bcf	3,5	;RP0=0, select bank0
  8298     1F33  1303               	bcf	3,6	;RP1=0, select bank0
  8299     1F34  083A               	movf	?___flmul+1,w
  8300     1F35  1683               	bsf	3,5	;RP0=1, select bank1
  8301     1F36  1303               	bcf	3,6	;RP1=0, select bank1
  8302     1F37  00C2               	movwf	(___fldiv@b+1)^(0+128)
  8303     1F38  1283               	bcf	3,5	;RP0=0, select bank0
  8304     1F39  1303               	bcf	3,6	;RP1=0, select bank0
  8305     1F3A  0839               	movf	?___flmul,w
  8306     1F3B  1683               	bsf	3,5	;RP0=1, select bank1
  8307     1F3C  1303               	bcf	3,6	;RP1=0, select bank1
  8308     1F3D  00C1               	movwf	___fldiv@b^(0+128)
  8309     1F3E  120A  118A  262D  160A  158A  	fcall	___fldiv
  8310     1F43  1683               	bsf	3,5	;RP0=1, select bank1
  8311     1F44  1303               	bcf	3,6	;RP1=0, select bank1
  8312     1F45  0840               	movf	(?___fldiv+3)^(0+128),w
  8313     1F46  00DA               	movwf	(?_converteLeituraAnParaVolts+3)^(0+128)
  8314     1F47  083F               	movf	(?___fldiv+2)^(0+128),w
  8315     1F48  00D9               	movwf	(?_converteLeituraAnParaVolts+2)^(0+128)
  8316     1F49  083E               	movf	(?___fldiv+1)^(0+128),w
  8317     1F4A  00D8               	movwf	(?_converteLeituraAnParaVolts+1)^(0+128)
  8318     1F4B  083D               	movf	?___fldiv^(0+128),w
  8319     1F4C  00D7               	movwf	?_converteLeituraAnParaVolts^(0+128)
  8320     1F4D                     l151:
  8321     1F4D  0008               	return
  8322     1F4E                     __end_of_converteLeituraAnParaVolts:
  8323                           
  8324                           	psect	text30
  8325     003B                     __ptext30:	
  8326 ;; *************** function ___flmul *****************
  8327 ;; Defined at:
  8328 ;;		line 8 in file "C:\Program Files\Microchip\xc8\v2.41\pic\sources\c90\common\sprcmul.c"
  8329 ;; Parameters:    Size  Location     Type
  8330 ;;  b               4   25[BANK0 ] float 
  8331 ;;  a               4   29[BANK0 ] float 
  8332 ;; Auto vars:     Size  Location     Type
  8333 ;;  prod            4   45[BANK0 ] struct .
  8334 ;;  grs             4   40[BANK0 ] unsigned long 
  8335 ;;  temp            2   49[BANK0 ] struct .
  8336 ;;  bexp            1   44[BANK0 ] unsigned char 
  8337 ;;  aexp            1   39[BANK0 ] unsigned char 
  8338 ;;  sign            1   38[BANK0 ] unsigned char 
  8339 ;; Return value:  Size  Location     Type
  8340 ;;                  4   25[BANK0 ] unsigned char 
  8341 ;; Registers used:
  8342 ;;		wreg, status,2, status,0, btemp+1, pclath, cstack
  8343 ;; Tracked objects:
  8344 ;;		On entry : 0/0
  8345 ;;		On exit  : 0/0
  8346 ;;		Unchanged: 0/0
  8347 ;; Data sizes:     COMMON   BANK0   BANK1   BANK3   BANK2
  8348 ;;      Params:         0       8       0       0       0
  8349 ;;      Locals:         0      13       0       0       0
  8350 ;;      Temps:          0       5       0       0       0
  8351 ;;      Totals:         0      26       0       0       0
  8352 ;;Total ram usage:       26 bytes
  8353 ;; Hardware stack levels used: 1
  8354 ;; Hardware stack levels required when called: 2
  8355 ;; This function calls:
  8356 ;;		__Umul8_16
  8357 ;; This function is called by:
  8358 ;;		_converteLeituraAnParaVolts
  8359 ;;		_converteVoltsParaLux
  8360 ;;		_log
  8361 ;;		_log10
  8362 ;;		_eval_poly
  8363 ;;		_pow
  8364 ;;		_exp
  8365 ;; This function uses a non-reentrant model
  8366 ;;
  8367                           
  8368     003B                     ___flmul:	
  8369                           ;psect for function ___flmul
  8370                           
  8371     003B                     l3517:	
  8372                           ;incstack = 0
  8373                           ; Regs used in ___flmul: [wreg+status,2+status,0+btemp+1+pclath+cstack]
  8374                           
  8375     003B  1283               	bcf	3,5	;RP0=0, select bank0
  8376     003C  1303               	bcf	3,6	;RP1=0, select bank0
  8377     003D  083C               	movf	___flmul@b+3,w
  8378     003E  3980               	andlw	128
  8379     003F  00C6               	movwf	___flmul@sign
  8380     0040                     l3519:
  8381     0040  083C               	movf	___flmul@b+3,w
  8382     0041  00C1               	movwf	??___flmul
  8383     0042  0741               	addwf	??___flmul,w
  8384     0043  00CC               	movwf	___flmul@bexp
  8385     0044                     l3521:
  8386     0044  1FBB               	btfss	___flmul@b+2,7
  8387     0045  2847               	goto	u5101
  8388     0046  2848               	goto	u5100
  8389     0047                     u5101:
  8390     0047  2849               	goto	l3525
  8391     0048                     u5100:
  8392     0048                     l3523:
  8393     0048  144C               	bsf	___flmul@bexp,0
  8394     0049                     l3525:
  8395     0049  084C               	movf	___flmul@bexp,w
  8396     004A  1903               	btfsc	3,2
  8397     004B  284D               	goto	u5111
  8398     004C  284E               	goto	u5110
  8399     004D                     u5111:
  8400     004D  285D               	goto	l3533
  8401     004E                     u5110:
  8402     004E                     l3527:
  8403     004E  0A4C               	incf	___flmul@bexp,w
  8404     004F  1D03               	btfss	3,2
  8405     0050  2852               	goto	u5121
  8406     0051  2853               	goto	u5120
  8407     0052                     u5121:
  8408     0052  285B               	goto	l3531
  8409     0053                     u5120:
  8410     0053                     l3529:
  8411     0053  3000               	movlw	0
  8412     0054  00BC               	movwf	___flmul@b+3
  8413     0055  3000               	movlw	0
  8414     0056  00BB               	movwf	___flmul@b+2
  8415     0057  3000               	movlw	0
  8416     0058  00BA               	movwf	___flmul@b+1
  8417     0059  3000               	movlw	0
  8418     005A  00B9               	movwf	___flmul@b
  8419     005B                     l3531:
  8420     005B  17BB               	bsf	___flmul@b+2,7
  8421     005C  2865               	goto	l3535
  8422     005D                     l3533:
  8423     005D  3000               	movlw	0
  8424     005E  00BC               	movwf	___flmul@b+3
  8425     005F  3000               	movlw	0
  8426     0060  00BB               	movwf	___flmul@b+2
  8427     0061  3000               	movlw	0
  8428     0062  00BA               	movwf	___flmul@b+1
  8429     0063  3000               	movlw	0
  8430     0064  00B9               	movwf	___flmul@b
  8431     0065                     l3535:
  8432     0065  0840               	movf	___flmul@a+3,w
  8433     0066  3980               	andlw	128
  8434     0067  00FF               	movwf	btemp+1
  8435     0068  087F               	movf	btemp+1,w
  8436     0069  06C6               	xorwf	___flmul@sign,f
  8437     006A                     l3537:
  8438     006A  0840               	movf	___flmul@a+3,w
  8439     006B  00C1               	movwf	??___flmul
  8440     006C  0741               	addwf	??___flmul,w
  8441     006D  00C7               	movwf	___flmul@aexp
  8442     006E                     l3539:
  8443     006E  1FBF               	btfss	___flmul@a+2,7
  8444     006F  2871               	goto	u5131
  8445     0070  2872               	goto	u5130
  8446     0071                     u5131:
  8447     0071  2873               	goto	l3543
  8448     0072                     u5130:
  8449     0072                     l3541:
  8450     0072  1447               	bsf	___flmul@aexp,0
  8451     0073                     l3543:
  8452     0073  0847               	movf	___flmul@aexp,w
  8453     0074  1903               	btfsc	3,2
  8454     0075  2877               	goto	u5141
  8455     0076  2878               	goto	u5140
  8456     0077                     u5141:
  8457     0077  2887               	goto	l3551
  8458     0078                     u5140:
  8459     0078                     l3545:
  8460     0078  0A47               	incf	___flmul@aexp,w
  8461     0079  1D03               	btfss	3,2
  8462     007A  287C               	goto	u5151
  8463     007B  287D               	goto	u5150
  8464     007C                     u5151:
  8465     007C  2885               	goto	l3549
  8466     007D                     u5150:
  8467     007D                     l3547:
  8468     007D  3000               	movlw	0
  8469     007E  00C0               	movwf	___flmul@a+3
  8470     007F  3000               	movlw	0
  8471     0080  00BF               	movwf	___flmul@a+2
  8472     0081  3000               	movlw	0
  8473     0082  00BE               	movwf	___flmul@a+1
  8474     0083  3000               	movlw	0
  8475     0084  00BD               	movwf	___flmul@a
  8476     0085                     l3549:
  8477     0085  17BF               	bsf	___flmul@a+2,7
  8478     0086  288F               	goto	l3553
  8479     0087                     l3551:
  8480     0087  3000               	movlw	0
  8481     0088  00C0               	movwf	___flmul@a+3
  8482     0089  3000               	movlw	0
  8483     008A  00BF               	movwf	___flmul@a+2
  8484     008B  3000               	movlw	0
  8485     008C  00BE               	movwf	___flmul@a+1
  8486     008D  3000               	movlw	0
  8487     008E  00BD               	movwf	___flmul@a
  8488     008F                     l3553:
  8489     008F  0847               	movf	___flmul@aexp,w
  8490     0090  1903               	btfsc	3,2
  8491     0091  2893               	goto	u5161
  8492     0092  2894               	goto	u5160
  8493     0093                     u5161:
  8494     0093  2899               	goto	l3557
  8495     0094                     u5160:
  8496     0094                     l3555:
  8497     0094  084C               	movf	___flmul@bexp,w
  8498     0095  1D03               	btfss	3,2
  8499     0096  2898               	goto	u5171
  8500     0097  2899               	goto	u5170
  8501     0098                     u5171:
  8502     0098  28A2               	goto	l3561
  8503     0099                     u5170:
  8504     0099                     l3557:
  8505     0099  3000               	movlw	0
  8506     009A  00BC               	movwf	?___flmul+3
  8507     009B  3000               	movlw	0
  8508     009C  00BB               	movwf	?___flmul+2
  8509     009D  3000               	movlw	0
  8510     009E  00BA               	movwf	?___flmul+1
  8511     009F  3000               	movlw	0
  8512     00A0  00B9               	movwf	?___flmul
  8513     00A1  2B7F               	goto	l637
  8514     00A2                     l3561:
  8515     00A2  0839               	movf	___flmul@b,w
  8516     00A3  00F2               	movwf	__Umul8_16@multiplicand
  8517     00A4  083F               	movf	___flmul@a+2,w
  8518     00A5  160A  158A  24F4  120A  118A  	fcall	__Umul8_16
  8519     00AA  0873               	movf	?__Umul8_16+1,w
  8520     00AB  1283               	bcf	3,5	;RP0=0, select bank0
  8521     00AC  1303               	bcf	3,6	;RP1=0, select bank0
  8522     00AD  00D2               	movwf	___flmul@temp+1
  8523     00AE  0872               	movf	?__Umul8_16,w
  8524     00AF  00D1               	movwf	___flmul@temp
  8525     00B0                     l3563:
  8526     00B0  0851               	movf	___flmul@temp,w
  8527     00B1  00C1               	movwf	??___flmul
  8528     00B2  01C2               	clrf	??___flmul+1
  8529     00B3  01C3               	clrf	??___flmul+2
  8530     00B4  01C4               	clrf	??___flmul+3
  8531     00B5  0844               	movf	??___flmul+3,w
  8532     00B6  00CB               	movwf	___flmul@grs+3
  8533     00B7  0843               	movf	??___flmul+2,w
  8534     00B8  00CA               	movwf	___flmul@grs+2
  8535     00B9  0842               	movf	??___flmul+1,w
  8536     00BA  00C9               	movwf	___flmul@grs+1
  8537     00BB  0841               	movf	??___flmul,w
  8538     00BC  00C8               	movwf	___flmul@grs
  8539     00BD                     l3565:
  8540     00BD  0852               	movf	___flmul@temp+1,w
  8541     00BE  00C1               	movwf	??___flmul
  8542     00BF  01C2               	clrf	??___flmul+1
  8543     00C0  01C3               	clrf	??___flmul+2
  8544     00C1  01C4               	clrf	??___flmul+3
  8545     00C2  0844               	movf	??___flmul+3,w
  8546     00C3  00D0               	movwf	___flmul@prod+3
  8547     00C4  0843               	movf	??___flmul+2,w
  8548     00C5  00CF               	movwf	___flmul@prod+2
  8549     00C6  0842               	movf	??___flmul+1,w
  8550     00C7  00CE               	movwf	___flmul@prod+1
  8551     00C8  0841               	movf	??___flmul,w
  8552     00C9  00CD               	movwf	___flmul@prod
  8553     00CA  083A               	movf	___flmul@b+1,w
  8554     00CB  00F2               	movwf	__Umul8_16@multiplicand
  8555     00CC  083E               	movf	___flmul@a+1,w
  8556     00CD  160A  158A  24F4  120A  118A  	fcall	__Umul8_16
  8557     00D2  0873               	movf	?__Umul8_16+1,w
  8558     00D3  1283               	bcf	3,5	;RP0=0, select bank0
  8559     00D4  1303               	bcf	3,6	;RP1=0, select bank0
  8560     00D5  00D2               	movwf	___flmul@temp+1
  8561     00D6  0872               	movf	?__Umul8_16,w
  8562     00D7  00D1               	movwf	___flmul@temp
  8563     00D8                     l3567:
  8564     00D8  0851               	movf	___flmul@temp,w
  8565     00D9  00C1               	movwf	??___flmul
  8566     00DA  01C2               	clrf	??___flmul+1
  8567     00DB  01C3               	clrf	??___flmul+2
  8568     00DC  01C4               	clrf	??___flmul+3
  8569     00DD  0841               	movf	??___flmul,w
  8570     00DE  07C8               	addwf	___flmul@grs,f
  8571     00DF  0842               	movf	??___flmul+1,w
  8572     00E0  1103               	clrz
  8573     00E1  1803               	skipnc
  8574     00E2  3E01               	addlw	1
  8575     00E3  1903               	skipnz
  8576     00E4  28E6               	goto	u5181
  8577     00E5  07C9               	addwf	___flmul@grs+1,f
  8578     00E6                     u5181:
  8579     00E6  0843               	movf	??___flmul+2,w
  8580     00E7  1103               	clrz
  8581     00E8  1803               	skipnc
  8582     00E9  3E01               	addlw	1
  8583     00EA  1903               	skipnz
  8584     00EB  28ED               	goto	u5182
  8585     00EC  07CA               	addwf	___flmul@grs+2,f
  8586     00ED                     u5182:
  8587     00ED  0844               	movf	??___flmul+3,w
  8588     00EE  1103               	clrz
  8589     00EF  1803               	skipnc
  8590     00F0  3E01               	addlw	1
  8591     00F1  1903               	skipnz
  8592     00F2  28F4               	goto	u5183
  8593     00F3  07CB               	addwf	___flmul@grs+3,f
  8594     00F4                     u5183:
  8595     00F4                     l3569:
  8596     00F4  0852               	movf	___flmul@temp+1,w
  8597     00F5  00C1               	movwf	??___flmul
  8598     00F6  01C2               	clrf	??___flmul+1
  8599     00F7  01C3               	clrf	??___flmul+2
  8600     00F8  01C4               	clrf	??___flmul+3
  8601     00F9  0841               	movf	??___flmul,w
  8602     00FA  07CD               	addwf	___flmul@prod,f
  8603     00FB  0842               	movf	??___flmul+1,w
  8604     00FC  1103               	clrz
  8605     00FD  1803               	skipnc
  8606     00FE  3E01               	addlw	1
  8607     00FF  1903               	skipnz
  8608     0100  2902               	goto	u5191
  8609     0101  07CE               	addwf	___flmul@prod+1,f
  8610     0102                     u5191:
  8611     0102  0843               	movf	??___flmul+2,w
  8612     0103  1103               	clrz
  8613     0104  1803               	skipnc
  8614     0105  3E01               	addlw	1
  8615     0106  1903               	skipnz
  8616     0107  2909               	goto	u5192
  8617     0108  07CF               	addwf	___flmul@prod+2,f
  8618     0109                     u5192:
  8619     0109  0844               	movf	??___flmul+3,w
  8620     010A  1103               	clrz
  8621     010B  1803               	skipnc
  8622     010C  3E01               	addlw	1
  8623     010D  1903               	skipnz
  8624     010E  2910               	goto	u5193
  8625     010F  07D0               	addwf	___flmul@prod+3,f
  8626     0110                     u5193:
  8627     0110  083B               	movf	___flmul@b+2,w
  8628     0111  00F2               	movwf	__Umul8_16@multiplicand
  8629     0112  083D               	movf	___flmul@a,w
  8630     0113  160A  158A  24F4  120A  118A  	fcall	__Umul8_16
  8631     0118  0873               	movf	?__Umul8_16+1,w
  8632     0119  1283               	bcf	3,5	;RP0=0, select bank0
  8633     011A  1303               	bcf	3,6	;RP1=0, select bank0
  8634     011B  00D2               	movwf	___flmul@temp+1
  8635     011C  0872               	movf	?__Umul8_16,w
  8636     011D  00D1               	movwf	___flmul@temp
  8637     011E                     l3571:
  8638     011E  0851               	movf	___flmul@temp,w
  8639     011F  00C1               	movwf	??___flmul
  8640     0120  01C2               	clrf	??___flmul+1
  8641     0121  01C3               	clrf	??___flmul+2
  8642     0122  01C4               	clrf	??___flmul+3
  8643     0123  0841               	movf	??___flmul,w
  8644     0124  07C8               	addwf	___flmul@grs,f
  8645     0125  0842               	movf	??___flmul+1,w
  8646     0126  1103               	clrz
  8647     0127  1803               	skipnc
  8648     0128  3E01               	addlw	1
  8649     0129  1903               	skipnz
  8650     012A  292C               	goto	u5201
  8651     012B  07C9               	addwf	___flmul@grs+1,f
  8652     012C                     u5201:
  8653     012C  0843               	movf	??___flmul+2,w
  8654     012D  1103               	clrz
  8655     012E  1803               	skipnc
  8656     012F  3E01               	addlw	1
  8657     0130  1903               	skipnz
  8658     0131  2933               	goto	u5202
  8659     0132  07CA               	addwf	___flmul@grs+2,f
  8660     0133                     u5202:
  8661     0133  0844               	movf	??___flmul+3,w
  8662     0134  1103               	clrz
  8663     0135  1803               	skipnc
  8664     0136  3E01               	addlw	1
  8665     0137  1903               	skipnz
  8666     0138  293A               	goto	u5203
  8667     0139  07CB               	addwf	___flmul@grs+3,f
  8668     013A                     u5203:
  8669     013A                     l3573:
  8670     013A  0852               	movf	___flmul@temp+1,w
  8671     013B  00C1               	movwf	??___flmul
  8672     013C  01C2               	clrf	??___flmul+1
  8673     013D  01C3               	clrf	??___flmul+2
  8674     013E  01C4               	clrf	??___flmul+3
  8675     013F  0841               	movf	??___flmul,w
  8676     0140  07CD               	addwf	___flmul@prod,f
  8677     0141  0842               	movf	??___flmul+1,w
  8678     0142  1103               	clrz
  8679     0143  1803               	skipnc
  8680     0144  3E01               	addlw	1
  8681     0145  1903               	skipnz
  8682     0146  2948               	goto	u5211
  8683     0147  07CE               	addwf	___flmul@prod+1,f
  8684     0148                     u5211:
  8685     0148  0843               	movf	??___flmul+2,w
  8686     0149  1103               	clrz
  8687     014A  1803               	skipnc
  8688     014B  3E01               	addlw	1
  8689     014C  1903               	skipnz
  8690     014D  294F               	goto	u5212
  8691     014E  07CF               	addwf	___flmul@prod+2,f
  8692     014F                     u5212:
  8693     014F  0844               	movf	??___flmul+3,w
  8694     0150  1103               	clrz
  8695     0151  1803               	skipnc
  8696     0152  3E01               	addlw	1
  8697     0153  1903               	skipnz
  8698     0154  2956               	goto	u5213
  8699     0155  07D0               	addwf	___flmul@prod+3,f
  8700     0156                     u5213:
  8701     0156                     l3575:
  8702     0156  3008               	movlw	8
  8703     0157  00C1               	movwf	??___flmul
  8704     0158                     u5225:
  8705     0158  1003               	clrc
  8706     0159  0DC8               	rlf	___flmul@grs,f
  8707     015A  0DC9               	rlf	___flmul@grs+1,f
  8708     015B  0DCA               	rlf	___flmul@grs+2,f
  8709     015C  0DCB               	rlf	___flmul@grs+3,f
  8710     015D  0BC1               	decfsz	??___flmul,f
  8711     015E  2958               	goto	u5225
  8712     015F                     l3577:
  8713     015F  083A               	movf	___flmul@b+1,w
  8714     0160  00F2               	movwf	__Umul8_16@multiplicand
  8715     0161  083D               	movf	___flmul@a,w
  8716     0162  160A  158A  24F4  120A  118A  	fcall	__Umul8_16
  8717     0167  0873               	movf	?__Umul8_16+1,w
  8718     0168  1283               	bcf	3,5	;RP0=0, select bank0
  8719     0169  1303               	bcf	3,6	;RP1=0, select bank0
  8720     016A  00D2               	movwf	___flmul@temp+1
  8721     016B  0872               	movf	?__Umul8_16,w
  8722     016C  00D1               	movwf	___flmul@temp
  8723     016D                     l3579:
  8724     016D  0851               	movf	___flmul@temp,w
  8725     016E  00C1               	movwf	??___flmul
  8726     016F  0852               	movf	___flmul@temp+1,w
  8727     0170  00C2               	movwf	??___flmul+1
  8728     0171  01C3               	clrf	??___flmul+2
  8729     0172  01C4               	clrf	??___flmul+3
  8730     0173  0841               	movf	??___flmul,w
  8731     0174  07C8               	addwf	___flmul@grs,f
  8732     0175  0842               	movf	??___flmul+1,w
  8733     0176  1103               	clrz
  8734     0177  1803               	skipnc
  8735     0178  3E01               	addlw	1
  8736     0179  1903               	skipnz
  8737     017A  297C               	goto	u5231
  8738     017B  07C9               	addwf	___flmul@grs+1,f
  8739     017C                     u5231:
  8740     017C  0843               	movf	??___flmul+2,w
  8741     017D  1103               	clrz
  8742     017E  1803               	skipnc
  8743     017F  3E01               	addlw	1
  8744     0180  1903               	skipnz
  8745     0181  2983               	goto	u5232
  8746     0182  07CA               	addwf	___flmul@grs+2,f
  8747     0183                     u5232:
  8748     0183  0844               	movf	??___flmul+3,w
  8749     0184  1103               	clrz
  8750     0185  1803               	skipnc
  8751     0186  3E01               	addlw	1
  8752     0187  1903               	skipnz
  8753     0188  298A               	goto	u5233
  8754     0189  07CB               	addwf	___flmul@grs+3,f
  8755     018A                     u5233:
  8756     018A                     l3581:
  8757     018A  0839               	movf	___flmul@b,w
  8758     018B  00F2               	movwf	__Umul8_16@multiplicand
  8759     018C  083E               	movf	___flmul@a+1,w
  8760     018D  160A  158A  24F4  120A  118A  	fcall	__Umul8_16
  8761     0192  0873               	movf	?__Umul8_16+1,w
  8762     0193  1283               	bcf	3,5	;RP0=0, select bank0
  8763     0194  1303               	bcf	3,6	;RP1=0, select bank0
  8764     0195  00D2               	movwf	___flmul@temp+1
  8765     0196  0872               	movf	?__Umul8_16,w
  8766     0197  00D1               	movwf	___flmul@temp
  8767     0198                     l3583:
  8768     0198  0851               	movf	___flmul@temp,w
  8769     0199  00C1               	movwf	??___flmul
  8770     019A  0852               	movf	___flmul@temp+1,w
  8771     019B  00C2               	movwf	??___flmul+1
  8772     019C  01C3               	clrf	??___flmul+2
  8773     019D  01C4               	clrf	??___flmul+3
  8774     019E  0841               	movf	??___flmul,w
  8775     019F  07C8               	addwf	___flmul@grs,f
  8776     01A0  0842               	movf	??___flmul+1,w
  8777     01A1  1103               	clrz
  8778     01A2  1803               	skipnc
  8779     01A3  3E01               	addlw	1
  8780     01A4  1903               	skipnz
  8781     01A5  29A7               	goto	u5241
  8782     01A6  07C9               	addwf	___flmul@grs+1,f
  8783     01A7                     u5241:
  8784     01A7  0843               	movf	??___flmul+2,w
  8785     01A8  1103               	clrz
  8786     01A9  1803               	skipnc
  8787     01AA  3E01               	addlw	1
  8788     01AB  1903               	skipnz
  8789     01AC  29AE               	goto	u5242
  8790     01AD  07CA               	addwf	___flmul@grs+2,f
  8791     01AE                     u5242:
  8792     01AE  0844               	movf	??___flmul+3,w
  8793     01AF  1103               	clrz
  8794     01B0  1803               	skipnc
  8795     01B1  3E01               	addlw	1
  8796     01B2  1903               	skipnz
  8797     01B3  29B5               	goto	u5243
  8798     01B4  07CB               	addwf	___flmul@grs+3,f
  8799     01B5                     u5243:
  8800     01B5                     l3585:
  8801     01B5  3008               	movlw	8
  8802     01B6  00C1               	movwf	??___flmul
  8803     01B7                     u5255:
  8804     01B7  1003               	clrc
  8805     01B8  0DC8               	rlf	___flmul@grs,f
  8806     01B9  0DC9               	rlf	___flmul@grs+1,f
  8807     01BA  0DCA               	rlf	___flmul@grs+2,f
  8808     01BB  0DCB               	rlf	___flmul@grs+3,f
  8809     01BC  0BC1               	decfsz	??___flmul,f
  8810     01BD  29B7               	goto	u5255
  8811     01BE  0839               	movf	___flmul@b,w
  8812     01BF  00F2               	movwf	__Umul8_16@multiplicand
  8813     01C0  083D               	movf	___flmul@a,w
  8814     01C1  160A  158A  24F4  120A  118A  	fcall	__Umul8_16
  8815     01C6  0873               	movf	?__Umul8_16+1,w
  8816     01C7  1283               	bcf	3,5	;RP0=0, select bank0
  8817     01C8  1303               	bcf	3,6	;RP1=0, select bank0
  8818     01C9  00D2               	movwf	___flmul@temp+1
  8819     01CA  0872               	movf	?__Umul8_16,w
  8820     01CB  00D1               	movwf	___flmul@temp
  8821     01CC                     l3587:
  8822     01CC  0851               	movf	___flmul@temp,w
  8823     01CD  00C1               	movwf	??___flmul
  8824     01CE  0852               	movf	___flmul@temp+1,w
  8825     01CF  00C2               	movwf	??___flmul+1
  8826     01D0  01C3               	clrf	??___flmul+2
  8827     01D1  01C4               	clrf	??___flmul+3
  8828     01D2  0841               	movf	??___flmul,w
  8829     01D3  07C8               	addwf	___flmul@grs,f
  8830     01D4  0842               	movf	??___flmul+1,w
  8831     01D5  1103               	clrz
  8832     01D6  1803               	skipnc
  8833     01D7  3E01               	addlw	1
  8834     01D8  1903               	skipnz
  8835     01D9  29DB               	goto	u5261
  8836     01DA  07C9               	addwf	___flmul@grs+1,f
  8837     01DB                     u5261:
  8838     01DB  0843               	movf	??___flmul+2,w
  8839     01DC  1103               	clrz
  8840     01DD  1803               	skipnc
  8841     01DE  3E01               	addlw	1
  8842     01DF  1903               	skipnz
  8843     01E0  29E2               	goto	u5262
  8844     01E1  07CA               	addwf	___flmul@grs+2,f
  8845     01E2                     u5262:
  8846     01E2  0844               	movf	??___flmul+3,w
  8847     01E3  1103               	clrz
  8848     01E4  1803               	skipnc
  8849     01E5  3E01               	addlw	1
  8850     01E6  1903               	skipnz
  8851     01E7  29E9               	goto	u5263
  8852     01E8  07CB               	addwf	___flmul@grs+3,f
  8853     01E9                     u5263:
  8854     01E9                     l3589:
  8855     01E9  083A               	movf	___flmul@b+1,w
  8856     01EA  00F2               	movwf	__Umul8_16@multiplicand
  8857     01EB  083F               	movf	___flmul@a+2,w
  8858     01EC  160A  158A  24F4  120A  118A  	fcall	__Umul8_16
  8859     01F1  0873               	movf	?__Umul8_16+1,w
  8860     01F2  1283               	bcf	3,5	;RP0=0, select bank0
  8861     01F3  1303               	bcf	3,6	;RP1=0, select bank0
  8862     01F4  00D2               	movwf	___flmul@temp+1
  8863     01F5  0872               	movf	?__Umul8_16,w
  8864     01F6  00D1               	movwf	___flmul@temp
  8865     01F7  0851               	movf	___flmul@temp,w
  8866     01F8  00C1               	movwf	??___flmul
  8867     01F9  0852               	movf	___flmul@temp+1,w
  8868     01FA  00C2               	movwf	??___flmul+1
  8869     01FB  01C3               	clrf	??___flmul+2
  8870     01FC  01C4               	clrf	??___flmul+3
  8871     01FD  0841               	movf	??___flmul,w
  8872     01FE  07CD               	addwf	___flmul@prod,f
  8873     01FF  0842               	movf	??___flmul+1,w
  8874     0200  1103               	clrz
  8875     0201  1803               	skipnc
  8876     0202  3E01               	addlw	1
  8877     0203  1903               	skipnz
  8878     0204  2A06               	goto	u5271
  8879     0205  07CE               	addwf	___flmul@prod+1,f
  8880     0206                     u5271:
  8881     0206  0843               	movf	??___flmul+2,w
  8882     0207  1103               	clrz
  8883     0208  1803               	skipnc
  8884     0209  3E01               	addlw	1
  8885     020A  1903               	skipnz
  8886     020B  2A0D               	goto	u5272
  8887     020C  07CF               	addwf	___flmul@prod+2,f
  8888     020D                     u5272:
  8889     020D  0844               	movf	??___flmul+3,w
  8890     020E  1103               	clrz
  8891     020F  1803               	skipnc
  8892     0210  3E01               	addlw	1
  8893     0211  1903               	skipnz
  8894     0212  2A14               	goto	u5273
  8895     0213  07D0               	addwf	___flmul@prod+3,f
  8896     0214                     u5273:
  8897     0214                     l3591:
  8898     0214  083B               	movf	___flmul@b+2,w
  8899     0215  00F2               	movwf	__Umul8_16@multiplicand
  8900     0216  083E               	movf	___flmul@a+1,w
  8901     0217  160A  158A  24F4  120A  118A  	fcall	__Umul8_16
  8902     021C  0873               	movf	?__Umul8_16+1,w
  8903     021D  1283               	bcf	3,5	;RP0=0, select bank0
  8904     021E  1303               	bcf	3,6	;RP1=0, select bank0
  8905     021F  00D2               	movwf	___flmul@temp+1
  8906     0220  0872               	movf	?__Umul8_16,w
  8907     0221  00D1               	movwf	___flmul@temp
  8908     0222                     l3593:
  8909     0222  0851               	movf	___flmul@temp,w
  8910     0223  00C1               	movwf	??___flmul
  8911     0224  0852               	movf	___flmul@temp+1,w
  8912     0225  00C2               	movwf	??___flmul+1
  8913     0226  01C3               	clrf	??___flmul+2
  8914     0227  01C4               	clrf	??___flmul+3
  8915     0228  0841               	movf	??___flmul,w
  8916     0229  07CD               	addwf	___flmul@prod,f
  8917     022A  0842               	movf	??___flmul+1,w
  8918     022B  1103               	clrz
  8919     022C  1803               	skipnc
  8920     022D  3E01               	addlw	1
  8921     022E  1903               	skipnz
  8922     022F  2A31               	goto	u5281
  8923     0230  07CE               	addwf	___flmul@prod+1,f
  8924     0231                     u5281:
  8925     0231  0843               	movf	??___flmul+2,w
  8926     0232  1103               	clrz
  8927     0233  1803               	skipnc
  8928     0234  3E01               	addlw	1
  8929     0235  1903               	skipnz
  8930     0236  2A38               	goto	u5282
  8931     0237  07CF               	addwf	___flmul@prod+2,f
  8932     0238                     u5282:
  8933     0238  0844               	movf	??___flmul+3,w
  8934     0239  1103               	clrz
  8935     023A  1803               	skipnc
  8936     023B  3E01               	addlw	1
  8937     023C  1903               	skipnz
  8938     023D  2A3F               	goto	u5283
  8939     023E  07D0               	addwf	___flmul@prod+3,f
  8940     023F                     u5283:
  8941     023F  083B               	movf	___flmul@b+2,w
  8942     0240  00F2               	movwf	__Umul8_16@multiplicand
  8943     0241  083F               	movf	___flmul@a+2,w
  8944     0242  160A  158A  24F4  120A  118A  	fcall	__Umul8_16
  8945     0247  0873               	movf	?__Umul8_16+1,w
  8946     0248  1283               	bcf	3,5	;RP0=0, select bank0
  8947     0249  1303               	bcf	3,6	;RP1=0, select bank0
  8948     024A  00D2               	movwf	___flmul@temp+1
  8949     024B  0872               	movf	?__Umul8_16,w
  8950     024C  00D1               	movwf	___flmul@temp
  8951     024D                     l3595:
  8952     024D  0851               	movf	___flmul@temp,w
  8953     024E  00C1               	movwf	??___flmul
  8954     024F  0852               	movf	___flmul@temp+1,w
  8955     0250  00C2               	movwf	??___flmul+1
  8956     0251  01C3               	clrf	??___flmul+2
  8957     0252  01C4               	clrf	??___flmul+3
  8958     0253  3008               	movlw	8
  8959     0254                     u5295:
  8960     0254  1003               	clrc
  8961     0255  0DC1               	rlf	??___flmul,f
  8962     0256  0DC2               	rlf	??___flmul+1,f
  8963     0257  0DC3               	rlf	??___flmul+2,f
  8964     0258  0DC4               	rlf	??___flmul+3,f
  8965     0259                     u5290:
  8966     0259  3EFF               	addlw	-1
  8967     025A  1D03               	skipz
  8968     025B  2A54               	goto	u5295
  8969     025C  0841               	movf	??___flmul,w
  8970     025D  07CD               	addwf	___flmul@prod,f
  8971     025E  0842               	movf	??___flmul+1,w
  8972     025F  1103               	clrz
  8973     0260  1803               	skipnc
  8974     0261  3E01               	addlw	1
  8975     0262  1903               	skipnz
  8976     0263  2A65               	goto	u5301
  8977     0264  07CE               	addwf	___flmul@prod+1,f
  8978     0265                     u5301:
  8979     0265  0843               	movf	??___flmul+2,w
  8980     0266  1103               	clrz
  8981     0267  1803               	skipnc
  8982     0268  3E01               	addlw	1
  8983     0269  1903               	skipnz
  8984     026A  2A6C               	goto	u5302
  8985     026B  07CF               	addwf	___flmul@prod+2,f
  8986     026C                     u5302:
  8987     026C  0844               	movf	??___flmul+3,w
  8988     026D  1103               	clrz
  8989     026E  1803               	skipnc
  8990     026F  3E01               	addlw	1
  8991     0270  1903               	skipnz
  8992     0271  2A73               	goto	u5303
  8993     0272  07D0               	addwf	___flmul@prod+3,f
  8994     0273                     u5303:
  8995     0273                     l3597:
  8996     0273  0848               	movf	___flmul@grs,w
  8997     0274  00C1               	movwf	??___flmul
  8998     0275  0849               	movf	___flmul@grs+1,w
  8999     0276  00C2               	movwf	??___flmul+1
  9000     0277  084A               	movf	___flmul@grs+2,w
  9001     0278  00C3               	movwf	??___flmul+2
  9002     0279  084B               	movf	___flmul@grs+3,w
  9003     027A  00C4               	movwf	??___flmul+3
  9004     027B  3018               	movlw	24
  9005     027C                     u5315:
  9006     027C  1003               	clrc
  9007     027D  0CC4               	rrf	??___flmul+3,f
  9008     027E  0CC3               	rrf	??___flmul+2,f
  9009     027F  0CC2               	rrf	??___flmul+1,f
  9010     0280  0CC1               	rrf	??___flmul,f
  9011     0281                     u5310:
  9012     0281  3EFF               	addlw	-1
  9013     0282  1D03               	skipz
  9014     0283  2A7C               	goto	u5315
  9015     0284  0841               	movf	??___flmul,w
  9016     0285  07CD               	addwf	___flmul@prod,f
  9017     0286  0842               	movf	??___flmul+1,w
  9018     0287  1103               	clrz
  9019     0288  1803               	skipnc
  9020     0289  3E01               	addlw	1
  9021     028A  1903               	skipnz
  9022     028B  2A8D               	goto	u5321
  9023     028C  07CE               	addwf	___flmul@prod+1,f
  9024     028D                     u5321:
  9025     028D  0843               	movf	??___flmul+2,w
  9026     028E  1103               	clrz
  9027     028F  1803               	skipnc
  9028     0290  3E01               	addlw	1
  9029     0291  1903               	skipnz
  9030     0292  2A94               	goto	u5322
  9031     0293  07CF               	addwf	___flmul@prod+2,f
  9032     0294                     u5322:
  9033     0294  0844               	movf	??___flmul+3,w
  9034     0295  1103               	clrz
  9035     0296  1803               	skipnc
  9036     0297  3E01               	addlw	1
  9037     0298  1903               	skipnz
  9038     0299  2A9B               	goto	u5323
  9039     029A  07D0               	addwf	___flmul@prod+3,f
  9040     029B                     u5323:
  9041     029B                     l3599:
  9042     029B  3008               	movlw	8
  9043     029C  00C1               	movwf	??___flmul
  9044     029D                     u5335:
  9045     029D  1003               	clrc
  9046     029E  0DC8               	rlf	___flmul@grs,f
  9047     029F  0DC9               	rlf	___flmul@grs+1,f
  9048     02A0  0DCA               	rlf	___flmul@grs+2,f
  9049     02A1  0DCB               	rlf	___flmul@grs+3,f
  9050     02A2  0BC1               	decfsz	??___flmul,f
  9051     02A3  2A9D               	goto	u5335
  9052     02A4                     l3601:
  9053     02A4  084C               	movf	___flmul@bexp,w
  9054     02A5  0747               	addwf	___flmul@aexp,w
  9055     02A6  00C1               	movwf	??___flmul
  9056     02A7  01C2               	clrf	??___flmul+1
  9057     02A8  0DC2               	rlf	??___flmul+1,f
  9058     02A9  0841               	movf	??___flmul,w
  9059     02AA  3E82               	addlw	130
  9060     02AB  00D1               	movwf	___flmul@temp
  9061     02AC  0842               	movf	??___flmul+1,w
  9062     02AD  1803               	skipnc
  9063     02AE  3E01               	addlw	1
  9064     02AF  3EFF               	addlw	255
  9065     02B0  00D2               	movwf	___flmul@temp+1
  9066     02B1  2ACF               	goto	l3613
  9067     02B2                     l3603:
  9068     02B2  3001               	movlw	1
  9069     02B3  00C1               	movwf	??___flmul
  9070     02B4                     u5345:
  9071     02B4  1003               	clrc
  9072     02B5  0DCD               	rlf	___flmul@prod,f
  9073     02B6  0DCE               	rlf	___flmul@prod+1,f
  9074     02B7  0DCF               	rlf	___flmul@prod+2,f
  9075     02B8  0DD0               	rlf	___flmul@prod+3,f
  9076     02B9  0BC1               	decfsz	??___flmul,f
  9077     02BA  2AB4               	goto	u5345
  9078     02BB                     l3605:
  9079     02BB  1FCB               	btfss	___flmul@grs+3,7
  9080     02BC  2ABE               	goto	u5351
  9081     02BD  2ABF               	goto	u5350
  9082     02BE                     u5351:
  9083     02BE  2AC0               	goto	l3609
  9084     02BF                     u5350:
  9085     02BF                     l3607:
  9086     02BF  144D               	bsf	___flmul@prod,0
  9087     02C0                     l3609:
  9088     02C0  3001               	movlw	1
  9089     02C1  00C1               	movwf	??___flmul
  9090     02C2                     u5365:
  9091     02C2  1003               	clrc
  9092     02C3  0DC8               	rlf	___flmul@grs,f
  9093     02C4  0DC9               	rlf	___flmul@grs+1,f
  9094     02C5  0DCA               	rlf	___flmul@grs+2,f
  9095     02C6  0DCB               	rlf	___flmul@grs+3,f
  9096     02C7  0BC1               	decfsz	??___flmul,f
  9097     02C8  2AC2               	goto	u5365
  9098     02C9                     l3611:
  9099     02C9  30FF               	movlw	255
  9100     02CA  07D1               	addwf	___flmul@temp,f
  9101     02CB  1803               	skipnc
  9102     02CC  0AD2               	incf	___flmul@temp+1,f
  9103     02CD  30FF               	movlw	255
  9104     02CE  07D2               	addwf	___flmul@temp+1,f
  9105     02CF                     l3613:
  9106     02CF  1FCF               	btfss	___flmul@prod+2,7
  9107     02D0  2AD2               	goto	u5371
  9108     02D1  2AD3               	goto	u5370
  9109     02D2                     u5371:
  9110     02D2  2AB2               	goto	l3603
  9111     02D3                     u5370:
  9112     02D3                     l3615:
  9113     02D3  01C7               	clrf	___flmul@aexp
  9114     02D4                     l3617:
  9115     02D4  1FCB               	btfss	___flmul@grs+3,7
  9116     02D5  2AD7               	goto	u5381
  9117     02D6  2AD8               	goto	u5380
  9118     02D7                     u5381:
  9119     02D7  2AF4               	goto	l3625
  9120     02D8                     u5380:
  9121     02D8                     l3619:
  9122     02D8  30FF               	movlw	255
  9123     02D9  0548               	andwf	___flmul@grs,w
  9124     02DA  00C1               	movwf	??___flmul
  9125     02DB  30FF               	movlw	255
  9126     02DC  0549               	andwf	___flmul@grs+1,w
  9127     02DD  00C2               	movwf	??___flmul+1
  9128     02DE  30FF               	movlw	255
  9129     02DF  054A               	andwf	___flmul@grs+2,w
  9130     02E0  00C3               	movwf	??___flmul+2
  9131     02E1  307F               	movlw	127
  9132     02E2  054B               	andwf	___flmul@grs+3,w
  9133     02E3  00C4               	movwf	??___flmul+3
  9134     02E4  0844               	movf	??___flmul+3,w
  9135     02E5  0443               	iorwf	??___flmul+2,w
  9136     02E6  0442               	iorwf	??___flmul+1,w
  9137     02E7  0441               	iorwf	??___flmul,w
  9138     02E8  1903               	skipnz
  9139     02E9  2AEB               	goto	u5391
  9140     02EA  2AEC               	goto	u5390
  9141     02EB                     u5391:
  9142     02EB  2AEF               	goto	l643
  9143     02EC                     u5390:
  9144     02EC                     l3621:
  9145     02EC  01C7               	clrf	___flmul@aexp
  9146     02ED  0AC7               	incf	___flmul@aexp,f
  9147     02EE  2AF4               	goto	l3625
  9148     02EF                     l643:
  9149     02EF  1C4D               	btfss	___flmul@prod,0
  9150     02F0  2AF2               	goto	u5401
  9151     02F1  2AF3               	goto	u5400
  9152     02F2                     u5401:
  9153     02F2  2AF4               	goto	l3625
  9154     02F3                     u5400:
  9155     02F3  2AEC               	goto	l3621
  9156     02F4                     l3625:
  9157     02F4  0847               	movf	___flmul@aexp,w
  9158     02F5  1903               	btfsc	3,2
  9159     02F6  2AF8               	goto	u5411
  9160     02F7  2AF9               	goto	u5410
  9161     02F8                     u5411:
  9162     02F8  2B2A               	goto	l3635
  9163     02F9                     u5410:
  9164     02F9                     l3627:
  9165     02F9  3001               	movlw	1
  9166     02FA  07CD               	addwf	___flmul@prod,f
  9167     02FB  3000               	movlw	0
  9168     02FC  1803               	skipnc
  9169     02FD  3001               	movlw	1
  9170     02FE  07CE               	addwf	___flmul@prod+1,f
  9171     02FF  3000               	movlw	0
  9172     0300  1803               	skipnc
  9173     0301  3001               	movlw	1
  9174     0302  07CF               	addwf	___flmul@prod+2,f
  9175     0303  3000               	movlw	0
  9176     0304  1803               	skipnc
  9177     0305  3001               	movlw	1
  9178     0306  07D0               	addwf	___flmul@prod+3,f
  9179     0307                     l3629:
  9180     0307  1C50               	btfss	___flmul@prod+3,0
  9181     0308  2B0A               	goto	u5421
  9182     0309  2B0B               	goto	u5420
  9183     030A                     u5421:
  9184     030A  2B2A               	goto	l3635
  9185     030B                     u5420:
  9186     030B                     l3631:
  9187     030B  084D               	movf	___flmul@prod,w
  9188     030C  00C1               	movwf	??___flmul
  9189     030D  084E               	movf	___flmul@prod+1,w
  9190     030E  00C2               	movwf	??___flmul+1
  9191     030F  084F               	movf	___flmul@prod+2,w
  9192     0310  00C3               	movwf	??___flmul+2
  9193     0311  0850               	movf	___flmul@prod+3,w
  9194     0312  00C4               	movwf	??___flmul+3
  9195     0313  3001               	movlw	1
  9196     0314  00C5               	movwf	??___flmul+4
  9197     0315                     u5435:
  9198     0315  0D44               	rlf	??___flmul+3,w
  9199     0316  0CC4               	rrf	??___flmul+3,f
  9200     0317  0CC3               	rrf	??___flmul+2,f
  9201     0318  0CC2               	rrf	??___flmul+1,f
  9202     0319  0CC1               	rrf	??___flmul,f
  9203     031A                     u5430:
  9204     031A  0BC5               	decfsz	??___flmul+4,f
  9205     031B  2B15               	goto	u5435
  9206     031C  0844               	movf	??___flmul+3,w
  9207     031D  00D0               	movwf	___flmul@prod+3
  9208     031E  0843               	movf	??___flmul+2,w
  9209     031F  00CF               	movwf	___flmul@prod+2
  9210     0320  0842               	movf	??___flmul+1,w
  9211     0321  00CE               	movwf	___flmul@prod+1
  9212     0322  0841               	movf	??___flmul,w
  9213     0323  00CD               	movwf	___flmul@prod
  9214     0324                     l3633:
  9215     0324  3001               	movlw	1
  9216     0325  07D1               	addwf	___flmul@temp,f
  9217     0326  1803               	skipnc
  9218     0327  0AD2               	incf	___flmul@temp+1,f
  9219     0328  3000               	movlw	0
  9220     0329  07D2               	addwf	___flmul@temp+1,f
  9221     032A                     l3635:
  9222     032A  0852               	movf	___flmul@temp+1,w
  9223     032B  3A80               	xorlw	128
  9224     032C  00FF               	movwf	btemp+1
  9225     032D  3080               	movlw	128
  9226     032E  027F               	subwf	btemp+1,w
  9227     032F  1D03               	skipz
  9228     0330  2B33               	goto	u5445
  9229     0331  30FF               	movlw	255
  9230     0332  0251               	subwf	___flmul@temp,w
  9231     0333                     u5445:
  9232     0333  1C03               	skipc
  9233     0334  2B36               	goto	u5441
  9234     0335  2B37               	goto	u5440
  9235     0336                     u5441:
  9236     0336  2B42               	goto	l3639
  9237     0337                     u5440:
  9238     0337                     l3637:
  9239     0337  307F               	movlw	127
  9240     0338  1283               	bcf	3,5	;RP0=0, select bank0
  9241     0339  1303               	bcf	3,6	;RP1=0, select bank0
  9242     033A  00D0               	movwf	___flmul@prod+3
  9243     033B  3080               	movlw	128
  9244     033C  00CF               	movwf	___flmul@prod+2
  9245     033D  3000               	movlw	0
  9246     033E  00CE               	movwf	___flmul@prod+1
  9247     033F  3000               	movlw	0
  9248     0340  00CD               	movwf	___flmul@prod
  9249     0341  2B73               	goto	l3653
  9250     0342                     l3639:
  9251     0342  1283               	bcf	3,5	;RP0=0, select bank0
  9252     0343  1303               	bcf	3,6	;RP1=0, select bank0
  9253     0344  0852               	movf	___flmul@temp+1,w
  9254     0345  3A80               	xorlw	128
  9255     0346  00FF               	movwf	btemp+1
  9256     0347  3080               	movlw	128
  9257     0348  027F               	subwf	btemp+1,w
  9258     0349  1D03               	skipz
  9259     034A  2B4D               	goto	u5455
  9260     034B  3001               	movlw	1
  9261     034C  0251               	subwf	___flmul@temp,w
  9262     034D                     u5455:
  9263     034D  1803               	skipnc
  9264     034E  2B50               	goto	u5451
  9265     034F  2B51               	goto	u5450
  9266     0350                     u5451:
  9267     0350  2B5D               	goto	l3645
  9268     0351                     u5450:
  9269     0351                     l3641:
  9270     0351  3000               	movlw	0
  9271     0352  1283               	bcf	3,5	;RP0=0, select bank0
  9272     0353  1303               	bcf	3,6	;RP1=0, select bank0
  9273     0354  00D0               	movwf	___flmul@prod+3
  9274     0355  3000               	movlw	0
  9275     0356  00CF               	movwf	___flmul@prod+2
  9276     0357  3000               	movlw	0
  9277     0358  00CE               	movwf	___flmul@prod+1
  9278     0359  3000               	movlw	0
  9279     035A  00CD               	movwf	___flmul@prod
  9280     035B                     l3643:
  9281     035B  01C6               	clrf	___flmul@sign
  9282     035C  2B73               	goto	l3653
  9283     035D                     l3645:
  9284     035D  1283               	bcf	3,5	;RP0=0, select bank0
  9285     035E  1303               	bcf	3,6	;RP1=0, select bank0
  9286     035F  0851               	movf	___flmul@temp,w
  9287     0360  00CC               	movwf	___flmul@bexp
  9288     0361  30FF               	movlw	255
  9289     0362  05CD               	andwf	___flmul@prod,f
  9290     0363  30FF               	movlw	255
  9291     0364  05CE               	andwf	___flmul@prod+1,f
  9292     0365  307F               	movlw	127
  9293     0366  05CF               	andwf	___flmul@prod+2,f
  9294     0367  3000               	movlw	0
  9295     0368  05D0               	andwf	___flmul@prod+3,f
  9296     0369                     l3647:
  9297     0369  1C4C               	btfss	___flmul@bexp,0
  9298     036A  2B6C               	goto	u5461
  9299     036B  2B6D               	goto	u5460
  9300     036C                     u5461:
  9301     036C  2B6E               	goto	l3651
  9302     036D                     u5460:
  9303     036D                     l3649:
  9304     036D  17CF               	bsf	___flmul@prod+2,7
  9305     036E                     l3651:
  9306     036E  084C               	movf	___flmul@bexp,w
  9307     036F  00C1               	movwf	??___flmul
  9308     0370  1003               	clrc
  9309     0371  0C41               	rrf	??___flmul,w
  9310     0372  00D0               	movwf	___flmul@prod+3
  9311     0373                     l3653:
  9312     0373  0846               	movf	___flmul@sign,w
  9313     0374  00FF               	movwf	btemp+1
  9314     0375  087F               	movf	btemp+1,w
  9315     0376  04D0               	iorwf	___flmul@prod+3,f
  9316     0377                     l3655:
  9317     0377  0850               	movf	___flmul@prod+3,w
  9318     0378  00BC               	movwf	?___flmul+3
  9319     0379  084F               	movf	___flmul@prod+2,w
  9320     037A  00BB               	movwf	?___flmul+2
  9321     037B  084E               	movf	___flmul@prod+1,w
  9322     037C  00BA               	movwf	?___flmul+1
  9323     037D  084D               	movf	___flmul@prod,w
  9324     037E  00B9               	movwf	?___flmul
  9325     037F                     l637:
  9326     037F  0008               	return
  9327     0380                     __end_of___flmul:
  9328                           
  9329                           	psect	text31
  9330     1CF4                     __ptext31:	
  9331 ;; *************** function __Umul8_16 *****************
  9332 ;; Defined at:
  9333 ;;		line 4 in file "C:\Program Files\Microchip\xc8\v2.41\pic\sources\c90\common\Umul8_16.c"
  9334 ;; Parameters:    Size  Location     Type
  9335 ;;  multiplier      1    wreg     unsigned char 
  9336 ;;  multiplicand    1    2[COMMON] unsigned char 
  9337 ;; Auto vars:     Size  Location     Type
  9338 ;;  multiplier      1    4[BANK0 ] unsigned char 
  9339 ;;  word_mpld       2    2[BANK0 ] unsigned int 
  9340 ;;  product         2    0[BANK0 ] unsigned int 
  9341 ;; Return value:  Size  Location     Type
  9342 ;;                  2    2[COMMON] unsigned int 
  9343 ;; Registers used:
  9344 ;;		wreg, status,2, status,0
  9345 ;; Tracked objects:
  9346 ;;		On entry : 0/0
  9347 ;;		On exit  : 0/0
  9348 ;;		Unchanged: 0/0
  9349 ;; Data sizes:     COMMON   BANK0   BANK1   BANK3   BANK2
  9350 ;;      Params:         2       0       0       0       0
  9351 ;;      Locals:         0       5       0       0       0
  9352 ;;      Temps:          2       0       0       0       0
  9353 ;;      Totals:         4       5       0       0       0
  9354 ;;Total ram usage:        9 bytes
  9355 ;; Hardware stack levels used: 1
  9356 ;; Hardware stack levels required when called: 1
  9357 ;; This function calls:
  9358 ;;		Nothing
  9359 ;; This function is called by:
  9360 ;;		___flmul
  9361 ;; This function uses a non-reentrant model
  9362 ;;
  9363                           
  9364     1CF4                     __Umul8_16:	
  9365                           ;psect for function __Umul8_16
  9366                           
  9367                           
  9368                           ;incstack = 0
  9369                           ; Regs used in __Umul8_16: [wreg+status,2+status,0]
  9370                           ;__Umul8_16@multiplier stored from wreg
  9371     1CF4  1283               	bcf	3,5	;RP0=0, select bank0
  9372     1CF5  1303               	bcf	3,6	;RP1=0, select bank0
  9373     1CF6  00A4               	movwf	__Umul8_16@multiplier
  9374     1CF7                     l3273:
  9375     1CF7  01A0               	clrf	__Umul8_16@product
  9376     1CF8  01A1               	clrf	__Umul8_16@product+1
  9377     1CF9                     l3275:
  9378     1CF9  0872               	movf	__Umul8_16@multiplicand,w
  9379     1CFA  00F4               	movwf	??__Umul8_16
  9380     1CFB  01F5               	clrf	??__Umul8_16+1
  9381     1CFC  0874               	movf	??__Umul8_16,w
  9382     1CFD  00A2               	movwf	__Umul8_16@word_mpld
  9383     1CFE  0875               	movf	??__Umul8_16+1,w
  9384     1CFF  00A3               	movwf	__Umul8_16@word_mpld+1
  9385     1D00                     l3277:
  9386     1D00  1C24               	btfss	__Umul8_16@multiplier,0
  9387     1D01  2D03               	goto	u4501
  9388     1D02  2D04               	goto	u4500
  9389     1D03                     u4501:
  9390     1D03  2D0A               	goto	l656
  9391     1D04                     u4500:
  9392     1D04                     l3279:
  9393     1D04  0822               	movf	__Umul8_16@word_mpld,w
  9394     1D05  07A0               	addwf	__Umul8_16@product,f
  9395     1D06  1803               	skipnc
  9396     1D07  0AA1               	incf	__Umul8_16@product+1,f
  9397     1D08  0823               	movf	__Umul8_16@word_mpld+1,w
  9398     1D09  07A1               	addwf	__Umul8_16@product+1,f
  9399     1D0A                     l656:
  9400     1D0A  3001               	movlw	1
  9401     1D0B                     u4515:
  9402     1D0B  1003               	clrc
  9403     1D0C  0DA2               	rlf	__Umul8_16@word_mpld,f
  9404     1D0D  0DA3               	rlf	__Umul8_16@word_mpld+1,f
  9405     1D0E  3EFF               	addlw	-1
  9406     1D0F  1D03               	skipz
  9407     1D10  2D0B               	goto	u4515
  9408     1D11  1003               	clrc
  9409     1D12  0CA4               	rrf	__Umul8_16@multiplier,f
  9410     1D13                     l3281:
  9411     1D13  0824               	movf	__Umul8_16@multiplier,w
  9412     1D14  1D03               	btfss	3,2
  9413     1D15  2D17               	goto	u4521
  9414     1D16  2D18               	goto	u4520
  9415     1D17                     u4521:
  9416     1D17  2D00               	goto	l3277
  9417     1D18                     u4520:
  9418     1D18                     l3283:
  9419     1D18  0821               	movf	__Umul8_16@product+1,w
  9420     1D19  00F3               	movwf	?__Umul8_16+1
  9421     1D1A  0820               	movf	__Umul8_16@product,w
  9422     1D1B  00F2               	movwf	?__Umul8_16
  9423     1D1C                     l658:
  9424     1D1C  0008               	return
  9425     1D1D                     __end_of__Umul8_16:
  9426                           
  9427                           	psect	text32
  9428     062D                     __ptext32:	
  9429 ;; *************** function ___fldiv *****************
  9430 ;; Defined at:
  9431 ;;		line 8 in file "C:\Program Files\Microchip\xc8\v2.41\pic\sources\c90\common\sprcdiv.c"
  9432 ;; Parameters:    Size  Location     Type
  9433 ;;  a               4   29[BANK1 ] unsigned int 
  9434 ;;  b               4   33[BANK1 ] unsigned int 
  9435 ;; Auto vars:     Size  Location     Type
  9436 ;;  grs             4   49[BANK1 ] unsigned long 
  9437 ;;  rem             4   42[BANK1 ] unsigned long 
  9438 ;;  new_exp         2   47[BANK1 ] int 
  9439 ;;  aexp            1   54[BANK1 ] unsigned char 
  9440 ;;  bexp            1   53[BANK1 ] unsigned char 
  9441 ;;  sign            1   46[BANK1 ] unsigned char 
  9442 ;; Return value:  Size  Location     Type
  9443 ;;                  4   29[BANK1 ] unsigned char 
  9444 ;; Registers used:
  9445 ;;		wreg, status,2, status,0, btemp+1
  9446 ;; Tracked objects:
  9447 ;;		On entry : 0/0
  9448 ;;		On exit  : 0/0
  9449 ;;		Unchanged: 0/0
  9450 ;; Data sizes:     COMMON   BANK0   BANK1   BANK3   BANK2
  9451 ;;      Params:         0       0       8       0       0
  9452 ;;      Locals:         0       0      13       0       0
  9453 ;;      Temps:          0       0       5       0       0
  9454 ;;      Totals:         0       0      26       0       0
  9455 ;;Total ram usage:       26 bytes
  9456 ;; Hardware stack levels used: 1
  9457 ;; Hardware stack levels required when called: 1
  9458 ;; This function calls:
  9459 ;;		Nothing
  9460 ;; This function is called by:
  9461 ;;		_converteLeituraAnParaVolts
  9462 ;;		_converteVoltsParaLux
  9463 ;;		_exp
  9464 ;; This function uses a non-reentrant model
  9465 ;;
  9466                           
  9467     062D                     ___fldiv:	
  9468                           ;psect for function ___fldiv
  9469                           
  9470     062D                     l2621:	
  9471                           ;incstack = 0
  9472                           ; Regs used in ___fldiv: [wreg+status,2+status,0+btemp+1]
  9473                           
  9474     062D  1683               	bsf	3,5	;RP0=1, select bank1
  9475     062E  1303               	bcf	3,6	;RP1=0, select bank1
  9476     062F  0844               	movf	(___fldiv@b^(0+128)+3),w
  9477     0630  3980               	andlw	128
  9478     0631  00CE               	movwf	___fldiv@sign^(0+128)
  9479     0632                     l2623:
  9480     0632  0844               	movf	(___fldiv@b^(0+128)+3),w
  9481     0633  00C5               	movwf	??___fldiv^(0+128)
  9482     0634  0745               	addwf	??___fldiv^(0+128),w
  9483     0635  00D5               	movwf	___fldiv@bexp^(0+128)
  9484     0636                     l2625:
  9485     0636  1FC3               	btfss	(___fldiv@b^(0+128)+2),7
  9486     0637  2E39               	goto	u3521
  9487     0638  2E3A               	goto	u3520
  9488     0639                     u3521:
  9489     0639  2E3B               	goto	l2629
  9490     063A                     u3520:
  9491     063A                     l2627:
  9492     063A  1455               	bsf	___fldiv@bexp^(0+128),0
  9493     063B                     l2629:
  9494     063B  0855               	movf	___fldiv@bexp^(0+128),w
  9495     063C  1903               	btfsc	3,2
  9496     063D  2E3F               	goto	u3531
  9497     063E  2E40               	goto	u3530
  9498     063F                     u3531:
  9499     063F  2E50               	goto	l2639
  9500     0640                     u3530:
  9501     0640                     l2631:
  9502     0640  0A55               	incf	___fldiv@bexp^(0+128),w
  9503     0641  1D03               	btfss	3,2
  9504     0642  2E44               	goto	u3541
  9505     0643  2E45               	goto	u3540
  9506     0644                     u3541:
  9507     0644  2E4D               	goto	l2635
  9508     0645                     u3540:
  9509     0645                     l2633:
  9510     0645  3000               	movlw	0
  9511     0646  00C4               	movwf	(___fldiv@b+3)^(0+128)
  9512     0647  3000               	movlw	0
  9513     0648  00C3               	movwf	(___fldiv@b+2)^(0+128)
  9514     0649  3000               	movlw	0
  9515     064A  00C2               	movwf	(___fldiv@b+1)^(0+128)
  9516     064B  3000               	movlw	0
  9517     064C  00C1               	movwf	___fldiv@b^(0+128)
  9518     064D                     l2635:
  9519     064D  17C3               	bsf	(___fldiv@b^(0+128)+2),7
  9520     064E                     l2637:
  9521     064E  01C4               	clrf	(___fldiv@b^(0+128)+3)
  9522     064F  2E58               	goto	l2641
  9523     0650                     l2639:
  9524     0650  3000               	movlw	0
  9525     0651  00C4               	movwf	(___fldiv@b+3)^(0+128)
  9526     0652  3000               	movlw	0
  9527     0653  00C3               	movwf	(___fldiv@b+2)^(0+128)
  9528     0654  3000               	movlw	0
  9529     0655  00C2               	movwf	(___fldiv@b+1)^(0+128)
  9530     0656  3000               	movlw	0
  9531     0657  00C1               	movwf	___fldiv@b^(0+128)
  9532     0658                     l2641:
  9533     0658  0840               	movf	(___fldiv@a^(0+128)+3),w
  9534     0659  3980               	andlw	128
  9535     065A  00FF               	movwf	btemp+1
  9536     065B  087F               	movf	btemp+1,w
  9537     065C  06CE               	xorwf	___fldiv@sign^(0+128),f
  9538     065D                     l2643:
  9539     065D  0840               	movf	(___fldiv@a^(0+128)+3),w
  9540     065E  00C5               	movwf	??___fldiv^(0+128)
  9541     065F  0745               	addwf	??___fldiv^(0+128),w
  9542     0660  00D6               	movwf	___fldiv@aexp^(0+128)
  9543     0661                     l2645:
  9544     0661  1FBF               	btfss	(___fldiv@a^(0+128)+2),7
  9545     0662  2E64               	goto	u3551
  9546     0663  2E65               	goto	u3550
  9547     0664                     u3551:
  9548     0664  2E66               	goto	l2649
  9549     0665                     u3550:
  9550     0665                     l2647:
  9551     0665  1456               	bsf	___fldiv@aexp^(0+128),0
  9552     0666                     l2649:
  9553     0666  0856               	movf	___fldiv@aexp^(0+128),w
  9554     0667  1903               	btfsc	3,2
  9555     0668  2E6A               	goto	u3561
  9556     0669  2E6B               	goto	u3560
  9557     066A                     u3561:
  9558     066A  2E7B               	goto	l2659
  9559     066B                     u3560:
  9560     066B                     l2651:
  9561     066B  0A56               	incf	___fldiv@aexp^(0+128),w
  9562     066C  1D03               	btfss	3,2
  9563     066D  2E6F               	goto	u3571
  9564     066E  2E70               	goto	u3570
  9565     066F                     u3571:
  9566     066F  2E78               	goto	l2655
  9567     0670                     u3570:
  9568     0670                     l2653:
  9569     0670  3000               	movlw	0
  9570     0671  00C0               	movwf	(___fldiv@a+3)^(0+128)
  9571     0672  3000               	movlw	0
  9572     0673  00BF               	movwf	(___fldiv@a+2)^(0+128)
  9573     0674  3000               	movlw	0
  9574     0675  00BE               	movwf	(___fldiv@a+1)^(0+128)
  9575     0676  3000               	movlw	0
  9576     0677  00BD               	movwf	___fldiv@a^(0+128)
  9577     0678                     l2655:
  9578     0678  17BF               	bsf	(___fldiv@a^(0+128)+2),7
  9579     0679                     l2657:
  9580     0679  01C0               	clrf	(___fldiv@a^(0+128)+3)
  9581     067A  2E83               	goto	l597
  9582     067B                     l2659:
  9583     067B  3000               	movlw	0
  9584     067C  00C0               	movwf	(___fldiv@a+3)^(0+128)
  9585     067D  3000               	movlw	0
  9586     067E  00BF               	movwf	(___fldiv@a+2)^(0+128)
  9587     067F  3000               	movlw	0
  9588     0680  00BE               	movwf	(___fldiv@a+1)^(0+128)
  9589     0681  3000               	movlw	0
  9590     0682  00BD               	movwf	___fldiv@a^(0+128)
  9591     0683                     l597:
  9592     0683  0840               	movf	(___fldiv@a+3)^(0+128),w
  9593     0684  043F               	iorwf	(___fldiv@a+2)^(0+128),w
  9594     0685  043E               	iorwf	(___fldiv@a+1)^(0+128),w
  9595     0686  043D               	iorwf	___fldiv@a^(0+128),w
  9596     0687  1D03               	skipz
  9597     0688  2E8A               	goto	u3581
  9598     0689  2E8B               	goto	u3580
  9599     068A                     u3581:
  9600     068A  2EA4               	goto	l2669
  9601     068B                     u3580:
  9602     068B                     l2661:
  9603     068B  3000               	movlw	0
  9604     068C  00C4               	movwf	(___fldiv@b+3)^(0+128)
  9605     068D  3000               	movlw	0
  9606     068E  00C3               	movwf	(___fldiv@b+2)^(0+128)
  9607     068F  3000               	movlw	0
  9608     0690  00C2               	movwf	(___fldiv@b+1)^(0+128)
  9609     0691  3000               	movlw	0
  9610     0692  00C1               	movwf	___fldiv@b^(0+128)
  9611     0693  3080               	movlw	128
  9612     0694  04C3               	iorwf	(___fldiv@b^(0+128)+2),f
  9613     0695  307F               	movlw	127
  9614     0696  04C4               	iorwf	((___fldiv@b+1)^(0+128)+2),f
  9615     0697                     l2663:
  9616     0697  084E               	movf	___fldiv@sign^(0+128),w
  9617     0698  00FF               	movwf	btemp+1
  9618     0699  087F               	movf	btemp+1,w
  9619     069A  04C4               	iorwf	(___fldiv@b^(0+128)+3),f
  9620     069B                     l2665:
  9621     069B  0844               	movf	(___fldiv@b+3)^(0+128),w
  9622     069C  00C0               	movwf	(?___fldiv+3)^(0+128)
  9623     069D  0843               	movf	(___fldiv@b+2)^(0+128),w
  9624     069E  00BF               	movwf	(?___fldiv+2)^(0+128)
  9625     069F  0842               	movf	(___fldiv@b+1)^(0+128),w
  9626     06A0  00BE               	movwf	(?___fldiv+1)^(0+128)
  9627     06A1  0841               	movf	___fldiv@b^(0+128),w
  9628     06A2  00BD               	movwf	?___fldiv^(0+128)
  9629     06A3  2FFB               	goto	l599
  9630     06A4                     l2669:
  9631     06A4  0855               	movf	___fldiv@bexp^(0+128),w
  9632     06A5  1D03               	btfss	3,2
  9633     06A6  2EA8               	goto	u3591
  9634     06A7  2EA9               	goto	u3590
  9635     06A8                     u3591:
  9636     06A8  2EB2               	goto	l2675
  9637     06A9                     u3590:
  9638     06A9                     l2671:
  9639     06A9  3000               	movlw	0
  9640     06AA  00C0               	movwf	(?___fldiv+3)^(0+128)
  9641     06AB  3000               	movlw	0
  9642     06AC  00BF               	movwf	(?___fldiv+2)^(0+128)
  9643     06AD  3000               	movlw	0
  9644     06AE  00BE               	movwf	(?___fldiv+1)^(0+128)
  9645     06AF  3000               	movlw	0
  9646     06B0  00BD               	movwf	?___fldiv^(0+128)
  9647     06B1  2FFB               	goto	l599
  9648     06B2                     l2675:
  9649     06B2  0855               	movf	___fldiv@bexp^(0+128),w
  9650     06B3  00C5               	movwf	??___fldiv^(0+128)
  9651     06B4  01C6               	clrf	(??___fldiv^(0+128)+1)
  9652     06B5  0846               	movf	(??___fldiv+1)^(0+128),w
  9653     06B6  00C8               	movwf	((??___fldiv+2)^(0+128)+1)
  9654     06B7  0856               	movf	___fldiv@aexp^(0+128),w
  9655     06B8  0245               	subwf	??___fldiv^(0+128),w
  9656     06B9  00C7               	movwf	(??___fldiv+2)^(0+128)
  9657     06BA  1C03               	skipc
  9658     06BB  03C8               	decf	((??___fldiv+2)^(0+128)+1),f
  9659     06BC  0847               	movf	(??___fldiv+2)^(0+128),w
  9660     06BD  3E7F               	addlw	127
  9661     06BE  00CF               	movwf	___fldiv@new_exp^(0+128)
  9662     06BF  0848               	movf	(??___fldiv+3)^(0+128),w
  9663     06C0  1803               	skipnc
  9664     06C1  3E01               	addlw	1
  9665     06C2  3E00               	addlw	0
  9666     06C3  00D0               	movwf	(___fldiv@new_exp+1)^(0+128)
  9667     06C4                     l2677:
  9668     06C4  0844               	movf	(___fldiv@b+3)^(0+128),w
  9669     06C5  00CD               	movwf	(___fldiv@rem+3)^(0+128)
  9670     06C6  0843               	movf	(___fldiv@b+2)^(0+128),w
  9671     06C7  00CC               	movwf	(___fldiv@rem+2)^(0+128)
  9672     06C8  0842               	movf	(___fldiv@b+1)^(0+128),w
  9673     06C9  00CB               	movwf	(___fldiv@rem+1)^(0+128)
  9674     06CA  0841               	movf	___fldiv@b^(0+128),w
  9675     06CB  00CA               	movwf	___fldiv@rem^(0+128)
  9676     06CC                     l2679:
  9677     06CC  3000               	movlw	0
  9678     06CD  00C4               	movwf	(___fldiv@b+3)^(0+128)
  9679     06CE  3000               	movlw	0
  9680     06CF  00C3               	movwf	(___fldiv@b+2)^(0+128)
  9681     06D0  3000               	movlw	0
  9682     06D1  00C2               	movwf	(___fldiv@b+1)^(0+128)
  9683     06D2  3000               	movlw	0
  9684     06D3  00C1               	movwf	___fldiv@b^(0+128)
  9685     06D4                     l2681:
  9686     06D4  3000               	movlw	0
  9687     06D5  00D4               	movwf	(___fldiv@grs+3)^(0+128)
  9688     06D6  3000               	movlw	0
  9689     06D7  00D3               	movwf	(___fldiv@grs+2)^(0+128)
  9690     06D8  3000               	movlw	0
  9691     06D9  00D2               	movwf	(___fldiv@grs+1)^(0+128)
  9692     06DA  3000               	movlw	0
  9693     06DB  00D1               	movwf	___fldiv@grs^(0+128)
  9694     06DC                     l2683:
  9695     06DC  01D6               	clrf	___fldiv@aexp^(0+128)
  9696     06DD  2F28               	goto	l2703
  9697     06DE                     l2685:
  9698     06DE  0856               	movf	___fldiv@aexp^(0+128),w
  9699     06DF  1903               	btfsc	3,2
  9700     06E0  2EE2               	goto	u3601
  9701     06E1  2EE3               	goto	u3600
  9702     06E2                     u3601:
  9703     06E2  2F03               	goto	l2695
  9704     06E3                     u3600:
  9705     06E3                     l2687:
  9706     06E3  3001               	movlw	1
  9707     06E4  00C5               	movwf	??___fldiv^(0+128)
  9708     06E5                     u3615:
  9709     06E5  1003               	clrc
  9710     06E6  0DCA               	rlf	___fldiv@rem^(0+128),f
  9711     06E7  0DCB               	rlf	(___fldiv@rem+1)^(0+128),f
  9712     06E8  0DCC               	rlf	(___fldiv@rem+2)^(0+128),f
  9713     06E9  0DCD               	rlf	(___fldiv@rem+3)^(0+128),f
  9714     06EA  0BC5               	decfsz	??___fldiv^(0+128),f
  9715     06EB  2EE5               	goto	u3615
  9716     06EC  3001               	movlw	1
  9717     06ED  00C5               	movwf	??___fldiv^(0+128)
  9718     06EE                     u3625:
  9719     06EE  1003               	clrc
  9720     06EF  0DC1               	rlf	___fldiv@b^(0+128),f
  9721     06F0  0DC2               	rlf	(___fldiv@b+1)^(0+128),f
  9722     06F1  0DC3               	rlf	(___fldiv@b+2)^(0+128),f
  9723     06F2  0DC4               	rlf	(___fldiv@b+3)^(0+128),f
  9724     06F3  0BC5               	decfsz	??___fldiv^(0+128),f
  9725     06F4  2EEE               	goto	u3625
  9726     06F5                     l2689:
  9727     06F5  1FD4               	btfss	(___fldiv@grs+3)^(0+128),7
  9728     06F6  2EF8               	goto	u3631
  9729     06F7  2EF9               	goto	u3630
  9730     06F8                     u3631:
  9731     06F8  2EFA               	goto	l2693
  9732     06F9                     u3630:
  9733     06F9                     l2691:
  9734     06F9  1441               	bsf	___fldiv@b^(0+128),0
  9735     06FA                     l2693:
  9736     06FA  3001               	movlw	1
  9737     06FB  00C5               	movwf	??___fldiv^(0+128)
  9738     06FC                     u3645:
  9739     06FC  1003               	clrc
  9740     06FD  0DD1               	rlf	___fldiv@grs^(0+128),f
  9741     06FE  0DD2               	rlf	(___fldiv@grs+1)^(0+128),f
  9742     06FF  0DD3               	rlf	(___fldiv@grs+2)^(0+128),f
  9743     0700  0DD4               	rlf	(___fldiv@grs+3)^(0+128),f
  9744     0701  0BC5               	decfsz	??___fldiv^(0+128),f
  9745     0702  2EFC               	goto	u3645
  9746     0703                     l2695:
  9747     0703  0840               	movf	(___fldiv@a+3)^(0+128),w
  9748     0704  024D               	subwf	(___fldiv@rem+3)^(0+128),w
  9749     0705  1D03               	skipz
  9750     0706  2F11               	goto	u3655
  9751     0707  083F               	movf	(___fldiv@a+2)^(0+128),w
  9752     0708  024C               	subwf	(___fldiv@rem+2)^(0+128),w
  9753     0709  1D03               	skipz
  9754     070A  2F11               	goto	u3655
  9755     070B  083E               	movf	(___fldiv@a+1)^(0+128),w
  9756     070C  024B               	subwf	(___fldiv@rem+1)^(0+128),w
  9757     070D  1D03               	skipz
  9758     070E  2F11               	goto	u3655
  9759     070F  083D               	movf	___fldiv@a^(0+128),w
  9760     0710  024A               	subwf	___fldiv@rem^(0+128),w
  9761     0711                     u3655:
  9762     0711  1C03               	skipc
  9763     0712  2F14               	goto	u3651
  9764     0713  2F15               	goto	u3650
  9765     0714                     u3651:
  9766     0714  2F24               	goto	l2701
  9767     0715                     u3650:
  9768     0715                     l2697:
  9769     0715  1754               	bsf	(___fldiv@grs^(0+128)+3),6
  9770     0716                     l2699:
  9771     0716  083D               	movf	___fldiv@a^(0+128),w
  9772     0717  02CA               	subwf	___fldiv@rem^(0+128),f
  9773     0718  083E               	movf	(___fldiv@a+1)^(0+128),w
  9774     0719  1C03               	skipc
  9775     071A  0F3E               	incfsz	(___fldiv@a+1)^(0+128),w
  9776     071B  02CB               	subwf	(___fldiv@rem+1)^(0+128),f
  9777     071C  083F               	movf	(___fldiv@a+2)^(0+128),w
  9778     071D  1C03               	skipc
  9779     071E  0F3F               	incfsz	(___fldiv@a+2)^(0+128),w
  9780     071F  02CC               	subwf	(___fldiv@rem+2)^(0+128),f
  9781     0720  0840               	movf	(___fldiv@a+3)^(0+128),w
  9782     0721  1C03               	skipc
  9783     0722  0F40               	incfsz	(___fldiv@a+3)^(0+128),w
  9784     0723  02CD               	subwf	(___fldiv@rem+3)^(0+128),f
  9785     0724                     l2701:
  9786     0724  3001               	movlw	1
  9787     0725  00FF               	movwf	btemp+1
  9788     0726  087F               	movf	btemp+1,w
  9789     0727  07D6               	addwf	___fldiv@aexp^(0+128),f
  9790     0728                     l2703:
  9791     0728  301A               	movlw	26
  9792     0729  0256               	subwf	___fldiv@aexp^(0+128),w
  9793     072A  1C03               	skipc
  9794     072B  2F2D               	goto	u3661
  9795     072C  2F2E               	goto	u3660
  9796     072D                     u3661:
  9797     072D  2EDE               	goto	l2685
  9798     072E                     u3660:
  9799     072E                     l2705:
  9800     072E  084D               	movf	(___fldiv@rem+3)^(0+128),w
  9801     072F  044C               	iorwf	(___fldiv@rem+2)^(0+128),w
  9802     0730  044B               	iorwf	(___fldiv@rem+1)^(0+128),w
  9803     0731  044A               	iorwf	___fldiv@rem^(0+128),w
  9804     0732  1903               	skipnz
  9805     0733  2F35               	goto	u3671
  9806     0734  2F36               	goto	u3670
  9807     0735                     u3671:
  9808     0735  2F55               	goto	l2719
  9809     0736                     u3670:
  9810     0736                     l2707:
  9811     0736  1451               	bsf	___fldiv@grs^(0+128),0
  9812     0737  2F55               	goto	l2719
  9813     0738                     l2709:
  9814     0738  3001               	movlw	1
  9815     0739  00C5               	movwf	??___fldiv^(0+128)
  9816     073A                     u3685:
  9817     073A  1003               	clrc
  9818     073B  0DC1               	rlf	___fldiv@b^(0+128),f
  9819     073C  0DC2               	rlf	(___fldiv@b+1)^(0+128),f
  9820     073D  0DC3               	rlf	(___fldiv@b+2)^(0+128),f
  9821     073E  0DC4               	rlf	(___fldiv@b+3)^(0+128),f
  9822     073F  0BC5               	decfsz	??___fldiv^(0+128),f
  9823     0740  2F3A               	goto	u3685
  9824     0741                     l2711:
  9825     0741  1FD4               	btfss	(___fldiv@grs+3)^(0+128),7
  9826     0742  2F44               	goto	u3691
  9827     0743  2F45               	goto	u3690
  9828     0744                     u3691:
  9829     0744  2F46               	goto	l2715
  9830     0745                     u3690:
  9831     0745                     l2713:
  9832     0745  1441               	bsf	___fldiv@b^(0+128),0
  9833     0746                     l2715:
  9834     0746  3001               	movlw	1
  9835     0747  00C5               	movwf	??___fldiv^(0+128)
  9836     0748                     u3705:
  9837     0748  1003               	clrc
  9838     0749  0DD1               	rlf	___fldiv@grs^(0+128),f
  9839     074A  0DD2               	rlf	(___fldiv@grs+1)^(0+128),f
  9840     074B  0DD3               	rlf	(___fldiv@grs+2)^(0+128),f
  9841     074C  0DD4               	rlf	(___fldiv@grs+3)^(0+128),f
  9842     074D  0BC5               	decfsz	??___fldiv^(0+128),f
  9843     074E  2F48               	goto	u3705
  9844     074F                     l2717:
  9845     074F  30FF               	movlw	255
  9846     0750  07CF               	addwf	___fldiv@new_exp^(0+128),f
  9847     0751  1803               	skipnc
  9848     0752  0AD0               	incf	(___fldiv@new_exp+1)^(0+128),f
  9849     0753  30FF               	movlw	255
  9850     0754  07D0               	addwf	(___fldiv@new_exp+1)^(0+128),f
  9851     0755                     l2719:
  9852     0755  1FC3               	btfss	(___fldiv@b+2)^(0+128),7
  9853     0756  2F58               	goto	u3711
  9854     0757  2F59               	goto	u3710
  9855     0758                     u3711:
  9856     0758  2F38               	goto	l2709
  9857     0759                     u3710:
  9858     0759                     l2721:
  9859     0759  01D6               	clrf	___fldiv@aexp^(0+128)
  9860     075A                     l2723:
  9861     075A  1FD4               	btfss	(___fldiv@grs+3)^(0+128),7
  9862     075B  2F5D               	goto	u3721
  9863     075C  2F5E               	goto	u3720
  9864     075D                     u3721:
  9865     075D  2F7A               	goto	l2731
  9866     075E                     u3720:
  9867     075E                     l2725:
  9868     075E  30FF               	movlw	255
  9869     075F  0551               	andwf	___fldiv@grs^(0+128),w
  9870     0760  00C5               	movwf	??___fldiv^(0+128)
  9871     0761  30FF               	movlw	255
  9872     0762  0552               	andwf	(___fldiv@grs+1)^(0+128),w
  9873     0763  00C6               	movwf	(??___fldiv^(0+128)+1)
  9874     0764  30FF               	movlw	255
  9875     0765  0553               	andwf	(___fldiv@grs+2)^(0+128),w
  9876     0766  00C7               	movwf	(??___fldiv^(0+128)+2)
  9877     0767  307F               	movlw	127
  9878     0768  0554               	andwf	(___fldiv@grs+3)^(0+128),w
  9879     0769  00C8               	movwf	(??___fldiv^(0+128)+3)
  9880     076A  0848               	movf	(??___fldiv+3)^(0+128),w
  9881     076B  0447               	iorwf	(??___fldiv+2)^(0+128),w
  9882     076C  0446               	iorwf	(??___fldiv+1)^(0+128),w
  9883     076D  0445               	iorwf	??___fldiv^(0+128),w
  9884     076E  1903               	skipnz
  9885     076F  2F71               	goto	u3731
  9886     0770  2F72               	goto	u3730
  9887     0771                     u3731:
  9888     0771  2F75               	goto	l613
  9889     0772                     u3730:
  9890     0772                     l2727:
  9891     0772  01D6               	clrf	___fldiv@aexp^(0+128)
  9892     0773  0AD6               	incf	___fldiv@aexp^(0+128),f
  9893     0774  2F7A               	goto	l2731
  9894     0775                     l613:
  9895     0775  1C41               	btfss	___fldiv@b^(0+128),0
  9896     0776  2F78               	goto	u3741
  9897     0777  2F79               	goto	u3740
  9898     0778                     u3741:
  9899     0778  2F7A               	goto	l2731
  9900     0779                     u3740:
  9901     0779  2F72               	goto	l2727
  9902     077A                     l2731:
  9903     077A  0856               	movf	___fldiv@aexp^(0+128),w
  9904     077B  1903               	btfsc	3,2
  9905     077C  2F7E               	goto	u3751
  9906     077D  2F7F               	goto	u3750
  9907     077E                     u3751:
  9908     077E  2FB0               	goto	l2741
  9909     077F                     u3750:
  9910     077F                     l2733:
  9911     077F  3001               	movlw	1
  9912     0780  07C1               	addwf	___fldiv@b^(0+128),f
  9913     0781  3000               	movlw	0
  9914     0782  1803               	skipnc
  9915     0783  3001               	movlw	1
  9916     0784  07C2               	addwf	(___fldiv@b+1)^(0+128),f
  9917     0785  3000               	movlw	0
  9918     0786  1803               	skipnc
  9919     0787  3001               	movlw	1
  9920     0788  07C3               	addwf	(___fldiv@b+2)^(0+128),f
  9921     0789  3000               	movlw	0
  9922     078A  1803               	skipnc
  9923     078B  3001               	movlw	1
  9924     078C  07C4               	addwf	(___fldiv@b+3)^(0+128),f
  9925     078D                     l2735:
  9926     078D  1C44               	btfss	(___fldiv@b+3)^(0+128),0
  9927     078E  2F90               	goto	u3761
  9928     078F  2F91               	goto	u3760
  9929     0790                     u3761:
  9930     0790  2FB0               	goto	l2741
  9931     0791                     u3760:
  9932     0791                     l2737:
  9933     0791  0841               	movf	___fldiv@b^(0+128),w
  9934     0792  00C5               	movwf	??___fldiv^(0+128)
  9935     0793  0842               	movf	(___fldiv@b+1)^(0+128),w
  9936     0794  00C6               	movwf	(??___fldiv^(0+128)+1)
  9937     0795  0843               	movf	(___fldiv@b+2)^(0+128),w
  9938     0796  00C7               	movwf	(??___fldiv^(0+128)+2)
  9939     0797  0844               	movf	(___fldiv@b+3)^(0+128),w
  9940     0798  00C8               	movwf	(??___fldiv^(0+128)+3)
  9941     0799  3001               	movlw	1
  9942     079A  00C9               	movwf	(??___fldiv+4)^(0+128)
  9943     079B                     u3775:
  9944     079B  0D48               	rlf	(??___fldiv^(0+128)+3),w
  9945     079C  0CC8               	rrf	(??___fldiv^(0+128)+3),f
  9946     079D  0CC7               	rrf	(??___fldiv^(0+128)+2),f
  9947     079E  0CC6               	rrf	(??___fldiv^(0+128)+1),f
  9948     079F  0CC5               	rrf	??___fldiv^(0+128),f
  9949     07A0                     u3770:
  9950     07A0  0BC9               	decfsz	(??___fldiv+4)^(0+128),f
  9951     07A1  2F9B               	goto	u3775
  9952     07A2  0848               	movf	(??___fldiv+3)^(0+128),w
  9953     07A3  00C4               	movwf	(___fldiv@b+3)^(0+128)
  9954     07A4  0847               	movf	(??___fldiv+2)^(0+128),w
  9955     07A5  00C3               	movwf	(___fldiv@b+2)^(0+128)
  9956     07A6  0846               	movf	(??___fldiv+1)^(0+128),w
  9957     07A7  00C2               	movwf	(___fldiv@b+1)^(0+128)
  9958     07A8  0845               	movf	??___fldiv^(0+128),w
  9959     07A9  00C1               	movwf	___fldiv@b^(0+128)
  9960     07AA                     l2739:
  9961     07AA  3001               	movlw	1
  9962     07AB  07CF               	addwf	___fldiv@new_exp^(0+128),f
  9963     07AC  1803               	skipnc
  9964     07AD  0AD0               	incf	(___fldiv@new_exp+1)^(0+128),f
  9965     07AE  3000               	movlw	0
  9966     07AF  07D0               	addwf	(___fldiv@new_exp+1)^(0+128),f
  9967     07B0                     l2741:
  9968     07B0  0850               	movf	(___fldiv@new_exp+1)^(0+128),w
  9969     07B1  3A80               	xorlw	128
  9970     07B2  00FF               	movwf	btemp+1
  9971     07B3  3080               	movlw	128
  9972     07B4  027F               	subwf	btemp+1,w
  9973     07B5  1D03               	skipz
  9974     07B6  2FB9               	goto	u3785
  9975     07B7  30FF               	movlw	255
  9976     07B8  024F               	subwf	___fldiv@new_exp^(0+128),w
  9977     07B9                     u3785:
  9978     07B9  1C03               	skipc
  9979     07BA  2FBC               	goto	u3781
  9980     07BB  2FBD               	goto	u3780
  9981     07BC                     u3781:
  9982     07BC  2FCB               	goto	l2745
  9983     07BD                     u3780:
  9984     07BD                     l2743:
  9985     07BD  30FF               	movlw	255
  9986     07BE  1683               	bsf	3,5	;RP0=1, select bank1
  9987     07BF  1303               	bcf	3,6	;RP1=0, select bank1
  9988     07C0  00CF               	movwf	___fldiv@new_exp^(0+128)
  9989     07C1  3000               	movlw	0
  9990     07C2  00D0               	movwf	(___fldiv@new_exp^(0+128)+1)
  9991     07C3  3000               	movlw	0
  9992     07C4  00C4               	movwf	(___fldiv@b+3)^(0+128)
  9993     07C5  3000               	movlw	0
  9994     07C6  00C3               	movwf	(___fldiv@b+2)^(0+128)
  9995     07C7  3000               	movlw	0
  9996     07C8  00C2               	movwf	(___fldiv@b+1)^(0+128)
  9997     07C9  3000               	movlw	0
  9998     07CA  00C1               	movwf	___fldiv@b^(0+128)
  9999     07CB                     l2745:
 10000     07CB  1683               	bsf	3,5	;RP0=1, select bank1
 10001     07CC  1303               	bcf	3,6	;RP1=0, select bank1
 10002     07CD  0850               	movf	(___fldiv@new_exp+1)^(0+128),w
 10003     07CE  3A80               	xorlw	128
 10004     07CF  00FF               	movwf	btemp+1
 10005     07D0  3080               	movlw	128
 10006     07D1  027F               	subwf	btemp+1,w
 10007     07D2  1D03               	skipz
 10008     07D3  2FD6               	goto	u3795
 10009     07D4  3001               	movlw	1
 10010     07D5  024F               	subwf	___fldiv@new_exp^(0+128),w
 10011     07D6                     u3795:
 10012     07D6  1803               	skipnc
 10013     07D7  2FD9               	goto	u3791
 10014     07D8  2FDA               	goto	u3790
 10015     07D9                     u3791:
 10016     07D9  2FE7               	goto	l619
 10017     07DA                     u3790:
 10018     07DA                     l2747:
 10019     07DA  1683               	bsf	3,5	;RP0=1, select bank1
 10020     07DB  1303               	bcf	3,6	;RP1=0, select bank1
 10021     07DC  01CF               	clrf	___fldiv@new_exp^(0+128)
 10022     07DD  01D0               	clrf	(___fldiv@new_exp+1)^(0+128)
 10023     07DE                     l2749:
 10024     07DE  3000               	movlw	0
 10025     07DF  00C4               	movwf	(___fldiv@b+3)^(0+128)
 10026     07E0  3000               	movlw	0
 10027     07E1  00C3               	movwf	(___fldiv@b+2)^(0+128)
 10028     07E2  3000               	movlw	0
 10029     07E3  00C2               	movwf	(___fldiv@b+1)^(0+128)
 10030     07E4  3000               	movlw	0
 10031     07E5  00C1               	movwf	___fldiv@b^(0+128)
 10032     07E6                     l2751:
 10033     07E6  01CE               	clrf	___fldiv@sign^(0+128)
 10034     07E7                     l619:
 10035     07E7  1683               	bsf	3,5	;RP0=1, select bank1
 10036     07E8  1303               	bcf	3,6	;RP1=0, select bank1
 10037     07E9  084F               	movf	___fldiv@new_exp^(0+128),w
 10038     07EA  00D5               	movwf	___fldiv@bexp^(0+128)
 10039     07EB                     l2753:
 10040     07EB  1C55               	btfss	___fldiv@bexp^(0+128),0
 10041     07EC  2FEE               	goto	u3801
 10042     07ED  2FEF               	goto	u3800
 10043     07EE                     u3801:
 10044     07EE  2FF1               	goto	l2757
 10045     07EF                     u3800:
 10046     07EF                     l2755:
 10047     07EF  17C3               	bsf	(___fldiv@b^(0+128)+2),7
 10048     07F0  2FF5               	goto	l2759
 10049     07F1                     l2757:
 10050     07F1  307F               	movlw	127
 10051     07F2  00FF               	movwf	btemp+1
 10052     07F3  087F               	movf	btemp+1,w
 10053     07F4  05C3               	andwf	(___fldiv@b^(0+128)+2),f
 10054     07F5                     l2759:
 10055     07F5  0855               	movf	___fldiv@bexp^(0+128),w
 10056     07F6  00C5               	movwf	??___fldiv^(0+128)
 10057     07F7  1003               	clrc
 10058     07F8  0C45               	rrf	??___fldiv^(0+128),w
 10059     07F9  00C4               	movwf	(___fldiv@b^(0+128)+3)
 10060     07FA  2E97               	goto	l2663
 10061     07FB                     l599:
 10062     07FB  0008               	return
 10063     07FC                     __end_of___fldiv:
 10064                           
 10065                           	psect	text33
 10066     0802                     __ptext33:	
 10067 ;; *************** function _configPWMRegs *****************
 10068 ;; Defined at:
 10069 ;;		line 110 in file "newmain.c"
 10070 ;; Parameters:    Size  Location     Type
 10071 ;;		None
 10072 ;; Auto vars:     Size  Location     Type
 10073 ;;		None
 10074 ;; Return value:  Size  Location     Type
 10075 ;;                  1    wreg      void 
 10076 ;; Registers used:
 10077 ;;		wreg
 10078 ;; Tracked objects:
 10079 ;;		On entry : 0/0
 10080 ;;		On exit  : 0/0
 10081 ;;		Unchanged: 0/0
 10082 ;; Data sizes:     COMMON   BANK0   BANK1   BANK3   BANK2
 10083 ;;      Params:         0       0       0       0       0
 10084 ;;      Locals:         0       0       0       0       0
 10085 ;;      Temps:          0       0       0       0       0
 10086 ;;      Totals:         0       0       0       0       0
 10087 ;;Total ram usage:        0 bytes
 10088 ;; Hardware stack levels used: 1
 10089 ;; Hardware stack levels required when called: 1
 10090 ;; This function calls:
 10091 ;;		Nothing
 10092 ;; This function is called by:
 10093 ;;		_main
 10094 ;; This function uses a non-reentrant model
 10095 ;;
 10096                           
 10097     0802                     _configPWMRegs:	
 10098                           ;psect for function _configPWMRegs
 10099                           
 10100     0802                     l3181:	
 10101                           ;incstack = 0
 10102                           ; Regs used in _configPWMRegs: [wreg]
 10103                           
 10104                           
 10105                           ;newmain.c: 111:     CCP1CON = 0x0F;
 10106     0802  300F               	movlw	15
 10107     0803  1283               	bcf	3,5	;RP0=0, select bank0
 10108     0804  1303               	bcf	3,6	;RP1=0, select bank0
 10109     0805  0097               	movwf	23	;volatile
 10110                           
 10111                           ;newmain.c: 112:     PR2 = 100;
 10112     0806  3064               	movlw	100
 10113     0807  1683               	bsf	3,5	;RP0=1, select bank1
 10114     0808  1303               	bcf	3,6	;RP1=0, select bank1
 10115     0809  0092               	movwf	18	;volatile
 10116                           
 10117                           ;newmain.c: 113:     CCPR1L = porcentagem_PWM;
 10118     080A  3032               	movlw	50
 10119     080B  1283               	bcf	3,5	;RP0=0, select bank0
 10120     080C  1303               	bcf	3,6	;RP1=0, select bank0
 10121     080D  0095               	movwf	21	;volatile
 10122     080E                     l3183:
 10123                           
 10124                           ;newmain.c: 114:     TMR2ON = 1;
 10125     080E  1512               	bsf	18,2	;volatile
 10126     080F                     l112:
 10127     080F  0008               	return
 10128     0810                     __end_of_configPWMRegs:
 10129                           
 10130                           	psect	text34
 10131     1C36                     __ptext34:	
 10132 ;; *************** function _configIntExterns *****************
 10133 ;; Defined at:
 10134 ;;		line 203 in file "newmain.c"
 10135 ;; Parameters:    Size  Location     Type
 10136 ;;		None
 10137 ;; Auto vars:     Size  Location     Type
 10138 ;;		None
 10139 ;; Return value:  Size  Location     Type
 10140 ;;                  1    wreg      void 
 10141 ;; Registers used:
 10142 ;;		None
 10143 ;; Tracked objects:
 10144 ;;		On entry : 0/0
 10145 ;;		On exit  : 0/0
 10146 ;;		Unchanged: 0/0
 10147 ;; Data sizes:     COMMON   BANK0   BANK1   BANK3   BANK2
 10148 ;;      Params:         0       0       0       0       0
 10149 ;;      Locals:         0       0       0       0       0
 10150 ;;      Temps:          0       0       0       0       0
 10151 ;;      Totals:         0       0       0       0       0
 10152 ;;Total ram usage:        0 bytes
 10153 ;; Hardware stack levels used: 1
 10154 ;; Hardware stack levels required when called: 1
 10155 ;; This function calls:
 10156 ;;		Nothing
 10157 ;; This function is called by:
 10158 ;;		_main
 10159 ;; This function uses a non-reentrant model
 10160 ;;
 10161                           
 10162     1C36                     _configIntExterns:	
 10163                           ;psect for function _configIntExterns
 10164                           
 10165     1C36                     l3193:	
 10166                           ;incstack = 0
 10167                           ; Regs used in _configIntExterns: []
 10168                           
 10169                           
 10170                           ;newmain.c: 205:     OPTION_REGbits.INTEDG = 0;
 10171     1C36  1683               	bsf	3,5	;RP0=1, select bank1
 10172     1C37  1303               	bcf	3,6	;RP1=0, select bank1
 10173     1C38  1301               	bcf	1,6	;volatile
 10174                           
 10175                           ;newmain.c: 206:     INTCONbits.GIE = 1;
 10176     1C39  178B               	bsf	11,7	;volatile
 10177                           
 10178                           ;newmain.c: 207:     INTCONbits.INTE = 1;
 10179     1C3A  160B               	bsf	11,4	;volatile
 10180                           
 10181                           ;newmain.c: 208:     INTCONbits.INTF = 0;
 10182     1C3B  108B               	bcf	11,1	;volatile
 10183     1C3C                     l148:	
 10184                           ;newmain.c: 209:     return;
 10185                           
 10186     1C3C  0008               	return
 10187     1C3D                     __end_of_configIntExterns:
 10188                           
 10189                           	psect	text35
 10190     1C6A                     __ptext35:	
 10191 ;; *************** function _configADC *****************
 10192 ;; Defined at:
 10193 ;;		line 38 in file "newmain.c"
 10194 ;; Parameters:    Size  Location     Type
 10195 ;;		None
 10196 ;; Auto vars:     Size  Location     Type
 10197 ;;		None
 10198 ;; Return value:  Size  Location     Type
 10199 ;;                  1    wreg      void 
 10200 ;; Registers used:
 10201 ;;		status,2
 10202 ;; Tracked objects:
 10203 ;;		On entry : 0/0
 10204 ;;		On exit  : 0/0
 10205 ;;		Unchanged: 0/0
 10206 ;; Data sizes:     COMMON   BANK0   BANK1   BANK3   BANK2
 10207 ;;      Params:         0       0       0       0       0
 10208 ;;      Locals:         0       0       0       0       0
 10209 ;;      Temps:          0       0       0       0       0
 10210 ;;      Totals:         0       0       0       0       0
 10211 ;;Total ram usage:        0 bytes
 10212 ;; Hardware stack levels used: 1
 10213 ;; Hardware stack levels required when called: 1
 10214 ;; This function calls:
 10215 ;;		Nothing
 10216 ;; This function is called by:
 10217 ;;		_main
 10218 ;; This function uses a non-reentrant model
 10219 ;;
 10220                           
 10221     1C6A                     _configADC:	
 10222                           ;psect for function _configADC
 10223                           
 10224     1C6A                     l3117:	
 10225                           ;incstack = 0
 10226                           ; Regs used in _configADC: [status,2]
 10227                           
 10228                           
 10229                           ;newmain.c: 40:     ADCON1bits.PCFG0 = 0;
 10230     1C6A  1683               	bsf	3,5	;RP0=1, select bank1
 10231     1C6B  1303               	bcf	3,6	;RP1=0, select bank1
 10232     1C6C  101F               	bcf	31,0	;volatile
 10233                           
 10234                           ;newmain.c: 41:     ADCON1bits.PCFG1 = 1;
 10235     1C6D  149F               	bsf	31,1	;volatile
 10236                           
 10237                           ;newmain.c: 42:     ADCON1bits.PCFG2 = 1;
 10238     1C6E  151F               	bsf	31,2	;volatile
 10239                           
 10240                           ;newmain.c: 43:     ADCON1bits.PCFG3 = 1;
 10241     1C6F  159F               	bsf	31,3	;volatile
 10242                           
 10243                           ;newmain.c: 47:     ADCON0bits.ADCS0 = 0;
 10244     1C70  1283               	bcf	3,5	;RP0=0, select bank0
 10245     1C71  1303               	bcf	3,6	;RP1=0, select bank0
 10246     1C72  131F               	bcf	31,6	;volatile
 10247                           
 10248                           ;newmain.c: 48:     ADCON0bits.ADCS1 = 0;
 10249     1C73  139F               	bcf	31,7	;volatile
 10250                           
 10251                           ;newmain.c: 49:     ADCON1bits.ADCS2 = 0;
 10252     1C74  1683               	bsf	3,5	;RP0=1, select bank1
 10253     1C75  1303               	bcf	3,6	;RP1=0, select bank1
 10254     1C76  131F               	bcf	31,6	;volatile
 10255                           
 10256                           ;newmain.c: 53:     ADCON1bits.ADFM = 0;
 10257     1C77  139F               	bcf	31,7	;volatile
 10258     1C78                     l3119:
 10259                           
 10260                           ;newmain.c: 56:     ADRESL = 0x00;
 10261     1C78  019E               	clrf	30	;volatile
 10262                           
 10263                           ;newmain.c: 57:     ADRESH = 0X00;
 10264     1C79  1283               	bcf	3,5	;RP0=0, select bank0
 10265     1C7A  1303               	bcf	3,6	;RP1=0, select bank0
 10266     1C7B  019E               	clrf	30	;volatile
 10267     1C7C                     l3121:
 10268                           
 10269                           ;newmain.c: 61:     ADCON0bits.ADON = 1;
 10270     1C7C  141F               	bsf	31,0	;volatile
 10271     1C7D                     l3123:
 10272                           
 10273                           ;newmain.c: 64:     ADCON0bits.CHS0 = 0;
 10274     1C7D  119F               	bcf	31,3	;volatile
 10275     1C7E                     l3125:
 10276                           
 10277                           ;newmain.c: 65:     ADCON0bits.CHS1 = 0;
 10278     1C7E  121F               	bcf	31,4	;volatile
 10279     1C7F                     l3127:
 10280                           
 10281                           ;newmain.c: 66:     ADCON0bits.CHS2 = 0;
 10282     1C7F  129F               	bcf	31,5	;volatile
 10283     1C80                     l92:
 10284     1C80  0008               	return
 10285     1C81                     __end_of_configADC:
 10286                           
 10287                           	psect	text36
 10288     1122                     __ptext36:	
 10289 ;; *************** function _Lcd_Init *****************
 10290 ;; Defined at:
 10291 ;;		line 62 in file "./lcd.h"
 10292 ;; Parameters:    Size  Location     Type
 10293 ;;		None
 10294 ;; Auto vars:     Size  Location     Type
 10295 ;;		None
 10296 ;; Return value:  Size  Location     Type
 10297 ;;                  1    wreg      void 
 10298 ;; Registers used:
 10299 ;;		wreg, status,2, status,0, pclath, cstack
 10300 ;; Tracked objects:
 10301 ;;		On entry : 0/0
 10302 ;;		On exit  : 0/0
 10303 ;;		Unchanged: 0/0
 10304 ;; Data sizes:     COMMON   BANK0   BANK1   BANK3   BANK2
 10305 ;;      Params:         0       0       0       0       0
 10306 ;;      Locals:         0       0       0       0       0
 10307 ;;      Temps:          2       0       0       0       0
 10308 ;;      Totals:         2       0       0       0       0
 10309 ;;Total ram usage:        2 bytes
 10310 ;; Hardware stack levels used: 1
 10311 ;; Hardware stack levels required when called: 3
 10312 ;; This function calls:
 10313 ;;		_Lcd_Cmd
 10314 ;;		_Lcd_Port
 10315 ;; This function is called by:
 10316 ;;		_main
 10317 ;; This function uses a non-reentrant model
 10318 ;;
 10319                           
 10320     1122                     _Lcd_Init:	
 10321                           ;psect for function _Lcd_Init
 10322                           
 10323     1122                     l3993:	
 10324                           ;incstack = 0
 10325                           ; Regs used in _Lcd_Init: [wreg+status,2+status,0+pclath+cstack]
 10326                           
 10327                           
 10328                           ;./lcd.h: 64:   Lcd_Port(0x00);
 10329     1122  3000               	movlw	0
 10330     1123  160A  158A  24D2  160A  118A  	fcall	_Lcd_Port
 10331     1128                     l3995:
 10332                           
 10333                           ;./lcd.h: 65:    _delay((unsigned long)((20)*(4000000/4000.0)));
 10334     1128  301A               	movlw	26
 10335     1129  00F7               	movwf	??_Lcd_Init+1
 10336     112A  30F8               	movlw	248
 10337     112B  00F6               	movwf	??_Lcd_Init
 10338     112C                     u6067:
 10339     112C  0BF6               	decfsz	??_Lcd_Init,f
 10340     112D  292C               	goto	u6067
 10341     112E  0BF7               	decfsz	??_Lcd_Init+1,f
 10342     112F  292C               	goto	u6067
 10343     1130  0000               	nop
 10344     1131                     l3997:
 10345                           
 10346                           ;./lcd.h: 66:   Lcd_Cmd(0x03);
 10347     1131  3003               	movlw	3
 10348     1132  160A  158A  249A  160A  118A  	fcall	_Lcd_Cmd
 10349                           
 10350                           ;./lcd.h: 67:  _delay((unsigned long)((5)*(4000000/4000.0)));
 10351     1137  3007               	movlw	7
 10352     1138  00F7               	movwf	??_Lcd_Init+1
 10353     1139  307D               	movlw	125
 10354     113A  00F6               	movwf	??_Lcd_Init
 10355     113B                     u6077:
 10356     113B  0BF6               	decfsz	??_Lcd_Init,f
 10357     113C  293B               	goto	u6077
 10358     113D  0BF7               	decfsz	??_Lcd_Init+1,f
 10359     113E  293B               	goto	u6077
 10360     113F                     l3999:
 10361                           
 10362                           ;./lcd.h: 68:   Lcd_Cmd(0x03);
 10363     113F  3003               	movlw	3
 10364     1140  160A  158A  249A  160A  118A  	fcall	_Lcd_Cmd
 10365     1145                     l4001:
 10366                           
 10367                           ;./lcd.h: 69:  _delay((unsigned long)((11)*(4000000/4000.0)));
 10368     1145  300F               	movlw	15
 10369     1146  00F7               	movwf	??_Lcd_Init+1
 10370     1147  3047               	movlw	71
 10371     1148  00F6               	movwf	??_Lcd_Init
 10372     1149                     u6087:
 10373     1149  0BF6               	decfsz	??_Lcd_Init,f
 10374     114A  2949               	goto	u6087
 10375     114B  0BF7               	decfsz	??_Lcd_Init+1,f
 10376     114C  2949               	goto	u6087
 10377     114D  294E               	nop2
 10378                           
 10379                           ;./lcd.h: 70:   Lcd_Cmd(0x03);
 10380     114E  3003               	movlw	3
 10381     114F  160A  158A  249A  160A  118A  	fcall	_Lcd_Cmd
 10382                           
 10383                           ;./lcd.h: 72:   Lcd_Cmd(0x02);
 10384     1154  3002               	movlw	2
 10385     1155  160A  158A  249A  160A  118A  	fcall	_Lcd_Cmd
 10386                           
 10387                           ;./lcd.h: 73:   Lcd_Cmd(0x02);
 10388     115A  3002               	movlw	2
 10389     115B  160A  158A  249A  160A  118A  	fcall	_Lcd_Cmd
 10390                           
 10391                           ;./lcd.h: 74:   Lcd_Cmd(0x08);
 10392     1160  3008               	movlw	8
 10393     1161  160A  158A  249A  160A  118A  	fcall	_Lcd_Cmd
 10394                           
 10395                           ;./lcd.h: 75:   Lcd_Cmd(0x00);
 10396     1166  3000               	movlw	0
 10397     1167  160A  158A  249A  160A  118A  	fcall	_Lcd_Cmd
 10398                           
 10399                           ;./lcd.h: 76:   Lcd_Cmd(0x0C);
 10400     116C  300C               	movlw	12
 10401     116D  160A  158A  249A  160A  118A  	fcall	_Lcd_Cmd
 10402                           
 10403                           ;./lcd.h: 77:   Lcd_Cmd(0x00);
 10404     1172  3000               	movlw	0
 10405     1173  160A  158A  249A  160A  118A  	fcall	_Lcd_Cmd
 10406                           
 10407                           ;./lcd.h: 78:   Lcd_Cmd(0x06);
 10408     1178  3006               	movlw	6
 10409     1179  160A  158A  249A  160A  118A  	fcall	_Lcd_Cmd
 10410     117E                     l64:
 10411     117E  0008               	return
 10412     117F                     __end_of_Lcd_Init:
 10413                           
 10414                           	psect	text37
 10415     1C9A                     __ptext37:	
 10416 ;; *************** function _Lcd_Cmd *****************
 10417 ;; Defined at:
 10418 ;;		line 26 in file "./lcd.h"
 10419 ;; Parameters:    Size  Location     Type
 10420 ;;  a               1    wreg     unsigned char 
 10421 ;; Auto vars:     Size  Location     Type
 10422 ;;  a               1    5[COMMON] unsigned char 
 10423 ;; Return value:  Size  Location     Type
 10424 ;;                  1    wreg      void 
 10425 ;; Registers used:
 10426 ;;		wreg, status,2, status,0, pclath, cstack
 10427 ;; Tracked objects:
 10428 ;;		On entry : 0/0
 10429 ;;		On exit  : 0/0
 10430 ;;		Unchanged: 0/0
 10431 ;; Data sizes:     COMMON   BANK0   BANK1   BANK3   BANK2
 10432 ;;      Params:         0       0       0       0       0
 10433 ;;      Locals:         1       0       0       0       0
 10434 ;;      Temps:          2       0       0       0       0
 10435 ;;      Totals:         3       0       0       0       0
 10436 ;;Total ram usage:        3 bytes
 10437 ;; Hardware stack levels used: 1
 10438 ;; Hardware stack levels required when called: 2
 10439 ;; This function calls:
 10440 ;;		_Lcd_Port
 10441 ;; This function is called by:
 10442 ;;		_Lcd_Clear
 10443 ;;		_Lcd_Set_Cursor
 10444 ;;		_Lcd_Init
 10445 ;;		_Lcd_Shift_Right
 10446 ;;		_Lcd_Shift_Left
 10447 ;; This function uses a non-reentrant model
 10448 ;;
 10449                           
 10450     1C9A                     _Lcd_Cmd:	
 10451                           ;psect for function _Lcd_Cmd
 10452                           
 10453                           
 10454                           ;incstack = 0
 10455                           ; Regs used in _Lcd_Cmd: [wreg+status,2+status,0+pclath+cstack]
 10456                           ;Lcd_Cmd@a stored from wreg
 10457     1C9A  00F5               	movwf	Lcd_Cmd@a
 10458     1C9B                     l3727:
 10459                           
 10460                           ;./lcd.h: 26: void Lcd_Cmd(char a);./lcd.h: 27: {;./lcd.h: 28:  PORTDbits.RD2 = 0;
 10461     1C9B  1283               	bcf	3,5	;RP0=0, select bank0
 10462     1C9C  1303               	bcf	3,6	;RP1=0, select bank0
 10463     1C9D  1108               	bcf	8,2	;volatile
 10464     1C9E                     l3729:
 10465                           
 10466                           ;./lcd.h: 29:  Lcd_Port(a);
 10467     1C9E  0875               	movf	Lcd_Cmd@a,w
 10468     1C9F  160A  158A  24D2  160A  158A  	fcall	_Lcd_Port
 10469     1CA4                     l3731:
 10470                           
 10471                           ;./lcd.h: 30:  PORTDbits.RD3 = 1;
 10472     1CA4  1283               	bcf	3,5	;RP0=0, select bank0
 10473     1CA5  1303               	bcf	3,6	;RP1=0, select bank0
 10474     1CA6  1588               	bsf	8,3	;volatile
 10475     1CA7                     l3733:
 10476                           
 10477                           ;./lcd.h: 31:         _delay((unsigned long)((4)*(4000000/4000.0)));
 10478     1CA7  3006               	movlw	6
 10479     1CA8  00F4               	movwf	??_Lcd_Cmd+1
 10480     1CA9  3030               	movlw	48
 10481     1CAA  00F3               	movwf	??_Lcd_Cmd
 10482     1CAB                     u6097:
 10483     1CAB  0BF3               	decfsz	??_Lcd_Cmd,f
 10484     1CAC  2CAB               	goto	u6097
 10485     1CAD  0BF4               	decfsz	??_Lcd_Cmd+1,f
 10486     1CAE  2CAB               	goto	u6097
 10487     1CAF  0000               	nop
 10488     1CB0                     l3735:
 10489                           
 10490                           ;./lcd.h: 32:         PORTDbits.RD3 = 0;
 10491     1CB0  1283               	bcf	3,5	;RP0=0, select bank0
 10492     1CB1  1303               	bcf	3,6	;RP1=0, select bank0
 10493     1CB2  1188               	bcf	8,3	;volatile
 10494     1CB3                     l52:
 10495     1CB3  0008               	return
 10496     1CB4                     __end_of_Lcd_Cmd:
 10497                           
 10498                           	psect	text38
 10499     1CD2                     __ptext38:	
 10500 ;; *************** function _Lcd_Port *****************
 10501 ;; Defined at:
 10502 ;;		line 4 in file "./lcd.h"
 10503 ;; Parameters:    Size  Location     Type
 10504 ;;  a               1    wreg     unsigned char 
 10505 ;; Auto vars:     Size  Location     Type
 10506 ;;  a               1    2[COMMON] unsigned char 
 10507 ;; Return value:  Size  Location     Type
 10508 ;;                  1    wreg      void 
 10509 ;; Registers used:
 10510 ;;		wreg
 10511 ;; Tracked objects:
 10512 ;;		On entry : 0/0
 10513 ;;		On exit  : 0/0
 10514 ;;		Unchanged: 0/0
 10515 ;; Data sizes:     COMMON   BANK0   BANK1   BANK3   BANK2
 10516 ;;      Params:         0       0       0       0       0
 10517 ;;      Locals:         1       0       0       0       0
 10518 ;;      Temps:          0       0       0       0       0
 10519 ;;      Totals:         1       0       0       0       0
 10520 ;;Total ram usage:        1 bytes
 10521 ;; Hardware stack levels used: 1
 10522 ;; Hardware stack levels required when called: 1
 10523 ;; This function calls:
 10524 ;;		Nothing
 10525 ;; This function is called by:
 10526 ;;		_Lcd_Cmd
 10527 ;;		_Lcd_Init
 10528 ;;		_Lcd_Write_Char
 10529 ;; This function uses a non-reentrant model
 10530 ;;
 10531                           
 10532     1CD2                     _Lcd_Port:	
 10533                           ;psect for function _Lcd_Port
 10534                           
 10535                           
 10536                           ;incstack = 0
 10537                           ; Regs used in _Lcd_Port: [wreg]
 10538                           ;Lcd_Port@a stored from wreg
 10539     1CD2  00F2               	movwf	Lcd_Port@a
 10540     1CD3                     l3287:
 10541                           
 10542                           ;./lcd.h: 4: void Lcd_Port(char a);./lcd.h: 5: {;./lcd.h: 6:  if(a & 1)
 10543     1CD3  1C72               	btfss	Lcd_Port@a,0
 10544     1CD4  2CD6               	goto	u4531
 10545     1CD5  2CD7               	goto	u4530
 10546     1CD6                     u4531:
 10547     1CD6  2CDB               	goto	l41
 10548     1CD7                     u4530:
 10549     1CD7                     l3289:
 10550                           
 10551                           ;./lcd.h: 7:   PORTDbits.RD4 = 1;
 10552     1CD7  1283               	bcf	3,5	;RP0=0, select bank0
 10553     1CD8  1303               	bcf	3,6	;RP1=0, select bank0
 10554     1CD9  1608               	bsf	8,4	;volatile
 10555     1CDA  2CDE               	goto	l42
 10556     1CDB                     l41:	
 10557                           ;./lcd.h: 8:  else
 10558                           
 10559                           
 10560                           ;./lcd.h: 9:   PORTDbits.RD4 = 0;
 10561     1CDB  1283               	bcf	3,5	;RP0=0, select bank0
 10562     1CDC  1303               	bcf	3,6	;RP1=0, select bank0
 10563     1CDD  1208               	bcf	8,4	;volatile
 10564     1CDE                     l42:
 10565                           
 10566                           ;./lcd.h: 11:  if(a & 2)
 10567     1CDE  1CF2               	btfss	Lcd_Port@a,1
 10568     1CDF  2CE1               	goto	u4541
 10569     1CE0  2CE2               	goto	u4540
 10570     1CE1                     u4541:
 10571     1CE1  2CE4               	goto	l43
 10572     1CE2                     u4540:
 10573     1CE2                     l3291:
 10574                           
 10575                           ;./lcd.h: 12:   PORTDbits.RD5 = 1;
 10576     1CE2  1688               	bsf	8,5	;volatile
 10577     1CE3  2CE5               	goto	l44
 10578     1CE4                     l43:	
 10579                           ;./lcd.h: 13:  else
 10580                           
 10581                           
 10582                           ;./lcd.h: 14:   PORTDbits.RD5 = 0;
 10583     1CE4  1288               	bcf	8,5	;volatile
 10584     1CE5                     l44:
 10585                           
 10586                           ;./lcd.h: 16:  if(a & 4)
 10587     1CE5  1D72               	btfss	Lcd_Port@a,2
 10588     1CE6  2CE8               	goto	u4551
 10589     1CE7  2CE9               	goto	u4550
 10590     1CE8                     u4551:
 10591     1CE8  2CEB               	goto	l45
 10592     1CE9                     u4550:
 10593     1CE9                     l3293:
 10594                           
 10595                           ;./lcd.h: 17:   PORTDbits.RD6 = 1;
 10596     1CE9  1708               	bsf	8,6	;volatile
 10597     1CEA  2CEC               	goto	l46
 10598     1CEB                     l45:	
 10599                           ;./lcd.h: 18:  else
 10600                           
 10601                           
 10602                           ;./lcd.h: 19:   PORTDbits.RD6 = 0;
 10603     1CEB  1308               	bcf	8,6	;volatile
 10604     1CEC                     l46:
 10605                           
 10606                           ;./lcd.h: 21:  if(a & 8)
 10607     1CEC  1DF2               	btfss	Lcd_Port@a,3
 10608     1CED  2CEF               	goto	u4561
 10609     1CEE  2CF0               	goto	u4560
 10610     1CEF                     u4561:
 10611     1CEF  2CF2               	goto	l47
 10612     1CF0                     u4560:
 10613     1CF0                     l3295:
 10614                           
 10615                           ;./lcd.h: 22:   PORTDbits.RD7 = 1;
 10616     1CF0  1788               	bsf	8,7	;volatile
 10617     1CF1  2CF3               	goto	l49
 10618     1CF2                     l47:	
 10619                           ;./lcd.h: 23:  else
 10620                           
 10621                           
 10622                           ;./lcd.h: 24:   PORTDbits.RD7 = 0;
 10623     1CF2  1388               	bcf	8,7	;volatile
 10624     1CF3                     l49:
 10625     1CF3  0008               	return
 10626     1CF4                     __end_of_Lcd_Port:
 10627                           
 10628                           	psect	text39
 10629     1C81                     __ptext39:	
 10630 ;; *************** function _interrupcao *****************
 10631 ;; Defined at:
 10632 ;;		line 158 in file "newmain.c"
 10633 ;; Parameters:    Size  Location     Type
 10634 ;;		None
 10635 ;; Auto vars:     Size  Location     Type
 10636 ;;		None
 10637 ;; Return value:  Size  Location     Type
 10638 ;;                  1    wreg      void 
 10639 ;; Registers used:
 10640 ;;		wreg, status,2, status,0
 10641 ;; Tracked objects:
 10642 ;;		On entry : 0/0
 10643 ;;		On exit  : 0/0
 10644 ;;		Unchanged: 0/0
 10645 ;; Data sizes:     COMMON   BANK0   BANK1   BANK3   BANK2
 10646 ;;      Params:         0       0       0       0       0
 10647 ;;      Locals:         0       0       0       0       0
 10648 ;;      Temps:          2       0       0       0       0
 10649 ;;      Totals:         2       0       0       0       0
 10650 ;;Total ram usage:        2 bytes
 10651 ;; Hardware stack levels used: 1
 10652 ;; This function calls:
 10653 ;;		Nothing
 10654 ;; This function is called by:
 10655 ;;		Interrupt level 1
 10656 ;; This function uses a non-reentrant model
 10657 ;;
 10658                           
 10659     1C81                     _interrupcao:	
 10660                           ;psect for function _interrupcao
 10661                           
 10662     1C81                     i1l2025:
 10663                           
 10664                           ;newmain.c: 160:     if(INTF){
 10665     1C81  1C8B               	btfss	11,1	;volatile
 10666     1C82  2C84               	goto	u223_21
 10667     1C83  2C85               	goto	u223_20
 10668     1C84                     u223_21:
 10669     1C84  2C93               	goto	i1l136
 10670     1C85                     u223_20:
 10671     1C85                     i1l2027:
 10672                           
 10673                           ;newmain.c: 161:         if(menu_ativo){
 10674     1C85  087A               	movf	_menu_ativo,w
 10675     1C86  047B               	iorwf	_menu_ativo+1,w
 10676     1C87  1903               	btfsc	3,2
 10677     1C88  2C8A               	goto	u224_21
 10678     1C89  2C8B               	goto	u224_20
 10679     1C8A                     u224_21:
 10680     1C8A  2C8E               	goto	i1l2031
 10681     1C8B                     u224_20:
 10682     1C8B                     i1l2029:
 10683                           
 10684                           ;newmain.c: 162:             menu_ativo = 0;
 10685     1C8B  01FA               	clrf	_menu_ativo
 10686     1C8C  01FB               	clrf	_menu_ativo+1
 10687                           
 10688                           ;newmain.c: 163:         }
 10689     1C8D  2C92               	goto	i1l2033
 10690     1C8E                     i1l2031:
 10691                           
 10692                           ;newmain.c: 165:         menu_ativo = 1;
 10693     1C8E  3001               	movlw	1
 10694     1C8F  00FA               	movwf	_menu_ativo
 10695     1C90  3000               	movlw	0
 10696     1C91  00FB               	movwf	_menu_ativo+1
 10697     1C92                     i1l2033:
 10698                           
 10699                           ;newmain.c: 168:         INTCONbits.INTF = 0;
 10700     1C92  108B               	bcf	11,1	;volatile
 10701     1C93                     i1l136:
 10702     1C93  0871               	movf	??_interrupcao+1,w
 10703     1C94  008A               	movwf	10
 10704     1C95  0E70               	swapf	??_interrupcao,w
 10705     1C96  0083               	movwf	3
 10706     1C97  0EFE               	swapf	btemp,f
 10707     1C98  0E7E               	swapf	btemp,w
 10708     1C99  0009               	retfie
 10709     1C9A                     __end_of_interrupcao:
 10710     007E                     btemp	set	126	;btemp
 10711     007E                     wtemp0	set	126
 10712                           
 10713                           	psect	intentry
 10714     0004                     __pintentry:	
 10715                           ;incstack = 0
 10716                           ; Regs used in _interrupcao: [wreg+status,2+status,0]
 10717                           
 10718     0004                     interrupt_function:
 10719     007E                     saved_w	set	btemp
 10720     0004  00FE               	movwf	btemp
 10721     0005  0E03               	swapf	3,w
 10722     0006  00F0               	movwf	??_interrupcao
 10723     0007  080A               	movf	10,w
 10724     0008  00F1               	movwf	??_interrupcao+1
 10725     0009  160A  158A  2C81   	ljmp	_interrupcao

Data Sizes:
    Strings     44
    Constant    76
    Data        4
    BSS         8
    Persistent  0
    Stack       0

Auto Spaces:
    Space          Size  Autos    Used
    COMMON           14     10      12
    BANK0            80     80      80
    BANK1            80     79      79
    BANK3            96     87      91
    BANK2            96      0       6

Pointer List with Targets:

    frexp@eptr	PTR int  size(1) Largest target is 2
		 -> floor@expon(BANK1[2]), log@exponent(BANK0[2]), 

    eval_poly@d	PTR const  size(1) Largest target is 40
		 -> exp@coeff(CODE[40]), log@coeff(CODE[36]), 

    main@texto_menu	PTR unsigned char  size(1) Largest target is 20
		 -> STR_3(CODE[20]), 

    escreveLCD@linha2	PTR unsigned char  size(2) Largest target is 16
		 -> main@texto_luminosidade(BANK3[16]), STR_2(CODE[8]), 

    escreveLCD@linha1	PTR unsigned char  size(1) Largest target is 20
		 -> STR_3(CODE[20]), STR_1(CODE[16]), 

    intToASCIIinCustomBase@resultado	PTR unsigned char  size(1) Largest target is 16
		 -> main@texto_luminosidade(BANK3[16]), 

    Lcd_Write_String@a	PTR unsigned char  size(2) Largest target is 20
		 -> main@texto_luminosidade(BANK3[16]), STR_3(CODE[20]), STR_2(CODE[8]), STR_1(CODE[16]), 


Critical Paths under _main in COMMON

    _main->___xxtofl
    _main->_escreveLCD
    _intToASCIIinCustomBase->___awdiv
    _handleSetupMenu->_escreveLCD
    _escreveLCD->_Lcd_Write_String
    _Lcd_Write_String->_Lcd_Write_Char
    _Lcd_Write_Char->_Lcd_Port
    _Lcd_Set_Cursor->_Lcd_Cmd
    _Lcd_Clear->_Lcd_Cmd
    _converteVoltsParaLux->___xxtofl
    _pow->___flge
    _pow->___xxtofl
    _exp->___flge
    _exp->___xxtofl
    _ldexp->___flge
    _floor->___flge
    _floor->___xxtofl
    ___fltol->___xxtofl
    ___flsub->___xxtofl
    _log->___flge
    _log->___xxtofl
    ___fleq->___xxtofl
    ___fladd->___xxtofl
    _converteLeituraAnParaVolts->___xxtofl
    ___flmul->___xxtofl
    _Lcd_Init->_Lcd_Cmd
    _Lcd_Cmd->_Lcd_Port

Critical Paths under _interrupcao in COMMON

    None.

Critical Paths under _main in BANK0

    _handleSetupMenu->_escreveLCD
    _escreveLCD->_Lcd_Write_String
    _pow->_log
    _exp->_ldexp
    _exp->_log
    _ldexp->_eval_poly
    _log10->_log
    _log->_eval_poly
    _frexp->___fleq
    ___fleq->___xxtofl
    _eval_poly->___fladd
    ___fladd->___flmul
    ___flmul->_frexp

Critical Paths under _interrupcao in BANK0

    None.

Critical Paths under _main in BANK1

    _pow->_exp
    _exp->_floor
    _ldexp->_eval_poly
    _floor->___fltol
    ___fltol->___fldiv
    ___flsub->_log10
    _log10->_log
    _log->_eval_poly
    _converteLeituraAnParaVolts->___fldiv
    ___fldiv->___flsub

Critical Paths under _interrupcao in BANK1

    None.

Critical Paths under _main in BANK3

    _main->_converteVoltsParaLux
    _converteVoltsParaLux->_pow
    _pow->_exp

Critical Paths under _interrupcao in BANK3

    None.

Critical Paths under _main in BANK2

    None.

Critical Paths under _interrupcao in BANK2

    None.

Call Graph Tables:

 ---------------------------------------------------------------------------------
 (Depth) Function   	        Calls       Base Space   Used Autos Params    Refs
 ---------------------------------------------------------------------------------
 (0) _main                                                25    25      0  143096
                                             62 BANK3     25    25      0
                           _Lcd_Init
                           ___xxtofl
                          _configADC
                   _configIntExterns
                      _configPWMRegs
         _converteLeituraAnParaVolts
               _converteVoltsParaLux
                         _escreveLCD
                        _getValorADC
                    _handleSetupMenu
             _intToASCIIinCustomBase
 ---------------------------------------------------------------------------------
 (1) _intToASCIIinCustomBase                              18    13      5    2136
                                              0 BANK0     18    13      5
                            ___awdiv
                            ___awmod
 ---------------------------------------------------------------------------------
 (2) ___awmod                                              6     2      4     448
                                              2 COMMON     6     2      4
 ---------------------------------------------------------------------------------
 (2) ___awdiv                                              8     4      4     452
                                              2 COMMON     8     4      4
 ---------------------------------------------------------------------------------
 (1) _handleSetupMenu                                      0     0      0    1758
                         _escreveLCD
                    _verificaBtnMais
                   _verificaBtnMenos
 ---------------------------------------------------------------------------------
 (2) _verificaBtnMenos                                     0     0      0       0
 ---------------------------------------------------------------------------------
 (2) _verificaBtnMais                                      0     0      0       0
 ---------------------------------------------------------------------------------
 (2) _escreveLCD                                           5     3      2    1758
                                              9 COMMON     1     1      0
                                              5 BANK0      4     2      2
                          _Lcd_Clear
                     _Lcd_Set_Cursor
                   _Lcd_Write_String
 ---------------------------------------------------------------------------------
 (3) _Lcd_Write_String                                     7     5      2     564
                                              7 COMMON     2     0      2
                                              0 BANK0      5     5      0
                     _Lcd_Write_Char
 ---------------------------------------------------------------------------------
 (4) _Lcd_Write_Char                                       4     4      0     254
                                              3 COMMON     4     4      0
                           _Lcd_Port
 ---------------------------------------------------------------------------------
 (3) _Lcd_Set_Cursor                                       6     5      1     725
                                              6 COMMON     2     1      1
                                              0 BANK0      4     4      0
                            _Lcd_Cmd
 ---------------------------------------------------------------------------------
 (3) _Lcd_Clear                                            0     0      0     155
                            _Lcd_Cmd
 ---------------------------------------------------------------------------------
 (1) _getValorADC                                          6     4      2      23
                                              2 COMMON     6     4      2
 ---------------------------------------------------------------------------------
 (1) _converteVoltsParaLux                                34    30      4  129057
                                             28 BANK3     34    30      4
                            ___fladd
                            ___fldiv
                            ___flmul
                            ___flsub
                            ___fltol
                           ___xxtofl
                              _log10
                                _pow
 ---------------------------------------------------------------------------------
 (2) _pow                                                 21    13      8   79390
                                              7 BANK3     21    13      8
                             ___fleq
                             ___flge
                            ___flmul
                            ___flneg
                            ___fltol
                           ___xxtofl
                                _exp
                                _log
 ---------------------------------------------------------------------------------
 (3) _exp                                                 11     7      4   42068
                                             75 BANK1      4     0      4
                                              0 BANK3      7     7      0
                            ___fldiv
                             ___fleq
                             ___flge
                            ___flmul
                            ___flneg
                            ___flsub
                            ___fltol
                           ___xxtofl
                          _eval_poly
                              _floor
                              _ldexp
                                _log (ARG)
 ---------------------------------------------------------------------------------
 (4) _ldexp                                                8     2      6    3995
                                             78 BANK0      2     2      0
                                              9 BANK1      6     0      6
                             ___fleq
                             ___flge
                          _eval_poly (ARG)
 ---------------------------------------------------------------------------------
 (4) _floor                                               10     6      4   10423
                                             65 BANK1     10     6      4
                            ___fladd
                             ___flge
                            ___fltol
                           ___xxtofl
                              _frexp
 ---------------------------------------------------------------------------------
 (5) ___fltol                                             10     6      4     609
                                             55 BANK1     10     6      4
                            ___fldiv (ARG)
                            ___flmul (ARG)
                            ___flsub (ARG)
                           ___xxtofl (ARG)
 ---------------------------------------------------------------------------------
 (4) ___flsub                                              8     0      8    4987
                                             21 BANK1      8     0      8
                            ___fladd
                            ___flmul (ARG)
                           ___xxtofl (ARG)
                              _log10 (ARG)
 ---------------------------------------------------------------------------------
 (4) ___flneg                                              4     0      4     273
                                              2 COMMON     4     0      4
 ---------------------------------------------------------------------------------
 (2) _log10                                                8     4      4   31696
                                             13 BANK1      8     4      4
                            ___flmul
                                _log
 ---------------------------------------------------------------------------------
 (3) _log                                                  6     2      4   26298
                                             78 BANK0      2     2      0
                                              9 BANK1      4     0      4
                            ___fladd
                             ___fleq
                             ___flge
                            ___flmul
                           ___xxtofl
                          _eval_poly
                              _frexp
 ---------------------------------------------------------------------------------
 (4) _frexp                                                7     2      5    2252
                                             18 BANK0      7     2      5
                             ___fleq
 ---------------------------------------------------------------------------------
 (5) ___fleq                                              12     4      8    1570
                                              6 BANK0     12     4      8
                           ___xxtofl (ARG)
 ---------------------------------------------------------------------------------
 (4) _eval_poly                                           16     9      7    9969
                                             71 BANK0      7     0      7
                                              0 BANK1      9     9      0
                            ___fladd
                            ___flmul
 ---------------------------------------------------------------------------------
 (5) ___fladd                                             20    12      8    4202
                                             51 BANK0     20    12      8
                            ___flmul (ARG)
                           ___xxtofl (ARG)
                              _frexp (ARG)
 ---------------------------------------------------------------------------------
 (4) ___xxtofl                                            14    10      4    1016
                                              2 COMMON     8     4      4
                                              0 BANK0      6     6      0
 ---------------------------------------------------------------------------------
 (4) ___flge                                              12     4      8    1886
                                              2 COMMON     8     0      8
                                              0 BANK0      4     4      0
 ---------------------------------------------------------------------------------
 (1) _converteLeituraAnParaVolts                           4     0      4    6823
                                             55 BANK1      4     0      4
                            ___fldiv
                            ___flmul
                           ___xxtofl (ARG)
 ---------------------------------------------------------------------------------
 (5) ___flmul                                             26    18      8    4973
                                             25 BANK0     26    18      8
                          __Umul8_16
                           ___xxtofl (ARG)
                              _frexp (ARG)
 ---------------------------------------------------------------------------------
 (6) __Umul8_16                                            9     7      2     980
                                              2 COMMON     4     2      2
                                              0 BANK0      5     5      0
 ---------------------------------------------------------------------------------
 (4) ___fldiv                                             26    18      8    1729
                                             29 BANK1     26    18      8
                            ___fladd (ARG)
                            ___flmul (ARG)
                            ___flsub (ARG)
                              _log10 (ARG)
 ---------------------------------------------------------------------------------
 (1) _configPWMRegs                                        0     0      0       0
 ---------------------------------------------------------------------------------
 (1) _configIntExterns                                     0     0      0       0
 ---------------------------------------------------------------------------------
 (1) _configADC                                            0     0      0       0
 ---------------------------------------------------------------------------------
 (1) _Lcd_Init                                             2     2      0     279
                                              6 COMMON     2     2      0
                            _Lcd_Cmd
                           _Lcd_Port
 ---------------------------------------------------------------------------------
 (4) _Lcd_Cmd                                              3     3      0     155
                                              3 COMMON     3     3      0
                           _Lcd_Port
 ---------------------------------------------------------------------------------
 (5) _Lcd_Port                                             1     1      0     124
                                              2 COMMON     1     1      0
 ---------------------------------------------------------------------------------
 Estimated maximum stack depth 6
 ---------------------------------------------------------------------------------
 (Depth) Function   	        Calls       Base Space   Used Autos Params    Refs
 ---------------------------------------------------------------------------------
 (7) _interrupcao                                          2     2      0       0
                                              0 COMMON     2     2      0
 ---------------------------------------------------------------------------------
 Estimated maximum stack depth 7
 ---------------------------------------------------------------------------------

 Call Graph Graphs:

 _main (ROOT)
   _Lcd_Init
     _Lcd_Cmd
       _Lcd_Port
     _Lcd_Port
   ___xxtofl
   _configADC
   _configIntExterns
   _configPWMRegs
   _converteLeituraAnParaVolts
     ___fldiv
       ___fladd (ARG)
         ___flmul (ARG)
           __Umul8_16
           ___xxtofl (ARG)
           _frexp (ARG)
             ___fleq
               ___xxtofl (ARG)
         ___xxtofl (ARG)
         _frexp (ARG)
       ___flmul (ARG)
       ___flsub (ARG)
         ___fladd
         ___flmul (ARG)
         ___xxtofl (ARG)
         _log10 (ARG)
           ___flmul
           _log
             ___fladd
             ___fleq
             ___flge
             ___flmul
             ___xxtofl
             _eval_poly
               ___fladd
               ___flmul
             _frexp
       _log10 (ARG)
     ___flmul
     ___xxtofl (ARG)
   _converteVoltsParaLux
     ___fladd
     ___fldiv
     ___flmul
     ___flsub
     ___fltol
       ___fldiv (ARG)
       ___flmul (ARG)
       ___flsub (ARG)
       ___xxtofl (ARG)
     ___xxtofl
     _log10
     _pow
       ___fleq
       ___flge
       ___flmul
       ___flneg
       ___fltol
       ___xxtofl
       _exp
         ___fldiv
         ___fleq
         ___flge
         ___flmul
         ___flneg
         ___flsub
         ___fltol
         ___xxtofl
         _eval_poly
         _floor
           ___fladd
           ___flge
           ___fltol
           ___xxtofl
           _frexp
         _ldexp
           ___fleq
           ___flge
           _eval_poly (ARG)
         _log (ARG)
       _log
   _escreveLCD
     _Lcd_Clear
       _Lcd_Cmd
     _Lcd_Set_Cursor
       _Lcd_Cmd
     _Lcd_Write_String
       _Lcd_Write_Char
         _Lcd_Port
   _getValorADC
   _handleSetupMenu
     _escreveLCD
     _verificaBtnMais
     _verificaBtnMenos
   _intToASCIIinCustomBase
     ___awdiv
     ___awmod

 _interrupcao (ROOT)

 Address spaces:
Name               Size   Autos  Total    Cost      Usage
BANK3               60     57      5B       9       94.8%
BITBANK3            60      0       0       8        0.0%
SFR3                 0      0       0       4        0.0%
BITSFR3              0      0       0       4        0.0%
BANK2               60      0       6      11        6.2%
BITBANK2            60      0       0      10        0.0%
SFR2                 0      0       0       5        0.0%
BITSFR2              0      0       0       5        0.0%
BANK1               50     4F      4F       7       98.8%
BITBANK1            50      0       0       6        0.0%
SFR1                 0      0       0       2        0.0%
BITSFR1              0      0       0       2        0.0%
BANK0               50     50      50       5      100.0%
BITBANK0            50      0       0       4        0.0%
SFR0                 0      0       0       1        0.0%
BITSFR0              0      0       0       1        0.0%
COMMON               E      A       C       1       85.7%
BITCOMMON            E      0       0       0        0.0%
CODE                 0      0       0       0        0.0%
DATA                 0      0     10C      12        0.0%
ABS                  0      0     10C       3        0.0%
NULL                 0      0       0       0        0.0%
STACK                0      0       0       2        0.0%
EEDATA             100      0       0       0        0.0%


Microchip Technology PIC Macro Assembler V2.41 build 20230208172133 
Symbol Table                                                                                   Sun Jun 25 15:08:01 2023

                      ___fldiv@aexp 00D6                        ___fldiv@bexp 00D5  
                                 pc 0002                        ___fldiv@sign 00CE  
                  getValorADC@valor 0076                                  l41 1CDB  
                                l42 1CDE                                  l43 1CE4  
                                l44 1CE5                                  l52 1CB3  
                                l45 1CEB                                  l61 1E54  
                                l46 1CEC                                  l47 1CF2  
                                l55 1C54                                  l64 117E  
                                l49 1CF3                                  l73 1E08  
                                l67 1D4F                                  l92 1C80  
                                l95 1C69                                  l99 14BF  
                      ___awdiv@sign 0077                                  fsr 0004  
               __Umul8_16@word_mpld 0022                                 l112 080F  
                               l120 1DC2                                 l115 1DB8  
                               l123 10BC                                 l151 1F4D  
                               l128 10C5                                 l145 1CD1  
                               l401 0876                                 l154 062C  
                               l139 1D86                                 l148 1C3C  
                               l422 1215                                 l430 1C47  
                               l414 1FFF                                 l425 1281  
                               l417 1E73                                 l441 11E1  
                               l426 129A                                 l418 1E8F  
                               l434 11F6                                 l419 1EA4  
                               l444 11F6                                 l613 0775  
                               l541 0E03                                 l720 168B  
                               l712 1FA6                                 l545 0E86  
                               l562 0F4F                                 l554 0FFF  
                               l730 15A3                                 l619 07E7  
                               l643 02EF                                 l547 0E5F  
                               l572 0F95                                 l708 17FF  
                               l637 037F                                 l566 0F73  
                               l726 1121                                 l751 0B70  
                               l656 1D0A                                 l584 0FFF  
                               l681 1366                                 l658 1D1C  
                               l746 09AB                                 l683 13FB  
                               l587 1EF4                                 l747 0B70  
                               l597 0683                                 l765 0DA7  
                               l694 13C5                                 l599 07FB  
                               l695 13D1                                 l777 095F  
                               l769 0DA7                                 _PR2 0092  
                               _exp 0B71                                 _log 168C  
                               _pow 0960                                 fsr0 0004  
                               indf 0000                        ___awmod@sign 0077  
                      ___flmul@aexp 0047                        ___flmul@bexp 004C  
                      ___flmul@sign 0046                        ___flmul@temp 0051  
                      ___flmul@prod 004D                        ___fltol@exp1 00E0  
                              l2131 118A                                l2141 11AF  
                              l3101 1FF6                                l2151 11BD  
                              l2143 11B1                                l2135 1193  
                              l3031 081A                                l3103 1FFB  
                              l4001 1145                                l3121 1C7C  
                              l2161 11D6                                l2153 11C6  
                              l2145 11B5                                l2137 11A6  
                              l2129 117F                                l3041 082B  
                              l3033 081C                                l3025 0810  
                              l3123 1C7D                                l2163 11E6  
                              l2155 11CF                                l2139 11A7  
                              l3131 1C58                                l3051 0843  
                              l3043 0831                                l3035 0820  
                              l3027 0811                                l4011 1411  
                              l4003 13FC                                l3125 1C7E  
                              l3117 1C6A                                l3301 1229  
                              l2165 11EB                                l3053 0854  
                              l3045 0834                                l3061 0868  
                              l3037 0825                                l3029 0815  
                              l4021 1443                                l4005 1400  
                              l4101 12BC                                l3127 1C7F  
                              l3119 1C78                                l3311 1297  
                              l3303 1231                                l3063 086D  
                              l3055 085A                                l3047 083B  
                              l3039 0829                                l3071 1FA8  
                              l4031 1474                                l4023 144D  
                              l4015 1418                                l4007 1406  
                              l4111 1319                                l4103 12C7  
                              l3313 1299                                l3305 1235  
                              l3401 0E63                                l3321 0DB1  
                              l3129 1C55                                l3065 0872  
                              l3057 085B                                l3049 083F  
                              l3081 1FBC                                l3073 1FAC  
                              l4041 149E                                l4033 147B  
                              l4025 1455                                l4017 142B  
                              l4009 140B                                l4113 1330  
                              l4105 12FD                                l3307 1259  
                              l3411 0E7A                                l3403 0E6A  
                              l3331 0DC8                                l3323 0DB5  
                              l2611 1C47                                l4051 1CB5  
                              l3059 0862                                l3091 1FD4  
                              l3083 1FC2                                l3075 1FB1  
                              l4043 14A5                                l4035 147D  
                              l4027 145B                                l4019 1438  
                              l4107 1310                                l3181 0802  
                              l2701 0724                                l2621 062D  
                              l3309 125D                                l3501 0FE5  
                              l3421 0E98                                l3405 0E6C  
                              l3413 0E7E                                l3341 0DDC  
                              l3333 0DC9                                l3325 0DB6  
                              l3317 0DA8                                l3261 1E55  
                              l4061 0380                                l4053 1CBF  
                              l3093 1FDE                                l3085 1FC5  
                              l3077 1FB3                                l3069 1FA7  
                              l4045 14AB                                l4037 1486  
                              l4029 146E                                l4109 1315  
                              l3183 080E                                l2711 0741  
                              l2703 0728                                l2631 0640  
                              l2623 0632                                l3511 0FF5  
                              l3503 0FEA                                l3431 0EC0  
                              l3423 0EAF                                l3415 0E8A  
                              l3407 0E70                                l3351 0DEB  
                              l3343 0DDD                                l3327 0DBB  
                              l3335 0DCB                                l3319 0DAD  
                              l3263 1E6B                                l2607 1C3D  
                              l4071 0535                                l4063 040C  
                              l4055 1CCB                                l3095 1FE4  
                              l3087 1FCC                                l3079 1FB7  
                              l4039 1490                                l4047 14B1  
                              l3193 1C36                                l2721 0759  
                              l2713 0745                                l2705 072E  
                              l2641 0658                                l2633 0645  
                              l2625 0636                                l3281 1D13  
                              l3273 1CF7                                l3601 02A4  
                              l3521 0044                                l4057 1EF5  
                              l3513 0FFA                                l3505 0FEB  
                              l3441 0EE9                                l3433 0EC4  
                              l3425 0EB3                                l3417 0E8F  
                              l3409 0E71                                l3361 0E09  
                              l3353 0DF0                                l3345 0DE1  
                              l3337 0DD3                                l3329 0DC0  
                              l3265 1E87                                l2609 1C45  
                              l4073 0554                                l4065 0459  
                              l4049 1CB4                                l3097 1FEB  
                              l3089 1FD0                                l3291 1CE2  
                              l2731 077A                                l2723 075A  
                              l2715 0746                                l2707 0736  
                              l2651 066B                                l2643 065D  
                              l2635 064D                                l2627 063A  
                              l3283 1D18                                l3275 1CF9  
                              l3611 02C9                                l3603 02B2  
                              l3531 005B                                l3523 0048  
                              l3515 0FFE                                l3507 0FEF  
                              l3443 0F27                                l3451 0F41  
                              l3435 0EC5                                l3427 0EB7  
                              l3371 0E17                                l3363 0E0D  
                              l3355 0DF8                                l3347 0DE5  
                              l3339 0DD6                                l3267 1EA1  
                              l4075 05BA                                l4067 04BF  
                              l3099 1FF1                                l4091 12A1  
                              l3293 1CE9                                l2733 077F  
                              l2741 07B0                                l2725 075E  
                              l2717 074F                                l2709 0738  
                              l2661 068B                                l2653 0670  
                              l2645 0661                                l2637 064E  
                              l2629 063B                                l3277 1D00  
                              l3621 02EC                                l3605 02BB  
                              l3613 02CF                                l3541 0072  
                              l3533 005D                                l3525 0049  
                              l3517 003B                                l3701 13F2  
                              l3509 0FF1                                l3461 0F6E  
                              l3453 0F57                                l3445 0F2B  
                              l3437 0ECE                                l3429 0EBE  
                              l3381 0E21                                l3373 0E19  
                              l3365 0E11                                l3357 0DF9  
                              l3349 0DE6                                l3269 1EA3  
                              l4077 0605                                l4069 04D8  
                              l4093 12A6                                l4085 129B  
                              l3295 1CF0                                l3287 1CD3  
                              l2751 07E6                                l2743 07BD  
                              l2735 078D                                l2727 0772  
                              l2719 0755                                l2671 06A9  
                              l2663 0697                                l2655 0678  
                              l2647 0665                                l2639 0650  
                              l3279 1D04                                l3631 030B  
                              l3615 02D3                                l3607 02BF  
                              l3551 0087                                l3543 0073  
                              l3535 0065                                l3527 004E  
                              l3519 0040                                l3703 13F3  
                              l3471 0F81                                l3463 0F72  
                              l3455 0F5C                                l3447 0F2D  
                              l3439 0ED3                                l3391 0E2B  
                              l3383 0E23                                l3375 0E1B  
                              l3367 0E13                                l3359 0DFB  
                              l3711 10E9                                l4095 12AE  
                              l4087 129E                                l3289 1CD7  
                              l2753 07EB                                l2745 07CB  
                              l2737 0791                                l2681 06D4  
                              l2665 069B                                l2657 0679  
                              l2649 0666                                l3641 0351  
                              l3633 0324                                l3625 02F4  
                              l3617 02D4                                l3609 02C0  
                              l3561 00A2                                l3553 008F  
                              l3545 0078                                l3537 006A  
                              l3529 0053                                l3297 11F7  
                              l3481 0F92                                l3465 0F77  
                              l3473 0F83                                l3449 0F32  
                              l3393 0E2D                                l3385 0E25  
                              l3377 0E1D                                l3369 0E15  
                              l3721 1120                                l3801 156C  
                              l4097 12B3                                l4089 129F  
                              l3731 1CA4                                l2755 07EF  
                              l2747 07DA                                l2739 07AA  
                              l2691 06F9                                l2683 06DC  
                              l2675 06B2                                l2659 067B  
                              l3651 036E                                l3643 035B  
                              l3627 02F9                                l3635 032A  
                              l3619 02D8                                l3571 011E  
                              l3563 00B0                                l3555 0094  
                              l3547 007D                                l3539 006E  
                              l3299 120D                                l3491 0FB1  
                              l3467 0F7A                                l3459 0F65  
                              l3475 0F87                                l3387 0E27  
                              l3379 0E1F                                l3395 0E2F  
                              l3723 1121                                l3715 10F2  
                              l3707 10C6                                l3811 0877  
                              l4099 12B7                                l3733 1CA7  
                              l2757 07F1                                l2749 07DE  
                              l2693 06FA                                l2685 06DE  
                              l2677 06C4                                l2669 06A4  
                              l3645 035D                                l3653 0373  
                              l3637 0337                                l3629 0307  
                              l3581 018A                                l3573 013A  
                              l3565 00BD                                l3557 0099  
                              l3549 0085                                l3661 134A  
                              l3493 0FCF                                l3485 0F9A  
                              l3477 0F88                                l3469 0F7C  
                              l3397 0E30                                l3389 0E29  
                              l3717 110F                                l3709 10E1  
                              l3821 08C0                                l3813 0896  
                              l3805 1577                                l3901 0BC0  
                              l3741 1D27                                l3735 1CB0  
                              l3727 1C9B                                l2759 07F5  
                              l2687 06E3                                l2695 0703  
                              l2679 06CC                                l3655 0377  
                              l3647 0369                                l3639 0342  
                              l3591 0214                                l3583 0198  
                              l3575 0156                                l3567 00D8  
                              l3671 1377                                l3663 134E  
                              l3487 0F9F                                l3495 0FD3  
                              l3479 0F8C                                l3399 0E47  
                              l3719 111C                                l3831 08FC  
                              l3815 089C                                l3807 15A3  
                              l3911 0BFD                                l3751 1D45  
                              l3743 1D35                                l2951 1DA8  
                              l2943 1D87                                l3729 1C9E  
                              l2697 0715                                l2689 06F5  
                              l3649 036D                                l3593 0222  
                              l3585 01B5                                l3577 015F  
                              l3569 00F4                                l3681 1392  
                              l3673 137A                                l3665 135E  
                              l3497 0FD8                                l3489 0FAD  
                              l3833 0915                                l3817 08B5  
                              l3825 08CB                                l3921 0C9F  
                              l3913 0C1D                                l3905 0BD1  
                              l3841 1C48                                l3753 1D48  
                              l3745 1D38                                l3737 1D1E  
                              l2953 1DB1                                l2945 1D8F  
                              l2961 1097                                l2699 0716  
                              l3595 024D                                l3587 01CC  
                              l3579 016D                                l3691 13BF  
                              l3683 13A0                                l3675 137E  
                              l3667 136E                                l3659 1345  
                              l3499 0FDD                                l3763 15A4  
                              l3827 08D4                                l3931 0D7A  
                              l3923 0CC6                                l3915 0C22  
                              l3907 0BEC                                l3851 1E27  
                              l3843 1E0C                                l3755 1D4C  
                              l3747 1D3C                                l3739 1D24  
                              l2955 1DBE                                l2947 1D95  
                              l2963 109D                                l3597 0273  
                              l3589 01E9                                l3693 13C9  
                              l3685 13A9                                l3677 1387  
                              l3765 15D9                                l3757 1EA5  
                              l3837 0955                                l3829 08D5  
                              l3781 151E                                l3773 14C0  
                              l3925 0CF6                                l3917 0C3B  
                              l3861 1E4C                                l3845 1E11  
                              l3853 1E30                                l3749 1D3F  
                              l3941 1D5E                                l2949 1D9B  
                              l2965 10AC                                l2957 1089  
                              l3599 029B                                l3695 13D3  
                              l3687 13B0                                l3679 138E  
                              l3767 166B                                l3871 168C  
                              l3759 1EA9                                l3791 1540  
                              l3783 1522                                l3775 14E9  
                              l3935 0D85                                l3927 0D4A  
                              l3919 0C7A                                l3855 1E36  
                              l3847 1E1E                                l3863 1DC3  
                              l3943 1D69                                l2967 10B5  
                              l2959 1091                                l3697 13E9  
                              l3689 13BB                                l3769 1673  
                              l3873 16A7                                l3793 1546  
                              l3929 0D51                                l3953 0960  
                              l3857 1E43                                l3849 1E21  
                              l3865 1DC8                                l3945 1D7C  
                              l2969 10C1                                l3699 13EE  
                              l3883 16F2                                l3947 1F4E  
                              l3795 1561                                l3779 14F4  
                              l3971 0A05                                l3963 09B6  
                              l3955 0963                                l3859 1E46  
                              l3867 1DE4                                l3939 1D51  
                              ?_exp 00EB                                l3885 1759  
                              l3877 16B8                                l3949 1F67  
                              l3789 1533                                l3893 0B71  
                              l3973 0A73                                l3981 0AA0  
                              l3965 09DF                                l3957 098A  
                              l3869 1DEC                                ?_log 00A9  
                              l3887 1761                                l3879 16E1  
                              l3895 0B9A                                l3983 0AD5  
                              l3959 09A5                                l3993 1122  
                              l3889 179C                                l3985 0B20  
                              l3977 0A84                                l3969 09EA  
                              l3995 1128                                l3899 0BA5  
                              l3987 0B53                                l3979 0A89  
                              l3997 1131                                l3989 0B58  
                              l3999 113F                                ?_pow 0197  
                              STR_1 1070                                STR_2 1080  
                              STR_3 105C                                u2500 11E6  
                              u2420 118A                                u4100 1D95  
                              u2501 11E5                                u2421 1189  
                              u4101 1D94                                u2510 11EB  
                              u2430 11A1                                u4110 1DA8  
                              u2511 11EA                                u4111 1DA7  
                              u5000 0F99                                u2440 11B5  
                              u4120 1DBE                                u5001 0F98  
                              u2441 11B4                                u4121 1DBD  
                              u5010 0F9F                                u2450 11BC  
                              u4130 1091                                u5011 0F9E  
                              u2451 11BB                                u2435 119C  
                              u4115 1DA4                                u4131 1090  
                              u5100 0048                                u5020 0FB1  
                              u4140 1097                                u5101 0047  
                              u5021 0FB0                                u4141 1096  
                              u5110 004E                                u5030 0FC0  
                              u3510 1C45                                u2470 11CE  
                              u4150 10AC                                u4310 0868  
                              u4230 0815                                u5111 004D  
                              u3511 1C44                                u2471 11CD  
                              u4151 10AB                                u4311 0867  
                              u4231 0814                                u3600 06E3  
                              u3520 063A                                u5120 0053  
                              u5040 0FCF                                u2480 11D5  
                              u4160 10C1                                u4320 086D  
                              u4240 0820                                u4400 1FF1  
                              u6000 14BF                                u3601 06E2  
                              u3521 0639                                u5201 012C  
                              u5121 0052                                u5041 0FCE  
                              u2481 11D4                                u2465 11BE  
                              u4161 10C0                                u4321 086C  
                              u4305 085C                                u4241 081F  
                              u4401 1FF0                                u6001 14BE  
                              u3530 0640                                u5202 0133  
                              u5130 0072                                u5050 0FD8  
                              u4090 1D8F                                u6010 1CD1  
                              u4250 0831                                u4410 1FF6  
                              u4330 1FAC                                u3531 063F  
                              u5211 0148                                u5203 013A  
                              u5131 0071                                u5051 0FD7  
                              u5035 0FBB                                u4091 1D8E  
                              u4155 10A8                                u6011 1CD0  
                              u4251 0830                                u4411 1FF5  
                              u4331 1FAB                                u3540 0645  
                              u4500 1D04                                u5212 014F  
                              u5140 0078                                u5060 0FDD  
                              u4340 1FB7                                u3541 0644  
                              u4501 1D03                                u5301 0265  
                              u5213 0156                                u5141 0077  
                              u5061 0FDC                                u4341 1FB6  
                              u6005 14BB                                u3710 0759  
                              u3630 06F9                                u3550 0665  
                              u5310 0281                                u5302 026C  
                              u5150 007D                                u5070 0FEA  
                              u4270 0843                                u4350 1FC2  
                              u3711 0758                                u3631 06F8  
                              u3615 06E5                                u3551 0664  
                              u5303 0273                                u5231 017C  
                              u5151 007C                                u5071 0FE9  
                              u2495 11D8                                u4271 0842  
                              u4351 1FC1                                u3800 07EF  
                              u3720 075E                                u3560 066B  
                              u4520 1D18                                u5400 02F3  
                              u5232 0183                                u5160 0094  
                              u5080 0FEF                                u3801 07EE  
                              u3721 075D                                u3705 0748  
                              u3625 06EE                                u3561 066A  
                              u4521 1D17                                u5401 02F2  
                              u5321 028D                                u5241 01A7  
                              u5233 018A                                u5225 0158  
                              u5161 0093                                u4601 1244  
                              u5081 0FEE                                u4265 0835  
                              u4530 1CD7                                u3730 0772  
                              u3650 0715                                u3570 0670  
                              u5410 02F9                                u5322 0294  
                              u5242 01AE                                u5170 0099  
                              u4610 125D                                u4602 1245  
                              u5090 0FFE                                u4290 0854  
                              u4370 1FD4                                u4531 1CD6  
                              u3731 0771                                u3651 0714  
                              u3571 066F                                u4515 1D0B  
                              u5411 02F8                                u5323 029B  
                              u5315 027C                                u5243 01B5  
                              u5171 0098                                u4611 125C  
                              u4603 124A                                u5091 0FFD  
                              u6027 1D82                                u4291 0853  
                              u4371 1FD3                                u4540 1CE2  
                              u3740 0779                                u3660 072E  
                              u3580 068B                                u5420 030B  
                              u4604 124B                                u4700 0DF0  
                              u4380 1FDE                                u4541 1CE1  
                              u3741 0778                                u3661 072D  
                              u3645 06FC                                u3581 068A  
                              u5421 030A                                u5261 01DB  
                              u5181 00E6                                u4621 126C  
                              u4605 1250                                u4701 0DEF  
                              u6037 1D3A                                u4285 0844  
                              u4381 1FDD                                u4365 1FC6  
                              u4550 1CE9                                u3750 077F  
                              u3670 0736                                u3590 06A9  
                              u5430 031A                                u5350 02BF  
                              u5262 01E2                                u5182 00ED  
                              u4630 1297                                u4622 126D  
                              u4606 1251                                u5510 138D  
                              u4710 0E09                                u4470 1E6B  
                              _INTF 0059                                u4551 1CE8  
                              u3751 077E                                u3671 0735  
                              u3655 0711                                u3591 06A8  
                              u5351 02BE                                u5335 029D  
                              u5271 0206                                u5263 01E9  
                              u5255 01B7                                u5191 0102  
                              u5183 00F4                                u4631 1296  
                              u4623 1272                                u5511 138C  
                              u4711 0E08                                u4471 1E6A  
                              u6047 1D4A                                u4295 0850  
                              u4560 1CF0                                u3760 0791  
                              u5440 0337                                u5272 020D  
                              u5192 0109                                u4624 1273  
                              u5600 13F2                                u4800 0E8A  
                              u4720 0E0D                                u4640 0DB5  
                              u4480 1E87                                u4561 1CEF  
                              u3761 0790                                u5441 0336  
                              u5345 02B4                                u5281 0231  
                              u5273 0214                                u5193 0110  
                              u4625 1278                                u5601 13F1  
                              u5505 137F                                u4801 0E89  
                              u4721 0E0C                                u4641 0DB4  
                              u4481 1E86                                u6057 1C5A  
                              u4385 1FDA                                u3770 07A0  
                              u3690 0745                                u5450 0351  
                              u5370 02D3                                u5290 0259  
                              u5282 0238                                u4626 1279  
                              u4570 120D                                u5530 13AF  
                              u4810 0E8F                                u4730 0E47  
                              u4650 0DBB                                u4490 1EA1  
                              u5610 10E1                                u6067 112C  
                              u3691 0744                                u5451 0350  
                              u5435 0315                                u5371 02D2  
                              u5283 023F                                u4635 1293  
                              u4571 120C                                u5531 13AE  
                              u4811 0E8E                                u4731 0E46  
                              u4651 0DBA                                u4491 1EA0  
                              u5611 10E0                                u4395 1FE5  
                              u3780 07BD                                u5460 036D  
                              u5380 02D8                                u4580 1229  
                              u4900 0F32                                u4740 0E52  
                              u4660 0DC0                                u5700 089C  
                              u6077 113B                                u3781 07BC  
                              u3685 073A                                u5461 036C  
                              u5445 0333                                u5381 02D7  
                              u5365 02C2                                u4581 1228  
                              u5525 13A1                                u4901 0F31  
                              u4821 0EA1                                u4741 0E50  
                              u4661 0DBF                                u5701 089B  
                              u3790 07DA                                u5390 02EC  
                              u4590 1235                                u5550 13BF  
                              u5470 134A                                u4910 0F57  
                              u4830 0EB3                                u4822 0EA8  
                              u4750 0E53                                u4670 0DDC  
                              u5710 08B5                                u6087 1149  
                              u3791 07D9                                u3775 079B  
                              u5455 034D                                u5391 02EB  
                              u5295 0254                                u4591 1234  
                              u5551 13BE                                u5471 1349  
                              u4911 0F56                                u4831 0EB2  
                              u4823 0EAF                                u4735 0E43  
                              u4671 0DDB                                u4495 1E9D  
                              u5711 08B4                                u5560 13C5  
                              u5480 134E                                u4920 0F5C  
                              u4840 0EB7                                u4760 0E63  
                              u4680 0DE5                                u5720 08D4  
                              u5800 1E08                                u6097 1CAB  
                              u3785 07B9                                u5561 13C4  
                              u5545 13B4                                u5481 134D  
                              u4921 0F5B                                u4841 0EB6  
                              u4761 0E62                                u4681 0DE4  
                              u5721 08D3                                u5625 1D2A  
                              u5801 1E07                                u5570 13C9  
                              u5490 136E                                u4850 0EC4  
                              u4770 0E70                                u4690 0DEB  
                              u5650 1673                                u5810 16A7  
                              u5730 0915                                u3795 07D6  
                              u5571 13C8                                u5491 136D  
                              u4851 0EC3                                u4771 0E6F  
                              u4691 0DEA                                u5651 1672  
                              u5635 15AB                                u5811 16A6  
                              u5731 0914                                u5580 13DE  
                              u4940 0F72                                u5820 16E1  
                              u5660 14E9                                u5900 0D7A  
                              u5740 1E11                                u4941 0F71  
                              u5645 15E4                                u5821 16E0  
                              u5661 14E8                                u5901 0D79  
                              u5741 1E10                    ?_verificaBtnMais 0070  
                              u5590 13EE                                u4950 0F77  
                              u4870 0EE9                                u4790 0E86  
                              u5670 1522                                u5830 0B9A  
                              u5910 098A                                u5591 13ED  
                              u4951 0F76                                u4935 0F67  
                              u4871 0EE8                                u4791 0E85  
                              u5671 1521                                u5831 0B99  
                              u5911 0989                                u4960 0F81  
                              u5680 1540                                u5840 0BC0  
                              u5920 09A5                                u5760 1E36  
                              u5585 13D9                                u4961 0F80  
                              u4881 0F00                                u4873 0EE5  
                              u4865 0EC7                                u4785 0E73  
                              u5681 153F                                u5841 0BBF  
                              u5921 09A4                                u5761 1E35  
                              u4970 0F87                                u4890 0F14  
                              u4882 0F01                                u5690 1561  
                              u5850 0BEC                                u5930 09DF  
                              u4971 0F86                                u4891 0F15  
                              u4883 0F06                                u5691 1560  
                              u5851 0BEB                                u5931 09DE  
                              u5755 1E17                                u4980 0F8C  
                              u4892 0F1A                                u4884 0F07  
                              u5860 0C19                                u5940 0A05  
                              u5780 1DD2                                u4981 0F8B  
                              u4893 0F1B                                u4885 0F0C  
                              u5685 153C                                u5861 0C17  
                              u5941 0A04                                u4990 0F92  
                              u4886 0F0D                                u5870 0C1A  
                              u5950 0A73                                u5790 1DF6  
                              u4991 0F91                                u5951 0A72  
                              u5775 1E3C                                u5880 0C22  
                              u5960 0B58                                u5881 0C21  
                              u5961 0B57                                u5890 0D51  
                              u5970 1406                                u5891 0D50  
                              u5971 1405                                u5980 1438  
                              u5981 1437                                u5990 1474  
                              u5991 1473                                u5985 1434  
                       main@leitura 01E2                   ?_Lcd_Write_String 0077  
                              _main 129B                                btemp 007E  
                              exp@x 00EB                                log@x 00A9  
                              pow@x 0197                                pow@y 019B  
                              start 000C                  ??_Lcd_Write_String 0020  
                   ___fldiv@new_exp 00CF                     __end_of_Lcd_Cmd 1CB4  
           intToASCIIinCustomBase@i 002C             intToASCIIinCustomBase@j 002E  
                             ??_exp 007A                               ??_log 007A  
                             ??_pow 007A                     ??_configPWMRegs 0072  
            main@luminosidade_atual 01E4                     _handleSetupMenu 1CB4  
                     ___fltol@sign1 00DF                     __end_of___fladd 1000  
                             ?_main 0070                     __end_of___fldiv 07FC  
                   __end_of___awdiv 0877                     __end_of___flneg 1C48  
                   __end_of___awmod 2000                     __end_of___flmul 0380  
                   __end_of___flsub 1EF5                     __end_of___fltol 11F7  
                   ___awdiv@divisor 0072                               i1l136 1C93  
                   ___awdiv@counter 0076                   ?_verificaBtnMenos 0070  
                             _TRISB 0086                               _TRISC 0087  
                             _TRISD 0088                  ??_verificaBtnMenos 0072  
                             _log10 1F4E                               _floor 0877  
                             _ldexp 14C0                               _frexp 10C6  
                             _errno 0110                               pclath 000A  
                             pow@yi 01A8                               status 0003  
                             wtemp0 007E                         exp@exponent 0194  
                  __end_of_Lcd_Init 117F                    __end_of_Lcd_Port 1CF4  
                       ldexp@newexp 00AD             ?_intToASCIIinCustomBase 0020  
                   __initialization 000F                        ?_interrupcao 0070  
                       log@exponent 006E                        __end_of_main 1342  
                            ??_main 007A                              ?_log10 00AD  
                            ?_floor 00E1                              ?_ldexp 00A9  
                            ?_frexp 0032                              _ADRESH 001E  
                            _ADRESL 009E                              _CCPR1L 0015  
                  ___awdiv@dividend 0074                              i1l2031 1C8E  
                            i1l2033 1C92                              i1l2025 1C81  
                            i1l2027 1C85                              i1l2029 1C8B  
                            u223_20 1C85                              u223_21 1C84  
                            u224_20 1C8B                              u224_21 1C8A  
                         ??_Lcd_Cmd 0073                              _TMR2ON 0092  
            main@texto_luminosidade 01CE                    __end_of___xxtofl 13FC  
    __end_of_intToASCIIinCustomBase 14C0             __end_of_handleSetupMenu 1CD2  
                            ___flge 11F7                              ___fleq 1E55  
                         ??___fladd 005B                           ??___fldiv 00C5  
                         ??___awdiv 0076                           ??___flneg 0076  
                         ??___awmod 0076                           ??___flmul 0041  
                         ??___flsub 007A                           ??___fltol 00DB  
       ?_converteLeituraAnParaVolts 00D7                    ___awdiv@quotient 0078  
                            log10@x 00AD                     ___awmod@divisor 0072  
                   ___awmod@counter 0076                              floor@i 00E5  
                            floor@x 00E1                              saved_w 007E  
                  _configIntExterns 1C36                     Lcd_Set_Cursor@a 0020  
                   Lcd_Set_Cursor@b 0076                     Lcd_Set_Cursor@y 0022  
                   Lcd_Set_Cursor@z 0021                          ___flge@ff1 0072  
                        ___flge@ff2 0076                        ___xxtofl@arg 0022  
                  __end_ofexp@coeff 1038                        ___xxtofl@exp 0021  
                      ___xxtofl@val 0072                          ___fleq@ff1 0026  
                        ___fleq@ff2 002A                    __end_oflog@coeff 105C  
           __end_of__initialization 0037                          ___flneg@f1 0072  
 converteLeituraAnParaVolts@leitura 00D7                   __end_of_Lcd_Clear 1C55  
                      eval_poly@res 00A5                          ___fltol@f1 00D7  
                    __pcstackCOMMON 0070                        __pidataBANK2 07FC  
                      __pidataBANK3 07FE                       __end_of_log10 1FA7  
                     __end_of_floor 0960                       __end_of_ldexp 15A4  
                     __end_of_frexp 1122                      _Lcd_Set_Cursor 1E09  
                    _OPTION_REGbits 0081                           ?_Lcd_Init 0070  
                         ?_Lcd_Port 0070                             ??_log10 007A  
         converteVoltsParaLux@l_ldr 01B0                             ??_floor 007A  
                           ??_ldexp 006E                             ??_frexp 0037  
         converteVoltsParaLux@r_ldr 01C8           converteVoltsParaLux@v_ldr 01AC  
                        _log10$1075 00B1                          __pbssBANK2 0110  
                        __pbssBANK3 01E7          intToASCIIinCustomBase@base 0023  
        intToASCIIinCustomBase@temp 0027                   __end_of__Umul8_16 1D1D  
                        __pmaintext 129B                    ?_handleSetupMenu 0070  
                           ?___flge 0072                             ?___fleq 0026  
                        __pintentry 0004                             _CCP1CON 0017  
            __end_of_Lcd_Set_Cursor 1E55                           ?___xxtofl 0072  
                        ??_Lcd_Init 0076                          ??_Lcd_Port 0072  
                        __stringtab 1000                      _Lcd_Write_Char 1D1D  
                           _Lcd_Cmd 1C9A                          _escreveLCD 1D50  
                 __end_of_configADC 1C81                             ___fladd 0DA8  
                           ___fldiv 062D                             ___awdiv 0810  
                           ___flneg 1C3D                             ___awmod 1FA7  
                           ___flmul 003B                             ___flsub 1EA5  
                           ___fltol 117F                   __end_of_eval_poly 168C  
                   ?_Lcd_Set_Cursor 0076               __end_of_configPWMRegs 0810  
                           __ptext1 13FC                             __ptext2 1FA7  
                           __ptext3 0810                             __ptext4 1CB4  
                           __ptext5 1089                             __ptext6 1D87  
                           __ptext7 1D50                             __ptext8 1DC3  
                           __ptext9 1D1D                          _menu_ativo 007A  
                        ??___xxtofl 0076                    ___awmod@dividend 0074  
            __end_of_Lcd_Write_Char 1D50                end_of_initialization 0037  
                           exp@sign 0196                     _porcentagem_PWM 0114  
                           pow@sign 01A7               _luminosidade_desejada 01E9  
          __end_of_configIntExterns 1C3D                      main@texto_menu 01E6  
                         Lcd_Port@a 0072                           _PORTBbits 0006  
                         _PORTDbits 0008                        _btn_mais_aux 01E7  
                       ___fladd@grs 0066                       ___xxtofl@sign 0020  
                     ??_getValorADC 0074                         ___fldiv@grs 00D1  
                       ___fldiv@rem 00CA                     ?_Lcd_Write_Char 0070  
                 Lcd_Write_String@a 0077                   Lcd_Write_String@i 0023  
                       ___flmul@grs 0048                         ?_escreveLCD 0025  
      __end_of_converteVoltsParaLux 062D                           _Lcd_Clear 1C48  
                    __end_of___flge 129B                      __end_of___fleq 1EA5  
                  _Lcd_Write_String 1DC3                   ??_verificaBtnMais 0072  
                        floor@expon 00E9                 start_initialization 000F  
                        eval_poly@d 006B                          eval_poly@n 006C  
                        eval_poly@x 0067                          ldexp@value 00A9  
                       __end_of_exp 0DA8                         __end_of_log 1800  
                       __end_of_pow 0B71                 __end_of_getValorADC 1C6A  
                        frexp@value 0032                    _verificaBtnMenos 1089  
                        ?_Lcd_Clear 0070                            ??___flge 0020  
                          ??___fleq 002E                           __Umul8_16 1CF4  
                       __pdataBANK2 0114                         __pdataBANK3 01E9  
                   Lcd_Write_Char@a 0076                     Lcd_Write_Char@y 0075  
                         ___fladd@a 0057                           ___fladd@b 0053  
                         ___fldiv@a 00BD                           ___fldiv@b 00C1  
                         ___flmul@a 003D                           ___flmul@b 0039  
                       __pbssCOMMON 007A                           ___flsub@a 00B5  
                         ___flsub@b 00B9                           ___latbits 0002  
                     __pcstackBANK0 0020                       __pcstackBANK1 00A0  
                     __pcstackBANK3 0190            ??_intToASCIIinCustomBase 0025  
       intToASCIIinCustomBase@resto 002A                            ?_Lcd_Cmd 0070  
                     ??_interrupcao 0070                    ??_Lcd_Set_Cursor 0077  
                          ?___fladd 0053                            ?___fldiv 00BD  
                          ?___awdiv 0072                            ?___flneg 0072  
                          ?___awmod 0072                            ?___flmul 0039  
                          ?___flsub 00B5                            ?___fltol 00D7  
                        ?__Umul8_16 0072                           _configADC 1C6A  
                         __pstrings 1000     intToASCIIinCustomBase@resultado 0022  
              _converteVoltsParaLux 0380                           _eval_poly 15A4  
                       _getValorADC 1C55                   interrupt_function 0004  
                          Lcd_Cmd@a 0075                         ??_Lcd_Clear 0076  
                 ?_configIntExterns 0070                          ?_configADC 0070  
                ??_configIntExterns 0072        ??_converteLeituraAnParaVolts 007A  
               __end_of_interrupcao 1C9A                          _ADCON0bits 001F  
                       __stringbase 100F                          _ADCON1bits 009F  
                  escreveLCD@linha1 0079                    escreveLCD@linha2 0025  
             ?_converteVoltsParaLux 01AC                    ??_Lcd_Write_Char 0073  
                        ?_eval_poly 0067                           main@v_ldr 01DE  
                          _Lcd_Init 1122                            _Lcd_Port 1CD2  
          __end_of_Lcd_Write_String 1E09          _intToASCIIinCustomBase$285 0028  
                      ??_escreveLCD 0027                           frexp@eptr 0036  
                   _verificaBtnMais 1D87           _converteVoltsParaLux$1070 01B4  
         _converteVoltsParaLux$1071 01B8           _converteVoltsParaLux$1072 01BC  
         _converteVoltsParaLux$1073 01C0           _converteVoltsParaLux$1074 01C4  
                       ??__Umul8_16 0074                  __end_of__stringtab 1010  
          __end_of_verificaBtnMenos 10C6                            _exp$1078 0190  
                          ___xxtofl 1342                  __end_of_escreveLCD 1D87  
                          __ptext10 1E09                            __ptext11 1C48  
                          __ptext20 1C3D                            __ptext12 1C55  
                          __ptext21 1F4E                            __ptext13 0380  
                          __ptext30 003B                            __ptext22 168C  
                          __ptext14 0960                            __ptext31 1CF4  
                          __ptext23 10C6                            __ptext15 0B71  
                          __ptext32 062D                            __ptext24 1E55  
                          __ptext16 14C0                            __ptext33 0802  
                          __ptext25 15A4                            __ptext17 0877  
                          __ptext34 1C36                            __ptext26 0DA8  
                          __ptext18 117F                            __ptext35 1C6A  
                          __ptext27 1342                            __ptext19 1EA5  
                          __ptext36 1122                            __ptext28 11F7  
                          __ptext37 1C9A                            __ptext29 1EF5  
                          __ptext38 1CD2                            __ptext39 1C81  
                 ??_handleSetupMenu 007A                            _pow$1076 019F  
                          _pow$1077 01A3                         _interrupcao 1C81  
            _intToASCIIinCustomBase 13FC                         ??_configADC 0072  
      intToASCIIinCustomBase@indice 0030              ??_converteVoltsParaLux 007A  
      intToASCIIinCustomBase@numero 0020                            exp@coeff 1010  
                          log@coeff 1038                       _configPWMRegs 0802  
                        _INTCONbits 000B                         ??_eval_poly 00A0  
                Lcd_Write_Char@temp 0074             __end_of_verificaBtnMais 1DC3  
                          intlevel1 0000               converteVoltsParaLux@b 01CA  
                         stringcode 100A  __end_of_converteLeituraAnParaVolts 1F4E  
        _converteLeituraAnParaVolts 1EF5                  Lcd_Set_Cursor@temp 0023  
                    ?_configPWMRegs 0070              __Umul8_16@multiplicand 0072  
                          stringdir 100A                            stringtab 1000  
                      ?_getValorADC 0072                       ___fladd@signs 0063  
                      ___fladd@aexp 0064                        ___fladd@bexp 0065  
              __Umul8_16@multiplier 0024                   __Umul8_16@product 0020  
                     _btn_menos_aux 0112  
