

Microchip MPLAB XC8 Assembler V2.35 build 20211206165544 
                                                                                               Tue Jun 27 12:31:07 2023

Microchip MPLAB XC8 C Compiler v2.35 (Free license) build 20211206165544 Og1 
     1                           	processor	16F877A
     2                           	pagewidth 120
     3                           	opt	flic
     4                           	psect	idataCOMMON,global,class=CODE,delta=2,noexec
     5                           	psect	idataBANK0,global,class=CODE,delta=2,noexec
     6                           	psect	idataBANK1,global,class=CODE,delta=2,noexec
     7                           	psect	strings,global,class=STRING,delta=2,noexec
     8                           	psect	cinit,global,class=CODE,merge=1,delta=2
     9                           	psect	bssCOMMON,global,class=COMMON,space=1,delta=1,noexec
    10                           	psect	dataCOMMON,global,class=COMMON,space=1,delta=1,noexec
    11                           	psect	bssBANK0,global,class=BANK0,space=1,delta=1,noexec
    12                           	psect	dataBANK0,global,class=BANK0,space=1,delta=1,noexec
    13                           	psect	bssBANK1,global,class=BANK1,space=1,delta=1,noexec
    14                           	psect	dataBANK1,global,class=BANK1,space=1,delta=1,noexec
    15                           	psect	cstackBANK1,global,class=BANK1,space=1,delta=1,noexec
    16                           	psect	cstackCOMMON,global,class=COMMON,space=1,delta=1,noexec
    17                           	psect	cstackBANK0,global,class=BANK0,space=1,delta=1,noexec
    18                           	psect	maintext,global,class=CODE,split=1,delta=2
    19                           	psect	text1,local,class=CODE,merge=1,delta=2
    20                           	psect	text2,local,class=CODE,merge=1,delta=2
    21                           	psect	text3,local,class=CODE,merge=1,delta=2
    22                           	psect	text4,local,class=CODE,merge=1,delta=2
    23                           	psect	text5,local,class=CODE,merge=1,delta=2,group=1
    24                           	psect	text6,local,class=CODE,merge=1,delta=2
    25                           	psect	text7,local,class=CODE,merge=1,delta=2
    26                           	psect	text8,local,class=CODE,merge=1,delta=2
    27                           	psect	text9,local,class=CODE,merge=1,delta=2
    28                           	psect	text10,local,class=CODE,merge=1,delta=2
    29                           	psect	text11,local,class=CODE,merge=1,delta=2
    30                           	psect	text12,local,class=CODE,merge=1,delta=2
    31                           	psect	text13,local,class=CODE,merge=1,delta=2,group=1
    32                           	psect	text14,local,class=CODE,merge=1,delta=2,group=1
    33                           	psect	text15,local,class=CODE,merge=1,delta=2
    34                           	psect	text16,local,class=CODE,merge=1,delta=2,group=1
    35                           	psect	text17,local,class=CODE,merge=1,delta=2,group=1
    36                           	psect	text18,local,class=CODE,merge=1,delta=2,group=1
    37                           	psect	text19,local,class=CODE,merge=1,delta=2
    38                           	psect	text20,local,class=CODE,merge=1,delta=2
    39                           	psect	text21,local,class=CODE,merge=1,delta=2
    40                           	psect	text22,local,class=CODE,merge=1,delta=2
    41                           	psect	text23,local,class=CODE,merge=1,delta=2
    42                           	psect	text24,local,class=CODE,merge=1,delta=2
    43                           	psect	text25,local,class=CODE,merge=1,delta=2,group=1
    44                           	psect	text26,local,class=CODE,merge=1,delta=2,group=1
    45                           	psect	text27,local,class=CODE,merge=1,delta=2
    46                           	psect	text28,local,class=CODE,merge=1,delta=2
    47                           	psect	text29,local,class=CODE,merge=1,delta=2
    48                           	psect	text30,local,class=CODE,merge=1,delta=2
    49                           	psect	intentry,global,class=CODE,delta=2
    50                           	psect	text31,local,class=CODE,merge=1,delta=2
    51                           	psect	text32,local,class=CODE,merge=1,delta=2
    52                           	psect	text33,local,class=CODE,merge=1,delta=2
    53                           	psect	idloc,global,abs,ovrld,class=IDLOC,space=5,delta=2,noexec
    54                           	psect	config,global,abs,ovrld,class=CONFIG,space=4,delta=2,noexec
    55                           	dabs	1,0x7E,2
    56  0000                     
    57                           ; Version 2.35
    58                           ; Generated 06/12/2021 GMT
    59                           ; 
    60                           ; Copyright © 2021, Microchip Technology Inc. and its subsidiaries ("Microchip")
    61                           ; All rights reserved.
    62                           ; 
    63                           ; This software is developed by Microchip Technology Inc. and its subsidiaries ("Microch
      +                          ip").
    64                           ; 
    65                           ; Redistribution and use in source and binary forms, with or without modification, are
    66                           ; permitted provided that the following conditions are met:
    67                           ; 
    68                           ;     1. Redistributions of source code must retain the above copyright notice, this lis
      +                          t of
    69                           ;        conditions and the following disclaimer.
    70                           ; 
    71                           ;     2. Redistributions in binary form must reproduce the above copyright notice, this 
      +                          list
    72                           ;        of conditions and the following disclaimer in the documentation and/or other
    73                           ;        materials provided with the distribution. Publication is not required when
    74                           ;        this file is used in an embedded application.
    75                           ; 
    76                           ;     3. Microchip's name may not be used to endorse or promote products derived from th
      +                          is
    77                           ;        software without specific prior written permission.
    78                           ; 
    79                           ; THIS SOFTWARE IS PROVIDED BY MICROCHIP "AS IS" AND ANY EXPRESS OR IMPLIED WARRANTIES,
    80                           ; INCLUDING, BUT NOT LIMITED TO, THE IMPLIED WARRANTIES OF MERCHANTABILITY AND FITNESS F
      +                          OR
    81                           ; PURPOSE ARE DISCLAIMED.  IN NO EVENT SHALL MICROCHIP BE LIABLE FOR ANY DIRECT, INDIREC
      +                          T,
    82                           ; INCIDENTAL, SPECIAL, EXEMPLARY, OR CONSEQUENTIAL DAMAGES (INCLUDING BUT NOT LIMITED TO
    83                           ; PROCUREMENT OF SUBSTITUTE GOODS OR SERVICES; LOSS OF USE, DATA OR PROFITS; OR BUSINESS
    84                           ; INTERRUPTION) HOWSOEVER CAUSED AND ON ANY THEORY OF LIABILITY, WHETHER IN CONTRACT, ST
      +                          RICT
    85                           ; LIABILITY, OR TORT (INCLUDING NEGLIGENCE OR OTHERWISE) ARISING IN ANY WAY OUT OF THE U
      +                          SE OF
    86                           ; THIS SOFTWARE, EVEN IF ADVISED OF THE POSSIBILITY OF SUCH DAMAGE.
    87                           ; 
    88                           ; 
    89                           ; Code-generator required, PIC16F877A Definitions
    90                           ; 
    91                           ; SFR Addresses
    92  0000                     	;# 
    93  0001                     	;# 
    94  0002                     	;# 
    95  0003                     	;# 
    96  0004                     	;# 
    97  0005                     	;# 
    98  0006                     	;# 
    99  0007                     	;# 
   100  0008                     	;# 
   101  0009                     	;# 
   102  000A                     	;# 
   103  000B                     	;# 
   104  000C                     	;# 
   105  000D                     	;# 
   106  000E                     	;# 
   107  000E                     	;# 
   108  000F                     	;# 
   109  0010                     	;# 
   110  0011                     	;# 
   111  0012                     	;# 
   112  0013                     	;# 
   113  0014                     	;# 
   114  0015                     	;# 
   115  0015                     	;# 
   116  0016                     	;# 
   117  0017                     	;# 
   118  0018                     	;# 
   119  0019                     	;# 
   120  001A                     	;# 
   121  001B                     	;# 
   122  001B                     	;# 
   123  001C                     	;# 
   124  001D                     	;# 
   125  001E                     	;# 
   126  001F                     	;# 
   127  0081                     	;# 
   128  0085                     	;# 
   129  0086                     	;# 
   130  0087                     	;# 
   131  0088                     	;# 
   132  0089                     	;# 
   133  008C                     	;# 
   134  008D                     	;# 
   135  008E                     	;# 
   136  0091                     	;# 
   137  0092                     	;# 
   138  0093                     	;# 
   139  0094                     	;# 
   140  0098                     	;# 
   141  0099                     	;# 
   142  009C                     	;# 
   143  009D                     	;# 
   144  009E                     	;# 
   145  009F                     	;# 
   146  010C                     	;# 
   147  010D                     	;# 
   148  010E                     	;# 
   149  010F                     	;# 
   150  018C                     	;# 
   151  018D                     	;# 
   152  0000                     	;# 
   153  0001                     	;# 
   154  0002                     	;# 
   155  0003                     	;# 
   156  0004                     	;# 
   157  0005                     	;# 
   158  0006                     	;# 
   159  0007                     	;# 
   160  0008                     	;# 
   161  0009                     	;# 
   162  000A                     	;# 
   163  000B                     	;# 
   164  000C                     	;# 
   165  000D                     	;# 
   166  000E                     	;# 
   167  000E                     	;# 
   168  000F                     	;# 
   169  0010                     	;# 
   170  0011                     	;# 
   171  0012                     	;# 
   172  0013                     	;# 
   173  0014                     	;# 
   174  0015                     	;# 
   175  0015                     	;# 
   176  0016                     	;# 
   177  0017                     	;# 
   178  0018                     	;# 
   179  0019                     	;# 
   180  001A                     	;# 
   181  001B                     	;# 
   182  001B                     	;# 
   183  001C                     	;# 
   184  001D                     	;# 
   185  001E                     	;# 
   186  001F                     	;# 
   187  0081                     	;# 
   188  0085                     	;# 
   189  0086                     	;# 
   190  0087                     	;# 
   191  0088                     	;# 
   192  0089                     	;# 
   193  008C                     	;# 
   194  008D                     	;# 
   195  008E                     	;# 
   196  0091                     	;# 
   197  0092                     	;# 
   198  0093                     	;# 
   199  0094                     	;# 
   200  0098                     	;# 
   201  0099                     	;# 
   202  009C                     	;# 
   203  009D                     	;# 
   204  009E                     	;# 
   205  009F                     	;# 
   206  010C                     	;# 
   207  010D                     	;# 
   208  010E                     	;# 
   209  010F                     	;# 
   210  018C                     	;# 
   211  018D                     	;# 
   212                           
   213                           	psect	idataCOMMON
   214  082B                     __pidataCOMMON:
   215                           
   216                           ;initializer for _margem_erro_lux
   217  082B  340A               	retlw	10
   218  082C  3400               	retlw	0
   219                           
   220                           	psect	idataBANK0
   221  1743                     __pidataBANK0:
   222                           
   223                           ;initializer for _luminosidade_desejada
   224  1743  3490               	retlw	144
   225  1744  3401               	retlw	1
   226                           
   227                           	psect	idataBANK1
   228  1741                     __pidataBANK1:
   229                           
   230                           ;initializer for _porcentagem_PWM
   231  1741  3432               	retlw	50
   232  1742  3400               	retlw	0
   233  0010                     _T1CONbits	set	16
   234  000E                     _TMR1L	set	14
   235  000F                     _TMR1H	set	15
   236  000C                     _PIR1bits	set	12
   237  000B                     _INTCONbits	set	11
   238  0006                     _PORTBbits	set	6
   239  0015                     _CCPR1L	set	21
   240  0017                     _CCP1CON	set	23
   241  0007                     _PORTCbits	set	7
   242  001E                     _ADRESH	set	30
   243  001F                     _ADCON0bits	set	31
   244  0008                     _PORTDbits	set	8
   245  0060                     _TMR1IF	set	96
   246  0059                     _INTF	set	89
   247  0092                     _TMR2ON	set	146
   248  0088                     _TRISD	set	136
   249  0086                     _TRISB	set	134
   250  0087                     _TRISC	set	135
   251  008C                     _PIE1bits	set	140
   252  0081                     _OPTION_REGbits	set	129
   253  0092                     _PR2	set	146
   254  009E                     _ADRESL	set	158
   255  009F                     _ADCON1bits	set	159
   256                           
   257                           	psect	strings
   258  0800                     __pstrings:
   259  0800                     stringtab:
   260  0800                     __stringtab:
   261                           
   262                           ;	String table - string pointers are 1 byte each
   263  0800  1BFF               	btfsc	btemp+1,7
   264  0801  280A               	ljmp	stringcode
   265  0802  1383               	bcf	3,7
   266  0803  187F               	btfsc	btemp+1,0
   267  0804  1783               	bsf	3,7
   268  0805  0800               	movf	0,w
   269  0806  0A84               	incf	4,f
   270  0807  1903               	skipnz
   271  0808  0AFF               	incf	btemp+1,f
   272  0809  0008               	return
   273  080A                     stringcode:
   274  080A                     stringdir:
   275  080A  3008               	movlw	high stringdir
   276  080B  008A               	movwf	10
   277  080C  0804               	movf	4,w
   278  080D  0A84               	incf	4,f
   279  080E  0782               	addwf	2,f
   280  080F                     __stringbase:
   281  080F  3400               	retlw	0
   282  0810                     __end_of__stringtab:
   283  0810                     STR_1:
   284  0810  344D               	retlw	77	;'M'
   285  0811  3445               	retlw	69	;'E'
   286  0812  344E               	retlw	78	;'N'
   287  0813  3455               	retlw	85	;'U'
   288  0814  3420               	retlw	32	;' '
   289  0815  342D               	retlw	45	;'-'
   290  0816  3420               	retlw	32	;' '
   291  0817  344F               	retlw	79	;'O'
   292  0818  3442               	retlw	66	;'B'
   293  0819  344A               	retlw	74	;'J'
   294  081A  3445               	retlw	69	;'E'
   295  081B  3454               	retlw	84	;'T'
   296  081C  3449               	retlw	73	;'I'
   297  081D  3456               	retlw	86	;'V'
   298  081E  344F               	retlw	79	;'O'
   299  081F  3400               	retlw	0
   300  0820                     STR_2:
   301  0820  344C               	retlw	76	;'L'
   302  0821  3455               	retlw	85	;'U'
   303  0822  3458               	retlw	88	;'X'
   304  0823  3420               	retlw	32	;' '
   305  0824  3441               	retlw	65	;'A'
   306  0825  3454               	retlw	84	;'T'
   307  0826  3455               	retlw	85	;'U'
   308  0827  3441               	retlw	65	;'A'
   309  0828  344C               	retlw	76	;'L'
   310  0829  343A               	retlw	58	;':'
   311  082A  3400               	retlw	0
   312                           
   313                           	psect	cinit
   314  0011                     start_initialization:	
   315                           ; #config settings
   316                           
   317  0011                     __initialization:
   318                           
   319                           ; Initialize objects allocated to BANK1
   320  0011  1683               	bsf	3,5	;RP0=1, select bank1
   321  0012  1303               	bcf	3,6	;RP1=0, select bank1
   322  0013  160A  118A  2741  120A  118A  	fcall	__pidataBANK1	;fetch initializer
   323  0018  00B9               	movwf	__pdataBANK1& (0+127)
   324  0019  160A  118A  2742  120A  118A  	fcall	__pidataBANK1+1	;fetch initializer
   325  001E  00BA               	movwf	(__pdataBANK1+1)& (0+127)
   326                           
   327                           ; Initialize objects allocated to BANK0
   328  001F  1283               	bcf	3,5	;RP0=0, select bank0
   329  0020  1303               	bcf	3,6	;RP1=0, select bank0
   330  0021  160A  118A  2743  120A  118A  	fcall	__pidataBANK0	;fetch initializer
   331  0026  00EA               	movwf	__pdataBANK0& (0+127)
   332  0027  160A  118A  2744  120A  118A  	fcall	__pidataBANK0+1	;fetch initializer
   333  002C  00EB               	movwf	(__pdataBANK0+1)& (0+127)
   334                           
   335                           ; Initialize objects allocated to COMMON
   336  002D  120A  158A  202B  120A  118A  	fcall	__pidataCOMMON	;fetch initializer
   337  0032  00FA               	movwf	__pdataCOMMON& (0+127)
   338  0033  120A  158A  202C  120A  118A  	fcall	__pidataCOMMON+1	;fetch initializer
   339  0038  00FB               	movwf	(__pdataCOMMON+1)& (0+127)
   340                           
   341                           ; Clear objects allocated to BANK1
   342  0039  1683               	bsf	3,5	;RP0=1, select bank1
   343  003A  1303               	bcf	3,6	;RP1=0, select bank1
   344  003B  01B7               	clrf	__pbssBANK1& (0+127)
   345  003C  01B8               	clrf	(__pbssBANK1+1)& (0+127)
   346                           
   347                           ; Clear objects allocated to BANK0
   348  003D  1283               	bcf	3,5	;RP0=0, select bank0
   349  003E  1303               	bcf	3,6	;RP1=0, select bank0
   350  003F  01E8               	clrf	__pbssBANK0& (0+127)
   351  0040  01E9               	clrf	(__pbssBANK0+1)& (0+127)
   352                           
   353                           ; Clear objects allocated to COMMON
   354  0041  01F6               	clrf	__pbssCOMMON& (0+127)
   355  0042  01F7               	clrf	(__pbssCOMMON+1)& (0+127)
   356  0043  01F8               	clrf	(__pbssCOMMON+2)& (0+127)
   357  0044  01F9               	clrf	(__pbssCOMMON+3)& (0+127)
   358  0045                     end_of_initialization:	
   359                           ;End of C runtime variable initialization code
   360                           
   361  0045                     __end_of__initialization:
   362  0045  0183               	clrf	3
   363  0046  120A  118A  2E32   	ljmp	_main	;jump to C main() function
   364                           
   365                           	psect	bssCOMMON
   366  0076                     __pbssCOMMON:
   367  0076                     _btn_menos_aux:
   368  0076                     	ds	2
   369  0078                     _btn_mais_aux:
   370  0078                     	ds	2
   371                           
   372                           	psect	dataCOMMON
   373  007A                     __pdataCOMMON:
   374  007A                     _margem_erro_lux:
   375  007A                     	ds	2
   376                           
   377                           	psect	bssBANK0
   378  0068                     __pbssBANK0:
   379  0068                     _menu_ativo:
   380  0068                     	ds	2
   381                           
   382                           	psect	dataBANK0
   383  006A                     __pdataBANK0:
   384  006A                     _luminosidade_desejada:
   385  006A                     	ds	2
   386                           
   387                           	psect	bssBANK1
   388  00B7                     __pbssBANK1:
   389  00B7                     _luminosidade_atual:
   390  00B7                     	ds	2
   391                           
   392                           	psect	dataBANK1
   393  00B9                     __pdataBANK1:
   394  00B9                     _porcentagem_PWM:
   395  00B9                     	ds	2
   396                           
   397                           	psect	cstackBANK1
   398  00A0                     __pcstackBANK1:
   399  00A0                     main@texto_luminosidade:
   400                           
   401                           ; 16 bytes @ 0x0
   402  00A0                     	ds	16
   403  00B0                     main@v_ldr:
   404                           
   405                           ; 4 bytes @ 0x10
   406  00B0                     	ds	4
   407  00B4                     main@leitura:
   408                           
   409                           ; 2 bytes @ 0x14
   410  00B4                     	ds	2
   411  00B6                     main@texto_menu:
   412                           
   413                           ; 1 bytes @ 0x16
   414  00B6                     	ds	1
   415                           
   416                           	psect	cstackCOMMON
   417  0070                     __pcstackCOMMON:
   418  0070                     ?_Lcd_Port:
   419  0070                     ?_Lcd_Cmd:	
   420                           ; 1 bytes @ 0x0
   421                           
   422  0070                     ?_Lcd_Clear:	
   423                           ; 1 bytes @ 0x0
   424                           
   425  0070                     ?_Lcd_Init:	
   426                           ; 1 bytes @ 0x0
   427                           
   428  0070                     ?_Lcd_Write_Char:	
   429                           ; 1 bytes @ 0x0
   430                           
   431  0070                     ?_configADC:	
   432                           ; 1 bytes @ 0x0
   433                           
   434  0070                     ?_configPWMRegs:	
   435                           ; 1 bytes @ 0x0
   436                           
   437  0070                     ?_verificaBtnMais:	
   438                           ; 1 bytes @ 0x0
   439                           
   440  0070                     ?_verificaBtnMenos:	
   441                           ; 1 bytes @ 0x0
   442                           
   443  0070                     ?_verificaInterrupcaoExterna:	
   444                           ; 1 bytes @ 0x0
   445                           
   446  0070                     ??_verificaInterrupcaoExterna:	
   447                           ; 1 bytes @ 0x0
   448                           
   449  0070                     ?_ajustaPWM:	
   450                           ; 1 bytes @ 0x0
   451                           
   452  0070                     ??_ajustaPWM:	
   453                           ; 1 bytes @ 0x0
   454                           
   455  0070                     ?_verificaInterrupcaoTimer:	
   456                           ; 1 bytes @ 0x0
   457                           
   458  0070                     ?_interrupcao:	
   459                           ; 1 bytes @ 0x0
   460                           
   461  0070                     ?_handleSetupMenu:	
   462                           ; 1 bytes @ 0x0
   463                           
   464  0070                     ?_configIntExterns:	
   465                           ; 1 bytes @ 0x0
   466                           
   467  0070                     ?_configTimer:	
   468                           ; 1 bytes @ 0x0
   469                           
   470  0070                     ?_configWatchdogTimer:	
   471                           ; 1 bytes @ 0x0
   472                           
   473  0070                     ?_main:	
   474                           ; 1 bytes @ 0x0
   475                           
   476                           
   477                           ; 1 bytes @ 0x0
   478  0070                     	ds	3
   479  0073                     ??_verificaInterrupcaoTimer:
   480  0073                     ??_interrupcao:	
   481                           ; 1 bytes @ 0x3
   482                           
   483                           
   484                           ; 1 bytes @ 0x3
   485  0073                     	ds	3
   486                           
   487                           	psect	cstackBANK0
   488  0020                     __pcstackBANK0:
   489  0020                     ??_Lcd_Port:
   490  0020                     ??_configADC:	
   491                           ; 1 bytes @ 0x0
   492                           
   493  0020                     ??_configPWMRegs:	
   494                           ; 1 bytes @ 0x0
   495                           
   496  0020                     ??_verificaBtnMais:	
   497                           ; 1 bytes @ 0x0
   498                           
   499  0020                     ??_verificaBtnMenos:	
   500                           ; 1 bytes @ 0x0
   501                           
   502  0020                     ??_configIntExterns:	
   503                           ; 1 bytes @ 0x0
   504                           
   505  0020                     ??_configTimer:	
   506                           ; 1 bytes @ 0x0
   507                           
   508  0020                     ??_configWatchdogTimer:	
   509                           ; 1 bytes @ 0x0
   510                           
   511  0020                     ?__Umul8_16:	
   512                           ; 1 bytes @ 0x0
   513                           
   514  0020                     ?_getValorADC:	
   515                           ; 2 bytes @ 0x0
   516                           
   517  0020                     ?___awdiv:	
   518                           ; 2 bytes @ 0x0
   519                           
   520  0020                     ?___awmod:	
   521                           ; 2 bytes @ 0x0
   522                           
   523  0020                     ?___fltol:	
   524                           ; 2 bytes @ 0x0
   525                           
   526  0020                     ?___xxtofl:	
   527                           ; 4 bytes @ 0x0
   528                           
   529  0020                     Lcd_Port@a:	
   530                           ; 4 bytes @ 0x0
   531                           
   532  0020                     __Umul8_16@multiplicand:	
   533                           ; 1 bytes @ 0x0
   534                           
   535  0020                     ___awdiv@divisor:	
   536                           ; 1 bytes @ 0x0
   537                           
   538  0020                     ___awmod@divisor:	
   539                           ; 2 bytes @ 0x0
   540                           
   541  0020                     ___fltol@f1:	
   542                           ; 2 bytes @ 0x0
   543                           
   544  0020                     ___xxtofl@val:	
   545                           ; 4 bytes @ 0x0
   546                           
   547                           
   548                           ; 4 bytes @ 0x0
   549  0020                     	ds	1
   550  0021                     ??_Lcd_Cmd:
   551  0021                     ??_Lcd_Write_Char:	
   552                           ; 1 bytes @ 0x1
   553                           
   554                           
   555                           ; 1 bytes @ 0x1
   556  0021                     	ds	1
   557  0022                     ??__Umul8_16:
   558  0022                     ??_getValorADC:	
   559                           ; 1 bytes @ 0x2
   560                           
   561  0022                     Lcd_Write_Char@temp:	
   562                           ; 1 bytes @ 0x2
   563                           
   564  0022                     ___awdiv@dividend:	
   565                           ; 1 bytes @ 0x2
   566                           
   567  0022                     ___awmod@dividend:	
   568                           ; 2 bytes @ 0x2
   569                           
   570                           
   571                           ; 2 bytes @ 0x2
   572  0022                     	ds	1
   573  0023                     Lcd_Cmd@a:
   574  0023                     Lcd_Write_Char@y:	
   575                           ; 1 bytes @ 0x3
   576                           
   577                           
   578                           ; 1 bytes @ 0x3
   579  0023                     	ds	1
   580  0024                     ??_Lcd_Clear:
   581  0024                     ?_Lcd_Set_Cursor:	
   582                           ; 1 bytes @ 0x4
   583                           
   584  0024                     ??_Lcd_Init:	
   585                           ; 1 bytes @ 0x4
   586                           
   587  0024                     ??___awdiv:	
   588                           ; 1 bytes @ 0x4
   589                           
   590  0024                     ??___awmod:	
   591                           ; 1 bytes @ 0x4
   592                           
   593  0024                     ??___fltol:	
   594                           ; 1 bytes @ 0x4
   595                           
   596  0024                     ??___xxtofl:	
   597                           ; 1 bytes @ 0x4
   598                           
   599  0024                     Lcd_Set_Cursor@b:	
   600                           ; 1 bytes @ 0x4
   601                           
   602  0024                     Lcd_Write_Char@a:	
   603                           ; 1 bytes @ 0x4
   604                           
   605  0024                     getValorADC@valor:	
   606                           ; 1 bytes @ 0x4
   607                           
   608  0024                     __Umul8_16@product:	
   609                           ; 2 bytes @ 0x4
   610                           
   611                           
   612                           ; 2 bytes @ 0x4
   613  0024                     	ds	1
   614  0025                     ??_Lcd_Set_Cursor:
   615  0025                     ?_Lcd_Write_String:	
   616                           ; 1 bytes @ 0x5
   617                           
   618  0025                     ___awdiv@counter:	
   619                           ; 1 bytes @ 0x5
   620                           
   621  0025                     ___awmod@counter:	
   622                           ; 1 bytes @ 0x5
   623                           
   624  0025                     Lcd_Write_String@a:	
   625                           ; 1 bytes @ 0x5
   626                           
   627                           
   628                           ; 2 bytes @ 0x5
   629  0025                     	ds	1
   630  0026                     ___awdiv@sign:
   631  0026                     ___awmod@sign:	
   632                           ; 1 bytes @ 0x6
   633                           
   634  0026                     __Umul8_16@word_mpld:	
   635                           ; 1 bytes @ 0x6
   636                           
   637                           
   638                           ; 2 bytes @ 0x6
   639  0026                     	ds	1
   640  0027                     ??_Lcd_Write_String:
   641  0027                     Lcd_Set_Cursor@a:	
   642                           ; 1 bytes @ 0x7
   643                           
   644  0027                     ___awdiv@quotient:	
   645                           ; 1 bytes @ 0x7
   646                           
   647                           
   648                           ; 2 bytes @ 0x7
   649  0027                     	ds	1
   650  0028                     Lcd_Set_Cursor@z:
   651  0028                     __Umul8_16@multiplier:	
   652                           ; 1 bytes @ 0x8
   653                           
   654  0028                     ___xxtofl@sign:	
   655                           ; 1 bytes @ 0x8
   656                           
   657                           
   658                           ; 1 bytes @ 0x8
   659  0028                     	ds	1
   660  0029                     ?_atualizarLeds:
   661  0029                     ?_intToASCIIinCustomBase:	
   662                           ; 1 bytes @ 0x9
   663                           
   664  0029                     ?___flmul:	
   665                           ; 1 bytes @ 0x9
   666                           
   667  0029                     Lcd_Set_Cursor@y:	
   668                           ; 4 bytes @ 0x9
   669                           
   670  0029                     ___fltol@sign1:	
   671                           ; 1 bytes @ 0x9
   672                           
   673  0029                     ___xxtofl@exp:	
   674                           ; 1 bytes @ 0x9
   675                           
   676  0029                     atualizarLeds@porcentagem:	
   677                           ; 1 bytes @ 0x9
   678                           
   679  0029                     intToASCIIinCustomBase@numero:	
   680                           ; 2 bytes @ 0x9
   681                           
   682  0029                     ___flmul@b:	
   683                           ; 2 bytes @ 0x9
   684                           
   685                           
   686                           ; 4 bytes @ 0x9
   687  0029                     	ds	1
   688  002A                     Lcd_Set_Cursor@temp:
   689  002A                     ___fltol@exp1:	
   690                           ; 1 bytes @ 0xA
   691                           
   692  002A                     Lcd_Write_String@i:	
   693                           ; 1 bytes @ 0xA
   694                           
   695  002A                     ___xxtofl@arg:	
   696                           ; 2 bytes @ 0xA
   697                           
   698                           
   699                           ; 4 bytes @ 0xA
   700  002A                     	ds	1
   701  002B                     ??_atualizarLeds:
   702  002B                     intToASCIIinCustomBase@resultado:	
   703                           ; 1 bytes @ 0xB
   704                           
   705                           
   706                           ; 1 bytes @ 0xB
   707  002B                     	ds	1
   708  002C                     ?_escreveLCD:
   709  002C                     escreveLCD@linha2:	
   710                           ; 1 bytes @ 0xC
   711                           
   712  002C                     intToASCIIinCustomBase@base:	
   713                           ; 1 bytes @ 0xC
   714                           
   715                           
   716                           ; 2 bytes @ 0xC
   717  002C                     	ds	1
   718  002D                     ??_escreveLCD:
   719  002D                     atualizarLeds@numLEDsAcesos:	
   720                           ; 1 bytes @ 0xD
   721                           
   722  002D                     ___flmul@a:	
   723                           ; 2 bytes @ 0xD
   724                           
   725                           
   726                           ; 4 bytes @ 0xD
   727  002D                     	ds	1
   728  002E                     ??_intToASCIIinCustomBase:
   729                           
   730                           ; 1 bytes @ 0xE
   731  002E                     	ds	1
   732  002F                     escreveLCD@linha1:
   733                           
   734                           ; 1 bytes @ 0xF
   735  002F                     	ds	2
   736  0031                     ??___flmul:
   737  0031                     intToASCIIinCustomBase@temp:	
   738                           ; 1 bytes @ 0x11
   739                           
   740                           
   741                           ; 1 bytes @ 0x11
   742  0031                     	ds	1
   743  0032                     _intToASCIIinCustomBase$388:
   744                           
   745                           ; 2 bytes @ 0x12
   746  0032                     	ds	2
   747  0034                     intToASCIIinCustomBase@resto:
   748                           
   749                           ; 2 bytes @ 0x14
   750  0034                     	ds	2
   751  0036                     ___flmul@sign:
   752  0036                     intToASCIIinCustomBase@i:	
   753                           ; 1 bytes @ 0x16
   754                           
   755                           
   756                           ; 2 bytes @ 0x16
   757  0036                     	ds	1
   758  0037                     ___flmul@aexp:
   759                           
   760                           ; 1 bytes @ 0x17
   761  0037                     	ds	1
   762  0038                     intToASCIIinCustomBase@j:
   763  0038                     ___flmul@grs:	
   764                           ; 2 bytes @ 0x18
   765                           
   766                           
   767                           ; 4 bytes @ 0x18
   768  0038                     	ds	2
   769  003A                     intToASCIIinCustomBase@indice:
   770                           
   771                           ; 2 bytes @ 0x1A
   772  003A                     	ds	2
   773  003C                     ??_handleSetupMenu:
   774  003C                     ___flmul@bexp:	
   775                           ; 1 bytes @ 0x1C
   776                           
   777                           
   778                           ; 1 bytes @ 0x1C
   779  003C                     	ds	1
   780  003D                     ___flmul@prod:
   781  003D                     handleSetupMenu@texto_luminosidade_desejada:	
   782                           ; 4 bytes @ 0x1D
   783                           
   784                           
   785                           ; 16 bytes @ 0x1D
   786  003D                     	ds	4
   787  0041                     ___flmul@temp:
   788                           
   789                           ; 2 bytes @ 0x21
   790  0041                     	ds	2
   791  0043                     ?___fladd:
   792  0043                     ?___fldiv:	
   793                           ; 4 bytes @ 0x23
   794                           
   795  0043                     ___fladd@b:	
   796                           ; 4 bytes @ 0x23
   797                           
   798  0043                     ___fldiv@a:	
   799                           ; 4 bytes @ 0x23
   800                           
   801                           
   802                           ; 4 bytes @ 0x23
   803  0043                     	ds	4
   804  0047                     ___fladd@a:
   805  0047                     ___fldiv@b:	
   806                           ; 4 bytes @ 0x27
   807                           
   808                           
   809                           ; 4 bytes @ 0x27
   810  0047                     	ds	4
   811  004B                     ??___fladd:
   812  004B                     ??___fldiv:	
   813                           ; 1 bytes @ 0x2B
   814                           
   815                           
   816                           ; 1 bytes @ 0x2B
   817  004B                     	ds	5
   818  0050                     ___fldiv@rem:
   819                           
   820                           ; 4 bytes @ 0x30
   821  0050                     	ds	3
   822  0053                     ___fladd@signs:
   823                           
   824                           ; 1 bytes @ 0x33
   825  0053                     	ds	1
   826  0054                     ___fladd@aexp:
   827  0054                     ___fldiv@sign:	
   828                           ; 1 bytes @ 0x34
   829                           
   830                           
   831                           ; 1 bytes @ 0x34
   832  0054                     	ds	1
   833  0055                     ___fladd@bexp:
   834  0055                     ___fldiv@new_exp:	
   835                           ; 1 bytes @ 0x35
   836                           
   837                           
   838                           ; 2 bytes @ 0x35
   839  0055                     	ds	1
   840  0056                     ___fladd@grs:
   841                           
   842                           ; 1 bytes @ 0x36
   843  0056                     	ds	1
   844  0057                     ?_converteVoltsParaLux:
   845  0057                     converteVoltsParaLux@v_ldr:	
   846                           ; 2 bytes @ 0x37
   847                           
   848  0057                     ___fldiv@grs:	
   849                           ; 4 bytes @ 0x37
   850                           
   851                           
   852                           ; 4 bytes @ 0x37
   853  0057                     	ds	4
   854  005B                     ??_converteVoltsParaLux:
   855  005B                     ___fldiv@bexp:	
   856                           ; 1 bytes @ 0x3B
   857                           
   858  005B                     converteVoltsParaLux@a:	
   859                           ; 1 bytes @ 0x3B
   860                           
   861                           
   862                           ; 4 bytes @ 0x3B
   863  005B                     	ds	1
   864  005C                     ___fldiv@aexp:
   865                           
   866                           ; 1 bytes @ 0x3C
   867  005C                     	ds	1
   868  005D                     ?_converteLeituraAnParaVolts:
   869  005D                     converteLeituraAnParaVolts@leitura:	
   870                           ; 4 bytes @ 0x3D
   871                           
   872                           
   873                           ; 4 bytes @ 0x3D
   874  005D                     	ds	2
   875  005F                     converteVoltsParaLux@b:
   876                           
   877                           ; 4 bytes @ 0x3F
   878  005F                     	ds	2
   879  0061                     ??_converteLeituraAnParaVolts:
   880                           
   881                           ; 1 bytes @ 0x41
   882  0061                     	ds	2
   883  0063                     converteVoltsParaLux@lux:
   884                           
   885                           ; 4 bytes @ 0x43
   886  0063                     	ds	4
   887  0067                     ??_main:
   888                           
   889                           ; 1 bytes @ 0x47
   890  0067                     	ds	1
   891                           
   892                           	psect	maintext
   893  0632                     __pmaintext:	
   894 ;;
   895 ;;Main: autosize = 0, tempsize = 1, incstack = 0, save=0
   896 ;;
   897 ;; *************** function _main *****************
   898 ;; Defined at:
   899 ;;		line 361 in file "newmain.c"
   900 ;; Parameters:    Size  Location     Type
   901 ;;		None
   902 ;; Auto vars:     Size  Location     Type
   903 ;;  texto_lumino   16    0[BANK1 ] unsigned char [16]
   904 ;;  v_ldr           4   16[BANK1 ] float 
   905 ;;  leitura         2   20[BANK1 ] int 
   906 ;;  texto_menu      1   22[BANK1 ] PTR unsigned char 
   907 ;;		 -> STR_2(11), 
   908 ;; Return value:  Size  Location     Type
   909 ;;                  1    wreg      void 
   910 ;; Registers used:
   911 ;;		wreg, fsr0l, fsr0h, status,2, status,0, btemp+1, pclath, cstack
   912 ;; Tracked objects:
   913 ;;		On entry : B00/0
   914 ;;		On exit  : 0/0
   915 ;;		Unchanged: 0/0
   916 ;; Data sizes:     COMMON   BANK0   BANK1   BANK3   BANK2
   917 ;;      Params:         0       0       0       0       0
   918 ;;      Locals:         0       0      23       0       0
   919 ;;      Temps:          0       1       0       0       0
   920 ;;      Totals:         0       1      23       0       0
   921 ;;Total ram usage:       24 bytes
   922 ;; Hardware stack levels required when called: 8
   923 ;; This function calls:
   924 ;;		_Lcd_Init
   925 ;;		___xxtofl
   926 ;;		_atualizarLeds
   927 ;;		_configADC
   928 ;;		_configIntExterns
   929 ;;		_configPWMRegs
   930 ;;		_configTimer
   931 ;;		_configWatchdogTimer
   932 ;;		_converteLeituraAnParaVolts
   933 ;;		_converteVoltsParaLux
   934 ;;		_escreveLCD
   935 ;;		_getValorADC
   936 ;;		_handleSetupMenu
   937 ;;		_intToASCIIinCustomBase
   938 ;; This function is called by:
   939 ;;		Startup code after reset
   940 ;; This function uses a non-reentrant model
   941 ;;
   942                           
   943  0632                     _main:	
   944                           ;psect for function _main
   945                           
   946  0632                     l3336:	
   947                           ;incstack = 0
   948                           ; Regs used in _main: [wreg-fsr0h+status,2+status,0+btemp+1+pclath+cstack]
   949                           
   950                           
   951                           ;newmain.c: 363:     TRISC = 0x00;
   952  0632  1683               	bsf	3,5	;RP0=1, select bank1
   953  0633  1303               	bcf	3,6	;RP1=0, select bank1
   954  0634  0187               	clrf	7	;volatile
   955  0635                     l3338:
   956                           
   957                           ;newmain.c: 365:     OPTION_REGbits.INTEDG = 1;
   958  0635  1701               	bsf	1,6	;volatile
   959  0636                     l3340:
   960                           
   961                           ;newmain.c: 366:     TRISB = 0b00000111;
   962  0636  3007               	movlw	7
   963  0637  0086               	movwf	6	;volatile
   964  0638                     l3342:
   965                           
   966                           ;newmain.c: 368:     configADC();
   967  0638  120A  158A  202D  120A  118A  	fcall	_configADC
   968  063D                     l3344:
   969                           
   970                           ;newmain.c: 369:     configPWMRegs();
   971  063D  160A  118A  2761  120A  118A  	fcall	_configPWMRegs
   972  0642                     l3346:
   973                           
   974                           ;newmain.c: 370:     PORTCbits.RC0 = 0;
   975  0642  1283               	bcf	3,5	;RP0=0, select bank0
   976  0643  1303               	bcf	3,6	;RP1=0, select bank0
   977  0644  1007               	bcf	7,0	;volatile
   978  0645                     l3348:
   979                           
   980                           ;newmain.c: 371:     PORTBbits.RB7 = 0;
   981  0645  1386               	bcf	6,7	;volatile
   982                           
   983                           ;newmain.c: 373:     TRISD = 0;
   984  0646  1683               	bsf	3,5	;RP0=1, select bank1
   985  0647  1303               	bcf	3,6	;RP1=0, select bank1
   986  0648  0188               	clrf	8	;volatile
   987  0649                     l3350:
   988                           
   989                           ;newmain.c: 374:     Lcd_Init();
   990  0649  120A  158A  22F8  120A  118A  	fcall	_Lcd_Init
   991  064E                     l3352:
   992                           
   993                           ;newmain.c: 376:     char* texto_menu;;newmain.c: 378:     texto_menu = "LUX ATUAL:";
   994  064E  3011               	movlw	(low ((STR_2-__stringbase)| (0+32768)))& (0+255)
   995  064F  1283               	bcf	3,5	;RP0=0, select bank0
   996  0650  1303               	bcf	3,6	;RP1=0, select bank0
   997  0651  00E7               	movwf	??_main
   998  0652  0867               	movf	??_main,w
   999  0653  1683               	bsf	3,5	;RP0=1, select bank1
  1000  0654  1303               	bcf	3,6	;RP1=0, select bank1
  1001  0655  00B6               	movwf	main@texto_menu^(0+128)
  1002  0656                     l3354:
  1003                           
  1004                           ;newmain.c: 381:     configIntExterns();
  1005  0656  160A  118A  2745  120A  118A  	fcall	_configIntExterns
  1006  065B                     l3356:
  1007                           
  1008                           ;newmain.c: 382:     configWatchdogTimer();
  1009  065B  160A  118A  274C  120A  118A  	fcall	_configWatchdogTimer
  1010  0660                     l3358:
  1011                           
  1012                           ;newmain.c: 383:     configTimer();
  1013  0660  160A  118A  276F  120A  118A  	fcall	_configTimer
  1014  0665                     l3360:
  1015                           
  1016                           ;newmain.c: 385:     {;newmain.c: 386:         int leitura = getValorADC();
  1017  0665  120A  118A  27E7  120A  118A  	fcall	_getValorADC
  1018  066A  1283               	bcf	3,5	;RP0=0, select bank0
  1019  066B  1303               	bcf	3,6	;RP1=0, select bank0
  1020  066C  0821               	movf	?_getValorADC+1,w
  1021  066D  1683               	bsf	3,5	;RP0=1, select bank1
  1022  066E  1303               	bcf	3,6	;RP1=0, select bank1
  1023  066F  00B5               	movwf	(main@leitura+1)^(0+128)
  1024  0670  1283               	bcf	3,5	;RP0=0, select bank0
  1025  0671  1303               	bcf	3,6	;RP1=0, select bank0
  1026  0672  0820               	movf	?_getValorADC,w
  1027  0673  1683               	bsf	3,5	;RP0=1, select bank1
  1028  0674  1303               	bcf	3,6	;RP1=0, select bank1
  1029  0675  00B4               	movwf	main@leitura^(0+128)
  1030  0676                     l3362:
  1031                           
  1032                           ;newmain.c: 387:         float v_ldr = converteLeituraAnParaVolts(leitura);
  1033  0676  0834               	movf	main@leitura^(0+128),w
  1034  0677  1283               	bcf	3,5	;RP0=0, select bank0
  1035  0678  1303               	bcf	3,6	;RP1=0, select bank0
  1036  0679  00A0               	movwf	___xxtofl@val
  1037  067A  1683               	bsf	3,5	;RP0=1, select bank1
  1038  067B  1303               	bcf	3,6	;RP1=0, select bank1
  1039  067C  0835               	movf	(main@leitura+1)^(0+128),w
  1040  067D  1283               	bcf	3,5	;RP0=0, select bank0
  1041  067E  1303               	bcf	3,6	;RP1=0, select bank0
  1042  067F  00A1               	movwf	___xxtofl@val+1
  1043  0680  3000               	movlw	0
  1044  0681  1BA1               	btfsc	___xxtofl@val+1,7
  1045  0682  30FF               	movlw	255
  1046  0683  00A2               	movwf	___xxtofl@val+2
  1047  0684  00A3               	movwf	___xxtofl@val+3
  1048  0685  3001               	movlw	1
  1049  0686  120A  158A  2567  120A  118A  	fcall	___xxtofl
  1050  068B  1283               	bcf	3,5	;RP0=0, select bank0
  1051  068C  1303               	bcf	3,6	;RP1=0, select bank0
  1052  068D  0823               	movf	?___xxtofl+3,w
  1053  068E  00E0               	movwf	converteLeituraAnParaVolts@leitura+3
  1054  068F  0822               	movf	?___xxtofl+2,w
  1055  0690  00DF               	movwf	converteLeituraAnParaVolts@leitura+2
  1056  0691  0821               	movf	?___xxtofl+1,w
  1057  0692  00DE               	movwf	converteLeituraAnParaVolts@leitura+1
  1058  0693  0820               	movf	?___xxtofl,w
  1059  0694  00DD               	movwf	converteLeituraAnParaVolts@leitura
  1060  0695  120A  158A  20ED  120A  118A  	fcall	_converteLeituraAnParaVolts
  1061  069A  1283               	bcf	3,5	;RP0=0, select bank0
  1062  069B  1303               	bcf	3,6	;RP1=0, select bank0
  1063  069C  0860               	movf	?_converteLeituraAnParaVolts+3,w
  1064  069D  1683               	bsf	3,5	;RP0=1, select bank1
  1065  069E  1303               	bcf	3,6	;RP1=0, select bank1
  1066  069F  00B3               	movwf	(main@v_ldr+3)^(0+128)
  1067  06A0  1283               	bcf	3,5	;RP0=0, select bank0
  1068  06A1  1303               	bcf	3,6	;RP1=0, select bank0
  1069  06A2  085F               	movf	?_converteLeituraAnParaVolts+2,w
  1070  06A3  1683               	bsf	3,5	;RP0=1, select bank1
  1071  06A4  1303               	bcf	3,6	;RP1=0, select bank1
  1072  06A5  00B2               	movwf	(main@v_ldr+2)^(0+128)
  1073  06A6  1283               	bcf	3,5	;RP0=0, select bank0
  1074  06A7  1303               	bcf	3,6	;RP1=0, select bank0
  1075  06A8  085E               	movf	?_converteLeituraAnParaVolts+1,w
  1076  06A9  1683               	bsf	3,5	;RP0=1, select bank1
  1077  06AA  1303               	bcf	3,6	;RP1=0, select bank1
  1078  06AB  00B1               	movwf	(main@v_ldr+1)^(0+128)
  1079  06AC  1283               	bcf	3,5	;RP0=0, select bank0
  1080  06AD  1303               	bcf	3,6	;RP1=0, select bank0
  1081  06AE  085D               	movf	?_converteLeituraAnParaVolts,w
  1082  06AF  1683               	bsf	3,5	;RP0=1, select bank1
  1083  06B0  1303               	bcf	3,6	;RP1=0, select bank1
  1084  06B1  00B0               	movwf	main@v_ldr^(0+128)
  1085  06B2                     l3364:
  1086                           
  1087                           ;newmain.c: 388:         luminosidade_atual = converteVoltsParaLux(v_ldr);
  1088  06B2  0833               	movf	(main@v_ldr+3)^(0+128),w
  1089  06B3  1283               	bcf	3,5	;RP0=0, select bank0
  1090  06B4  1303               	bcf	3,6	;RP1=0, select bank0
  1091  06B5  00DA               	movwf	converteVoltsParaLux@v_ldr+3
  1092  06B6  1683               	bsf	3,5	;RP0=1, select bank1
  1093  06B7  1303               	bcf	3,6	;RP1=0, select bank1
  1094  06B8  0832               	movf	(main@v_ldr+2)^(0+128),w
  1095  06B9  1283               	bcf	3,5	;RP0=0, select bank0
  1096  06BA  1303               	bcf	3,6	;RP1=0, select bank0
  1097  06BB  00D9               	movwf	converteVoltsParaLux@v_ldr+2
  1098  06BC  1683               	bsf	3,5	;RP0=1, select bank1
  1099  06BD  1303               	bcf	3,6	;RP1=0, select bank1
  1100  06BE  0831               	movf	(main@v_ldr+1)^(0+128),w
  1101  06BF  1283               	bcf	3,5	;RP0=0, select bank0
  1102  06C0  1303               	bcf	3,6	;RP1=0, select bank0
  1103  06C1  00D8               	movwf	converteVoltsParaLux@v_ldr+1
  1104  06C2  1683               	bsf	3,5	;RP0=1, select bank1
  1105  06C3  1303               	bcf	3,6	;RP1=0, select bank1
  1106  06C4  0830               	movf	main@v_ldr^(0+128),w
  1107  06C5  1283               	bcf	3,5	;RP0=0, select bank0
  1108  06C6  1303               	bcf	3,6	;RP1=0, select bank0
  1109  06C7  00D7               	movwf	converteVoltsParaLux@v_ldr
  1110  06C8  120A  158A  229C  120A  118A  	fcall	_converteVoltsParaLux
  1111  06CD  1283               	bcf	3,5	;RP0=0, select bank0
  1112  06CE  1303               	bcf	3,6	;RP1=0, select bank0
  1113  06CF  0858               	movf	?_converteVoltsParaLux+1,w
  1114  06D0  1683               	bsf	3,5	;RP0=1, select bank1
  1115  06D1  1303               	bcf	3,6	;RP1=0, select bank1
  1116  06D2  00B8               	movwf	(_luminosidade_atual+1)^(0+128)
  1117  06D3  1283               	bcf	3,5	;RP0=0, select bank0
  1118  06D4  1303               	bcf	3,6	;RP1=0, select bank0
  1119  06D5  0857               	movf	?_converteVoltsParaLux,w
  1120  06D6  1683               	bsf	3,5	;RP0=1, select bank1
  1121  06D7  1303               	bcf	3,6	;RP1=0, select bank1
  1122  06D8  00B7               	movwf	_luminosidade_atual^(0+128)
  1123  06D9                     l3366:
  1124                           
  1125                           ;newmain.c: 390:         handleSetupMenu();
  1126  06D9  120A  158A  20BB  120A  118A  	fcall	_handleSetupMenu
  1127  06DE                     l3368:
  1128                           
  1129                           ;newmain.c: 392:         char texto_luminosidade [16];;newmain.c: 393:         intToASCI
      +                          IinCustomBase (luminosidade_atual , texto_luminosidade, 10);
  1130  06DE  1683               	bsf	3,5	;RP0=1, select bank1
  1131  06DF  1303               	bcf	3,6	;RP1=0, select bank1
  1132  06E0  0838               	movf	(_luminosidade_atual+1)^(0+128),w
  1133  06E1  1283               	bcf	3,5	;RP0=0, select bank0
  1134  06E2  1303               	bcf	3,6	;RP1=0, select bank0
  1135  06E3  00AA               	movwf	intToASCIIinCustomBase@numero+1
  1136  06E4  1683               	bsf	3,5	;RP0=1, select bank1
  1137  06E5  1303               	bcf	3,6	;RP1=0, select bank1
  1138  06E6  0837               	movf	_luminosidade_atual^(0+128),w
  1139  06E7  1283               	bcf	3,5	;RP0=0, select bank0
  1140  06E8  1303               	bcf	3,6	;RP1=0, select bank0
  1141  06E9  00A9               	movwf	intToASCIIinCustomBase@numero
  1142  06EA  30A0               	movlw	(low (main@texto_luminosidade| 0))& (0+255)
  1143  06EB  00E7               	movwf	??_main
  1144  06EC  0867               	movf	??_main,w
  1145  06ED  00AB               	movwf	intToASCIIinCustomBase@resultado
  1146  06EE  300A               	movlw	10
  1147  06EF  00AC               	movwf	intToASCIIinCustomBase@base
  1148  06F0  3000               	movlw	0
  1149  06F1  00AD               	movwf	intToASCIIinCustomBase@base+1
  1150  06F2  120A  118A  271B  120A  118A  	fcall	_intToASCIIinCustomBase
  1151  06F7                     l3370:
  1152                           
  1153                           ;newmain.c: 395:         escreveLCD(texto_menu, texto_luminosidade);
  1154  06F7  30A0               	movlw	(low (main@texto_luminosidade| 0))& (0+255)
  1155  06F8  1283               	bcf	3,5	;RP0=0, select bank0
  1156  06F9  1303               	bcf	3,6	;RP1=0, select bank0
  1157  06FA  00E7               	movwf	??_main
  1158  06FB  0867               	movf	??_main,w
  1159  06FC  00AC               	movwf	escreveLCD@linha2
  1160  06FD  1683               	bsf	3,5	;RP0=1, select bank1
  1161  06FE  1303               	bcf	3,6	;RP1=0, select bank1
  1162  06FF  0836               	movf	main@texto_menu^(0+128),w
  1163  0700  120A  158A  2163  120A  118A  	fcall	_escreveLCD
  1164  0705                     l3372:
  1165                           
  1166                           ;newmain.c: 398:         atualizarLeds(porcentagem_PWM);
  1167  0705  1683               	bsf	3,5	;RP0=1, select bank1
  1168  0706  1303               	bcf	3,6	;RP1=0, select bank1
  1169  0707  083A               	movf	(_porcentagem_PWM+1)^(0+128),w
  1170  0708  1283               	bcf	3,5	;RP0=0, select bank0
  1171  0709  1303               	bcf	3,6	;RP1=0, select bank0
  1172  070A  00AA               	movwf	atualizarLeds@porcentagem+1
  1173  070B  1683               	bsf	3,5	;RP0=1, select bank1
  1174  070C  1303               	bcf	3,6	;RP1=0, select bank1
  1175  070D  0839               	movf	_porcentagem_PWM^(0+128),w
  1176  070E  1283               	bcf	3,5	;RP0=0, select bank0
  1177  070F  1303               	bcf	3,6	;RP1=0, select bank0
  1178  0710  00A9               	movwf	atualizarLeds@porcentagem
  1179  0711  120A  158A  24AE  120A  118A  	fcall	_atualizarLeds
  1180  0716  0064               	clrwdt	;# 
  1181  0717  2E65               	goto	l3360
  1182  0718  120A  118A  280E   	ljmp	start
  1183  071B                     __end_of_main:
  1184                           
  1185                           	psect	text1
  1186  08BB                     __ptext1:	
  1187 ;; *************** function _handleSetupMenu *****************
  1188 ;; Defined at:
  1189 ;;		line 280 in file "newmain.c"
  1190 ;; Parameters:    Size  Location     Type
  1191 ;;		None
  1192 ;; Auto vars:     Size  Location     Type
  1193 ;;  texto_lumino   16   29[BANK0 ] unsigned char [16]
  1194 ;; Return value:  Size  Location     Type
  1195 ;;                  1    wreg      void 
  1196 ;; Registers used:
  1197 ;;		wreg, fsr0l, fsr0h, status,2, status,0, btemp+1, pclath, cstack
  1198 ;; Tracked objects:
  1199 ;;		On entry : 0/0
  1200 ;;		On exit  : 0/0
  1201 ;;		Unchanged: 0/0
  1202 ;; Data sizes:     COMMON   BANK0   BANK1   BANK3   BANK2
  1203 ;;      Params:         0       0       0       0       0
  1204 ;;      Locals:         0      16       0       0       0
  1205 ;;      Temps:          0       1       0       0       0
  1206 ;;      Totals:         0      17       0       0       0
  1207 ;;Total ram usage:       17 bytes
  1208 ;; Hardware stack levels used: 1
  1209 ;; Hardware stack levels required when called: 7
  1210 ;; This function calls:
  1211 ;;		_escreveLCD
  1212 ;;		_intToASCIIinCustomBase
  1213 ;;		_verificaBtnMais
  1214 ;;		_verificaBtnMenos
  1215 ;; This function is called by:
  1216 ;;		_main
  1217 ;; This function uses a non-reentrant model
  1218 ;;
  1219                           
  1220  08BB                     _handleSetupMenu:	
  1221                           ;psect for function _handleSetupMenu
  1222                           
  1223  08BB                     l3298:	
  1224                           ;incstack = 0
  1225                           ; Regs used in _handleSetupMenu: [wreg-fsr0h+status,2+status,0+btemp+1+pclath+cstack]
  1226                           
  1227                           
  1228                           ;newmain.c: 284:     while (PORTBbits.RB7)
  1229  08BB  28E5               	goto	l3306
  1230  08BC                     l3300:
  1231                           
  1232                           ;newmain.c: 285:     {;newmain.c: 286:         verificaBtnMais();
  1233  08BC  120A  158A  2044  120A  158A  	fcall	_verificaBtnMais
  1234                           
  1235                           ;newmain.c: 287:         verificaBtnMenos();
  1236  08C1  120A  158A  206B  120A  158A  	fcall	_verificaBtnMenos
  1237  08C6                     l3302:
  1238                           
  1239                           ;newmain.c: 288:         char texto_luminosidade_desejada [16];;newmain.c: 289:         
      +                          intToASCIIinCustomBase (luminosidade_desejada , texto_luminosidade_desejada, 10);
  1240  08C6  1283               	bcf	3,5	;RP0=0, select bank0
  1241  08C7  1303               	bcf	3,6	;RP1=0, select bank0
  1242  08C8  086B               	movf	_luminosidade_desejada+1,w
  1243  08C9  00AA               	movwf	intToASCIIinCustomBase@numero+1
  1244  08CA  086A               	movf	_luminosidade_desejada,w
  1245  08CB  00A9               	movwf	intToASCIIinCustomBase@numero
  1246  08CC  303D               	movlw	(low (handleSetupMenu@texto_luminosidade_desejada| 0))& (0+255)
  1247  08CD  00BC               	movwf	??_handleSetupMenu
  1248  08CE  083C               	movf	??_handleSetupMenu,w
  1249  08CF  00AB               	movwf	intToASCIIinCustomBase@resultado
  1250  08D0  300A               	movlw	10
  1251  08D1  00AC               	movwf	intToASCIIinCustomBase@base
  1252  08D2  3000               	movlw	0
  1253  08D3  00AD               	movwf	intToASCIIinCustomBase@base+1
  1254  08D4  120A  118A  271B  120A  158A  	fcall	_intToASCIIinCustomBase
  1255  08D9                     l3304:
  1256                           
  1257                           ;newmain.c: 290:         escreveLCD("MENU - OBJETIVO", texto_luminosidade_desejada);
  1258  08D9  303D               	movlw	(low (handleSetupMenu@texto_luminosidade_desejada| 0))& (0+255)
  1259  08DA  1283               	bcf	3,5	;RP0=0, select bank0
  1260  08DB  1303               	bcf	3,6	;RP1=0, select bank0
  1261  08DC  00BC               	movwf	??_handleSetupMenu
  1262  08DD  083C               	movf	??_handleSetupMenu,w
  1263  08DE  00AC               	movwf	escreveLCD@linha2
  1264  08DF  3001               	movlw	(low ((STR_1-__stringbase)| (0+32768)))& (0+255)
  1265  08E0  120A  158A  2163  120A  158A  	fcall	_escreveLCD
  1266  08E5                     l3306:
  1267                           
  1268                           ;newmain.c: 284:     while (PORTBbits.RB7)
  1269  08E5  1283               	bcf	3,5	;RP0=0, select bank0
  1270  08E6  1303               	bcf	3,6	;RP1=0, select bank0
  1271  08E7  1B86               	btfsc	6,7	;volatile
  1272  08E8  28EA               	goto	u4841
  1273  08E9  28EB               	goto	u4840
  1274  08EA                     u4841:
  1275  08EA  28BC               	goto	l3300
  1276  08EB                     u4840:
  1277  08EB                     l180:
  1278                           
  1279                           ;newmain.c: 293:     PORTBbits.RB7 = 0;
  1280  08EB  1386               	bcf	6,7	;volatile
  1281  08EC                     l181:	
  1282                           ;newmain.c: 294:     return;
  1283                           
  1284  08EC  0008               	return
  1285  08ED                     __end_of_handleSetupMenu:
  1286                           
  1287                           	psect	text2
  1288  086B                     __ptext2:	
  1289 ;; *************** function _verificaBtnMenos *****************
  1290 ;; Defined at:
  1291 ;;		line 198 in file "newmain.c"
  1292 ;; Parameters:    Size  Location     Type
  1293 ;;		None
  1294 ;; Auto vars:     Size  Location     Type
  1295 ;;		None
  1296 ;; Return value:  Size  Location     Type
  1297 ;;                  1    wreg      void 
  1298 ;; Registers used:
  1299 ;;		wreg, btemp+1
  1300 ;; Tracked objects:
  1301 ;;		On entry : 0/0
  1302 ;;		On exit  : 0/0
  1303 ;;		Unchanged: 0/0
  1304 ;; Data sizes:     COMMON   BANK0   BANK1   BANK3   BANK2
  1305 ;;      Params:         0       0       0       0       0
  1306 ;;      Locals:         0       0       0       0       0
  1307 ;;      Temps:          0       0       0       0       0
  1308 ;;      Totals:         0       0       0       0       0
  1309 ;;Total ram usage:        0 bytes
  1310 ;; Hardware stack levels used: 1
  1311 ;; Hardware stack levels required when called: 3
  1312 ;; This function calls:
  1313 ;;		Nothing
  1314 ;; This function is called by:
  1315 ;;		_handleSetupMenu
  1316 ;; This function uses a non-reentrant model
  1317 ;;
  1318                           
  1319  086B                     _verificaBtnMenos:	
  1320                           ;psect for function _verificaBtnMenos
  1321                           
  1322  086B                     l3014:	
  1323                           ;incstack = 0
  1324                           ; Regs used in _verificaBtnMenos: [wreg+btemp+1]
  1325                           
  1326                           
  1327                           ;newmain.c: 200:     if(!PORTBbits.RB1){
  1328  086B  1283               	bcf	3,5	;RP0=0, select bank0
  1329  086C  1303               	bcf	3,6	;RP1=0, select bank0
  1330  086D  1886               	btfsc	6,1	;volatile
  1331  086E  2870               	goto	u4271
  1332  086F  2871               	goto	u4270
  1333  0870                     u4271:
  1334  0870  2891               	goto	l149
  1335  0871                     u4270:
  1336  0871                     l3016:
  1337                           
  1338                           ;newmain.c: 201:         btn_menos_aux = 1;
  1339  0871  3001               	movlw	1
  1340  0872  00F6               	movwf	_btn_menos_aux
  1341  0873  3000               	movlw	0
  1342  0874  00F7               	movwf	_btn_menos_aux+1
  1343  0875                     l3018:
  1344                           
  1345                           ;newmain.c: 202:         if(luminosidade_desejada>10){
  1346  0875  086B               	movf	_luminosidade_desejada+1,w
  1347  0876  3A80               	xorlw	128
  1348  0877  00FF               	movwf	btemp+1
  1349  0878  3080               	movlw	128
  1350  0879  027F               	subwf	btemp+1,w
  1351  087A  1D03               	skipz
  1352  087B  287E               	goto	u4285
  1353  087C  300B               	movlw	11
  1354  087D  026A               	subwf	_luminosidade_desejada,w
  1355  087E                     u4285:
  1356  087E  1C03               	skipc
  1357  087F  2881               	goto	u4281
  1358  0880  2882               	goto	u4280
  1359  0881                     u4281:
  1360  0881  288B               	goto	l3022
  1361  0882                     u4280:
  1362  0882                     l3020:
  1363                           
  1364                           ;newmain.c: 203:             luminosidade_desejada-=10;
  1365  0882  30F6               	movlw	246
  1366  0883  1283               	bcf	3,5	;RP0=0, select bank0
  1367  0884  1303               	bcf	3,6	;RP1=0, select bank0
  1368  0885  07EA               	addwf	_luminosidade_desejada,f
  1369  0886  1803               	skipnc
  1370  0887  0AEB               	incf	_luminosidade_desejada+1,f
  1371  0888  30FF               	movlw	255
  1372  0889  07EB               	addwf	_luminosidade_desejada+1,f
  1373                           
  1374                           ;newmain.c: 204:         }
  1375  088A  2891               	goto	l149
  1376  088B                     l3022:
  1377                           
  1378                           ;newmain.c: 206:             luminosidade_desejada = 10;
  1379  088B  300A               	movlw	10
  1380  088C  1283               	bcf	3,5	;RP0=0, select bank0
  1381  088D  1303               	bcf	3,6	;RP1=0, select bank0
  1382  088E  00EA               	movwf	_luminosidade_desejada
  1383  088F  3000               	movlw	0
  1384  0890  00EB               	movwf	_luminosidade_desejada+1
  1385  0891                     l149:
  1386  0891  0008               	return
  1387  0892                     __end_of_verificaBtnMenos:
  1388                           
  1389                           	psect	text3
  1390  0844                     __ptext3:	
  1391 ;; *************** function _verificaBtnMais *****************
  1392 ;; Defined at:
  1393 ;;		line 182 in file "newmain.c"
  1394 ;; Parameters:    Size  Location     Type
  1395 ;;		None
  1396 ;; Auto vars:     Size  Location     Type
  1397 ;;		None
  1398 ;; Return value:  Size  Location     Type
  1399 ;;                  1    wreg      void 
  1400 ;; Registers used:
  1401 ;;		wreg, btemp+1
  1402 ;; Tracked objects:
  1403 ;;		On entry : 0/0
  1404 ;;		On exit  : 0/0
  1405 ;;		Unchanged: 0/0
  1406 ;; Data sizes:     COMMON   BANK0   BANK1   BANK3   BANK2
  1407 ;;      Params:         0       0       0       0       0
  1408 ;;      Locals:         0       0       0       0       0
  1409 ;;      Temps:          0       0       0       0       0
  1410 ;;      Totals:         0       0       0       0       0
  1411 ;;Total ram usage:        0 bytes
  1412 ;; Hardware stack levels used: 1
  1413 ;; Hardware stack levels required when called: 3
  1414 ;; This function calls:
  1415 ;;		Nothing
  1416 ;; This function is called by:
  1417 ;;		_handleSetupMenu
  1418 ;; This function uses a non-reentrant model
  1419 ;;
  1420                           
  1421  0844                     _verificaBtnMais:	
  1422                           ;psect for function _verificaBtnMais
  1423                           
  1424  0844                     l3002:	
  1425                           ;incstack = 0
  1426                           ; Regs used in _verificaBtnMais: [wreg+btemp+1]
  1427                           
  1428                           
  1429                           ;newmain.c: 185:     if(!PORTBbits.RB2){
  1430  0844  1283               	bcf	3,5	;RP0=0, select bank0
  1431  0845  1303               	bcf	3,6	;RP1=0, select bank0
  1432  0846  1906               	btfsc	6,2	;volatile
  1433  0847  2849               	goto	u4251
  1434  0848  284A               	goto	u4250
  1435  0849                     u4251:
  1436  0849  286A               	goto	l143
  1437  084A                     u4250:
  1438  084A                     l3004:
  1439                           
  1440                           ;newmain.c: 186:         btn_mais_aux = 1;
  1441  084A  3001               	movlw	1
  1442  084B  00F8               	movwf	_btn_mais_aux
  1443  084C  3000               	movlw	0
  1444  084D  00F9               	movwf	_btn_mais_aux+1
  1445  084E                     l3006:
  1446                           
  1447                           ;newmain.c: 187:         if(luminosidade_desejada<1000){
  1448  084E  086B               	movf	_luminosidade_desejada+1,w
  1449  084F  3A80               	xorlw	128
  1450  0850  00FF               	movwf	btemp+1
  1451  0851  3083               	movlw	131
  1452  0852  027F               	subwf	btemp+1,w
  1453  0853  1D03               	skipz
  1454  0854  2857               	goto	u4265
  1455  0855  30E8               	movlw	232
  1456  0856  026A               	subwf	_luminosidade_desejada,w
  1457  0857                     u4265:
  1458  0857  1803               	skipnc
  1459  0858  285A               	goto	u4261
  1460  0859  285B               	goto	u4260
  1461  085A                     u4261:
  1462  085A  2864               	goto	l3010
  1463  085B                     u4260:
  1464  085B                     l3008:
  1465                           
  1466                           ;newmain.c: 188:             luminosidade_desejada+=10;
  1467  085B  300A               	movlw	10
  1468  085C  1283               	bcf	3,5	;RP0=0, select bank0
  1469  085D  1303               	bcf	3,6	;RP1=0, select bank0
  1470  085E  07EA               	addwf	_luminosidade_desejada,f
  1471  085F  1803               	skipnc
  1472  0860  0AEB               	incf	_luminosidade_desejada+1,f
  1473  0861  3000               	movlw	0
  1474  0862  07EB               	addwf	_luminosidade_desejada+1,f
  1475                           
  1476                           ;newmain.c: 189:         }
  1477  0863  286A               	goto	l143
  1478  0864                     l3010:
  1479                           
  1480                           ;newmain.c: 191:             luminosidade_desejada = 1000;
  1481  0864  30E8               	movlw	232
  1482  0865  1283               	bcf	3,5	;RP0=0, select bank0
  1483  0866  1303               	bcf	3,6	;RP1=0, select bank0
  1484  0867  00EA               	movwf	_luminosidade_desejada
  1485  0868  3003               	movlw	3
  1486  0869  00EB               	movwf	_luminosidade_desejada+1
  1487  086A                     l143:
  1488  086A  0008               	return
  1489  086B                     __end_of_verificaBtnMais:
  1490                           
  1491                           	psect	text4
  1492  071B                     __ptext4:	
  1493 ;; *************** function _intToASCIIinCustomBase *****************
  1494 ;; Defined at:
  1495 ;;		line 148 in file "newmain.c"
  1496 ;; Parameters:    Size  Location     Type
  1497 ;;  numero          2    9[BANK0 ] int 
  1498 ;;  resultado       1   11[BANK0 ] PTR unsigned char 
  1499 ;;		 -> main@texto_luminosidade(16), handleSetupMenu@texto_luminosidade_desejada(16), 
  1500 ;;  base            2   12[BANK0 ] int 
  1501 ;; Auto vars:     Size  Location     Type
  1502 ;;  temp            1   17[BANK0 ] unsigned char 
  1503 ;;  indice          2   26[BANK0 ] int 
  1504 ;;  j               2   24[BANK0 ] int 
  1505 ;;  i               2   22[BANK0 ] int 
  1506 ;;  resto           2   20[BANK0 ] int 
  1507 ;; Return value:  Size  Location     Type
  1508 ;;                  1    wreg      void 
  1509 ;; Registers used:
  1510 ;;		wreg, fsr0l, fsr0h, status,2, status,0, btemp+1, pclath, cstack
  1511 ;; Tracked objects:
  1512 ;;		On entry : 0/0
  1513 ;;		On exit  : 0/0
  1514 ;;		Unchanged: 0/0
  1515 ;; Data sizes:     COMMON   BANK0   BANK1   BANK3   BANK2
  1516 ;;      Params:         0       5       0       0       0
  1517 ;;      Locals:         0      11       0       0       0
  1518 ;;      Temps:          0       3       0       0       0
  1519 ;;      Totals:         0      19       0       0       0
  1520 ;;Total ram usage:       19 bytes
  1521 ;; Hardware stack levels used: 1
  1522 ;; Hardware stack levels required when called: 4
  1523 ;; This function calls:
  1524 ;;		___awdiv
  1525 ;;		___awmod
  1526 ;; This function is called by:
  1527 ;;		_handleSetupMenu
  1528 ;;		_main
  1529 ;; This function uses a non-reentrant model
  1530 ;;
  1531                           
  1532  071B                     _intToASCIIinCustomBase:	
  1533                           ;psect for function _intToASCIIinCustomBase
  1534                           
  1535  071B                     l2960:	
  1536                           ;incstack = 0
  1537                           ; Regs used in _intToASCIIinCustomBase: [wreg-fsr0h+status,2+status,0+btemp+1+pclath+cst
      +                          ack]
  1538                           
  1539                           
  1540                           ;newmain.c: 149:     int indice = 0;
  1541  071B  1283               	bcf	3,5	;RP0=0, select bank0
  1542  071C  1303               	bcf	3,6	;RP1=0, select bank0
  1543  071D  01BA               	clrf	intToASCIIinCustomBase@indice
  1544  071E  01BB               	clrf	intToASCIIinCustomBase@indice+1
  1545  071F                     l2962:
  1546                           
  1547                           ;newmain.c: 150:     int resto;;newmain.c: 151:     if (numero == 0) {
  1548  071F  0829               	movf	intToASCIIinCustomBase@numero,w
  1549  0720  042A               	iorwf	intToASCIIinCustomBase@numero+1,w
  1550  0721  1D03               	btfss	3,2
  1551  0722  2F24               	goto	u4211
  1552  0723  2F25               	goto	u4210
  1553  0724                     u4211:
  1554  0724  2F91               	goto	l2986
  1555  0725                     u4210:
  1556  0725                     l2964:
  1557                           
  1558                           ;newmain.c: 152:         resultado[indice++] = '0';
  1559  0725  3030               	movlw	48
  1560  0726  00AE               	movwf	??_intToASCIIinCustomBase
  1561  0727  082B               	movf	intToASCIIinCustomBase@resultado,w
  1562  0728  0084               	movwf	4
  1563  0729  082E               	movf	??_intToASCIIinCustomBase,w
  1564  072A  1383               	bcf	3,7	;select IRP bank0
  1565  072B  0080               	movwf	0
  1566  072C                     l2966:
  1567  072C  3001               	movlw	1
  1568  072D  07BA               	addwf	intToASCIIinCustomBase@indice,f
  1569  072E  1803               	skipnc
  1570  072F  0ABB               	incf	intToASCIIinCustomBase@indice+1,f
  1571  0730  3000               	movlw	0
  1572  0731  07BB               	addwf	intToASCIIinCustomBase@indice+1,f
  1573  0732                     l2968:
  1574                           
  1575                           ;newmain.c: 153:         resultado[indice] = '\0';
  1576  0732  083A               	movf	intToASCIIinCustomBase@indice,w
  1577  0733  072B               	addwf	intToASCIIinCustomBase@resultado,w
  1578  0734  00AE               	movwf	??_intToASCIIinCustomBase
  1579  0735  082E               	movf	??_intToASCIIinCustomBase,w
  1580  0736  0084               	movwf	4
  1581  0737  0180               	clrf	0
  1582  0738  2FE6               	goto	l124
  1583  0739                     l2972:
  1584                           
  1585                           ;newmain.c: 157:         resto = numero % base;
  1586  0739  082D               	movf	intToASCIIinCustomBase@base+1,w
  1587  073A  00A1               	movwf	___awmod@divisor+1
  1588  073B  082C               	movf	intToASCIIinCustomBase@base,w
  1589  073C  00A0               	movwf	___awmod@divisor
  1590  073D  082A               	movf	intToASCIIinCustomBase@numero+1,w
  1591  073E  00A3               	movwf	___awmod@dividend+1
  1592  073F  0829               	movf	intToASCIIinCustomBase@numero,w
  1593  0740  00A2               	movwf	___awmod@dividend
  1594  0741  120A  158A  2241  120A  118A  	fcall	___awmod
  1595  0746  1283               	bcf	3,5	;RP0=0, select bank0
  1596  0747  1303               	bcf	3,6	;RP1=0, select bank0
  1597  0748  0821               	movf	?___awmod+1,w
  1598  0749  00B5               	movwf	intToASCIIinCustomBase@resto+1
  1599  074A  0820               	movf	?___awmod,w
  1600  074B  00B4               	movwf	intToASCIIinCustomBase@resto
  1601  074C                     l2974:
  1602                           
  1603                           ;newmain.c: 158:         resultado[indice++] = (resto > 9) ? (resto - 10) + 'A' : resto 
      +                          + '0';
  1604  074C  0835               	movf	intToASCIIinCustomBase@resto+1,w
  1605  074D  3A80               	xorlw	128
  1606  074E  00FF               	movwf	btemp+1
  1607  074F  3080               	movlw	128
  1608  0750  027F               	subwf	btemp+1,w
  1609  0751  1D03               	skipz
  1610  0752  2F55               	goto	u4225
  1611  0753  300A               	movlw	10
  1612  0754  0234               	subwf	intToASCIIinCustomBase@resto,w
  1613  0755                     u4225:
  1614  0755  1803               	skipnc
  1615  0756  2F58               	goto	u4221
  1616  0757  2F59               	goto	u4220
  1617  0758                     u4221:
  1618  0758  2F64               	goto	l2978
  1619  0759                     u4220:
  1620  0759                     l2976:
  1621  0759  1283               	bcf	3,5	;RP0=0, select bank0
  1622  075A  1303               	bcf	3,6	;RP1=0, select bank0
  1623  075B  0834               	movf	intToASCIIinCustomBase@resto,w
  1624  075C  3E30               	addlw	48
  1625  075D  00B2               	movwf	_intToASCIIinCustomBase$388
  1626  075E  0835               	movf	intToASCIIinCustomBase@resto+1,w
  1627  075F  1803               	skipnc
  1628  0760  3E01               	addlw	1
  1629  0761  3E00               	addlw	0
  1630  0762  00B3               	movwf	_intToASCIIinCustomBase$388+1
  1631  0763  2F6E               	goto	l2980
  1632  0764                     l2978:
  1633  0764  1283               	bcf	3,5	;RP0=0, select bank0
  1634  0765  1303               	bcf	3,6	;RP1=0, select bank0
  1635  0766  0834               	movf	intToASCIIinCustomBase@resto,w
  1636  0767  3E37               	addlw	55
  1637  0768  00B2               	movwf	_intToASCIIinCustomBase$388
  1638  0769  0835               	movf	intToASCIIinCustomBase@resto+1,w
  1639  076A  1803               	skipnc
  1640  076B  3E01               	addlw	1
  1641  076C  3E00               	addlw	0
  1642  076D  00B3               	movwf	_intToASCIIinCustomBase$388+1
  1643  076E                     l2980:
  1644  076E  0832               	movf	_intToASCIIinCustomBase$388,w
  1645  076F  00AE               	movwf	??_intToASCIIinCustomBase
  1646  0770  083A               	movf	intToASCIIinCustomBase@indice,w
  1647  0771  072B               	addwf	intToASCIIinCustomBase@resultado,w
  1648  0772  00AF               	movwf	??_intToASCIIinCustomBase+1
  1649  0773  082F               	movf	??_intToASCIIinCustomBase+1,w
  1650  0774  0084               	movwf	4
  1651  0775  082E               	movf	??_intToASCIIinCustomBase,w
  1652  0776  1383               	bcf	3,7	;select IRP bank0
  1653  0777  0080               	movwf	0
  1654  0778                     l2982:
  1655  0778  3001               	movlw	1
  1656  0779  07BA               	addwf	intToASCIIinCustomBase@indice,f
  1657  077A  1803               	skipnc
  1658  077B  0ABB               	incf	intToASCIIinCustomBase@indice+1,f
  1659  077C  3000               	movlw	0
  1660  077D  07BB               	addwf	intToASCIIinCustomBase@indice+1,f
  1661  077E                     l2984:
  1662                           
  1663                           ;newmain.c: 159:         numero /= base;
  1664  077E  082D               	movf	intToASCIIinCustomBase@base+1,w
  1665  077F  00A1               	movwf	___awdiv@divisor+1
  1666  0780  082C               	movf	intToASCIIinCustomBase@base,w
  1667  0781  00A0               	movwf	___awdiv@divisor
  1668  0782  082A               	movf	intToASCIIinCustomBase@numero+1,w
  1669  0783  00A3               	movwf	___awdiv@dividend+1
  1670  0784  0829               	movf	intToASCIIinCustomBase@numero,w
  1671  0785  00A2               	movwf	___awdiv@dividend
  1672  0786  120A  158A  235B  120A  118A  	fcall	___awdiv
  1673  078B  1283               	bcf	3,5	;RP0=0, select bank0
  1674  078C  1303               	bcf	3,6	;RP1=0, select bank0
  1675  078D  0821               	movf	?___awdiv+1,w
  1676  078E  00AA               	movwf	intToASCIIinCustomBase@numero+1
  1677  078F  0820               	movf	?___awdiv,w
  1678  0790  00A9               	movwf	intToASCIIinCustomBase@numero
  1679  0791                     l2986:
  1680                           
  1681                           ;newmain.c: 156:     while (numero != 0) {
  1682  0791  0829               	movf	intToASCIIinCustomBase@numero,w
  1683  0792  042A               	iorwf	intToASCIIinCustomBase@numero+1,w
  1684  0793  1D03               	btfss	3,2
  1685  0794  2F96               	goto	u4231
  1686  0795  2F97               	goto	u4230
  1687  0796                     u4231:
  1688  0796  2F39               	goto	l2972
  1689  0797                     u4230:
  1690  0797                     l2988:
  1691                           
  1692                           ;newmain.c: 161:     resultado[indice] = '\0';
  1693  0797  083A               	movf	intToASCIIinCustomBase@indice,w
  1694  0798  072B               	addwf	intToASCIIinCustomBase@resultado,w
  1695  0799  00AE               	movwf	??_intToASCIIinCustomBase
  1696  079A  082E               	movf	??_intToASCIIinCustomBase,w
  1697  079B  0084               	movwf	4
  1698  079C  1383               	bcf	3,7	;select IRP bank0
  1699  079D  0180               	clrf	0
  1700  079E                     l2990:
  1701                           
  1702                           ;newmain.c: 164:     int i, j;;newmain.c: 165:     for (i = 0, j = indice - 1; i < j; i+
      +                          +, j--) {
  1703  079E  01B6               	clrf	intToASCIIinCustomBase@i
  1704  079F  01B7               	clrf	intToASCIIinCustomBase@i+1
  1705  07A0                     l2992:
  1706  07A0  083A               	movf	intToASCIIinCustomBase@indice,w
  1707  07A1  3EFF               	addlw	255
  1708  07A2  00B8               	movwf	intToASCIIinCustomBase@j
  1709  07A3  083B               	movf	intToASCIIinCustomBase@indice+1,w
  1710  07A4  1803               	skipnc
  1711  07A5  3E01               	addlw	1
  1712  07A6  3EFF               	addlw	255
  1713  07A7  00B9               	movwf	intToASCIIinCustomBase@j+1
  1714  07A8  2FD8               	goto	l3000
  1715  07A9                     l2994:
  1716                           
  1717                           ;newmain.c: 166:         char temp = resultado[i];
  1718  07A9  1283               	bcf	3,5	;RP0=0, select bank0
  1719  07AA  1303               	bcf	3,6	;RP1=0, select bank0
  1720  07AB  0836               	movf	intToASCIIinCustomBase@i,w
  1721  07AC  072B               	addwf	intToASCIIinCustomBase@resultado,w
  1722  07AD  00AE               	movwf	??_intToASCIIinCustomBase
  1723  07AE  082E               	movf	??_intToASCIIinCustomBase,w
  1724  07AF  0084               	movwf	4
  1725  07B0  1383               	bcf	3,7	;select IRP bank0
  1726  07B1  0800               	movf	0,w
  1727  07B2  00AF               	movwf	??_intToASCIIinCustomBase+1
  1728  07B3  082F               	movf	??_intToASCIIinCustomBase+1,w
  1729  07B4  00B1               	movwf	intToASCIIinCustomBase@temp
  1730                           
  1731                           ;newmain.c: 167:         resultado[i] = resultado[j];
  1732  07B5  0838               	movf	intToASCIIinCustomBase@j,w
  1733  07B6  072B               	addwf	intToASCIIinCustomBase@resultado,w
  1734  07B7  00AE               	movwf	??_intToASCIIinCustomBase
  1735  07B8  082E               	movf	??_intToASCIIinCustomBase,w
  1736  07B9  0084               	movwf	4
  1737  07BA  0800               	movf	0,w
  1738  07BB  00AF               	movwf	??_intToASCIIinCustomBase+1
  1739  07BC  0836               	movf	intToASCIIinCustomBase@i,w
  1740  07BD  072B               	addwf	intToASCIIinCustomBase@resultado,w
  1741  07BE  00B0               	movwf	??_intToASCIIinCustomBase+2
  1742  07BF  0830               	movf	??_intToASCIIinCustomBase+2,w
  1743  07C0  0084               	movwf	4
  1744  07C1  082F               	movf	??_intToASCIIinCustomBase+1,w
  1745  07C2  0080               	movwf	0
  1746                           
  1747                           ;newmain.c: 168:         resultado[j] = temp;
  1748  07C3  0831               	movf	intToASCIIinCustomBase@temp,w
  1749  07C4  00AE               	movwf	??_intToASCIIinCustomBase
  1750  07C5  0838               	movf	intToASCIIinCustomBase@j,w
  1751  07C6  072B               	addwf	intToASCIIinCustomBase@resultado,w
  1752  07C7  00AF               	movwf	??_intToASCIIinCustomBase+1
  1753  07C8  082F               	movf	??_intToASCIIinCustomBase+1,w
  1754  07C9  0084               	movwf	4
  1755  07CA  082E               	movf	??_intToASCIIinCustomBase,w
  1756  07CB  0080               	movwf	0
  1757  07CC                     l2996:
  1758                           
  1759                           ;newmain.c: 169:     }
  1760  07CC  3001               	movlw	1
  1761  07CD  07B6               	addwf	intToASCIIinCustomBase@i,f
  1762  07CE  1803               	skipnc
  1763  07CF  0AB7               	incf	intToASCIIinCustomBase@i+1,f
  1764  07D0  3000               	movlw	0
  1765  07D1  07B7               	addwf	intToASCIIinCustomBase@i+1,f
  1766  07D2                     l2998:
  1767  07D2  30FF               	movlw	255
  1768  07D3  07B8               	addwf	intToASCIIinCustomBase@j,f
  1769  07D4  1803               	skipnc
  1770  07D5  0AB9               	incf	intToASCIIinCustomBase@j+1,f
  1771  07D6  30FF               	movlw	255
  1772  07D7  07B9               	addwf	intToASCIIinCustomBase@j+1,f
  1773  07D8                     l3000:
  1774  07D8  0837               	movf	intToASCIIinCustomBase@i+1,w
  1775  07D9  3A80               	xorlw	128
  1776  07DA  00AE               	movwf	??_intToASCIIinCustomBase
  1777  07DB  0839               	movf	intToASCIIinCustomBase@j+1,w
  1778  07DC  3A80               	xorlw	128
  1779  07DD  022E               	subwf	??_intToASCIIinCustomBase,w
  1780  07DE  1D03               	skipz
  1781  07DF  2FE2               	goto	u4245
  1782  07E0  0838               	movf	intToASCIIinCustomBase@j,w
  1783  07E1  0236               	subwf	intToASCIIinCustomBase@i,w
  1784  07E2                     u4245:
  1785  07E2  1C03               	skipc
  1786  07E3  2FE5               	goto	u4241
  1787  07E4  2FE6               	goto	u4240
  1788  07E5                     u4241:
  1789  07E5  2FA9               	goto	l2994
  1790  07E6                     u4240:
  1791  07E6                     l124:
  1792  07E6  0008               	return
  1793  07E7                     __end_of_intToASCIIinCustomBase:
  1794                           
  1795                           	psect	text5
  1796  0A41                     __ptext5:	
  1797 ;; *************** function ___awmod *****************
  1798 ;; Defined at:
  1799 ;;		line 5 in file "C:\Program Files\Microchip\xc8\v2.35\pic\sources\c90\common\awmod.c"
  1800 ;; Parameters:    Size  Location     Type
  1801 ;;  divisor         2    0[BANK0 ] int 
  1802 ;;  dividend        2    2[BANK0 ] int 
  1803 ;; Auto vars:     Size  Location     Type
  1804 ;;  sign            1    6[BANK0 ] unsigned char 
  1805 ;;  counter         1    5[BANK0 ] unsigned char 
  1806 ;; Return value:  Size  Location     Type
  1807 ;;                  2    0[BANK0 ] int 
  1808 ;; Registers used:
  1809 ;;		wreg, status,2, status,0
  1810 ;; Tracked objects:
  1811 ;;		On entry : 0/0
  1812 ;;		On exit  : 0/0
  1813 ;;		Unchanged: 0/0
  1814 ;; Data sizes:     COMMON   BANK0   BANK1   BANK3   BANK2
  1815 ;;      Params:         0       4       0       0       0
  1816 ;;      Locals:         0       2       0       0       0
  1817 ;;      Temps:          0       1       0       0       0
  1818 ;;      Totals:         0       7       0       0       0
  1819 ;;Total ram usage:        7 bytes
  1820 ;; Hardware stack levels used: 1
  1821 ;; Hardware stack levels required when called: 3
  1822 ;; This function calls:
  1823 ;;		Nothing
  1824 ;; This function is called by:
  1825 ;;		_intToASCIIinCustomBase
  1826 ;; This function uses a non-reentrant model
  1827 ;;
  1828                           
  1829  0A41                     ___awmod:	
  1830                           ;psect for function ___awmod
  1831                           
  1832  0A41                     l2908:	
  1833                           ;incstack = 0
  1834                           ; Regs used in ___awmod: [wreg+status,2+status,0]
  1835                           
  1836  0A41  1283               	bcf	3,5	;RP0=0, select bank0
  1837  0A42  1303               	bcf	3,6	;RP1=0, select bank0
  1838  0A43  01A6               	clrf	___awmod@sign
  1839  0A44                     l2910:
  1840  0A44  1FA3               	btfss	___awmod@dividend+1,7
  1841  0A45  2A47               	goto	u4091
  1842  0A46  2A48               	goto	u4090
  1843  0A47                     u4091:
  1844  0A47  2A4F               	goto	l2916
  1845  0A48                     u4090:
  1846  0A48                     l2912:
  1847  0A48  09A2               	comf	___awmod@dividend,f
  1848  0A49  09A3               	comf	___awmod@dividend+1,f
  1849  0A4A  0AA2               	incf	___awmod@dividend,f
  1850  0A4B  1903               	skipnz
  1851  0A4C  0AA3               	incf	___awmod@dividend+1,f
  1852  0A4D                     l2914:
  1853  0A4D  01A6               	clrf	___awmod@sign
  1854  0A4E  0AA6               	incf	___awmod@sign,f
  1855  0A4F                     l2916:
  1856  0A4F  1FA1               	btfss	___awmod@divisor+1,7
  1857  0A50  2A52               	goto	u4101
  1858  0A51  2A53               	goto	u4100
  1859  0A52                     u4101:
  1860  0A52  2A58               	goto	l2920
  1861  0A53                     u4100:
  1862  0A53                     l2918:
  1863  0A53  09A0               	comf	___awmod@divisor,f
  1864  0A54  09A1               	comf	___awmod@divisor+1,f
  1865  0A55  0AA0               	incf	___awmod@divisor,f
  1866  0A56  1903               	skipnz
  1867  0A57  0AA1               	incf	___awmod@divisor+1,f
  1868  0A58                     l2920:
  1869  0A58  0820               	movf	___awmod@divisor,w
  1870  0A59  0421               	iorwf	___awmod@divisor+1,w
  1871  0A5A  1903               	btfsc	3,2
  1872  0A5B  2A5D               	goto	u4111
  1873  0A5C  2A5E               	goto	u4110
  1874  0A5D                     u4111:
  1875  0A5D  2A8D               	goto	l2938
  1876  0A5E                     u4110:
  1877  0A5E                     l2922:
  1878  0A5E  01A5               	clrf	___awmod@counter
  1879  0A5F  0AA5               	incf	___awmod@counter,f
  1880  0A60  2A6C               	goto	l2928
  1881  0A61                     l2924:
  1882  0A61  3001               	movlw	1
  1883  0A62                     u4125:
  1884  0A62  1003               	clrc
  1885  0A63  0DA0               	rlf	___awmod@divisor,f
  1886  0A64  0DA1               	rlf	___awmod@divisor+1,f
  1887  0A65  3EFF               	addlw	-1
  1888  0A66  1D03               	skipz
  1889  0A67  2A62               	goto	u4125
  1890  0A68                     l2926:
  1891  0A68  3001               	movlw	1
  1892  0A69  00A4               	movwf	??___awmod
  1893  0A6A  0824               	movf	??___awmod,w
  1894  0A6B  07A5               	addwf	___awmod@counter,f
  1895  0A6C                     l2928:
  1896  0A6C  1FA1               	btfss	___awmod@divisor+1,7
  1897  0A6D  2A6F               	goto	u4131
  1898  0A6E  2A70               	goto	u4130
  1899  0A6F                     u4131:
  1900  0A6F  2A61               	goto	l2924
  1901  0A70                     u4130:
  1902  0A70                     l2930:
  1903  0A70  0821               	movf	___awmod@divisor+1,w
  1904  0A71  0223               	subwf	___awmod@dividend+1,w
  1905  0A72  1D03               	skipz
  1906  0A73  2A76               	goto	u4145
  1907  0A74  0820               	movf	___awmod@divisor,w
  1908  0A75  0222               	subwf	___awmod@dividend,w
  1909  0A76                     u4145:
  1910  0A76  1C03               	skipc
  1911  0A77  2A79               	goto	u4141
  1912  0A78  2A7A               	goto	u4140
  1913  0A79                     u4141:
  1914  0A79  2A80               	goto	l2934
  1915  0A7A                     u4140:
  1916  0A7A                     l2932:
  1917  0A7A  0820               	movf	___awmod@divisor,w
  1918  0A7B  02A2               	subwf	___awmod@dividend,f
  1919  0A7C  0821               	movf	___awmod@divisor+1,w
  1920  0A7D  1C03               	skipc
  1921  0A7E  03A3               	decf	___awmod@dividend+1,f
  1922  0A7F  02A3               	subwf	___awmod@dividend+1,f
  1923  0A80                     l2934:
  1924  0A80  3001               	movlw	1
  1925  0A81                     u4155:
  1926  0A81  1003               	clrc
  1927  0A82  0CA1               	rrf	___awmod@divisor+1,f
  1928  0A83  0CA0               	rrf	___awmod@divisor,f
  1929  0A84  3EFF               	addlw	-1
  1930  0A85  1D03               	skipz
  1931  0A86  2A81               	goto	u4155
  1932  0A87                     l2936:
  1933  0A87  3001               	movlw	1
  1934  0A88  02A5               	subwf	___awmod@counter,f
  1935  0A89  1D03               	btfss	3,2
  1936  0A8A  2A8C               	goto	u4161
  1937  0A8B  2A8D               	goto	u4160
  1938  0A8C                     u4161:
  1939  0A8C  2A70               	goto	l2930
  1940  0A8D                     u4160:
  1941  0A8D                     l2938:
  1942  0A8D  0826               	movf	___awmod@sign,w
  1943  0A8E  1903               	btfsc	3,2
  1944  0A8F  2A91               	goto	u4171
  1945  0A90  2A92               	goto	u4170
  1946  0A91                     u4171:
  1947  0A91  2A97               	goto	l2942
  1948  0A92                     u4170:
  1949  0A92                     l2940:
  1950  0A92  09A2               	comf	___awmod@dividend,f
  1951  0A93  09A3               	comf	___awmod@dividend+1,f
  1952  0A94  0AA2               	incf	___awmod@dividend,f
  1953  0A95  1903               	skipnz
  1954  0A96  0AA3               	incf	___awmod@dividend+1,f
  1955  0A97                     l2942:
  1956  0A97  0823               	movf	___awmod@dividend+1,w
  1957  0A98  00A1               	movwf	?___awmod+1
  1958  0A99  0822               	movf	___awmod@dividend,w
  1959  0A9A  00A0               	movwf	?___awmod
  1960  0A9B                     l456:
  1961  0A9B  0008               	return
  1962  0A9C                     __end_of___awmod:
  1963                           
  1964                           	psect	text6
  1965  0963                     __ptext6:	
  1966 ;; *************** function _escreveLCD *****************
  1967 ;; Defined at:
  1968 ;;		line 263 in file "newmain.c"
  1969 ;; Parameters:    Size  Location     Type
  1970 ;;  linha1          1    wreg     PTR unsigned char 
  1971 ;;		 -> STR_2(11), STR_1(16), 
  1972 ;;  linha2          1   12[BANK0 ] PTR unsigned char 
  1973 ;;		 -> main@texto_luminosidade(16), handleSetupMenu@texto_luminosidade_desejada(16), 
  1974 ;; Auto vars:     Size  Location     Type
  1975 ;;  linha1          1   15[BANK0 ] PTR unsigned char 
  1976 ;;		 -> STR_2(11), STR_1(16), 
  1977 ;; Return value:  Size  Location     Type
  1978 ;;                  1    wreg      void 
  1979 ;; Registers used:
  1980 ;;		wreg, fsr0l, fsr0h, status,2, status,0, btemp+1, pclath, cstack
  1981 ;; Tracked objects:
  1982 ;;		On entry : 0/0
  1983 ;;		On exit  : 0/0
  1984 ;;		Unchanged: 0/0
  1985 ;; Data sizes:     COMMON   BANK0   BANK1   BANK3   BANK2
  1986 ;;      Params:         0       1       0       0       0
  1987 ;;      Locals:         0       1       0       0       0
  1988 ;;      Temps:          0       2       0       0       0
  1989 ;;      Totals:         0       4       0       0       0
  1990 ;;Total ram usage:        4 bytes
  1991 ;; Hardware stack levels used: 1
  1992 ;; Hardware stack levels required when called: 6
  1993 ;; This function calls:
  1994 ;;		_Lcd_Clear
  1995 ;;		_Lcd_Set_Cursor
  1996 ;;		_Lcd_Write_String
  1997 ;; This function is called by:
  1998 ;;		_handleSetupMenu
  1999 ;;		_main
  2000 ;; This function uses a non-reentrant model
  2001 ;;
  2002                           
  2003  0963                     _escreveLCD:	
  2004                           ;psect for function _escreveLCD
  2005                           
  2006                           
  2007                           ;incstack = 0
  2008                           ; Regs used in _escreveLCD: [wreg-fsr0h+status,2+status,0+btemp+1+pclath+cstack]
  2009                           ;escreveLCD@linha1 stored from wreg
  2010  0963  1283               	bcf	3,5	;RP0=0, select bank0
  2011  0964  1303               	bcf	3,6	;RP1=0, select bank0
  2012  0965  00AF               	movwf	escreveLCD@linha1
  2013  0966                     l3026:
  2014                           
  2015                           ;newmain.c: 263: void escreveLCD(char* linha1, char* linha2);newmain.c: 264: {;newmain.c
      +                          : 266:     Lcd_Clear();
  2016  0966  160A  118A  2754  120A  158A  	fcall	_Lcd_Clear
  2017                           
  2018                           ;newmain.c: 267:     Lcd_Set_Cursor(1,1);
  2019  096B  1283               	bcf	3,5	;RP0=0, select bank0
  2020  096C  1303               	bcf	3,6	;RP1=0, select bank0
  2021  096D  01A4               	clrf	Lcd_Set_Cursor@b
  2022  096E  0AA4               	incf	Lcd_Set_Cursor@b,f
  2023  096F  3001               	movlw	1
  2024  0970  120A  158A  21E9  120A  158A  	fcall	_Lcd_Set_Cursor
  2025  0975                     l3028:
  2026                           
  2027                           ;newmain.c: 268:     Lcd_Write_String(linha1);
  2028  0975  1283               	bcf	3,5	;RP0=0, select bank0
  2029  0976  1303               	bcf	3,6	;RP1=0, select bank0
  2030  0977  082F               	movf	escreveLCD@linha1,w
  2031  0978  00A5               	movwf	Lcd_Write_String@a
  2032  0979  3000               	movlw	0
  2033  097A  1D03               	btfss	3,2
  2034  097B  3080               	movlw	128
  2035  097C  00A6               	movwf	Lcd_Write_String@a+1
  2036  097D  120A  158A  21A3  120A  158A  	fcall	_Lcd_Write_String
  2037  0982                     l3030:
  2038                           
  2039                           ;newmain.c: 270:     Lcd_Set_Cursor(2,1);
  2040  0982  1283               	bcf	3,5	;RP0=0, select bank0
  2041  0983  1303               	bcf	3,6	;RP1=0, select bank0
  2042  0984  01A4               	clrf	Lcd_Set_Cursor@b
  2043  0985  0AA4               	incf	Lcd_Set_Cursor@b,f
  2044  0986  3002               	movlw	2
  2045  0987  120A  158A  21E9  120A  158A  	fcall	_Lcd_Set_Cursor
  2046                           
  2047                           ;newmain.c: 271:     Lcd_Write_String(linha2);
  2048  098C  1283               	bcf	3,5	;RP0=0, select bank0
  2049  098D  1303               	bcf	3,6	;RP1=0, select bank0
  2050  098E  082C               	movf	escreveLCD@linha2,w
  2051  098F  00A5               	movwf	Lcd_Write_String@a
  2052  0990  3000               	movlw	0
  2053  0991  00A6               	movwf	Lcd_Write_String@a+1
  2054  0992  120A  158A  21A3  120A  158A  	fcall	_Lcd_Write_String
  2055  0997                     l3032:
  2056                           
  2057                           ;newmain.c: 273:     _delay((unsigned long)((100)*(4000000/4000.0)));
  2058  0997  3082               	movlw	130
  2059  0998  1283               	bcf	3,5	;RP0=0, select bank0
  2060  0999  1303               	bcf	3,6	;RP1=0, select bank0
  2061  099A  00AE               	movwf	??_escreveLCD+1
  2062  099B  30DD               	movlw	221
  2063  099C  00AD               	movwf	??_escreveLCD
  2064  099D                     u4857:
  2065  099D  0BAD               	decfsz	??_escreveLCD,f
  2066  099E  299D               	goto	u4857
  2067  099F  0BAE               	decfsz	??_escreveLCD+1,f
  2068  09A0  299D               	goto	u4857
  2069  09A1  0064               	clrwdt	;# 
  2070  09A2                     l175:
  2071  09A2  0008               	return
  2072  09A3                     __end_of_escreveLCD:
  2073                           
  2074                           	psect	text7
  2075  09A3                     __ptext7:	
  2076 ;; *************** function _Lcd_Write_String *****************
  2077 ;; Defined at:
  2078 ;;		line 97 in file "./lcd.h"
  2079 ;; Parameters:    Size  Location     Type
  2080 ;;  a               2    5[BANK0 ] PTR unsigned char 
  2081 ;;		 -> main@texto_luminosidade(16), STR_2(11), STR_1(16), handleSetupMenu@texto_luminosidade_desejada(16), 
  2082 ;; Auto vars:     Size  Location     Type
  2083 ;;  i               2   10[BANK0 ] int 
  2084 ;; Return value:  Size  Location     Type
  2085 ;;                  1    wreg      void 
  2086 ;; Registers used:
  2087 ;;		wreg, fsr0l, fsr0h, status,2, status,0, btemp+1, pclath, cstack
  2088 ;; Tracked objects:
  2089 ;;		On entry : 0/0
  2090 ;;		On exit  : 0/0
  2091 ;;		Unchanged: 0/0
  2092 ;; Data sizes:     COMMON   BANK0   BANK1   BANK3   BANK2
  2093 ;;      Params:         0       2       0       0       0
  2094 ;;      Locals:         0       2       0       0       0
  2095 ;;      Temps:          0       3       0       0       0
  2096 ;;      Totals:         0       7       0       0       0
  2097 ;;Total ram usage:        7 bytes
  2098 ;; Hardware stack levels used: 1
  2099 ;; Hardware stack levels required when called: 5
  2100 ;; This function calls:
  2101 ;;		_Lcd_Write_Char
  2102 ;; This function is called by:
  2103 ;;		_escreveLCD
  2104 ;; This function uses a non-reentrant model
  2105 ;;
  2106                           
  2107  09A3                     _Lcd_Write_String:	
  2108                           ;psect for function _Lcd_Write_String
  2109                           
  2110  09A3                     l2856:	
  2111                           ;incstack = 0
  2112 ;; using string table level
  2113                           ; Regs used in _Lcd_Write_String: [wreg-fsr0h+status,2+status,0+btemp+1+pclath+cstack]
  2114                           
  2115                           
  2116                           ;./lcd.h: 97: void Lcd_Write_String(char *a);./lcd.h: 98: {;./lcd.h: 99:  int i;;./lcd.h
      +                          : 100:  for(i=0;a[i]!='\0';i++)
  2117  09A3  1283               	bcf	3,5	;RP0=0, select bank0
  2118  09A4  1303               	bcf	3,6	;RP1=0, select bank0
  2119  09A5  01AA               	clrf	Lcd_Write_String@i
  2120  09A6  01AB               	clrf	Lcd_Write_String@i+1
  2121  09A7  29CC               	goto	l2862
  2122  09A8                     l2858:
  2123                           
  2124                           ;./lcd.h: 101:     Lcd_Write_Char(a[i]);
  2125  09A8  082A               	movf	Lcd_Write_String@i,w
  2126  09A9  0725               	addwf	Lcd_Write_String@a,w
  2127  09AA  00A8               	movwf	??_Lcd_Write_String+1
  2128  09AB  0826               	movf	Lcd_Write_String@a+1,w
  2129  09AC  00A7               	movwf	??_Lcd_Write_String
  2130  09AD  1803               	skipnc
  2131  09AE  0AA7               	incf	??_Lcd_Write_String,f
  2132  09AF  1FAA               	btfss	Lcd_Write_String@i,7
  2133  09B0  29B2               	goto	u3960
  2134  09B1  03A7               	decf	??_Lcd_Write_String,f
  2135  09B2                     u3960:
  2136  09B2  1283               	bcf	3,5	;RP0=0, select bank0
  2137  09B3  1303               	bcf	3,6	;RP1=0, select bank0
  2138  09B4  0827               	movf	??_Lcd_Write_String,w
  2139  09B5  00A9               	movwf	??_Lcd_Write_String+2
  2140  09B6  0829               	movf	??_Lcd_Write_String+2,w
  2141  09B7  00FF               	movwf	btemp+1
  2142  09B8  0828               	movf	??_Lcd_Write_String+1,w
  2143  09B9  0084               	movwf	4
  2144  09BA  120A  158A  2000  120A  158A  	fcall	stringtab
  2145  09BF  120A  158A  2126  120A  158A  	fcall	_Lcd_Write_Char
  2146  09C4                     l2860:
  2147  09C4  3001               	movlw	1
  2148  09C5  1283               	bcf	3,5	;RP0=0, select bank0
  2149  09C6  1303               	bcf	3,6	;RP1=0, select bank0
  2150  09C7  07AA               	addwf	Lcd_Write_String@i,f
  2151  09C8  1803               	skipnc
  2152  09C9  0AAB               	incf	Lcd_Write_String@i+1,f
  2153  09CA  3000               	movlw	0
  2154  09CB  07AB               	addwf	Lcd_Write_String@i+1,f
  2155  09CC                     l2862:
  2156  09CC  082A               	movf	Lcd_Write_String@i,w
  2157  09CD  0725               	addwf	Lcd_Write_String@a,w
  2158  09CE  00A8               	movwf	??_Lcd_Write_String+1
  2159  09CF  0826               	movf	Lcd_Write_String@a+1,w
  2160  09D0  00A7               	movwf	??_Lcd_Write_String
  2161  09D1  1803               	skipnc
  2162  09D2  0AA7               	incf	??_Lcd_Write_String,f
  2163  09D3  1FAA               	btfss	Lcd_Write_String@i,7
  2164  09D4  29D6               	goto	u3970
  2165  09D5  03A7               	decf	??_Lcd_Write_String,f
  2166  09D6                     u3970:
  2167  09D6  1283               	bcf	3,5	;RP0=0, select bank0
  2168  09D7  1303               	bcf	3,6	;RP1=0, select bank0
  2169  09D8  0827               	movf	??_Lcd_Write_String,w
  2170  09D9  00A9               	movwf	??_Lcd_Write_String+2
  2171  09DA  0829               	movf	??_Lcd_Write_String+2,w
  2172  09DB  00FF               	movwf	btemp+1
  2173  09DC  0828               	movf	??_Lcd_Write_String+1,w
  2174  09DD  0084               	movwf	4
  2175  09DE  120A  158A  2000  120A  158A  	fcall	stringtab
  2176  09E3  3A00               	xorlw	0
  2177  09E4  1D03               	skipz
  2178  09E5  29E7               	goto	u3981
  2179  09E6  29E8               	goto	u3980
  2180  09E7                     u3981:
  2181  09E7  29A8               	goto	l2858
  2182  09E8                     u3980:
  2183  09E8                     l83:
  2184  09E8  0008               	return
  2185  09E9                     __end_of_Lcd_Write_String:
  2186                           
  2187                           	psect	text8
  2188  0926                     __ptext8:	
  2189 ;; *************** function _Lcd_Write_Char *****************
  2190 ;; Defined at:
  2191 ;;		line 81 in file "./lcd.h"
  2192 ;; Parameters:    Size  Location     Type
  2193 ;;  a               1    wreg     unsigned char 
  2194 ;; Auto vars:     Size  Location     Type
  2195 ;;  a               1    4[BANK0 ] unsigned char 
  2196 ;;  y               1    3[BANK0 ] unsigned char 
  2197 ;;  temp            1    2[BANK0 ] unsigned char 
  2198 ;; Return value:  Size  Location     Type
  2199 ;;                  1    wreg      void 
  2200 ;; Registers used:
  2201 ;;		wreg, status,2, status,0, pclath, cstack
  2202 ;; Tracked objects:
  2203 ;;		On entry : 0/0
  2204 ;;		On exit  : 0/0
  2205 ;;		Unchanged: 0/0
  2206 ;; Data sizes:     COMMON   BANK0   BANK1   BANK3   BANK2
  2207 ;;      Params:         0       0       0       0       0
  2208 ;;      Locals:         0       3       0       0       0
  2209 ;;      Temps:          0       1       0       0       0
  2210 ;;      Totals:         0       4       0       0       0
  2211 ;;Total ram usage:        4 bytes
  2212 ;; Hardware stack levels used: 1
  2213 ;; Hardware stack levels required when called: 4
  2214 ;; This function calls:
  2215 ;;		_Lcd_Port
  2216 ;; This function is called by:
  2217 ;;		_Lcd_Write_String
  2218 ;; This function uses a non-reentrant model
  2219 ;;
  2220                           
  2221  0926                     _Lcd_Write_Char:	
  2222                           ;psect for function _Lcd_Write_Char
  2223                           
  2224                           
  2225                           ;incstack = 0
  2226                           ; Regs used in _Lcd_Write_Char: [wreg+status,2+status,0+pclath+cstack]
  2227                           ;Lcd_Write_Char@a stored from wreg
  2228  0926  1283               	bcf	3,5	;RP0=0, select bank0
  2229  0927  1303               	bcf	3,6	;RP1=0, select bank0
  2230  0928  00A4               	movwf	Lcd_Write_Char@a
  2231  0929                     l2814:
  2232                           
  2233                           ;./lcd.h: 81: void Lcd_Write_Char(char a);./lcd.h: 82: {;./lcd.h: 83:    char temp,y;;./
      +                          lcd.h: 84:    temp = a&0x0F;
  2234  0929  0824               	movf	Lcd_Write_Char@a,w
  2235  092A  390F               	andlw	15
  2236  092B  00A1               	movwf	??_Lcd_Write_Char
  2237  092C  0821               	movf	??_Lcd_Write_Char,w
  2238  092D  00A2               	movwf	Lcd_Write_Char@temp
  2239                           
  2240                           ;./lcd.h: 85:    y = a&0xF0;
  2241  092E  0824               	movf	Lcd_Write_Char@a,w
  2242  092F  39F0               	andlw	240
  2243  0930  00A1               	movwf	??_Lcd_Write_Char
  2244  0931  0821               	movf	??_Lcd_Write_Char,w
  2245  0932  00A3               	movwf	Lcd_Write_Char@y
  2246  0933                     l2816:
  2247                           
  2248                           ;./lcd.h: 86:    PORTDbits.RD2 = 1;
  2249  0933  1508               	bsf	8,2	;volatile
  2250  0934                     l2818:
  2251                           
  2252                           ;./lcd.h: 87:    Lcd_Port(y>>4);
  2253  0934  0823               	movf	Lcd_Write_Char@y,w
  2254  0935  00A1               	movwf	??_Lcd_Write_Char
  2255  0936  3004               	movlw	4
  2256  0937                     u3915:
  2257  0937  1003               	clrc
  2258  0938  0CA1               	rrf	??_Lcd_Write_Char,f
  2259  0939  3EFF               	addlw	-1
  2260  093A  1D03               	skipz
  2261  093B  2937               	goto	u3915
  2262  093C  0821               	movf	??_Lcd_Write_Char,w
  2263  093D  160A  118A  27E0  120A  158A  	fcall	_Lcd_Port
  2264  0942                     l2820:
  2265                           
  2266                           ;./lcd.h: 88:    PORTDbits.RD3 = 1;
  2267  0942  1283               	bcf	3,5	;RP0=0, select bank0
  2268  0943  1303               	bcf	3,6	;RP1=0, select bank0
  2269  0944  1588               	bsf	8,3	;volatile
  2270  0945                     l2822:
  2271                           
  2272                           ;./lcd.h: 89:    _delay((unsigned long)((40)*(4000000/4000000.0)));
  2273  0945  300C               	movlw	12
  2274  0946  1283               	bcf	3,5	;RP0=0, select bank0
  2275  0947  1303               	bcf	3,6	;RP1=0, select bank0
  2276  0948  00A1               	movwf	??_Lcd_Write_Char
  2277  0949                     u4867:
  2278  0949  0BA1               	decfsz	??_Lcd_Write_Char,f
  2279  094A  2949               	goto	u4867
  2280  094B  0000               	nop
  2281  094C                     l2824:
  2282                           
  2283                           ;./lcd.h: 90:    PORTDbits.RD3 = 0;
  2284  094C  1283               	bcf	3,5	;RP0=0, select bank0
  2285  094D  1303               	bcf	3,6	;RP1=0, select bank0
  2286  094E  1188               	bcf	8,3	;volatile
  2287  094F                     l2826:
  2288                           
  2289                           ;./lcd.h: 91:    Lcd_Port(temp);
  2290  094F  0822               	movf	Lcd_Write_Char@temp,w
  2291  0950  160A  118A  27E0  120A  158A  	fcall	_Lcd_Port
  2292  0955                     l2828:
  2293                           
  2294                           ;./lcd.h: 92:    PORTDbits.RD3 = 1;
  2295  0955  1283               	bcf	3,5	;RP0=0, select bank0
  2296  0956  1303               	bcf	3,6	;RP1=0, select bank0
  2297  0957  1588               	bsf	8,3	;volatile
  2298  0958                     l2830:
  2299                           
  2300                           ;./lcd.h: 93:    _delay((unsigned long)((40)*(4000000/4000000.0)));
  2301  0958  300C               	movlw	12
  2302  0959  1283               	bcf	3,5	;RP0=0, select bank0
  2303  095A  1303               	bcf	3,6	;RP1=0, select bank0
  2304  095B  00A1               	movwf	??_Lcd_Write_Char
  2305  095C                     u4877:
  2306  095C  0BA1               	decfsz	??_Lcd_Write_Char,f
  2307  095D  295C               	goto	u4877
  2308  095E  0000               	nop
  2309  095F                     l2832:
  2310                           
  2311                           ;./lcd.h: 94:    PORTDbits.RD3 = 0;
  2312  095F  1283               	bcf	3,5	;RP0=0, select bank0
  2313  0960  1303               	bcf	3,6	;RP1=0, select bank0
  2314  0961  1188               	bcf	8,3	;volatile
  2315  0962                     l77:
  2316  0962  0008               	return
  2317  0963                     __end_of_Lcd_Write_Char:
  2318                           
  2319                           	psect	text9
  2320  09E9                     __ptext9:	
  2321 ;; *************** function _Lcd_Set_Cursor *****************
  2322 ;; Defined at:
  2323 ;;		line 41 in file "./lcd.h"
  2324 ;; Parameters:    Size  Location     Type
  2325 ;;  a               1    wreg     unsigned char 
  2326 ;;  b               1    4[BANK0 ] unsigned char 
  2327 ;; Auto vars:     Size  Location     Type
  2328 ;;  a               1    7[BANK0 ] unsigned char 
  2329 ;;  temp            1   10[BANK0 ] unsigned char 
  2330 ;;  y               1    9[BANK0 ] unsigned char 
  2331 ;;  z               1    8[BANK0 ] unsigned char 
  2332 ;; Return value:  Size  Location     Type
  2333 ;;                  1    wreg      void 
  2334 ;; Registers used:
  2335 ;;		wreg, status,2, status,0, pclath, cstack
  2336 ;; Tracked objects:
  2337 ;;		On entry : 0/0
  2338 ;;		On exit  : 0/0
  2339 ;;		Unchanged: 0/0
  2340 ;; Data sizes:     COMMON   BANK0   BANK1   BANK3   BANK2
  2341 ;;      Params:         0       1       0       0       0
  2342 ;;      Locals:         0       4       0       0       0
  2343 ;;      Temps:          0       2       0       0       0
  2344 ;;      Totals:         0       7       0       0       0
  2345 ;;Total ram usage:        7 bytes
  2346 ;; Hardware stack levels used: 1
  2347 ;; Hardware stack levels required when called: 5
  2348 ;; This function calls:
  2349 ;;		_Lcd_Cmd
  2350 ;; This function is called by:
  2351 ;;		_escreveLCD
  2352 ;; This function uses a non-reentrant model
  2353 ;;
  2354                           
  2355  09E9                     _Lcd_Set_Cursor:	
  2356                           ;psect for function _Lcd_Set_Cursor
  2357                           
  2358                           
  2359                           ;incstack = 0
  2360                           ; Regs used in _Lcd_Set_Cursor: [wreg+status,2+status,0+pclath+cstack]
  2361                           ;Lcd_Set_Cursor@a stored from wreg
  2362  09E9  1283               	bcf	3,5	;RP0=0, select bank0
  2363  09EA  1303               	bcf	3,6	;RP1=0, select bank0
  2364  09EB  00A7               	movwf	Lcd_Set_Cursor@a
  2365  09EC                     l2836:
  2366                           
  2367                           ;./lcd.h: 41: void Lcd_Set_Cursor(char a, char b);./lcd.h: 42: {;./lcd.h: 43:  char temp
      +                          ,z,y;;./lcd.h: 44:  if(a == 1)
  2368  09EC  0327               	decf	Lcd_Set_Cursor@a,w
  2369  09ED  1D03               	btfss	3,2
  2370  09EE  29F0               	goto	u3921
  2371  09EF  29F1               	goto	u3920
  2372  09F0                     u3921:
  2373  09F0  2A16               	goto	l2846
  2374  09F1                     u3920:
  2375  09F1                     l2838:
  2376                           
  2377                           ;./lcd.h: 45:  {;./lcd.h: 46:    temp = 0x80 + b - 1;
  2378  09F1  0824               	movf	Lcd_Set_Cursor@b,w
  2379  09F2  3E7F               	addlw	127
  2380  09F3  00A5               	movwf	??_Lcd_Set_Cursor
  2381  09F4  0825               	movf	??_Lcd_Set_Cursor,w
  2382  09F5  00AA               	movwf	Lcd_Set_Cursor@temp
  2383                           
  2384                           ;./lcd.h: 47:   z = temp>>4;
  2385  09F6  082A               	movf	Lcd_Set_Cursor@temp,w
  2386  09F7  00A5               	movwf	??_Lcd_Set_Cursor
  2387  09F8  3004               	movlw	4
  2388  09F9                     u3935:
  2389  09F9  1003               	clrc
  2390  09FA  0CA5               	rrf	??_Lcd_Set_Cursor,f
  2391  09FB  3EFF               	addlw	-1
  2392  09FC  1D03               	skipz
  2393  09FD  29F9               	goto	u3935
  2394  09FE  0825               	movf	??_Lcd_Set_Cursor,w
  2395  09FF  00A6               	movwf	??_Lcd_Set_Cursor+1
  2396  0A00  0826               	movf	??_Lcd_Set_Cursor+1,w
  2397  0A01  00A8               	movwf	Lcd_Set_Cursor@z
  2398  0A02                     l2840:
  2399                           
  2400                           ;./lcd.h: 48:   y = temp & 0x0F;
  2401  0A02  082A               	movf	Lcd_Set_Cursor@temp,w
  2402  0A03  390F               	andlw	15
  2403  0A04  00A5               	movwf	??_Lcd_Set_Cursor
  2404  0A05  0825               	movf	??_Lcd_Set_Cursor,w
  2405  0A06  00A9               	movwf	Lcd_Set_Cursor@y
  2406  0A07                     l2842:
  2407                           
  2408                           ;./lcd.h: 49:   Lcd_Cmd(z);
  2409  0A07  0828               	movf	Lcd_Set_Cursor@z,w
  2410  0A08  160A  118A  27A5  120A  158A  	fcall	_Lcd_Cmd
  2411  0A0D                     l2844:
  2412                           
  2413                           ;./lcd.h: 50:   Lcd_Cmd(y);
  2414  0A0D  1283               	bcf	3,5	;RP0=0, select bank0
  2415  0A0E  1303               	bcf	3,6	;RP1=0, select bank0
  2416  0A0F  0829               	movf	Lcd_Set_Cursor@y,w
  2417  0A10  160A  118A  27A5  120A  158A  	fcall	_Lcd_Cmd
  2418                           
  2419                           ;./lcd.h: 51:  }
  2420  0A15  2A40               	goto	l71
  2421  0A16                     l2846:
  2422  0A16  3002               	movlw	2
  2423  0A17  0627               	xorwf	Lcd_Set_Cursor@a,w
  2424  0A18  1D03               	btfss	3,2
  2425  0A19  2A1B               	goto	u3941
  2426  0A1A  2A1C               	goto	u3940
  2427  0A1B                     u3941:
  2428  0A1B  2A40               	goto	l71
  2429  0A1C                     u3940:
  2430  0A1C                     l2848:
  2431                           
  2432                           ;./lcd.h: 53:  {;./lcd.h: 54:   temp = 0xC0 + b - 1;
  2433  0A1C  0824               	movf	Lcd_Set_Cursor@b,w
  2434  0A1D  3EBF               	addlw	191
  2435  0A1E  00A5               	movwf	??_Lcd_Set_Cursor
  2436  0A1F  0825               	movf	??_Lcd_Set_Cursor,w
  2437  0A20  00AA               	movwf	Lcd_Set_Cursor@temp
  2438                           
  2439                           ;./lcd.h: 55:   z = temp>>4;
  2440  0A21  082A               	movf	Lcd_Set_Cursor@temp,w
  2441  0A22  00A5               	movwf	??_Lcd_Set_Cursor
  2442  0A23  3004               	movlw	4
  2443  0A24                     u3955:
  2444  0A24  1003               	clrc
  2445  0A25  0CA5               	rrf	??_Lcd_Set_Cursor,f
  2446  0A26  3EFF               	addlw	-1
  2447  0A27  1D03               	skipz
  2448  0A28  2A24               	goto	u3955
  2449  0A29  0825               	movf	??_Lcd_Set_Cursor,w
  2450  0A2A  00A6               	movwf	??_Lcd_Set_Cursor+1
  2451  0A2B  0826               	movf	??_Lcd_Set_Cursor+1,w
  2452  0A2C  00A8               	movwf	Lcd_Set_Cursor@z
  2453  0A2D                     l2850:
  2454                           
  2455                           ;./lcd.h: 56:   y = temp & 0x0F;
  2456  0A2D  082A               	movf	Lcd_Set_Cursor@temp,w
  2457  0A2E  390F               	andlw	15
  2458  0A2F  00A5               	movwf	??_Lcd_Set_Cursor
  2459  0A30  0825               	movf	??_Lcd_Set_Cursor,w
  2460  0A31  00A9               	movwf	Lcd_Set_Cursor@y
  2461  0A32                     l2852:
  2462                           
  2463                           ;./lcd.h: 57:   Lcd_Cmd(z);
  2464  0A32  0828               	movf	Lcd_Set_Cursor@z,w
  2465  0A33  160A  118A  27A5  120A  158A  	fcall	_Lcd_Cmd
  2466  0A38                     l2854:
  2467                           
  2468                           ;./lcd.h: 58:   Lcd_Cmd(y);
  2469  0A38  1283               	bcf	3,5	;RP0=0, select bank0
  2470  0A39  1303               	bcf	3,6	;RP1=0, select bank0
  2471  0A3A  0829               	movf	Lcd_Set_Cursor@y,w
  2472  0A3B  160A  118A  27A5  120A  158A  	fcall	_Lcd_Cmd
  2473  0A40                     l71:
  2474  0A40  0008               	return
  2475  0A41                     __end_of_Lcd_Set_Cursor:
  2476                           
  2477                           	psect	text10
  2478  1754                     __ptext10:	
  2479 ;; *************** function _Lcd_Clear *****************
  2480 ;; Defined at:
  2481 ;;		line 35 in file "./lcd.h"
  2482 ;; Parameters:    Size  Location     Type
  2483 ;;		None
  2484 ;; Auto vars:     Size  Location     Type
  2485 ;;		None
  2486 ;; Return value:  Size  Location     Type
  2487 ;;                  1    wreg      void 
  2488 ;; Registers used:
  2489 ;;		wreg, status,2, status,0, pclath, cstack
  2490 ;; Tracked objects:
  2491 ;;		On entry : 0/0
  2492 ;;		On exit  : 0/0
  2493 ;;		Unchanged: 0/0
  2494 ;; Data sizes:     COMMON   BANK0   BANK1   BANK3   BANK2
  2495 ;;      Params:         0       0       0       0       0
  2496 ;;      Locals:         0       0       0       0       0
  2497 ;;      Temps:          0       0       0       0       0
  2498 ;;      Totals:         0       0       0       0       0
  2499 ;;Total ram usage:        0 bytes
  2500 ;; Hardware stack levels used: 1
  2501 ;; Hardware stack levels required when called: 5
  2502 ;; This function calls:
  2503 ;;		_Lcd_Cmd
  2504 ;; This function is called by:
  2505 ;;		_escreveLCD
  2506 ;; This function uses a non-reentrant model
  2507 ;;
  2508                           
  2509  1754                     _Lcd_Clear:	
  2510                           ;psect for function _Lcd_Clear
  2511                           
  2512  1754                     l2834:	
  2513                           ;incstack = 0
  2514                           ; Regs used in _Lcd_Clear: [wreg+status,2+status,0+pclath+cstack]
  2515                           
  2516                           
  2517                           ;./lcd.h: 37:  Lcd_Cmd(0);
  2518  1754  3000               	movlw	0
  2519  1755  160A  118A  27A5  160A  118A  	fcall	_Lcd_Cmd
  2520                           
  2521                           ;./lcd.h: 38:  Lcd_Cmd(1);
  2522  175A  3001               	movlw	1
  2523  175B  160A  118A  27A5  160A  118A  	fcall	_Lcd_Cmd
  2524  1760                     l65:
  2525  1760  0008               	return
  2526  1761                     __end_of_Lcd_Clear:
  2527                           
  2528                           	psect	text11
  2529  07E7                     __ptext11:	
  2530 ;; *************** function _getValorADC *****************
  2531 ;; Defined at:
  2532 ;;		line 129 in file "newmain.c"
  2533 ;; Parameters:    Size  Location     Type
  2534 ;;		None
  2535 ;; Auto vars:     Size  Location     Type
  2536 ;;  valor           2    4[BANK0 ] int 
  2537 ;; Return value:  Size  Location     Type
  2538 ;;                  2    0[BANK0 ] int 
  2539 ;; Registers used:
  2540 ;;		wreg
  2541 ;; Tracked objects:
  2542 ;;		On entry : 0/0
  2543 ;;		On exit  : 0/0
  2544 ;;		Unchanged: 0/0
  2545 ;; Data sizes:     COMMON   BANK0   BANK1   BANK3   BANK2
  2546 ;;      Params:         0       2       0       0       0
  2547 ;;      Locals:         0       2       0       0       0
  2548 ;;      Temps:          0       2       0       0       0
  2549 ;;      Totals:         0       6       0       0       0
  2550 ;;Total ram usage:        6 bytes
  2551 ;; Hardware stack levels used: 1
  2552 ;; Hardware stack levels required when called: 3
  2553 ;; This function calls:
  2554 ;;		Nothing
  2555 ;; This function is called by:
  2556 ;;		_main
  2557 ;; This function uses a non-reentrant model
  2558 ;;
  2559                           
  2560  07E7                     _getValorADC:	
  2561                           ;psect for function _getValorADC
  2562                           
  2563  07E7                     l3286:	
  2564                           ;incstack = 0
  2565                           ; Regs used in _getValorADC: [wreg]
  2566                           
  2567  07E7  0064               	clrwdt	;# 
  2568                           
  2569                           ;newmain.c: 133:     int valor;;newmain.c: 136:     ADCON0bits.GO = 1;
  2570  07E8  1283               	bcf	3,5	;RP0=0, select bank0
  2571  07E9  1303               	bcf	3,6	;RP1=0, select bank0
  2572  07EA  151F               	bsf	31,2	;volatile
  2573  07EB                     l3288:
  2574                           
  2575                           ;newmain.c: 140:     _delay((unsigned long)((10)*(4000000/4000000.0)));
  2576  07EB  3002               	movlw	2
  2577  07EC  1283               	bcf	3,5	;RP0=0, select bank0
  2578  07ED  1303               	bcf	3,6	;RP1=0, select bank0
  2579  07EE  00A2               	movwf	??_getValorADC
  2580  07EF                     u4887:
  2581  07EF  0BA2               	decfsz	??_getValorADC,f
  2582  07F0  2FEF               	goto	u4887
  2583  07F1  0000               	nop
  2584                           
  2585                           ;newmain.c: 144:     valor = ADRESH;
  2586  07F2  1283               	bcf	3,5	;RP0=0, select bank0
  2587  07F3  1303               	bcf	3,6	;RP1=0, select bank0
  2588  07F4  081E               	movf	30,w	;volatile
  2589  07F5  00A2               	movwf	??_getValorADC
  2590  07F6  01A3               	clrf	??_getValorADC+1
  2591  07F7  0822               	movf	??_getValorADC,w
  2592  07F8  00A4               	movwf	getValorADC@valor
  2593  07F9  0823               	movf	??_getValorADC+1,w
  2594  07FA  00A5               	movwf	getValorADC@valor+1
  2595                           
  2596                           ;newmain.c: 145:     return valor;
  2597  07FB  0825               	movf	getValorADC@valor+1,w
  2598  07FC  00A1               	movwf	?_getValorADC+1
  2599  07FD  0824               	movf	getValorADC@valor,w
  2600  07FE  00A0               	movwf	?_getValorADC
  2601  07FF                     l120:
  2602  07FF  0008               	return
  2603  0800                     __end_of_getValorADC:
  2604                           
  2605                           	psect	text12
  2606  0A9C                     __ptext12:	
  2607 ;; *************** function _converteVoltsParaLux *****************
  2608 ;; Defined at:
  2609 ;;		line 311 in file "newmain.c"
  2610 ;; Parameters:    Size  Location     Type
  2611 ;;  v_ldr           4   55[BANK0 ] float 
  2612 ;; Auto vars:     Size  Location     Type
  2613 ;;  lux             4   67[BANK0 ] float 
  2614 ;;  b               4   63[BANK0 ] float 
  2615 ;;  a               4   59[BANK0 ] float 
  2616 ;; Return value:  Size  Location     Type
  2617 ;;                  2   55[BANK0 ] int 
  2618 ;; Registers used:
  2619 ;;		wreg, status,2, status,0, btemp+1, pclath, cstack
  2620 ;; Tracked objects:
  2621 ;;		On entry : 0/0
  2622 ;;		On exit  : 0/0
  2623 ;;		Unchanged: 0/0
  2624 ;; Data sizes:     COMMON   BANK0   BANK1   BANK3   BANK2
  2625 ;;      Params:         0       4       0       0       0
  2626 ;;      Locals:         0      12       0       0       0
  2627 ;;      Temps:          0       0       0       0       0
  2628 ;;      Totals:         0      16       0       0       0
  2629 ;;Total ram usage:       16 bytes
  2630 ;; Hardware stack levels used: 1
  2631 ;; Hardware stack levels required when called: 5
  2632 ;; This function calls:
  2633 ;;		___fladd
  2634 ;;		___flmul
  2635 ;;		___fltol
  2636 ;; This function is called by:
  2637 ;;		_main
  2638 ;; This function uses a non-reentrant model
  2639 ;;
  2640                           
  2641  0A9C                     _converteVoltsParaLux:	
  2642                           ;psect for function _converteVoltsParaLux
  2643                           
  2644  0A9C                     l3314:	
  2645                           ;incstack = 0
  2646                           ; Regs used in _converteVoltsParaLux: [wreg+status,2+status,0+btemp+1+pclath+cstack]
  2647                           
  2648                           
  2649                           ;newmain.c: 312:     float a = -456.64;
  2650  0A9C  30C3               	movlw	195
  2651  0A9D  1283               	bcf	3,5	;RP0=0, select bank0
  2652  0A9E  1303               	bcf	3,6	;RP1=0, select bank0
  2653  0A9F  00DE               	movwf	converteVoltsParaLux@a+3
  2654  0AA0  30E4               	movlw	228
  2655  0AA1  00DD               	movwf	converteVoltsParaLux@a+2
  2656  0AA2  3051               	movlw	81
  2657  0AA3  00DC               	movwf	converteVoltsParaLux@a+1
  2658  0AA4  30EC               	movlw	236
  2659  0AA5  00DB               	movwf	converteVoltsParaLux@a
  2660                           
  2661                           ;newmain.c: 313:     float b = 1087.67;
  2662  0AA6  3044               	movlw	68
  2663  0AA7  00E2               	movwf	converteVoltsParaLux@b+3
  2664  0AA8  3087               	movlw	135
  2665  0AA9  00E1               	movwf	converteVoltsParaLux@b+2
  2666  0AAA  30F5               	movlw	245
  2667  0AAB  00E0               	movwf	converteVoltsParaLux@b+1
  2668  0AAC  3071               	movlw	113
  2669  0AAD  00DF               	movwf	converteVoltsParaLux@b
  2670  0AAE                     l3316:
  2671                           
  2672                           ;newmain.c: 314:     float lux = a * v_ldr + b;
  2673  0AAE  0862               	movf	converteVoltsParaLux@b+3,w
  2674  0AAF  00C6               	movwf	___fladd@b+3
  2675  0AB0  0861               	movf	converteVoltsParaLux@b+2,w
  2676  0AB1  00C5               	movwf	___fladd@b+2
  2677  0AB2  0860               	movf	converteVoltsParaLux@b+1,w
  2678  0AB3  00C4               	movwf	___fladd@b+1
  2679  0AB4  085F               	movf	converteVoltsParaLux@b,w
  2680  0AB5  00C3               	movwf	___fladd@b
  2681  0AB6  085A               	movf	converteVoltsParaLux@v_ldr+3,w
  2682  0AB7  00AC               	movwf	___flmul@b+3
  2683  0AB8  0859               	movf	converteVoltsParaLux@v_ldr+2,w
  2684  0AB9  00AB               	movwf	___flmul@b+2
  2685  0ABA  0858               	movf	converteVoltsParaLux@v_ldr+1,w
  2686  0ABB  00AA               	movwf	___flmul@b+1
  2687  0ABC  0857               	movf	converteVoltsParaLux@v_ldr,w
  2688  0ABD  00A9               	movwf	___flmul@b
  2689  0ABE  085E               	movf	converteVoltsParaLux@a+3,w
  2690  0ABF  00B0               	movwf	___flmul@a+3
  2691  0AC0  085D               	movf	converteVoltsParaLux@a+2,w
  2692  0AC1  00AF               	movwf	___flmul@a+2
  2693  0AC2  085C               	movf	converteVoltsParaLux@a+1,w
  2694  0AC3  00AE               	movwf	___flmul@a+1
  2695  0AC4  085B               	movf	converteVoltsParaLux@a,w
  2696  0AC5  00AD               	movwf	___flmul@a
  2697  0AC6  120A  118A  2049  120A  158A  	fcall	___flmul
  2698  0ACB  1283               	bcf	3,5	;RP0=0, select bank0
  2699  0ACC  1303               	bcf	3,6	;RP1=0, select bank0
  2700  0ACD  082C               	movf	?___flmul+3,w
  2701  0ACE  00CA               	movwf	___fladd@a+3
  2702  0ACF  082B               	movf	?___flmul+2,w
  2703  0AD0  00C9               	movwf	___fladd@a+2
  2704  0AD1  082A               	movf	?___flmul+1,w
  2705  0AD2  00C8               	movwf	___fladd@a+1
  2706  0AD3  0829               	movf	?___flmul,w
  2707  0AD4  00C7               	movwf	___fladd@a
  2708  0AD5  120A  118A  23AA  120A  158A  	fcall	___fladd
  2709  0ADA  1283               	bcf	3,5	;RP0=0, select bank0
  2710  0ADB  1303               	bcf	3,6	;RP1=0, select bank0
  2711  0ADC  0846               	movf	?___fladd+3,w
  2712  0ADD  00E6               	movwf	converteVoltsParaLux@lux+3
  2713  0ADE  0845               	movf	?___fladd+2,w
  2714  0ADF  00E5               	movwf	converteVoltsParaLux@lux+2
  2715  0AE0  0844               	movf	?___fladd+1,w
  2716  0AE1  00E4               	movwf	converteVoltsParaLux@lux+1
  2717  0AE2  0843               	movf	?___fladd,w
  2718  0AE3  00E3               	movwf	converteVoltsParaLux@lux
  2719  0AE4                     l3318:
  2720                           
  2721                           ;newmain.c: 315:     return (int)lux;
  2722  0AE4  0866               	movf	converteVoltsParaLux@lux+3,w
  2723  0AE5  00A3               	movwf	___fltol@f1+3
  2724  0AE6  0865               	movf	converteVoltsParaLux@lux+2,w
  2725  0AE7  00A2               	movwf	___fltol@f1+2
  2726  0AE8  0864               	movf	converteVoltsParaLux@lux+1,w
  2727  0AE9  00A1               	movwf	___fltol@f1+1
  2728  0AEA  0863               	movf	converteVoltsParaLux@lux,w
  2729  0AEB  00A0               	movwf	___fltol@f1
  2730  0AEC  120A  158A  2432  120A  158A  	fcall	___fltol
  2731  0AF1  1283               	bcf	3,5	;RP0=0, select bank0
  2732  0AF2  1303               	bcf	3,6	;RP1=0, select bank0
  2733  0AF3  0821               	movf	?___fltol+1,w
  2734  0AF4  00D8               	movwf	?_converteVoltsParaLux+1
  2735  0AF5  0820               	movf	?___fltol,w
  2736  0AF6  00D7               	movwf	?_converteVoltsParaLux
  2737  0AF7                     l190:
  2738  0AF7  0008               	return
  2739  0AF8                     __end_of_converteVoltsParaLux:
  2740                           
  2741                           	psect	text13
  2742  0C32                     __ptext13:	
  2743 ;; *************** function ___fltol *****************
  2744 ;; Defined at:
  2745 ;;		line 43 in file "C:\Program Files\Microchip\xc8\v2.35\pic\sources\c90\common\fltol.c"
  2746 ;; Parameters:    Size  Location     Type
  2747 ;;  f1              4    0[BANK0 ] int 
  2748 ;; Auto vars:     Size  Location     Type
  2749 ;;  exp1            1   10[BANK0 ] unsigned char 
  2750 ;;  sign1           1    9[BANK0 ] unsigned char 
  2751 ;; Return value:  Size  Location     Type
  2752 ;;                  4    0[BANK0 ] long 
  2753 ;; Registers used:
  2754 ;;		wreg, status,2, status,0
  2755 ;; Tracked objects:
  2756 ;;		On entry : 0/0
  2757 ;;		On exit  : 0/0
  2758 ;;		Unchanged: 0/0
  2759 ;; Data sizes:     COMMON   BANK0   BANK1   BANK3   BANK2
  2760 ;;      Params:         0       4       0       0       0
  2761 ;;      Locals:         0       2       0       0       0
  2762 ;;      Temps:          0       5       0       0       0
  2763 ;;      Totals:         0      11       0       0       0
  2764 ;;Total ram usage:       11 bytes
  2765 ;; Hardware stack levels used: 1
  2766 ;; Hardware stack levels required when called: 3
  2767 ;; This function calls:
  2768 ;;		Nothing
  2769 ;; This function is called by:
  2770 ;;		_converteVoltsParaLux
  2771 ;; This function uses a non-reentrant model
  2772 ;;
  2773                           
  2774  0C32                     ___fltol:	
  2775                           ;psect for function ___fltol
  2776                           
  2777  0C32                     l3036:	
  2778                           ;incstack = 0
  2779                           ; Regs used in ___fltol: [wreg+status,2+status,0]
  2780                           
  2781  0C32  1003               	clrc
  2782  0C33  1283               	bcf	3,5	;RP0=0, select bank0
  2783  0C34  1303               	bcf	3,6	;RP1=0, select bank0
  2784  0C35  0D22               	rlf	___fltol@f1+2,w
  2785  0C36  0D23               	rlf	___fltol@f1+3,w
  2786  0C37  00A4               	movwf	??___fltol
  2787  0C38  0824               	movf	??___fltol,w
  2788  0C39  00AA               	movwf	___fltol@exp1
  2789  0C3A  082A               	movf	___fltol@exp1,w
  2790  0C3B  1D03               	btfss	3,2
  2791  0C3C  2C3E               	goto	u4291
  2792  0C3D  2C3F               	goto	u4290
  2793  0C3E                     u4291:
  2794  0C3E  2C48               	goto	l3042
  2795  0C3F                     u4290:
  2796  0C3F                     l3038:
  2797  0C3F  3000               	movlw	0
  2798  0C40  00A3               	movwf	?___fltol+3
  2799  0C41  3000               	movlw	0
  2800  0C42  00A2               	movwf	?___fltol+2
  2801  0C43  3000               	movlw	0
  2802  0C44  00A1               	movwf	?___fltol+1
  2803  0C45  3000               	movlw	0
  2804  0C46  00A0               	movwf	?___fltol
  2805  0C47  2CAD               	goto	l476
  2806  0C48                     l3042:
  2807  0C48  0820               	movf	___fltol@f1,w
  2808  0C49  00A4               	movwf	??___fltol
  2809  0C4A  0821               	movf	___fltol@f1+1,w
  2810  0C4B  00A5               	movwf	??___fltol+1
  2811  0C4C  0822               	movf	___fltol@f1+2,w
  2812  0C4D  00A6               	movwf	??___fltol+2
  2813  0C4E  0823               	movf	___fltol@f1+3,w
  2814  0C4F  00A7               	movwf	??___fltol+3
  2815  0C50  301F               	movlw	31
  2816  0C51                     u4305:
  2817  0C51  1003               	clrc
  2818  0C52  0CA7               	rrf	??___fltol+3,f
  2819  0C53  0CA6               	rrf	??___fltol+2,f
  2820  0C54  0CA5               	rrf	??___fltol+1,f
  2821  0C55  0CA4               	rrf	??___fltol,f
  2822  0C56                     u4300:
  2823  0C56  3EFF               	addlw	-1
  2824  0C57  1D03               	skipz
  2825  0C58  2C51               	goto	u4305
  2826  0C59  0824               	movf	??___fltol,w
  2827  0C5A  00A8               	movwf	??___fltol+4
  2828  0C5B  0828               	movf	??___fltol+4,w
  2829  0C5C  00A9               	movwf	___fltol@sign1
  2830  0C5D                     l3044:
  2831  0C5D  17A2               	bsf	___fltol@f1+2,7
  2832  0C5E                     l3046:
  2833  0C5E  30FF               	movlw	255
  2834  0C5F  05A0               	andwf	___fltol@f1,f
  2835  0C60  30FF               	movlw	255
  2836  0C61  05A1               	andwf	___fltol@f1+1,f
  2837  0C62  30FF               	movlw	255
  2838  0C63  05A2               	andwf	___fltol@f1+2,f
  2839  0C64  3000               	movlw	0
  2840  0C65  05A3               	andwf	___fltol@f1+3,f
  2841  0C66                     l3048:
  2842  0C66  3096               	movlw	150
  2843  0C67  02AA               	subwf	___fltol@exp1,f
  2844  0C68                     l3050:
  2845  0C68  1FAA               	btfss	___fltol@exp1,7
  2846  0C69  2C6B               	goto	u4311
  2847  0C6A  2C6C               	goto	u4310
  2848  0C6B                     u4311:
  2849  0C6B  2C86               	goto	l3060
  2850  0C6C                     u4310:
  2851  0C6C                     l3052:
  2852  0C6C  082A               	movf	___fltol@exp1,w
  2853  0C6D  3A80               	xorlw	128
  2854  0C6E  3E97               	addlw	151
  2855  0C6F  1803               	skipnc
  2856  0C70  2C72               	goto	u4321
  2857  0C71  2C73               	goto	u4320
  2858  0C72                     u4321:
  2859  0C72  2C74               	goto	l3058
  2860  0C73                     u4320:
  2861  0C73  2C3F               	goto	l3038
  2862  0C74                     l3058:
  2863  0C74  3001               	movlw	1
  2864  0C75                     u4335:
  2865  0C75  1003               	clrc
  2866  0C76  0CA3               	rrf	___fltol@f1+3,f
  2867  0C77  0CA2               	rrf	___fltol@f1+2,f
  2868  0C78  0CA1               	rrf	___fltol@f1+1,f
  2869  0C79  0CA0               	rrf	___fltol@f1,f
  2870  0C7A  3EFF               	addlw	-1
  2871  0C7B  1D03               	skipz
  2872  0C7C  2C75               	goto	u4335
  2873  0C7D  3001               	movlw	1
  2874  0C7E  00A4               	movwf	??___fltol
  2875  0C7F  0824               	movf	??___fltol,w
  2876  0C80  07AA               	addwf	___fltol@exp1,f
  2877  0C81  1D03               	btfss	3,2
  2878  0C82  2C84               	goto	u4341
  2879  0C83  2C85               	goto	u4340
  2880  0C84                     u4341:
  2881  0C84  2C74               	goto	l3058
  2882  0C85                     u4340:
  2883  0C85  2C9D               	goto	l3068
  2884  0C86                     l3060:
  2885  0C86  3020               	movlw	32
  2886  0C87  022A               	subwf	___fltol@exp1,w
  2887  0C88  1C03               	skipc
  2888  0C89  2C8B               	goto	u4351
  2889  0C8A  2C8C               	goto	u4350
  2890  0C8B                     u4351:
  2891  0C8B  2C98               	goto	l483
  2892  0C8C                     u4350:
  2893  0C8C  2C3F               	goto	l3038
  2894  0C8D                     l3066:
  2895  0C8D  3001               	movlw	1
  2896  0C8E  00A4               	movwf	??___fltol
  2897  0C8F                     u4365:
  2898  0C8F  1003               	clrc
  2899  0C90  0DA0               	rlf	___fltol@f1,f
  2900  0C91  0DA1               	rlf	___fltol@f1+1,f
  2901  0C92  0DA2               	rlf	___fltol@f1+2,f
  2902  0C93  0DA3               	rlf	___fltol@f1+3,f
  2903  0C94  0BA4               	decfsz	??___fltol,f
  2904  0C95  2C8F               	goto	u4365
  2905  0C96  3001               	movlw	1
  2906  0C97  02AA               	subwf	___fltol@exp1,f
  2907  0C98                     l483:
  2908  0C98  082A               	movf	___fltol@exp1,w
  2909  0C99  1D03               	btfss	3,2
  2910  0C9A  2C9C               	goto	u4371
  2911  0C9B  2C9D               	goto	u4370
  2912  0C9C                     u4371:
  2913  0C9C  2C8D               	goto	l3066
  2914  0C9D                     u4370:
  2915  0C9D                     l3068:
  2916  0C9D  0829               	movf	___fltol@sign1,w
  2917  0C9E  1903               	btfsc	3,2
  2918  0C9F  2CA1               	goto	u4381
  2919  0CA0  2CA2               	goto	u4380
  2920  0CA1                     u4381:
  2921  0CA1  2CAD               	goto	l486
  2922  0CA2                     u4380:
  2923  0CA2                     l3070:
  2924  0CA2  09A0               	comf	___fltol@f1,f
  2925  0CA3  09A1               	comf	___fltol@f1+1,f
  2926  0CA4  09A2               	comf	___fltol@f1+2,f
  2927  0CA5  09A3               	comf	___fltol@f1+3,f
  2928  0CA6  0AA0               	incf	___fltol@f1,f
  2929  0CA7  1903               	skipnz
  2930  0CA8  0AA1               	incf	___fltol@f1+1,f
  2931  0CA9  1903               	skipnz
  2932  0CAA  0AA2               	incf	___fltol@f1+2,f
  2933  0CAB  1903               	skipnz
  2934  0CAC  0AA3               	incf	___fltol@f1+3,f
  2935  0CAD                     l486:
  2936  0CAD                     l476:
  2937  0CAD  0008               	return
  2938  0CAE                     __end_of___fltol:
  2939                           
  2940                           	psect	text14
  2941  03AA                     __ptext14:	
  2942 ;; *************** function ___fladd *****************
  2943 ;; Defined at:
  2944 ;;		line 10 in file "C:\Program Files\Microchip\xc8\v2.35\pic\sources\c90\common\sprcadd.c"
  2945 ;; Parameters:    Size  Location     Type
  2946 ;;  b               4   35[BANK0 ] long 
  2947 ;;  a               4   39[BANK0 ] long 
  2948 ;; Auto vars:     Size  Location     Type
  2949 ;;  grs             1   54[BANK0 ] unsigned char 
  2950 ;;  bexp            1   53[BANK0 ] unsigned char 
  2951 ;;  aexp            1   52[BANK0 ] unsigned char 
  2952 ;;  signs           1   51[BANK0 ] unsigned char 
  2953 ;; Return value:  Size  Location     Type
  2954 ;;                  4   35[BANK0 ] unsigned char 
  2955 ;; Registers used:
  2956 ;;		wreg, status,2, status,0, btemp+1
  2957 ;; Tracked objects:
  2958 ;;		On entry : 0/0
  2959 ;;		On exit  : 0/0
  2960 ;;		Unchanged: 0/0
  2961 ;; Data sizes:     COMMON   BANK0   BANK1   BANK3   BANK2
  2962 ;;      Params:         0       8       0       0       0
  2963 ;;      Locals:         0       4       0       0       0
  2964 ;;      Temps:          0       8       0       0       0
  2965 ;;      Totals:         0      20       0       0       0
  2966 ;;Total ram usage:       20 bytes
  2967 ;; Hardware stack levels used: 1
  2968 ;; Hardware stack levels required when called: 3
  2969 ;; This function calls:
  2970 ;;		Nothing
  2971 ;; This function is called by:
  2972 ;;		_converteVoltsParaLux
  2973 ;; This function uses a non-reentrant model
  2974 ;;
  2975                           
  2976  03AA                     ___fladd:	
  2977                           ;psect for function ___fladd
  2978                           
  2979  03AA                     l2096:	
  2980                           ;incstack = 0
  2981                           ; Regs used in ___fladd: [wreg+status,2+status,0+btemp+1]
  2982                           
  2983  03AA  1283               	bcf	3,5	;RP0=0, select bank0
  2984  03AB  1303               	bcf	3,6	;RP1=0, select bank0
  2985  03AC  0846               	movf	___fladd@b+3,w
  2986  03AD  3980               	andlw	128
  2987  03AE  00CB               	movwf	??___fladd
  2988  03AF  084B               	movf	??___fladd,w
  2989  03B0  00D3               	movwf	___fladd@signs
  2990  03B1                     l2098:
  2991  03B1  0846               	movf	___fladd@b+3,w
  2992  03B2  00CB               	movwf	??___fladd
  2993  03B3  074B               	addwf	??___fladd,w
  2994  03B4  00CC               	movwf	??___fladd+1
  2995  03B5  084C               	movf	??___fladd+1,w
  2996  03B6  00D5               	movwf	___fladd@bexp
  2997  03B7                     l2100:
  2998  03B7  1FC5               	btfss	___fladd@b+2,7
  2999  03B8  2BBA               	goto	u2511
  3000  03B9  2BBB               	goto	u2510
  3001  03BA                     u2511:
  3002  03BA  2BBC               	goto	l2104
  3003  03BB                     u2510:
  3004  03BB                     l2102:
  3005  03BB  1455               	bsf	___fladd@bexp,0
  3006  03BC                     l2104:
  3007  03BC  0855               	movf	___fladd@bexp,w
  3008  03BD  1903               	btfsc	3,2
  3009  03BE  2BC0               	goto	u2521
  3010  03BF  2BC1               	goto	u2520
  3011  03C0                     u2521:
  3012  03C0  2BD1               	goto	l2114
  3013  03C1                     u2520:
  3014  03C1                     l2106:
  3015  03C1  0A55               	incf	___fladd@bexp,w
  3016  03C2  1D03               	btfss	3,2
  3017  03C3  2BC5               	goto	u2531
  3018  03C4  2BC6               	goto	u2530
  3019  03C5                     u2531:
  3020  03C5  2BCE               	goto	l2110
  3021  03C6                     u2530:
  3022  03C6                     l2108:
  3023  03C6  3000               	movlw	0
  3024  03C7  00C6               	movwf	___fladd@b+3
  3025  03C8  3000               	movlw	0
  3026  03C9  00C5               	movwf	___fladd@b+2
  3027  03CA  3000               	movlw	0
  3028  03CB  00C4               	movwf	___fladd@b+1
  3029  03CC  3000               	movlw	0
  3030  03CD  00C3               	movwf	___fladd@b
  3031  03CE                     l2110:
  3032  03CE  17C5               	bsf	___fladd@b+2,7
  3033  03CF                     l2112:
  3034  03CF  01C6               	clrf	___fladd@b+3
  3035  03D0  2BD9               	goto	l2116
  3036  03D1                     l2114:
  3037  03D1  3000               	movlw	0
  3038  03D2  00C6               	movwf	___fladd@b+3
  3039  03D3  3000               	movlw	0
  3040  03D4  00C5               	movwf	___fladd@b+2
  3041  03D5  3000               	movlw	0
  3042  03D6  00C4               	movwf	___fladd@b+1
  3043  03D7  3000               	movlw	0
  3044  03D8  00C3               	movwf	___fladd@b
  3045  03D9                     l2116:
  3046  03D9  084A               	movf	___fladd@a+3,w
  3047  03DA  3980               	andlw	128
  3048  03DB  00CB               	movwf	??___fladd
  3049  03DC  084B               	movf	??___fladd,w
  3050  03DD  00D4               	movwf	___fladd@aexp
  3051  03DE                     l2118:
  3052  03DE  0854               	movf	___fladd@aexp,w
  3053  03DF  0653               	xorwf	___fladd@signs,w
  3054  03E0  1903               	skipnz
  3055  03E1  2BE3               	goto	u2541
  3056  03E2  2BE4               	goto	u2540
  3057  03E3                     u2541:
  3058  03E3  2BE5               	goto	l2122
  3059  03E4                     u2540:
  3060  03E4                     l2120:
  3061  03E4  1753               	bsf	___fladd@signs,6
  3062  03E5                     l2122:
  3063  03E5  084A               	movf	___fladd@a+3,w
  3064  03E6  00CB               	movwf	??___fladd
  3065  03E7  074B               	addwf	??___fladd,w
  3066  03E8  00CC               	movwf	??___fladd+1
  3067  03E9  084C               	movf	??___fladd+1,w
  3068  03EA  00D4               	movwf	___fladd@aexp
  3069  03EB                     l2124:
  3070  03EB  1FC9               	btfss	___fladd@a+2,7
  3071  03EC  2BEE               	goto	u2551
  3072  03ED  2BEF               	goto	u2550
  3073  03EE                     u2551:
  3074  03EE  2BF0               	goto	l2128
  3075  03EF                     u2550:
  3076  03EF                     l2126:
  3077  03EF  1454               	bsf	___fladd@aexp,0
  3078  03F0                     l2128:
  3079  03F0  0854               	movf	___fladd@aexp,w
  3080  03F1  1903               	btfsc	3,2
  3081  03F2  2BF4               	goto	u2561
  3082  03F3  2BF5               	goto	u2560
  3083  03F4                     u2561:
  3084  03F4  2C05               	goto	l2138
  3085  03F5                     u2560:
  3086  03F5                     l2130:
  3087  03F5  0A54               	incf	___fladd@aexp,w
  3088  03F6  1D03               	btfss	3,2
  3089  03F7  2BF9               	goto	u2571
  3090  03F8  2BFA               	goto	u2570
  3091  03F9                     u2571:
  3092  03F9  2C02               	goto	l2134
  3093  03FA                     u2570:
  3094  03FA                     l2132:
  3095  03FA  3000               	movlw	0
  3096  03FB  00CA               	movwf	___fladd@a+3
  3097  03FC  3000               	movlw	0
  3098  03FD  00C9               	movwf	___fladd@a+2
  3099  03FE  3000               	movlw	0
  3100  03FF  00C8               	movwf	___fladd@a+1
  3101  0400  3000               	movlw	0
  3102  0401  00C7               	movwf	___fladd@a
  3103  0402                     l2134:
  3104  0402  17C9               	bsf	___fladd@a+2,7
  3105  0403                     l2136:
  3106  0403  01CA               	clrf	___fladd@a+3
  3107  0404  2C0D               	goto	l583
  3108  0405                     l2138:
  3109  0405  3000               	movlw	0
  3110  0406  00CA               	movwf	___fladd@a+3
  3111  0407  3000               	movlw	0
  3112  0408  00C9               	movwf	___fladd@a+2
  3113  0409  3000               	movlw	0
  3114  040A  00C8               	movwf	___fladd@a+1
  3115  040B  3000               	movlw	0
  3116  040C  00C7               	movwf	___fladd@a
  3117  040D                     l583:
  3118  040D  0855               	movf	___fladd@bexp,w
  3119  040E  0254               	subwf	___fladd@aexp,w
  3120  040F  1803               	skipnc
  3121  0410  2C12               	goto	u2581
  3122  0411  2C13               	goto	u2580
  3123  0412                     u2581:
  3124  0412  2C57               	goto	l2174
  3125  0413                     u2580:
  3126  0413                     l2140:
  3127  0413  1F53               	btfss	___fladd@signs,6
  3128  0414  2C16               	goto	u2591
  3129  0415  2C17               	goto	u2590
  3130  0416                     u2591:
  3131  0416  2C1B               	goto	l2144
  3132  0417                     u2590:
  3133  0417                     l2142:
  3134  0417  3080               	movlw	128
  3135  0418  00CB               	movwf	??___fladd
  3136  0419  084B               	movf	??___fladd,w
  3137  041A  06D3               	xorwf	___fladd@signs,f
  3138  041B                     l2144:
  3139  041B  0855               	movf	___fladd@bexp,w
  3140  041C  00CB               	movwf	??___fladd
  3141  041D  084B               	movf	??___fladd,w
  3142  041E  00D6               	movwf	___fladd@grs
  3143  041F                     l2146:
  3144  041F  0854               	movf	___fladd@aexp,w
  3145  0420  00CB               	movwf	??___fladd
  3146  0421  084B               	movf	??___fladd,w
  3147  0422  00D5               	movwf	___fladd@bexp
  3148  0423                     l2148:
  3149  0423  0856               	movf	___fladd@grs,w
  3150  0424  00CB               	movwf	??___fladd
  3151  0425  084B               	movf	??___fladd,w
  3152  0426  00D4               	movwf	___fladd@aexp
  3153  0427                     l2150:
  3154  0427  0843               	movf	___fladd@b,w
  3155  0428  00CB               	movwf	??___fladd
  3156  0429  084B               	movf	??___fladd,w
  3157  042A  00D6               	movwf	___fladd@grs
  3158  042B                     l2152:
  3159  042B  0847               	movf	___fladd@a,w
  3160  042C  00CB               	movwf	??___fladd
  3161  042D  084B               	movf	??___fladd,w
  3162  042E  00C3               	movwf	___fladd@b
  3163  042F                     l2154:
  3164  042F  0856               	movf	___fladd@grs,w
  3165  0430  00CB               	movwf	??___fladd
  3166  0431  084B               	movf	??___fladd,w
  3167  0432  00C7               	movwf	___fladd@a
  3168  0433                     l2156:
  3169  0433  0844               	movf	___fladd@b+1,w
  3170  0434  00CB               	movwf	??___fladd
  3171  0435  084B               	movf	??___fladd,w
  3172  0436  00D6               	movwf	___fladd@grs
  3173  0437                     l2158:
  3174  0437  0848               	movf	___fladd@a+1,w
  3175  0438  00CB               	movwf	??___fladd
  3176  0439  084B               	movf	??___fladd,w
  3177  043A  00C4               	movwf	___fladd@b+1
  3178  043B                     l2160:
  3179  043B  0856               	movf	___fladd@grs,w
  3180  043C  00CB               	movwf	??___fladd
  3181  043D  084B               	movf	??___fladd,w
  3182  043E  00C8               	movwf	___fladd@a+1
  3183  043F                     l2162:
  3184  043F  0845               	movf	___fladd@b+2,w
  3185  0440  00CB               	movwf	??___fladd
  3186  0441  084B               	movf	??___fladd,w
  3187  0442  00D6               	movwf	___fladd@grs
  3188  0443                     l2164:
  3189  0443  0849               	movf	___fladd@a+2,w
  3190  0444  00CB               	movwf	??___fladd
  3191  0445  084B               	movf	??___fladd,w
  3192  0446  00C5               	movwf	___fladd@b+2
  3193  0447                     l2166:
  3194  0447  0856               	movf	___fladd@grs,w
  3195  0448  00CB               	movwf	??___fladd
  3196  0449  084B               	movf	??___fladd,w
  3197  044A  00C9               	movwf	___fladd@a+2
  3198  044B                     l2168:
  3199  044B  0846               	movf	___fladd@b+3,w
  3200  044C  00CB               	movwf	??___fladd
  3201  044D  084B               	movf	??___fladd,w
  3202  044E  00D6               	movwf	___fladd@grs
  3203  044F                     l2170:
  3204  044F  084A               	movf	___fladd@a+3,w
  3205  0450  00CB               	movwf	??___fladd
  3206  0451  084B               	movf	??___fladd,w
  3207  0452  00C6               	movwf	___fladd@b+3
  3208  0453                     l2172:
  3209  0453  0856               	movf	___fladd@grs,w
  3210  0454  00CB               	movwf	??___fladd
  3211  0455  084B               	movf	??___fladd,w
  3212  0456  00CA               	movwf	___fladd@a+3
  3213  0457                     l2174:
  3214  0457  01D6               	clrf	___fladd@grs
  3215  0458                     l2176:
  3216  0458  0854               	movf	___fladd@aexp,w
  3217  0459  00CB               	movwf	??___fladd
  3218  045A  01CC               	clrf	??___fladd+1
  3219  045B  084C               	movf	??___fladd+1,w
  3220  045C  00CE               	movwf	??___fladd+3
  3221  045D  0855               	movf	___fladd@bexp,w
  3222  045E  024B               	subwf	??___fladd,w
  3223  045F  00CD               	movwf	??___fladd+2
  3224  0460  1C03               	skipc
  3225  0461  03CE               	decf	??___fladd+3,f
  3226  0462  084E               	movf	??___fladd+3,w
  3227  0463  3A80               	xorlw	128
  3228  0464  00FF               	movwf	btemp+1
  3229  0465  3080               	movlw	128
  3230  0466  027F               	subwf	btemp+1,w
  3231  0467  1D03               	skipz
  3232  0468  2C6B               	goto	u2605
  3233  0469  301A               	movlw	26
  3234  046A  024D               	subwf	??___fladd+2,w
  3235  046B                     u2605:
  3236  046B  1C03               	skipc
  3237  046C  2C6E               	goto	u2601
  3238  046D  2C6F               	goto	u2600
  3239  046E                     u2601:
  3240  046E  2CAC               	goto	l2192
  3241  046F                     u2600:
  3242  046F                     l2178:
  3243  046F  1283               	bcf	3,5	;RP0=0, select bank0
  3244  0470  1303               	bcf	3,6	;RP1=0, select bank0
  3245  0471  0846               	movf	___fladd@b+3,w
  3246  0472  0445               	iorwf	___fladd@b+2,w
  3247  0473  0444               	iorwf	___fladd@b+1,w
  3248  0474  0443               	iorwf	___fladd@b,w
  3249  0475  1D03               	skipz
  3250  0476  2C78               	goto	u2611
  3251  0477  2C7A               	goto	u2610
  3252  0478                     u2611:
  3253  0478  3001               	movlw	1
  3254  0479  2C7B               	goto	u2620
  3255  047A                     u2610:
  3256  047A  3000               	movlw	0
  3257  047B                     u2620:
  3258  047B  00CB               	movwf	??___fladd
  3259  047C  084B               	movf	??___fladd,w
  3260  047D  00D6               	movwf	___fladd@grs
  3261  047E  3000               	movlw	0
  3262  047F  00C6               	movwf	___fladd@b+3
  3263  0480  3000               	movlw	0
  3264  0481  00C5               	movwf	___fladd@b+2
  3265  0482  3000               	movlw	0
  3266  0483  00C4               	movwf	___fladd@b+1
  3267  0484  3000               	movlw	0
  3268  0485  00C3               	movwf	___fladd@b
  3269  0486  0854               	movf	___fladd@aexp,w
  3270  0487  00CB               	movwf	??___fladd
  3271  0488  084B               	movf	??___fladd,w
  3272  0489  00D5               	movwf	___fladd@bexp
  3273  048A  2CB4               	goto	l587
  3274  048B                     l589:
  3275  048B  1C56               	btfss	___fladd@grs,0
  3276  048C  2C8E               	goto	u2631
  3277  048D  2C8F               	goto	u2630
  3278  048E                     u2631:
  3279  048E  2C98               	goto	l2182
  3280  048F                     u2630:
  3281  048F                     l2180:
  3282  048F  0856               	movf	___fladd@grs,w
  3283  0490  00CB               	movwf	??___fladd
  3284  0491  1003               	clrc
  3285  0492  0C4B               	rrf	??___fladd,w
  3286  0493  3801               	iorlw	1
  3287  0494  00CC               	movwf	??___fladd+1
  3288  0495  084C               	movf	??___fladd+1,w
  3289  0496  00D6               	movwf	___fladd@grs
  3290  0497  2C9A               	goto	l2184
  3291  0498                     l2182:
  3292  0498  1003               	clrc
  3293  0499  0CD6               	rrf	___fladd@grs,f
  3294  049A                     l2184:
  3295  049A  1C43               	btfss	___fladd@b,0
  3296  049B  2C9D               	goto	u2641
  3297  049C  2C9E               	goto	u2640
  3298  049D                     u2641:
  3299  049D  2C9F               	goto	l2188
  3300  049E                     u2640:
  3301  049E                     l2186:
  3302  049E  17D6               	bsf	___fladd@grs,7
  3303  049F                     l2188:
  3304  049F  3001               	movlw	1
  3305  04A0  00CB               	movwf	??___fladd
  3306  04A1                     u2655:
  3307  04A1  0D46               	rlf	___fladd@b+3,w
  3308  04A2  0CC6               	rrf	___fladd@b+3,f
  3309  04A3  0CC5               	rrf	___fladd@b+2,f
  3310  04A4  0CC4               	rrf	___fladd@b+1,f
  3311  04A5  0CC3               	rrf	___fladd@b,f
  3312  04A6  0BCB               	decfsz	??___fladd& (0+127),f
  3313  04A7  2CA1               	goto	u2655
  3314  04A8                     l2190:
  3315  04A8  3001               	movlw	1
  3316  04A9  00CB               	movwf	??___fladd
  3317  04AA  084B               	movf	??___fladd,w
  3318  04AB  07D5               	addwf	___fladd@bexp,f
  3319  04AC                     l2192:
  3320  04AC  1283               	bcf	3,5	;RP0=0, select bank0
  3321  04AD  1303               	bcf	3,6	;RP1=0, select bank0
  3322  04AE  0854               	movf	___fladd@aexp,w
  3323  04AF  0255               	subwf	___fladd@bexp,w
  3324  04B0  1C03               	skipc
  3325  04B1  2CB3               	goto	u2661
  3326  04B2  2CB4               	goto	u2660
  3327  04B3                     u2661:
  3328  04B3  2C8B               	goto	l589
  3329  04B4                     u2660:
  3330  04B4                     l587:
  3331  04B4  1B53               	btfsc	___fladd@signs,6
  3332  04B5  2CB7               	goto	u2671
  3333  04B6  2CB8               	goto	u2670
  3334  04B7                     u2671:
  3335  04B7  2D03               	goto	l2218
  3336  04B8                     u2670:
  3337  04B8                     l2194:
  3338  04B8  0855               	movf	___fladd@bexp,w
  3339  04B9  1D03               	btfss	3,2
  3340  04BA  2CBC               	goto	u2681
  3341  04BB  2CBD               	goto	u2680
  3342  04BC                     u2681:
  3343  04BC  2CC6               	goto	l2200
  3344  04BD                     u2680:
  3345  04BD                     l2196:
  3346  04BD  3000               	movlw	0
  3347  04BE  00C6               	movwf	?___fladd+3
  3348  04BF  3000               	movlw	0
  3349  04C0  00C5               	movwf	?___fladd+2
  3350  04C1  3000               	movlw	0
  3351  04C2  00C4               	movwf	?___fladd+1
  3352  04C3  3000               	movlw	0
  3353  04C4  00C3               	movwf	?___fladd
  3354  04C5  2E31               	goto	l596
  3355  04C6                     l2200:
  3356  04C6  0847               	movf	___fladd@a,w
  3357  04C7  07C3               	addwf	___fladd@b,f
  3358  04C8  0848               	movf	___fladd@a+1,w
  3359  04C9  1103               	clrz
  3360  04CA  1803               	skipnc
  3361  04CB  3E01               	addlw	1
  3362  04CC  1903               	skipnz
  3363  04CD  2CCF               	goto	u2691
  3364  04CE  07C4               	addwf	___fladd@b+1,f
  3365  04CF                     u2691:
  3366  04CF  0849               	movf	___fladd@a+2,w
  3367  04D0  1103               	clrz
  3368  04D1  1803               	skipnc
  3369  04D2  3E01               	addlw	1
  3370  04D3  1903               	skipnz
  3371  04D4  2CD6               	goto	u2692
  3372  04D5  07C5               	addwf	___fladd@b+2,f
  3373  04D6                     u2692:
  3374  04D6  084A               	movf	___fladd@a+3,w
  3375  04D7  1103               	clrz
  3376  04D8  1803               	skipnc
  3377  04D9  3E01               	addlw	1
  3378  04DA  1903               	skipnz
  3379  04DB  2CDD               	goto	u2693
  3380  04DC  07C6               	addwf	___fladd@b+3,f
  3381  04DD                     u2693:
  3382  04DD                     l2202:
  3383  04DD  1C46               	btfss	___fladd@b+3,0
  3384  04DE  2CE0               	goto	u2701
  3385  04DF  2CE1               	goto	u2700
  3386  04E0                     u2701:
  3387  04E0  2DB7               	goto	l2252
  3388  04E1                     u2700:
  3389  04E1                     l2204:
  3390  04E1  1C56               	btfss	___fladd@grs,0
  3391  04E2  2CE4               	goto	u2711
  3392  04E3  2CE5               	goto	u2710
  3393  04E4                     u2711:
  3394  04E4  2CEE               	goto	l2208
  3395  04E5                     u2710:
  3396  04E5                     l2206:
  3397  04E5  0856               	movf	___fladd@grs,w
  3398  04E6  00CB               	movwf	??___fladd
  3399  04E7  1003               	clrc
  3400  04E8  0C4B               	rrf	??___fladd,w
  3401  04E9  3801               	iorlw	1
  3402  04EA  00CC               	movwf	??___fladd+1
  3403  04EB  084C               	movf	??___fladd+1,w
  3404  04EC  00D6               	movwf	___fladd@grs
  3405  04ED  2CF0               	goto	l2210
  3406  04EE                     l2208:
  3407  04EE  1003               	clrc
  3408  04EF  0CD6               	rrf	___fladd@grs,f
  3409  04F0                     l2210:
  3410  04F0  1C43               	btfss	___fladd@b,0
  3411  04F1  2CF3               	goto	u2721
  3412  04F2  2CF4               	goto	u2720
  3413  04F3                     u2721:
  3414  04F3  2CF5               	goto	l2214
  3415  04F4                     u2720:
  3416  04F4                     l2212:
  3417  04F4  17D6               	bsf	___fladd@grs,7
  3418  04F5                     l2214:
  3419  04F5  3001               	movlw	1
  3420  04F6  00CB               	movwf	??___fladd
  3421  04F7                     u2735:
  3422  04F7  0D46               	rlf	___fladd@b+3,w
  3423  04F8  0CC6               	rrf	___fladd@b+3,f
  3424  04F9  0CC5               	rrf	___fladd@b+2,f
  3425  04FA  0CC4               	rrf	___fladd@b+1,f
  3426  04FB  0CC3               	rrf	___fladd@b,f
  3427  04FC  0BCB               	decfsz	??___fladd& (0+127),f
  3428  04FD  2CF7               	goto	u2735
  3429  04FE                     l2216:
  3430  04FE  3001               	movlw	1
  3431  04FF  00CB               	movwf	??___fladd
  3432  0500  084B               	movf	??___fladd,w
  3433  0501  07D5               	addwf	___fladd@bexp,f
  3434  0502  2DB7               	goto	l2252
  3435  0503                     l2218:
  3436  0503  0846               	movf	___fladd@b+3,w
  3437  0504  3A80               	xorlw	128
  3438  0505  00FF               	movwf	btemp+1
  3439  0506  084A               	movf	___fladd@a+3,w
  3440  0507  3A80               	xorlw	128
  3441  0508  027F               	subwf	btemp+1,w
  3442  0509  1D03               	skipz
  3443  050A  2D15               	goto	u2743
  3444  050B  0849               	movf	___fladd@a+2,w
  3445  050C  0245               	subwf	___fladd@b+2,w
  3446  050D  1D03               	skipz
  3447  050E  2D15               	goto	u2743
  3448  050F  0848               	movf	___fladd@a+1,w
  3449  0510  0244               	subwf	___fladd@b+1,w
  3450  0511  1D03               	skipz
  3451  0512  2D15               	goto	u2743
  3452  0513  0847               	movf	___fladd@a,w
  3453  0514  0243               	subwf	___fladd@b,w
  3454  0515                     u2743:
  3455  0515  1803               	skipnc
  3456  0516  2D18               	goto	u2741
  3457  0517  2D19               	goto	u2740
  3458  0518                     u2741:
  3459  0518  2D71               	goto	l2228
  3460  0519                     u2740:
  3461  0519                     l2220:
  3462  0519  30FF               	movlw	255
  3463  051A  00CB               	movwf	??___fladd
  3464  051B  30FF               	movlw	255
  3465  051C  00CC               	movwf	??___fladd+1
  3466  051D  30FF               	movlw	255
  3467  051E  00CD               	movwf	??___fladd+2
  3468  051F  30FF               	movlw	255
  3469  0520  00CE               	movwf	??___fladd+3
  3470  0521  0847               	movf	___fladd@a,w
  3471  0522  00CF               	movwf	??___fladd+4
  3472  0523  0848               	movf	___fladd@a+1,w
  3473  0524  00D0               	movwf	??___fladd+5
  3474  0525  0849               	movf	___fladd@a+2,w
  3475  0526  00D1               	movwf	??___fladd+6
  3476  0527  084A               	movf	___fladd@a+3,w
  3477  0528  00D2               	movwf	??___fladd+7
  3478  0529  0843               	movf	___fladd@b,w
  3479  052A  02CF               	subwf	??___fladd+4,f
  3480  052B  0844               	movf	___fladd@b+1,w
  3481  052C  1C03               	skipc
  3482  052D  0F44               	incfsz	___fladd@b+1,w
  3483  052E  2D30               	goto	u2751
  3484  052F  2D31               	goto	u2752
  3485  0530                     u2751:
  3486  0530  02D0               	subwf	??___fladd+5,f
  3487  0531                     u2752:
  3488  0531  0845               	movf	___fladd@b+2,w
  3489  0532  1C03               	skipc
  3490  0533  0F45               	incfsz	___fladd@b+2,w
  3491  0534  2D36               	goto	u2753
  3492  0535  2D37               	goto	u2754
  3493  0536                     u2753:
  3494  0536  02D1               	subwf	??___fladd+6,f
  3495  0537                     u2754:
  3496  0537  0846               	movf	___fladd@b+3,w
  3497  0538  1C03               	skipc
  3498  0539  0F46               	incfsz	___fladd@b+3,w
  3499  053A  2D3C               	goto	u2755
  3500  053B  2D3D               	goto	u2756
  3501  053C                     u2755:
  3502  053C  02D2               	subwf	??___fladd+7,f
  3503  053D                     u2756:
  3504  053D  084F               	movf	??___fladd+4,w
  3505  053E  07CB               	addwf	??___fladd,f
  3506  053F  0850               	movf	??___fladd+5,w
  3507  0540  1803               	skipnc
  3508  0541  0F50               	incfsz	??___fladd+5,w
  3509  0542  2D44               	goto	u2760
  3510  0543  2D45               	goto	u2761
  3511  0544                     u2760:
  3512  0544  07CC               	addwf	??___fladd+1,f
  3513  0545                     u2761:
  3514  0545  0851               	movf	??___fladd+6,w
  3515  0546  1803               	skipnc
  3516  0547  0F51               	incfsz	??___fladd+6,w
  3517  0548  2D4A               	goto	u2762
  3518  0549  2D4B               	goto	u2763
  3519  054A                     u2762:
  3520  054A  07CD               	addwf	??___fladd+2,f
  3521  054B                     u2763:
  3522  054B  0852               	movf	??___fladd+7,w
  3523  054C  1803               	skipnc
  3524  054D  0A52               	incf	??___fladd+7,w
  3525  054E  07CE               	addwf	??___fladd+3,f
  3526  054F  084E               	movf	??___fladd+3,w
  3527  0550  00C6               	movwf	___fladd@b+3
  3528  0551  084D               	movf	??___fladd+2,w
  3529  0552  00C5               	movwf	___fladd@b+2
  3530  0553  084C               	movf	??___fladd+1,w
  3531  0554  00C4               	movwf	___fladd@b+1
  3532  0555  084B               	movf	??___fladd,w
  3533  0556  00C3               	movwf	___fladd@b
  3534  0557                     l2222:
  3535  0557  3080               	movlw	128
  3536  0558  00CB               	movwf	??___fladd
  3537  0559  084B               	movf	??___fladd,w
  3538  055A  06D3               	xorwf	___fladd@signs,f
  3539  055B  09D6               	comf	___fladd@grs,f
  3540  055C  0AD6               	incf	___fladd@grs,f
  3541  055D                     l2224:
  3542  055D  0856               	movf	___fladd@grs,w
  3543  055E  1D03               	btfss	3,2
  3544  055F  2D61               	goto	u2771
  3545  0560  2D62               	goto	u2770
  3546  0561                     u2771:
  3547  0561  2D7F               	goto	l604
  3548  0562                     u2770:
  3549  0562                     l2226:
  3550  0562  3001               	movlw	1
  3551  0563  07C3               	addwf	___fladd@b,f
  3552  0564  3000               	movlw	0
  3553  0565  1803               	skipnc
  3554  0566  3001               	movlw	1
  3555  0567  07C4               	addwf	___fladd@b+1,f
  3556  0568  3000               	movlw	0
  3557  0569  1803               	skipnc
  3558  056A  3001               	movlw	1
  3559  056B  07C5               	addwf	___fladd@b+2,f
  3560  056C  3000               	movlw	0
  3561  056D  1803               	skipnc
  3562  056E  3001               	movlw	1
  3563  056F  07C6               	addwf	___fladd@b+3,f
  3564  0570  2D7F               	goto	l604
  3565  0571                     l2228:
  3566  0571  0847               	movf	___fladd@a,w
  3567  0572  02C3               	subwf	___fladd@b,f
  3568  0573  0848               	movf	___fladd@a+1,w
  3569  0574  1C03               	skipc
  3570  0575  0F48               	incfsz	___fladd@a+1,w
  3571  0576  02C4               	subwf	___fladd@b+1,f
  3572  0577  0849               	movf	___fladd@a+2,w
  3573  0578  1C03               	skipc
  3574  0579  0F49               	incfsz	___fladd@a+2,w
  3575  057A  02C5               	subwf	___fladd@b+2,f
  3576  057B  084A               	movf	___fladd@a+3,w
  3577  057C  1C03               	skipc
  3578  057D  0F4A               	incfsz	___fladd@a+3,w
  3579  057E  02C6               	subwf	___fladd@b+3,f
  3580  057F                     l604:
  3581  057F  0846               	movf	___fladd@b+3,w
  3582  0580  0445               	iorwf	___fladd@b+2,w
  3583  0581  0444               	iorwf	___fladd@b+1,w
  3584  0582  0443               	iorwf	___fladd@b,w
  3585  0583  1D03               	skipz
  3586  0584  2D86               	goto	u2781
  3587  0585  2D87               	goto	u2780
  3588  0586                     u2781:
  3589  0586  2DB3               	goto	l2250
  3590  0587                     u2780:
  3591  0587                     l2230:
  3592  0587  0856               	movf	___fladd@grs,w
  3593  0588  1D03               	btfss	3,2
  3594  0589  2D8B               	goto	u2791
  3595  058A  2D8C               	goto	u2790
  3596  058B                     u2791:
  3597  058B  2DB3               	goto	l2250
  3598  058C                     u2790:
  3599  058C                     l2232:
  3600  058C  3000               	movlw	0
  3601  058D  00C6               	movwf	?___fladd+3
  3602  058E  3000               	movlw	0
  3603  058F  00C5               	movwf	?___fladd+2
  3604  0590  3000               	movlw	0
  3605  0591  00C4               	movwf	?___fladd+1
  3606  0592  3000               	movlw	0
  3607  0593  00C3               	movwf	?___fladd
  3608  0594  2E31               	goto	l596
  3609  0595                     l2236:
  3610  0595  3001               	movlw	1
  3611  0596  00CB               	movwf	??___fladd
  3612  0597                     u2805:
  3613  0597  1003               	clrc
  3614  0598  0DC3               	rlf	___fladd@b,f
  3615  0599  0DC4               	rlf	___fladd@b+1,f
  3616  059A  0DC5               	rlf	___fladd@b+2,f
  3617  059B  0DC6               	rlf	___fladd@b+3,f
  3618  059C  0BCB               	decfsz	??___fladd,f
  3619  059D  2D97               	goto	u2805
  3620  059E                     l2238:
  3621  059E  1FD6               	btfss	___fladd@grs,7
  3622  059F  2DA1               	goto	u2811
  3623  05A0  2DA2               	goto	u2810
  3624  05A1                     u2811:
  3625  05A1  2DA3               	goto	l608
  3626  05A2                     u2810:
  3627  05A2                     l2240:
  3628  05A2  1443               	bsf	___fladd@b,0
  3629  05A3                     l608:
  3630  05A3  1C56               	btfss	___fladd@grs,0
  3631  05A4  2DA6               	goto	u2821
  3632  05A5  2DA7               	goto	u2820
  3633  05A6                     u2821:
  3634  05A6  2DAA               	goto	l2244
  3635  05A7                     u2820:
  3636  05A7                     l2242:
  3637  05A7  1403               	setc
  3638  05A8  0DD6               	rlf	___fladd@grs,f
  3639  05A9  2DAC               	goto	l2246
  3640  05AA                     l2244:
  3641  05AA  1003               	clrc
  3642  05AB  0DD6               	rlf	___fladd@grs,f
  3643  05AC                     l2246:
  3644  05AC  0855               	movf	___fladd@bexp,w
  3645  05AD  1903               	btfsc	3,2
  3646  05AE  2DB0               	goto	u2831
  3647  05AF  2DB1               	goto	u2830
  3648  05B0                     u2831:
  3649  05B0  2DB3               	goto	l2250
  3650  05B1                     u2830:
  3651  05B1                     l2248:
  3652  05B1  3001               	movlw	1
  3653  05B2  02D5               	subwf	___fladd@bexp,f
  3654  05B3                     l2250:
  3655  05B3  1FC5               	btfss	___fladd@b+2,7
  3656  05B4  2DB6               	goto	u2841
  3657  05B5  2DB7               	goto	u2840
  3658  05B6                     u2841:
  3659  05B6  2D95               	goto	l2236
  3660  05B7                     u2840:
  3661  05B7                     l2252:
  3662  05B7  01D4               	clrf	___fladd@aexp
  3663  05B8                     l2254:
  3664  05B8  1FD6               	btfss	___fladd@grs,7
  3665  05B9  2DBB               	goto	u2851
  3666  05BA  2DBC               	goto	u2850
  3667  05BB                     u2851:
  3668  05BB  2DCA               	goto	l2262
  3669  05BC                     u2850:
  3670  05BC                     l2256:
  3671  05BC  0856               	movf	___fladd@grs,w
  3672  05BD  397F               	andlw	127
  3673  05BE  1903               	btfsc	3,2
  3674  05BF  2DC1               	goto	u2861
  3675  05C0  2DC2               	goto	u2860
  3676  05C1                     u2861:
  3677  05C1  2DC5               	goto	l614
  3678  05C2                     u2860:
  3679  05C2                     l2258:
  3680  05C2  01D4               	clrf	___fladd@aexp
  3681  05C3  0AD4               	incf	___fladd@aexp,f
  3682  05C4  2DCA               	goto	l2262
  3683  05C5                     l614:
  3684  05C5  1C43               	btfss	___fladd@b,0
  3685  05C6  2DC8               	goto	u2871
  3686  05C7  2DC9               	goto	u2870
  3687  05C8                     u2871:
  3688  05C8  2DCA               	goto	l2262
  3689  05C9                     u2870:
  3690  05C9  2DC2               	goto	l2258
  3691  05CA                     l2262:
  3692  05CA  0854               	movf	___fladd@aexp,w
  3693  05CB  1903               	btfsc	3,2
  3694  05CC  2DCE               	goto	u2881
  3695  05CD  2DCF               	goto	u2880
  3696  05CE                     u2881:
  3697  05CE  2E03               	goto	l617
  3698  05CF                     u2880:
  3699  05CF                     l2264:
  3700  05CF  3001               	movlw	1
  3701  05D0  07C3               	addwf	___fladd@b,f
  3702  05D1  3000               	movlw	0
  3703  05D2  1803               	skipnc
  3704  05D3  3001               	movlw	1
  3705  05D4  07C4               	addwf	___fladd@b+1,f
  3706  05D5  3000               	movlw	0
  3707  05D6  1803               	skipnc
  3708  05D7  3001               	movlw	1
  3709  05D8  07C5               	addwf	___fladd@b+2,f
  3710  05D9  3000               	movlw	0
  3711  05DA  1803               	skipnc
  3712  05DB  3001               	movlw	1
  3713  05DC  07C6               	addwf	___fladd@b+3,f
  3714  05DD                     l2266:
  3715  05DD  1C46               	btfss	___fladd@b+3,0
  3716  05DE  2DE0               	goto	u2891
  3717  05DF  2DE1               	goto	u2890
  3718  05E0                     u2891:
  3719  05E0  2E03               	goto	l617
  3720  05E1                     u2890:
  3721  05E1                     l2268:
  3722  05E1  0843               	movf	___fladd@b,w
  3723  05E2  00CB               	movwf	??___fladd
  3724  05E3  0844               	movf	___fladd@b+1,w
  3725  05E4  00CC               	movwf	??___fladd+1
  3726  05E5  0845               	movf	___fladd@b+2,w
  3727  05E6  00CD               	movwf	??___fladd+2
  3728  05E7  0846               	movf	___fladd@b+3,w
  3729  05E8  00CE               	movwf	??___fladd+3
  3730  05E9  3001               	movlw	1
  3731  05EA  00CF               	movwf	??___fladd+4
  3732  05EB                     u2905:
  3733  05EB  0D4E               	rlf	??___fladd+3,w
  3734  05EC  0CCE               	rrf	??___fladd+3,f
  3735  05ED  0CCD               	rrf	??___fladd+2,f
  3736  05EE  0CCC               	rrf	??___fladd+1,f
  3737  05EF  0CCB               	rrf	??___fladd,f
  3738  05F0                     u2900:
  3739  05F0  0BCF               	decfsz	??___fladd+4,f
  3740  05F1  2DEB               	goto	u2905
  3741  05F2  084E               	movf	??___fladd+3,w
  3742  05F3  00C6               	movwf	___fladd@b+3
  3743  05F4  084D               	movf	??___fladd+2,w
  3744  05F5  00C5               	movwf	___fladd@b+2
  3745  05F6  084C               	movf	??___fladd+1,w
  3746  05F7  00C4               	movwf	___fladd@b+1
  3747  05F8  084B               	movf	??___fladd,w
  3748  05F9  00C3               	movwf	___fladd@b
  3749  05FA  0A55               	incf	___fladd@bexp,w
  3750  05FB  1903               	btfsc	3,2
  3751  05FC  2DFE               	goto	u2911
  3752  05FD  2DFF               	goto	u2910
  3753  05FE                     u2911:
  3754  05FE  2E03               	goto	l617
  3755  05FF                     u2910:
  3756  05FF                     l2270:
  3757  05FF  3001               	movlw	1
  3758  0600  00CB               	movwf	??___fladd
  3759  0601  084B               	movf	??___fladd,w
  3760  0602  07D5               	addwf	___fladd@bexp,f
  3761  0603                     l617:
  3762  0603  0A55               	incf	___fladd@bexp,w
  3763  0604  1903               	btfsc	3,2
  3764  0605  2E07               	goto	u2921
  3765  0606  2E08               	goto	u2920
  3766  0607                     u2921:
  3767  0607  2E0D               	goto	l2274
  3768  0608                     u2920:
  3769  0608                     l2272:
  3770  0608  0855               	movf	___fladd@bexp,w
  3771  0609  1D03               	btfss	3,2
  3772  060A  2E0C               	goto	u2931
  3773  060B  2E0D               	goto	u2930
  3774  060C                     u2931:
  3775  060C  2E1B               	goto	l2280
  3776  060D                     u2930:
  3777  060D                     l2274:
  3778  060D  3000               	movlw	0
  3779  060E  00C6               	movwf	___fladd@b+3
  3780  060F  3000               	movlw	0
  3781  0610  00C5               	movwf	___fladd@b+2
  3782  0611  3000               	movlw	0
  3783  0612  00C4               	movwf	___fladd@b+1
  3784  0613  3000               	movlw	0
  3785  0614  00C3               	movwf	___fladd@b
  3786  0615                     l2276:
  3787  0615  0855               	movf	___fladd@bexp,w
  3788  0616  1D03               	btfss	3,2
  3789  0617  2E19               	goto	u2941
  3790  0618  2E1A               	goto	u2940
  3791  0619                     u2941:
  3792  0619  2E1B               	goto	l2280
  3793  061A                     u2940:
  3794  061A                     l2278:
  3795  061A  01D3               	clrf	___fladd@signs
  3796  061B                     l2280:
  3797  061B  1C55               	btfss	___fladd@bexp,0
  3798  061C  2E1E               	goto	u2951
  3799  061D  2E1F               	goto	u2950
  3800  061E                     u2951:
  3801  061E  2E21               	goto	l2284
  3802  061F                     u2950:
  3803  061F                     l2282:
  3804  061F  17C5               	bsf	___fladd@b+2,7
  3805  0620  2E25               	goto	l625
  3806  0621                     l2284:
  3807  0621  307F               	movlw	127
  3808  0622  00CB               	movwf	??___fladd
  3809  0623  084B               	movf	??___fladd,w
  3810  0624  05C5               	andwf	___fladd@b+2,f
  3811  0625                     l625:
  3812  0625  0855               	movf	___fladd@bexp,w
  3813  0626  00CB               	movwf	??___fladd
  3814  0627  1003               	clrc
  3815  0628  0C4B               	rrf	??___fladd,w
  3816  0629  00CC               	movwf	??___fladd+1
  3817  062A  084C               	movf	??___fladd+1,w
  3818  062B  00C6               	movwf	___fladd@b+3
  3819  062C                     l2286:
  3820  062C  1FD3               	btfss	___fladd@signs,7
  3821  062D  2E2F               	goto	u2961
  3822  062E  2E30               	goto	u2960
  3823  062F                     u2961:
  3824  062F  2E31               	goto	l626
  3825  0630                     u2960:
  3826  0630                     l2288:
  3827  0630  17C6               	bsf	___fladd@b+3,7
  3828  0631                     l626:
  3829  0631                     l596:
  3830  0631  0008               	return
  3831  0632                     __end_of___fladd:
  3832                           
  3833                           	psect	text15
  3834  08ED                     __ptext15:	
  3835 ;; *************** function _converteLeituraAnParaVolts *****************
  3836 ;; Defined at:
  3837 ;;		line 306 in file "newmain.c"
  3838 ;; Parameters:    Size  Location     Type
  3839 ;;  leitura         4   61[BANK0 ] float 
  3840 ;; Auto vars:     Size  Location     Type
  3841 ;;		None
  3842 ;; Return value:  Size  Location     Type
  3843 ;;                  4   61[BANK0 ] float 
  3844 ;; Registers used:
  3845 ;;		wreg, status,2, status,0, btemp+1, pclath, cstack
  3846 ;; Tracked objects:
  3847 ;;		On entry : 0/0
  3848 ;;		On exit  : 0/0
  3849 ;;		Unchanged: 0/0
  3850 ;; Data sizes:     COMMON   BANK0   BANK1   BANK3   BANK2
  3851 ;;      Params:         0       4       0       0       0
  3852 ;;      Locals:         0       0       0       0       0
  3853 ;;      Temps:          0       0       0       0       0
  3854 ;;      Totals:         0       4       0       0       0
  3855 ;;Total ram usage:        4 bytes
  3856 ;; Hardware stack levels used: 1
  3857 ;; Hardware stack levels required when called: 5
  3858 ;; This function calls:
  3859 ;;		___fldiv
  3860 ;;		___flmul
  3861 ;; This function is called by:
  3862 ;;		_main
  3863 ;; This function uses a non-reentrant model
  3864 ;;
  3865                           
  3866  08ED                     _converteLeituraAnParaVolts:	
  3867                           ;psect for function _converteLeituraAnParaVolts
  3868                           
  3869  08ED                     l3310:	
  3870                           ;incstack = 0
  3871                           ; Regs used in _converteLeituraAnParaVolts: [wreg+status,2+status,0+btemp+1+pclath+cstac
      +                          k]
  3872                           
  3873                           
  3874                           ;newmain.c: 306: float converteLeituraAnParaVolts(float leitura);newmain.c: 307: {;newma
      +                          in.c: 308:     return leitura * 5/255;
  3875  08ED  3043               	movlw	67
  3876  08EE  1283               	bcf	3,5	;RP0=0, select bank0
  3877  08EF  1303               	bcf	3,6	;RP1=0, select bank0
  3878  08F0  00C6               	movwf	___fldiv@a+3
  3879  08F1  307F               	movlw	127
  3880  08F2  00C5               	movwf	___fldiv@a+2
  3881  08F3  3000               	movlw	0
  3882  08F4  00C4               	movwf	___fldiv@a+1
  3883  08F5  3000               	movlw	0
  3884  08F6  00C3               	movwf	___fldiv@a
  3885  08F7  3040               	movlw	64
  3886  08F8  00AC               	movwf	___flmul@b+3
  3887  08F9  30A0               	movlw	160
  3888  08FA  00AB               	movwf	___flmul@b+2
  3889  08FB  3000               	movlw	0
  3890  08FC  00AA               	movwf	___flmul@b+1
  3891  08FD  3000               	movlw	0
  3892  08FE  00A9               	movwf	___flmul@b
  3893  08FF  0860               	movf	converteLeituraAnParaVolts@leitura+3,w
  3894  0900  00B0               	movwf	___flmul@a+3
  3895  0901  085F               	movf	converteLeituraAnParaVolts@leitura+2,w
  3896  0902  00AF               	movwf	___flmul@a+2
  3897  0903  085E               	movf	converteLeituraAnParaVolts@leitura+1,w
  3898  0904  00AE               	movwf	___flmul@a+1
  3899  0905  085D               	movf	converteLeituraAnParaVolts@leitura,w
  3900  0906  00AD               	movwf	___flmul@a
  3901  0907  120A  118A  2049  120A  158A  	fcall	___flmul
  3902  090C  1283               	bcf	3,5	;RP0=0, select bank0
  3903  090D  1303               	bcf	3,6	;RP1=0, select bank0
  3904  090E  082C               	movf	?___flmul+3,w
  3905  090F  00CA               	movwf	___fldiv@b+3
  3906  0910  082B               	movf	?___flmul+2,w
  3907  0911  00C9               	movwf	___fldiv@b+2
  3908  0912  082A               	movf	?___flmul+1,w
  3909  0913  00C8               	movwf	___fldiv@b+1
  3910  0914  0829               	movf	?___flmul,w
  3911  0915  00C7               	movwf	___fldiv@b
  3912  0916  120A  158A  2623  120A  158A  	fcall	___fldiv
  3913  091B  1283               	bcf	3,5	;RP0=0, select bank0
  3914  091C  1303               	bcf	3,6	;RP1=0, select bank0
  3915  091D  0846               	movf	?___fldiv+3,w
  3916  091E  00E0               	movwf	?_converteLeituraAnParaVolts+3
  3917  091F  0845               	movf	?___fldiv+2,w
  3918  0920  00DF               	movwf	?_converteLeituraAnParaVolts+2
  3919  0921  0844               	movf	?___fldiv+1,w
  3920  0922  00DE               	movwf	?_converteLeituraAnParaVolts+1
  3921  0923  0843               	movf	?___fldiv,w
  3922  0924  00DD               	movwf	?_converteLeituraAnParaVolts
  3923  0925                     l187:
  3924  0925  0008               	return
  3925  0926                     __end_of_converteLeituraAnParaVolts:
  3926                           
  3927                           	psect	text16
  3928  0049                     __ptext16:	
  3929 ;; *************** function ___flmul *****************
  3930 ;; Defined at:
  3931 ;;		line 8 in file "C:\Program Files\Microchip\xc8\v2.35\pic\sources\c90\common\sprcmul.c"
  3932 ;; Parameters:    Size  Location     Type
  3933 ;;  b               4    9[BANK0 ] float 
  3934 ;;  a               4   13[BANK0 ] float 
  3935 ;; Auto vars:     Size  Location     Type
  3936 ;;  prod            4   29[BANK0 ] struct .
  3937 ;;  grs             4   24[BANK0 ] unsigned long 
  3938 ;;  temp            2   33[BANK0 ] struct .
  3939 ;;  bexp            1   28[BANK0 ] unsigned char 
  3940 ;;  aexp            1   23[BANK0 ] unsigned char 
  3941 ;;  sign            1   22[BANK0 ] unsigned char 
  3942 ;; Return value:  Size  Location     Type
  3943 ;;                  4    9[BANK0 ] unsigned char 
  3944 ;; Registers used:
  3945 ;;		wreg, status,2, status,0, btemp+1, pclath, cstack
  3946 ;; Tracked objects:
  3947 ;;		On entry : 0/0
  3948 ;;		On exit  : 0/0
  3949 ;;		Unchanged: 0/0
  3950 ;; Data sizes:     COMMON   BANK0   BANK1   BANK3   BANK2
  3951 ;;      Params:         0       8       0       0       0
  3952 ;;      Locals:         0      13       0       0       0
  3953 ;;      Temps:          0       5       0       0       0
  3954 ;;      Totals:         0      26       0       0       0
  3955 ;;Total ram usage:       26 bytes
  3956 ;; Hardware stack levels used: 1
  3957 ;; Hardware stack levels required when called: 4
  3958 ;; This function calls:
  3959 ;;		__Umul8_16
  3960 ;; This function is called by:
  3961 ;;		_converteLeituraAnParaVolts
  3962 ;;		_converteVoltsParaLux
  3963 ;; This function uses a non-reentrant model
  3964 ;;
  3965                           
  3966  0049                     ___flmul:	
  3967                           ;psect for function ___flmul
  3968                           
  3969  0049                     l3072:	
  3970                           ;incstack = 0
  3971                           ; Regs used in ___flmul: [wreg+status,2+status,0+btemp+1+pclath+cstack]
  3972                           
  3973  0049  1283               	bcf	3,5	;RP0=0, select bank0
  3974  004A  1303               	bcf	3,6	;RP1=0, select bank0
  3975  004B  082C               	movf	___flmul@b+3,w
  3976  004C  3980               	andlw	128
  3977  004D  00B1               	movwf	??___flmul
  3978  004E  0831               	movf	??___flmul,w
  3979  004F  00B6               	movwf	___flmul@sign
  3980  0050                     l3074:
  3981  0050  082C               	movf	___flmul@b+3,w
  3982  0051  00B1               	movwf	??___flmul
  3983  0052  0731               	addwf	??___flmul,w
  3984  0053  00B2               	movwf	??___flmul+1
  3985  0054  0832               	movf	??___flmul+1,w
  3986  0055  00BC               	movwf	___flmul@bexp
  3987  0056                     l3076:
  3988  0056  1FAB               	btfss	___flmul@b+2,7
  3989  0057  2859               	goto	u4391
  3990  0058  285A               	goto	u4390
  3991  0059                     u4391:
  3992  0059  285B               	goto	l3080
  3993  005A                     u4390:
  3994  005A                     l3078:
  3995  005A  143C               	bsf	___flmul@bexp,0
  3996  005B                     l3080:
  3997  005B  083C               	movf	___flmul@bexp,w
  3998  005C  1903               	btfsc	3,2
  3999  005D  285F               	goto	u4401
  4000  005E  2860               	goto	u4400
  4001  005F                     u4401:
  4002  005F  286F               	goto	l3088
  4003  0060                     u4400:
  4004  0060                     l3082:
  4005  0060  0A3C               	incf	___flmul@bexp,w
  4006  0061  1D03               	btfss	3,2
  4007  0062  2864               	goto	u4411
  4008  0063  2865               	goto	u4410
  4009  0064                     u4411:
  4010  0064  286D               	goto	l3086
  4011  0065                     u4410:
  4012  0065                     l3084:
  4013  0065  3000               	movlw	0
  4014  0066  00AC               	movwf	___flmul@b+3
  4015  0067  3000               	movlw	0
  4016  0068  00AB               	movwf	___flmul@b+2
  4017  0069  3000               	movlw	0
  4018  006A  00AA               	movwf	___flmul@b+1
  4019  006B  3000               	movlw	0
  4020  006C  00A9               	movwf	___flmul@b
  4021  006D                     l3086:
  4022  006D  17AB               	bsf	___flmul@b+2,7
  4023  006E  2877               	goto	l3090
  4024  006F                     l3088:
  4025  006F  3000               	movlw	0
  4026  0070  00AC               	movwf	___flmul@b+3
  4027  0071  3000               	movlw	0
  4028  0072  00AB               	movwf	___flmul@b+2
  4029  0073  3000               	movlw	0
  4030  0074  00AA               	movwf	___flmul@b+1
  4031  0075  3000               	movlw	0
  4032  0076  00A9               	movwf	___flmul@b
  4033  0077                     l3090:
  4034  0077  0830               	movf	___flmul@a+3,w
  4035  0078  3980               	andlw	128
  4036  0079  00B1               	movwf	??___flmul
  4037  007A  0831               	movf	??___flmul,w
  4038  007B  06B6               	xorwf	___flmul@sign,f
  4039  007C                     l3092:
  4040  007C  0830               	movf	___flmul@a+3,w
  4041  007D  00B1               	movwf	??___flmul
  4042  007E  0731               	addwf	??___flmul,w
  4043  007F  00B2               	movwf	??___flmul+1
  4044  0080  0832               	movf	??___flmul+1,w
  4045  0081  00B7               	movwf	___flmul@aexp
  4046  0082                     l3094:
  4047  0082  1FAF               	btfss	___flmul@a+2,7
  4048  0083  2885               	goto	u4421
  4049  0084  2886               	goto	u4420
  4050  0085                     u4421:
  4051  0085  2887               	goto	l3098
  4052  0086                     u4420:
  4053  0086                     l3096:
  4054  0086  1437               	bsf	___flmul@aexp,0
  4055  0087                     l3098:
  4056  0087  0837               	movf	___flmul@aexp,w
  4057  0088  1903               	btfsc	3,2
  4058  0089  288B               	goto	u4431
  4059  008A  288C               	goto	u4430
  4060  008B                     u4431:
  4061  008B  289B               	goto	l3106
  4062  008C                     u4430:
  4063  008C                     l3100:
  4064  008C  0A37               	incf	___flmul@aexp,w
  4065  008D  1D03               	btfss	3,2
  4066  008E  2890               	goto	u4441
  4067  008F  2891               	goto	u4440
  4068  0090                     u4441:
  4069  0090  2899               	goto	l3104
  4070  0091                     u4440:
  4071  0091                     l3102:
  4072  0091  3000               	movlw	0
  4073  0092  00B0               	movwf	___flmul@a+3
  4074  0093  3000               	movlw	0
  4075  0094  00AF               	movwf	___flmul@a+2
  4076  0095  3000               	movlw	0
  4077  0096  00AE               	movwf	___flmul@a+1
  4078  0097  3000               	movlw	0
  4079  0098  00AD               	movwf	___flmul@a
  4080  0099                     l3104:
  4081  0099  17AF               	bsf	___flmul@a+2,7
  4082  009A  28A3               	goto	l3108
  4083  009B                     l3106:
  4084  009B  3000               	movlw	0
  4085  009C  00B0               	movwf	___flmul@a+3
  4086  009D  3000               	movlw	0
  4087  009E  00AF               	movwf	___flmul@a+2
  4088  009F  3000               	movlw	0
  4089  00A0  00AE               	movwf	___flmul@a+1
  4090  00A1  3000               	movlw	0
  4091  00A2  00AD               	movwf	___flmul@a
  4092  00A3                     l3108:
  4093  00A3  0837               	movf	___flmul@aexp,w
  4094  00A4  1903               	btfsc	3,2
  4095  00A5  28A7               	goto	u4451
  4096  00A6  28A8               	goto	u4450
  4097  00A7                     u4451:
  4098  00A7  28AD               	goto	l3112
  4099  00A8                     u4450:
  4100  00A8                     l3110:
  4101  00A8  083C               	movf	___flmul@bexp,w
  4102  00A9  1D03               	btfss	3,2
  4103  00AA  28AC               	goto	u4461
  4104  00AB  28AD               	goto	u4460
  4105  00AC                     u4461:
  4106  00AC  28B6               	goto	l3116
  4107  00AD                     u4460:
  4108  00AD                     l3112:
  4109  00AD  3000               	movlw	0
  4110  00AE  00AC               	movwf	?___flmul+3
  4111  00AF  3000               	movlw	0
  4112  00B0  00AB               	movwf	?___flmul+2
  4113  00B1  3000               	movlw	0
  4114  00B2  00AA               	movwf	?___flmul+1
  4115  00B3  3000               	movlw	0
  4116  00B4  00A9               	movwf	?___flmul
  4117  00B5  2BA9               	goto	l679
  4118  00B6                     l3116:
  4119  00B6  0829               	movf	___flmul@b,w
  4120  00B7  00B1               	movwf	??___flmul
  4121  00B8  0831               	movf	??___flmul,w
  4122  00B9  00A0               	movwf	__Umul8_16@multiplicand
  4123  00BA  082F               	movf	___flmul@a+2,w
  4124  00BB  120A  158A  2092  120A  118A  	fcall	__Umul8_16
  4125  00C0  1283               	bcf	3,5	;RP0=0, select bank0
  4126  00C1  1303               	bcf	3,6	;RP1=0, select bank0
  4127  00C2  0821               	movf	?__Umul8_16+1,w
  4128  00C3  00C2               	movwf	___flmul@temp+1
  4129  00C4  0820               	movf	?__Umul8_16,w
  4130  00C5  00C1               	movwf	___flmul@temp
  4131  00C6                     l3118:
  4132  00C6  0841               	movf	___flmul@temp,w
  4133  00C7  00B1               	movwf	??___flmul
  4134  00C8  01B2               	clrf	??___flmul+1
  4135  00C9  01B3               	clrf	??___flmul+2
  4136  00CA  01B4               	clrf	??___flmul+3
  4137  00CB  0834               	movf	??___flmul+3,w
  4138  00CC  00BB               	movwf	___flmul@grs+3
  4139  00CD  0833               	movf	??___flmul+2,w
  4140  00CE  00BA               	movwf	___flmul@grs+2
  4141  00CF  0832               	movf	??___flmul+1,w
  4142  00D0  00B9               	movwf	___flmul@grs+1
  4143  00D1  0831               	movf	??___flmul,w
  4144  00D2  00B8               	movwf	___flmul@grs
  4145  00D3                     l3120:
  4146  00D3  0842               	movf	___flmul@temp+1,w
  4147  00D4  00B1               	movwf	??___flmul
  4148  00D5  01B2               	clrf	??___flmul+1
  4149  00D6  01B3               	clrf	??___flmul+2
  4150  00D7  01B4               	clrf	??___flmul+3
  4151  00D8  0834               	movf	??___flmul+3,w
  4152  00D9  00C0               	movwf	___flmul@prod+3
  4153  00DA  0833               	movf	??___flmul+2,w
  4154  00DB  00BF               	movwf	___flmul@prod+2
  4155  00DC  0832               	movf	??___flmul+1,w
  4156  00DD  00BE               	movwf	___flmul@prod+1
  4157  00DE  0831               	movf	??___flmul,w
  4158  00DF  00BD               	movwf	___flmul@prod
  4159  00E0  082A               	movf	___flmul@b+1,w
  4160  00E1  00B1               	movwf	??___flmul
  4161  00E2  0831               	movf	??___flmul,w
  4162  00E3  00A0               	movwf	__Umul8_16@multiplicand
  4163  00E4  082E               	movf	___flmul@a+1,w
  4164  00E5  120A  158A  2092  120A  118A  	fcall	__Umul8_16
  4165  00EA  1283               	bcf	3,5	;RP0=0, select bank0
  4166  00EB  1303               	bcf	3,6	;RP1=0, select bank0
  4167  00EC  0821               	movf	?__Umul8_16+1,w
  4168  00ED  00C2               	movwf	___flmul@temp+1
  4169  00EE  0820               	movf	?__Umul8_16,w
  4170  00EF  00C1               	movwf	___flmul@temp
  4171  00F0                     l3122:
  4172  00F0  0841               	movf	___flmul@temp,w
  4173  00F1  00B1               	movwf	??___flmul
  4174  00F2  01B2               	clrf	??___flmul+1
  4175  00F3  01B3               	clrf	??___flmul+2
  4176  00F4  01B4               	clrf	??___flmul+3
  4177  00F5  0831               	movf	??___flmul,w
  4178  00F6  07B8               	addwf	___flmul@grs,f
  4179  00F7  0832               	movf	??___flmul+1,w
  4180  00F8  1103               	clrz
  4181  00F9  1803               	skipnc
  4182  00FA  3E01               	addlw	1
  4183  00FB  1903               	skipnz
  4184  00FC  28FE               	goto	u4471
  4185  00FD  07B9               	addwf	___flmul@grs+1,f
  4186  00FE                     u4471:
  4187  00FE  0833               	movf	??___flmul+2,w
  4188  00FF  1103               	clrz
  4189  0100  1803               	skipnc
  4190  0101  3E01               	addlw	1
  4191  0102  1903               	skipnz
  4192  0103  2905               	goto	u4472
  4193  0104  07BA               	addwf	___flmul@grs+2,f
  4194  0105                     u4472:
  4195  0105  0834               	movf	??___flmul+3,w
  4196  0106  1103               	clrz
  4197  0107  1803               	skipnc
  4198  0108  3E01               	addlw	1
  4199  0109  1903               	skipnz
  4200  010A  290C               	goto	u4473
  4201  010B  07BB               	addwf	___flmul@grs+3,f
  4202  010C                     u4473:
  4203  010C                     l3124:
  4204  010C  0842               	movf	___flmul@temp+1,w
  4205  010D  00B1               	movwf	??___flmul
  4206  010E  01B2               	clrf	??___flmul+1
  4207  010F  01B3               	clrf	??___flmul+2
  4208  0110  01B4               	clrf	??___flmul+3
  4209  0111  0831               	movf	??___flmul,w
  4210  0112  07BD               	addwf	___flmul@prod,f
  4211  0113  0832               	movf	??___flmul+1,w
  4212  0114  1103               	clrz
  4213  0115  1803               	skipnc
  4214  0116  3E01               	addlw	1
  4215  0117  1903               	skipnz
  4216  0118  291A               	goto	u4481
  4217  0119  07BE               	addwf	___flmul@prod+1,f
  4218  011A                     u4481:
  4219  011A  0833               	movf	??___flmul+2,w
  4220  011B  1103               	clrz
  4221  011C  1803               	skipnc
  4222  011D  3E01               	addlw	1
  4223  011E  1903               	skipnz
  4224  011F  2921               	goto	u4482
  4225  0120  07BF               	addwf	___flmul@prod+2,f
  4226  0121                     u4482:
  4227  0121  0834               	movf	??___flmul+3,w
  4228  0122  1103               	clrz
  4229  0123  1803               	skipnc
  4230  0124  3E01               	addlw	1
  4231  0125  1903               	skipnz
  4232  0126  2928               	goto	u4483
  4233  0127  07C0               	addwf	___flmul@prod+3,f
  4234  0128                     u4483:
  4235  0128  082B               	movf	___flmul@b+2,w
  4236  0129  00B1               	movwf	??___flmul
  4237  012A  0831               	movf	??___flmul,w
  4238  012B  00A0               	movwf	__Umul8_16@multiplicand
  4239  012C  082D               	movf	___flmul@a,w
  4240  012D  120A  158A  2092  120A  118A  	fcall	__Umul8_16
  4241  0132  1283               	bcf	3,5	;RP0=0, select bank0
  4242  0133  1303               	bcf	3,6	;RP1=0, select bank0
  4243  0134  0821               	movf	?__Umul8_16+1,w
  4244  0135  00C2               	movwf	___flmul@temp+1
  4245  0136  0820               	movf	?__Umul8_16,w
  4246  0137  00C1               	movwf	___flmul@temp
  4247  0138                     l3126:
  4248  0138  0841               	movf	___flmul@temp,w
  4249  0139  00B1               	movwf	??___flmul
  4250  013A  01B2               	clrf	??___flmul+1
  4251  013B  01B3               	clrf	??___flmul+2
  4252  013C  01B4               	clrf	??___flmul+3
  4253  013D  0831               	movf	??___flmul,w
  4254  013E  07B8               	addwf	___flmul@grs,f
  4255  013F  0832               	movf	??___flmul+1,w
  4256  0140  1103               	clrz
  4257  0141  1803               	skipnc
  4258  0142  3E01               	addlw	1
  4259  0143  1903               	skipnz
  4260  0144  2946               	goto	u4491
  4261  0145  07B9               	addwf	___flmul@grs+1,f
  4262  0146                     u4491:
  4263  0146  0833               	movf	??___flmul+2,w
  4264  0147  1103               	clrz
  4265  0148  1803               	skipnc
  4266  0149  3E01               	addlw	1
  4267  014A  1903               	skipnz
  4268  014B  294D               	goto	u4492
  4269  014C  07BA               	addwf	___flmul@grs+2,f
  4270  014D                     u4492:
  4271  014D  0834               	movf	??___flmul+3,w
  4272  014E  1103               	clrz
  4273  014F  1803               	skipnc
  4274  0150  3E01               	addlw	1
  4275  0151  1903               	skipnz
  4276  0152  2954               	goto	u4493
  4277  0153  07BB               	addwf	___flmul@grs+3,f
  4278  0154                     u4493:
  4279  0154                     l3128:
  4280  0154  0842               	movf	___flmul@temp+1,w
  4281  0155  00B1               	movwf	??___flmul
  4282  0156  01B2               	clrf	??___flmul+1
  4283  0157  01B3               	clrf	??___flmul+2
  4284  0158  01B4               	clrf	??___flmul+3
  4285  0159  0831               	movf	??___flmul,w
  4286  015A  07BD               	addwf	___flmul@prod,f
  4287  015B  0832               	movf	??___flmul+1,w
  4288  015C  1103               	clrz
  4289  015D  1803               	skipnc
  4290  015E  3E01               	addlw	1
  4291  015F  1903               	skipnz
  4292  0160  2962               	goto	u4501
  4293  0161  07BE               	addwf	___flmul@prod+1,f
  4294  0162                     u4501:
  4295  0162  0833               	movf	??___flmul+2,w
  4296  0163  1103               	clrz
  4297  0164  1803               	skipnc
  4298  0165  3E01               	addlw	1
  4299  0166  1903               	skipnz
  4300  0167  2969               	goto	u4502
  4301  0168  07BF               	addwf	___flmul@prod+2,f
  4302  0169                     u4502:
  4303  0169  0834               	movf	??___flmul+3,w
  4304  016A  1103               	clrz
  4305  016B  1803               	skipnc
  4306  016C  3E01               	addlw	1
  4307  016D  1903               	skipnz
  4308  016E  2970               	goto	u4503
  4309  016F  07C0               	addwf	___flmul@prod+3,f
  4310  0170                     u4503:
  4311  0170                     l3130:
  4312  0170  3008               	movlw	8
  4313  0171  00B1               	movwf	??___flmul
  4314  0172                     u4515:
  4315  0172  1003               	clrc
  4316  0173  0DB8               	rlf	___flmul@grs,f
  4317  0174  0DB9               	rlf	___flmul@grs+1,f
  4318  0175  0DBA               	rlf	___flmul@grs+2,f
  4319  0176  0DBB               	rlf	___flmul@grs+3,f
  4320  0177  0BB1               	decfsz	??___flmul,f
  4321  0178  2972               	goto	u4515
  4322  0179                     l3132:
  4323  0179  082A               	movf	___flmul@b+1,w
  4324  017A  00B1               	movwf	??___flmul
  4325  017B  0831               	movf	??___flmul,w
  4326  017C  00A0               	movwf	__Umul8_16@multiplicand
  4327  017D  082D               	movf	___flmul@a,w
  4328  017E  120A  158A  2092  120A  118A  	fcall	__Umul8_16
  4329  0183  1283               	bcf	3,5	;RP0=0, select bank0
  4330  0184  1303               	bcf	3,6	;RP1=0, select bank0
  4331  0185  0821               	movf	?__Umul8_16+1,w
  4332  0186  00C2               	movwf	___flmul@temp+1
  4333  0187  0820               	movf	?__Umul8_16,w
  4334  0188  00C1               	movwf	___flmul@temp
  4335  0189                     l3134:
  4336  0189  0841               	movf	___flmul@temp,w
  4337  018A  00B1               	movwf	??___flmul
  4338  018B  0842               	movf	___flmul@temp+1,w
  4339  018C  00B2               	movwf	??___flmul+1
  4340  018D  01B3               	clrf	??___flmul+2
  4341  018E  01B4               	clrf	??___flmul+3
  4342  018F  0831               	movf	??___flmul,w
  4343  0190  07B8               	addwf	___flmul@grs,f
  4344  0191  0832               	movf	??___flmul+1,w
  4345  0192  1103               	clrz
  4346  0193  1803               	skipnc
  4347  0194  3E01               	addlw	1
  4348  0195  1903               	skipnz
  4349  0196  2998               	goto	u4521
  4350  0197  07B9               	addwf	___flmul@grs+1,f
  4351  0198                     u4521:
  4352  0198  0833               	movf	??___flmul+2,w
  4353  0199  1103               	clrz
  4354  019A  1803               	skipnc
  4355  019B  3E01               	addlw	1
  4356  019C  1903               	skipnz
  4357  019D  299F               	goto	u4522
  4358  019E  07BA               	addwf	___flmul@grs+2,f
  4359  019F                     u4522:
  4360  019F  0834               	movf	??___flmul+3,w
  4361  01A0  1103               	clrz
  4362  01A1  1803               	skipnc
  4363  01A2  3E01               	addlw	1
  4364  01A3  1903               	skipnz
  4365  01A4  29A6               	goto	u4523
  4366  01A5  07BB               	addwf	___flmul@grs+3,f
  4367  01A6                     u4523:
  4368  01A6                     l3136:
  4369  01A6  0829               	movf	___flmul@b,w
  4370  01A7  00B1               	movwf	??___flmul
  4371  01A8  0831               	movf	??___flmul,w
  4372  01A9  00A0               	movwf	__Umul8_16@multiplicand
  4373  01AA  082E               	movf	___flmul@a+1,w
  4374  01AB  120A  158A  2092  120A  118A  	fcall	__Umul8_16
  4375  01B0  1283               	bcf	3,5	;RP0=0, select bank0
  4376  01B1  1303               	bcf	3,6	;RP1=0, select bank0
  4377  01B2  0821               	movf	?__Umul8_16+1,w
  4378  01B3  00C2               	movwf	___flmul@temp+1
  4379  01B4  0820               	movf	?__Umul8_16,w
  4380  01B5  00C1               	movwf	___flmul@temp
  4381  01B6                     l3138:
  4382  01B6  0841               	movf	___flmul@temp,w
  4383  01B7  00B1               	movwf	??___flmul
  4384  01B8  0842               	movf	___flmul@temp+1,w
  4385  01B9  00B2               	movwf	??___flmul+1
  4386  01BA  01B3               	clrf	??___flmul+2
  4387  01BB  01B4               	clrf	??___flmul+3
  4388  01BC  0831               	movf	??___flmul,w
  4389  01BD  07B8               	addwf	___flmul@grs,f
  4390  01BE  0832               	movf	??___flmul+1,w
  4391  01BF  1103               	clrz
  4392  01C0  1803               	skipnc
  4393  01C1  3E01               	addlw	1
  4394  01C2  1903               	skipnz
  4395  01C3  29C5               	goto	u4531
  4396  01C4  07B9               	addwf	___flmul@grs+1,f
  4397  01C5                     u4531:
  4398  01C5  0833               	movf	??___flmul+2,w
  4399  01C6  1103               	clrz
  4400  01C7  1803               	skipnc
  4401  01C8  3E01               	addlw	1
  4402  01C9  1903               	skipnz
  4403  01CA  29CC               	goto	u4532
  4404  01CB  07BA               	addwf	___flmul@grs+2,f
  4405  01CC                     u4532:
  4406  01CC  0834               	movf	??___flmul+3,w
  4407  01CD  1103               	clrz
  4408  01CE  1803               	skipnc
  4409  01CF  3E01               	addlw	1
  4410  01D0  1903               	skipnz
  4411  01D1  29D3               	goto	u4533
  4412  01D2  07BB               	addwf	___flmul@grs+3,f
  4413  01D3                     u4533:
  4414  01D3                     l3140:
  4415  01D3  3008               	movlw	8
  4416  01D4  00B1               	movwf	??___flmul
  4417  01D5                     u4545:
  4418  01D5  1003               	clrc
  4419  01D6  0DB8               	rlf	___flmul@grs,f
  4420  01D7  0DB9               	rlf	___flmul@grs+1,f
  4421  01D8  0DBA               	rlf	___flmul@grs+2,f
  4422  01D9  0DBB               	rlf	___flmul@grs+3,f
  4423  01DA  0BB1               	decfsz	??___flmul,f
  4424  01DB  29D5               	goto	u4545
  4425  01DC  0829               	movf	___flmul@b,w
  4426  01DD  00B1               	movwf	??___flmul
  4427  01DE  0831               	movf	??___flmul,w
  4428  01DF  00A0               	movwf	__Umul8_16@multiplicand
  4429  01E0  082D               	movf	___flmul@a,w
  4430  01E1  120A  158A  2092  120A  118A  	fcall	__Umul8_16
  4431  01E6  1283               	bcf	3,5	;RP0=0, select bank0
  4432  01E7  1303               	bcf	3,6	;RP1=0, select bank0
  4433  01E8  0821               	movf	?__Umul8_16+1,w
  4434  01E9  00C2               	movwf	___flmul@temp+1
  4435  01EA  0820               	movf	?__Umul8_16,w
  4436  01EB  00C1               	movwf	___flmul@temp
  4437  01EC                     l3142:
  4438  01EC  0841               	movf	___flmul@temp,w
  4439  01ED  00B1               	movwf	??___flmul
  4440  01EE  0842               	movf	___flmul@temp+1,w
  4441  01EF  00B2               	movwf	??___flmul+1
  4442  01F0  01B3               	clrf	??___flmul+2
  4443  01F1  01B4               	clrf	??___flmul+3
  4444  01F2  0831               	movf	??___flmul,w
  4445  01F3  07B8               	addwf	___flmul@grs,f
  4446  01F4  0832               	movf	??___flmul+1,w
  4447  01F5  1103               	clrz
  4448  01F6  1803               	skipnc
  4449  01F7  3E01               	addlw	1
  4450  01F8  1903               	skipnz
  4451  01F9  29FB               	goto	u4551
  4452  01FA  07B9               	addwf	___flmul@grs+1,f
  4453  01FB                     u4551:
  4454  01FB  0833               	movf	??___flmul+2,w
  4455  01FC  1103               	clrz
  4456  01FD  1803               	skipnc
  4457  01FE  3E01               	addlw	1
  4458  01FF  1903               	skipnz
  4459  0200  2A02               	goto	u4552
  4460  0201  07BA               	addwf	___flmul@grs+2,f
  4461  0202                     u4552:
  4462  0202  0834               	movf	??___flmul+3,w
  4463  0203  1103               	clrz
  4464  0204  1803               	skipnc
  4465  0205  3E01               	addlw	1
  4466  0206  1903               	skipnz
  4467  0207  2A09               	goto	u4553
  4468  0208  07BB               	addwf	___flmul@grs+3,f
  4469  0209                     u4553:
  4470  0209                     l3144:
  4471  0209  082A               	movf	___flmul@b+1,w
  4472  020A  00B1               	movwf	??___flmul
  4473  020B  0831               	movf	??___flmul,w
  4474  020C  00A0               	movwf	__Umul8_16@multiplicand
  4475  020D  082F               	movf	___flmul@a+2,w
  4476  020E  120A  158A  2092  120A  118A  	fcall	__Umul8_16
  4477  0213  1283               	bcf	3,5	;RP0=0, select bank0
  4478  0214  1303               	bcf	3,6	;RP1=0, select bank0
  4479  0215  0821               	movf	?__Umul8_16+1,w
  4480  0216  00C2               	movwf	___flmul@temp+1
  4481  0217  0820               	movf	?__Umul8_16,w
  4482  0218  00C1               	movwf	___flmul@temp
  4483  0219  0841               	movf	___flmul@temp,w
  4484  021A  00B1               	movwf	??___flmul
  4485  021B  0842               	movf	___flmul@temp+1,w
  4486  021C  00B2               	movwf	??___flmul+1
  4487  021D  01B3               	clrf	??___flmul+2
  4488  021E  01B4               	clrf	??___flmul+3
  4489  021F  0831               	movf	??___flmul,w
  4490  0220  07BD               	addwf	___flmul@prod,f
  4491  0221  0832               	movf	??___flmul+1,w
  4492  0222  1103               	clrz
  4493  0223  1803               	skipnc
  4494  0224  3E01               	addlw	1
  4495  0225  1903               	skipnz
  4496  0226  2A28               	goto	u4561
  4497  0227  07BE               	addwf	___flmul@prod+1,f
  4498  0228                     u4561:
  4499  0228  0833               	movf	??___flmul+2,w
  4500  0229  1103               	clrz
  4501  022A  1803               	skipnc
  4502  022B  3E01               	addlw	1
  4503  022C  1903               	skipnz
  4504  022D  2A2F               	goto	u4562
  4505  022E  07BF               	addwf	___flmul@prod+2,f
  4506  022F                     u4562:
  4507  022F  0834               	movf	??___flmul+3,w
  4508  0230  1103               	clrz
  4509  0231  1803               	skipnc
  4510  0232  3E01               	addlw	1
  4511  0233  1903               	skipnz
  4512  0234  2A36               	goto	u4563
  4513  0235  07C0               	addwf	___flmul@prod+3,f
  4514  0236                     u4563:
  4515  0236                     l3146:
  4516  0236  082B               	movf	___flmul@b+2,w
  4517  0237  00B1               	movwf	??___flmul
  4518  0238  0831               	movf	??___flmul,w
  4519  0239  00A0               	movwf	__Umul8_16@multiplicand
  4520  023A  082E               	movf	___flmul@a+1,w
  4521  023B  120A  158A  2092  120A  118A  	fcall	__Umul8_16
  4522  0240  1283               	bcf	3,5	;RP0=0, select bank0
  4523  0241  1303               	bcf	3,6	;RP1=0, select bank0
  4524  0242  0821               	movf	?__Umul8_16+1,w
  4525  0243  00C2               	movwf	___flmul@temp+1
  4526  0244  0820               	movf	?__Umul8_16,w
  4527  0245  00C1               	movwf	___flmul@temp
  4528  0246                     l3148:
  4529  0246  0841               	movf	___flmul@temp,w
  4530  0247  00B1               	movwf	??___flmul
  4531  0248  0842               	movf	___flmul@temp+1,w
  4532  0249  00B2               	movwf	??___flmul+1
  4533  024A  01B3               	clrf	??___flmul+2
  4534  024B  01B4               	clrf	??___flmul+3
  4535  024C  0831               	movf	??___flmul,w
  4536  024D  07BD               	addwf	___flmul@prod,f
  4537  024E  0832               	movf	??___flmul+1,w
  4538  024F  1103               	clrz
  4539  0250  1803               	skipnc
  4540  0251  3E01               	addlw	1
  4541  0252  1903               	skipnz
  4542  0253  2A55               	goto	u4571
  4543  0254  07BE               	addwf	___flmul@prod+1,f
  4544  0255                     u4571:
  4545  0255  0833               	movf	??___flmul+2,w
  4546  0256  1103               	clrz
  4547  0257  1803               	skipnc
  4548  0258  3E01               	addlw	1
  4549  0259  1903               	skipnz
  4550  025A  2A5C               	goto	u4572
  4551  025B  07BF               	addwf	___flmul@prod+2,f
  4552  025C                     u4572:
  4553  025C  0834               	movf	??___flmul+3,w
  4554  025D  1103               	clrz
  4555  025E  1803               	skipnc
  4556  025F  3E01               	addlw	1
  4557  0260  1903               	skipnz
  4558  0261  2A63               	goto	u4573
  4559  0262  07C0               	addwf	___flmul@prod+3,f
  4560  0263                     u4573:
  4561  0263  082B               	movf	___flmul@b+2,w
  4562  0264  00B1               	movwf	??___flmul
  4563  0265  0831               	movf	??___flmul,w
  4564  0266  00A0               	movwf	__Umul8_16@multiplicand
  4565  0267  082F               	movf	___flmul@a+2,w
  4566  0268  120A  158A  2092  120A  118A  	fcall	__Umul8_16
  4567  026D  1283               	bcf	3,5	;RP0=0, select bank0
  4568  026E  1303               	bcf	3,6	;RP1=0, select bank0
  4569  026F  0821               	movf	?__Umul8_16+1,w
  4570  0270  00C2               	movwf	___flmul@temp+1
  4571  0271  0820               	movf	?__Umul8_16,w
  4572  0272  00C1               	movwf	___flmul@temp
  4573  0273                     l3150:
  4574  0273  0841               	movf	___flmul@temp,w
  4575  0274  00B1               	movwf	??___flmul
  4576  0275  0842               	movf	___flmul@temp+1,w
  4577  0276  00B2               	movwf	??___flmul+1
  4578  0277  01B3               	clrf	??___flmul+2
  4579  0278  01B4               	clrf	??___flmul+3
  4580  0279  3008               	movlw	8
  4581  027A                     u4585:
  4582  027A  1003               	clrc
  4583  027B  0DB1               	rlf	??___flmul,f
  4584  027C  0DB2               	rlf	??___flmul+1,f
  4585  027D  0DB3               	rlf	??___flmul+2,f
  4586  027E  0DB4               	rlf	??___flmul+3,f
  4587  027F                     u4580:
  4588  027F  3EFF               	addlw	-1
  4589  0280  1D03               	skipz
  4590  0281  2A7A               	goto	u4585
  4591  0282  0831               	movf	??___flmul,w
  4592  0283  07BD               	addwf	___flmul@prod,f
  4593  0284  0832               	movf	??___flmul+1,w
  4594  0285  1103               	clrz
  4595  0286  1803               	skipnc
  4596  0287  3E01               	addlw	1
  4597  0288  1903               	skipnz
  4598  0289  2A8B               	goto	u4591
  4599  028A  07BE               	addwf	___flmul@prod+1,f
  4600  028B                     u4591:
  4601  028B  0833               	movf	??___flmul+2,w
  4602  028C  1103               	clrz
  4603  028D  1803               	skipnc
  4604  028E  3E01               	addlw	1
  4605  028F  1903               	skipnz
  4606  0290  2A92               	goto	u4592
  4607  0291  07BF               	addwf	___flmul@prod+2,f
  4608  0292                     u4592:
  4609  0292  0834               	movf	??___flmul+3,w
  4610  0293  1103               	clrz
  4611  0294  1803               	skipnc
  4612  0295  3E01               	addlw	1
  4613  0296  1903               	skipnz
  4614  0297  2A99               	goto	u4593
  4615  0298  07C0               	addwf	___flmul@prod+3,f
  4616  0299                     u4593:
  4617  0299                     l3152:
  4618  0299  0838               	movf	___flmul@grs,w
  4619  029A  00B1               	movwf	??___flmul
  4620  029B  0839               	movf	___flmul@grs+1,w
  4621  029C  00B2               	movwf	??___flmul+1
  4622  029D  083A               	movf	___flmul@grs+2,w
  4623  029E  00B3               	movwf	??___flmul+2
  4624  029F  083B               	movf	___flmul@grs+3,w
  4625  02A0  00B4               	movwf	??___flmul+3
  4626  02A1  3018               	movlw	24
  4627  02A2                     u4605:
  4628  02A2  1003               	clrc
  4629  02A3  0CB4               	rrf	??___flmul+3,f
  4630  02A4  0CB3               	rrf	??___flmul+2,f
  4631  02A5  0CB2               	rrf	??___flmul+1,f
  4632  02A6  0CB1               	rrf	??___flmul,f
  4633  02A7                     u4600:
  4634  02A7  3EFF               	addlw	-1
  4635  02A8  1D03               	skipz
  4636  02A9  2AA2               	goto	u4605
  4637  02AA  0831               	movf	??___flmul,w
  4638  02AB  07BD               	addwf	___flmul@prod,f
  4639  02AC  0832               	movf	??___flmul+1,w
  4640  02AD  1103               	clrz
  4641  02AE  1803               	skipnc
  4642  02AF  3E01               	addlw	1
  4643  02B0  1903               	skipnz
  4644  02B1  2AB3               	goto	u4611
  4645  02B2  07BE               	addwf	___flmul@prod+1,f
  4646  02B3                     u4611:
  4647  02B3  0833               	movf	??___flmul+2,w
  4648  02B4  1103               	clrz
  4649  02B5  1803               	skipnc
  4650  02B6  3E01               	addlw	1
  4651  02B7  1903               	skipnz
  4652  02B8  2ABA               	goto	u4612
  4653  02B9  07BF               	addwf	___flmul@prod+2,f
  4654  02BA                     u4612:
  4655  02BA  0834               	movf	??___flmul+3,w
  4656  02BB  1103               	clrz
  4657  02BC  1803               	skipnc
  4658  02BD  3E01               	addlw	1
  4659  02BE  1903               	skipnz
  4660  02BF  2AC1               	goto	u4613
  4661  02C0  07C0               	addwf	___flmul@prod+3,f
  4662  02C1                     u4613:
  4663  02C1                     l3154:
  4664  02C1  3008               	movlw	8
  4665  02C2  00B1               	movwf	??___flmul
  4666  02C3                     u4625:
  4667  02C3  1003               	clrc
  4668  02C4  0DB8               	rlf	___flmul@grs,f
  4669  02C5  0DB9               	rlf	___flmul@grs+1,f
  4670  02C6  0DBA               	rlf	___flmul@grs+2,f
  4671  02C7  0DBB               	rlf	___flmul@grs+3,f
  4672  02C8  0BB1               	decfsz	??___flmul,f
  4673  02C9  2AC3               	goto	u4625
  4674  02CA                     l3156:
  4675  02CA  083C               	movf	___flmul@bexp,w
  4676  02CB  0737               	addwf	___flmul@aexp,w
  4677  02CC  00B1               	movwf	??___flmul
  4678  02CD  01B2               	clrf	??___flmul+1
  4679  02CE  0DB2               	rlf	??___flmul+1,f
  4680  02CF  0831               	movf	??___flmul,w
  4681  02D0  3E82               	addlw	130
  4682  02D1  00C1               	movwf	___flmul@temp
  4683  02D2  0832               	movf	??___flmul+1,w
  4684  02D3  1803               	skipnc
  4685  02D4  3E01               	addlw	1
  4686  02D5  3EFF               	addlw	255
  4687  02D6  00C2               	movwf	___flmul@temp+1
  4688  02D7  2AF5               	goto	l3168
  4689  02D8                     l3158:
  4690  02D8  3001               	movlw	1
  4691  02D9  00B1               	movwf	??___flmul
  4692  02DA                     u4635:
  4693  02DA  1003               	clrc
  4694  02DB  0DBD               	rlf	___flmul@prod,f
  4695  02DC  0DBE               	rlf	___flmul@prod+1,f
  4696  02DD  0DBF               	rlf	___flmul@prod+2,f
  4697  02DE  0DC0               	rlf	___flmul@prod+3,f
  4698  02DF  0BB1               	decfsz	??___flmul,f
  4699  02E0  2ADA               	goto	u4635
  4700  02E1                     l3160:
  4701  02E1  1FBB               	btfss	___flmul@grs+3,7
  4702  02E2  2AE4               	goto	u4641
  4703  02E3  2AE5               	goto	u4640
  4704  02E4                     u4641:
  4705  02E4  2AE6               	goto	l3164
  4706  02E5                     u4640:
  4707  02E5                     l3162:
  4708  02E5  143D               	bsf	___flmul@prod,0
  4709  02E6                     l3164:
  4710  02E6  3001               	movlw	1
  4711  02E7  00B1               	movwf	??___flmul
  4712  02E8                     u4655:
  4713  02E8  1003               	clrc
  4714  02E9  0DB8               	rlf	___flmul@grs,f
  4715  02EA  0DB9               	rlf	___flmul@grs+1,f
  4716  02EB  0DBA               	rlf	___flmul@grs+2,f
  4717  02EC  0DBB               	rlf	___flmul@grs+3,f
  4718  02ED  0BB1               	decfsz	??___flmul,f
  4719  02EE  2AE8               	goto	u4655
  4720  02EF                     l3166:
  4721  02EF  30FF               	movlw	255
  4722  02F0  07C1               	addwf	___flmul@temp,f
  4723  02F1  1803               	skipnc
  4724  02F2  0AC2               	incf	___flmul@temp+1,f
  4725  02F3  30FF               	movlw	255
  4726  02F4  07C2               	addwf	___flmul@temp+1,f
  4727  02F5                     l3168:
  4728  02F5  1FBF               	btfss	___flmul@prod+2,7
  4729  02F6  2AF8               	goto	u4661
  4730  02F7  2AF9               	goto	u4660
  4731  02F8                     u4661:
  4732  02F8  2AD8               	goto	l3158
  4733  02F9                     u4660:
  4734  02F9                     l3170:
  4735  02F9  01B7               	clrf	___flmul@aexp
  4736  02FA                     l3172:
  4737  02FA  1FBB               	btfss	___flmul@grs+3,7
  4738  02FB  2AFD               	goto	u4671
  4739  02FC  2AFE               	goto	u4670
  4740  02FD                     u4671:
  4741  02FD  2B1A               	goto	l3180
  4742  02FE                     u4670:
  4743  02FE                     l3174:
  4744  02FE  30FF               	movlw	255
  4745  02FF  0538               	andwf	___flmul@grs,w
  4746  0300  00B1               	movwf	??___flmul
  4747  0301  30FF               	movlw	255
  4748  0302  0539               	andwf	___flmul@grs+1,w
  4749  0303  00B2               	movwf	??___flmul+1
  4750  0304  30FF               	movlw	255
  4751  0305  053A               	andwf	___flmul@grs+2,w
  4752  0306  00B3               	movwf	??___flmul+2
  4753  0307  307F               	movlw	127
  4754  0308  053B               	andwf	___flmul@grs+3,w
  4755  0309  00B4               	movwf	??___flmul+3
  4756  030A  0834               	movf	??___flmul+3,w
  4757  030B  0433               	iorwf	??___flmul+2,w
  4758  030C  0432               	iorwf	??___flmul+1,w
  4759  030D  0431               	iorwf	??___flmul,w
  4760  030E  1903               	skipnz
  4761  030F  2B11               	goto	u4681
  4762  0310  2B12               	goto	u4680
  4763  0311                     u4681:
  4764  0311  2B15               	goto	l685
  4765  0312                     u4680:
  4766  0312                     l3176:
  4767  0312  01B7               	clrf	___flmul@aexp
  4768  0313  0AB7               	incf	___flmul@aexp,f
  4769  0314  2B1A               	goto	l3180
  4770  0315                     l685:
  4771  0315  1C3D               	btfss	___flmul@prod,0
  4772  0316  2B18               	goto	u4691
  4773  0317  2B19               	goto	u4690
  4774  0318                     u4691:
  4775  0318  2B1A               	goto	l3180
  4776  0319                     u4690:
  4777  0319  2B12               	goto	l3176
  4778  031A                     l3180:
  4779  031A  0837               	movf	___flmul@aexp,w
  4780  031B  1903               	btfsc	3,2
  4781  031C  2B1E               	goto	u4701
  4782  031D  2B1F               	goto	u4700
  4783  031E                     u4701:
  4784  031E  2B50               	goto	l3190
  4785  031F                     u4700:
  4786  031F                     l3182:
  4787  031F  3001               	movlw	1
  4788  0320  07BD               	addwf	___flmul@prod,f
  4789  0321  3000               	movlw	0
  4790  0322  1803               	skipnc
  4791  0323  3001               	movlw	1
  4792  0324  07BE               	addwf	___flmul@prod+1,f
  4793  0325  3000               	movlw	0
  4794  0326  1803               	skipnc
  4795  0327  3001               	movlw	1
  4796  0328  07BF               	addwf	___flmul@prod+2,f
  4797  0329  3000               	movlw	0
  4798  032A  1803               	skipnc
  4799  032B  3001               	movlw	1
  4800  032C  07C0               	addwf	___flmul@prod+3,f
  4801  032D                     l3184:
  4802  032D  1C40               	btfss	___flmul@prod+3,0
  4803  032E  2B30               	goto	u4711
  4804  032F  2B31               	goto	u4710
  4805  0330                     u4711:
  4806  0330  2B50               	goto	l3190
  4807  0331                     u4710:
  4808  0331                     l3186:
  4809  0331  083D               	movf	___flmul@prod,w
  4810  0332  00B1               	movwf	??___flmul
  4811  0333  083E               	movf	___flmul@prod+1,w
  4812  0334  00B2               	movwf	??___flmul+1
  4813  0335  083F               	movf	___flmul@prod+2,w
  4814  0336  00B3               	movwf	??___flmul+2
  4815  0337  0840               	movf	___flmul@prod+3,w
  4816  0338  00B4               	movwf	??___flmul+3
  4817  0339  3001               	movlw	1
  4818  033A  00B5               	movwf	??___flmul+4
  4819  033B                     u4725:
  4820  033B  0D34               	rlf	??___flmul+3,w
  4821  033C  0CB4               	rrf	??___flmul+3,f
  4822  033D  0CB3               	rrf	??___flmul+2,f
  4823  033E  0CB2               	rrf	??___flmul+1,f
  4824  033F  0CB1               	rrf	??___flmul,f
  4825  0340                     u4720:
  4826  0340  0BB5               	decfsz	??___flmul+4,f
  4827  0341  2B3B               	goto	u4725
  4828  0342  0834               	movf	??___flmul+3,w
  4829  0343  00C0               	movwf	___flmul@prod+3
  4830  0344  0833               	movf	??___flmul+2,w
  4831  0345  00BF               	movwf	___flmul@prod+2
  4832  0346  0832               	movf	??___flmul+1,w
  4833  0347  00BE               	movwf	___flmul@prod+1
  4834  0348  0831               	movf	??___flmul,w
  4835  0349  00BD               	movwf	___flmul@prod
  4836  034A                     l3188:
  4837  034A  3001               	movlw	1
  4838  034B  07C1               	addwf	___flmul@temp,f
  4839  034C  1803               	skipnc
  4840  034D  0AC2               	incf	___flmul@temp+1,f
  4841  034E  3000               	movlw	0
  4842  034F  07C2               	addwf	___flmul@temp+1,f
  4843  0350                     l3190:
  4844  0350  0842               	movf	___flmul@temp+1,w
  4845  0351  3A80               	xorlw	128
  4846  0352  00FF               	movwf	btemp+1
  4847  0353  3080               	movlw	128
  4848  0354  027F               	subwf	btemp+1,w
  4849  0355  1D03               	skipz
  4850  0356  2B59               	goto	u4735
  4851  0357  30FF               	movlw	255
  4852  0358  0241               	subwf	___flmul@temp,w
  4853  0359                     u4735:
  4854  0359  1C03               	skipc
  4855  035A  2B5C               	goto	u4731
  4856  035B  2B5D               	goto	u4730
  4857  035C                     u4731:
  4858  035C  2B68               	goto	l3194
  4859  035D                     u4730:
  4860  035D                     l3192:
  4861  035D  307F               	movlw	127
  4862  035E  1283               	bcf	3,5	;RP0=0, select bank0
  4863  035F  1303               	bcf	3,6	;RP1=0, select bank0
  4864  0360  00C0               	movwf	___flmul@prod+3
  4865  0361  3080               	movlw	128
  4866  0362  00BF               	movwf	___flmul@prod+2
  4867  0363  3000               	movlw	0
  4868  0364  00BE               	movwf	___flmul@prod+1
  4869  0365  3000               	movlw	0
  4870  0366  00BD               	movwf	___flmul@prod
  4871  0367  2B9D               	goto	l691
  4872  0368                     l3194:
  4873  0368  1283               	bcf	3,5	;RP0=0, select bank0
  4874  0369  1303               	bcf	3,6	;RP1=0, select bank0
  4875  036A  0842               	movf	___flmul@temp+1,w
  4876  036B  3A80               	xorlw	128
  4877  036C  00FF               	movwf	btemp+1
  4878  036D  3080               	movlw	128
  4879  036E  027F               	subwf	btemp+1,w
  4880  036F  1D03               	skipz
  4881  0370  2B73               	goto	u4745
  4882  0371  3001               	movlw	1
  4883  0372  0241               	subwf	___flmul@temp,w
  4884  0373                     u4745:
  4885  0373  1803               	skipnc
  4886  0374  2B76               	goto	u4741
  4887  0375  2B77               	goto	u4740
  4888  0376                     u4741:
  4889  0376  2B83               	goto	l3200
  4890  0377                     u4740:
  4891  0377                     l3196:
  4892  0377  3000               	movlw	0
  4893  0378  1283               	bcf	3,5	;RP0=0, select bank0
  4894  0379  1303               	bcf	3,6	;RP1=0, select bank0
  4895  037A  00C0               	movwf	___flmul@prod+3
  4896  037B  3000               	movlw	0
  4897  037C  00BF               	movwf	___flmul@prod+2
  4898  037D  3000               	movlw	0
  4899  037E  00BE               	movwf	___flmul@prod+1
  4900  037F  3000               	movlw	0
  4901  0380  00BD               	movwf	___flmul@prod
  4902  0381                     l3198:
  4903  0381  01B6               	clrf	___flmul@sign
  4904  0382  2B9D               	goto	l691
  4905  0383                     l3200:
  4906  0383  1283               	bcf	3,5	;RP0=0, select bank0
  4907  0384  1303               	bcf	3,6	;RP1=0, select bank0
  4908  0385  0841               	movf	___flmul@temp,w
  4909  0386  00B1               	movwf	??___flmul
  4910  0387  0831               	movf	??___flmul,w
  4911  0388  00BC               	movwf	___flmul@bexp
  4912  0389  30FF               	movlw	255
  4913  038A  05BD               	andwf	___flmul@prod,f
  4914  038B  30FF               	movlw	255
  4915  038C  05BE               	andwf	___flmul@prod+1,f
  4916  038D  307F               	movlw	127
  4917  038E  05BF               	andwf	___flmul@prod+2,f
  4918  038F  3000               	movlw	0
  4919  0390  05C0               	andwf	___flmul@prod+3,f
  4920  0391                     l3202:
  4921  0391  1C3C               	btfss	___flmul@bexp,0
  4922  0392  2B94               	goto	u4751
  4923  0393  2B95               	goto	u4750
  4924  0394                     u4751:
  4925  0394  2B96               	goto	l3206
  4926  0395                     u4750:
  4927  0395                     l3204:
  4928  0395  17BF               	bsf	___flmul@prod+2,7
  4929  0396                     l3206:
  4930  0396  083C               	movf	___flmul@bexp,w
  4931  0397  00B1               	movwf	??___flmul
  4932  0398  1003               	clrc
  4933  0399  0C31               	rrf	??___flmul,w
  4934  039A  00B2               	movwf	??___flmul+1
  4935  039B  0832               	movf	??___flmul+1,w
  4936  039C  00C0               	movwf	___flmul@prod+3
  4937  039D                     l691:
  4938  039D  0836               	movf	___flmul@sign,w
  4939  039E  00B1               	movwf	??___flmul
  4940  039F  0831               	movf	??___flmul,w
  4941  03A0  04C0               	iorwf	___flmul@prod+3,f
  4942  03A1                     l3208:
  4943  03A1  0840               	movf	___flmul@prod+3,w
  4944  03A2  00AC               	movwf	?___flmul+3
  4945  03A3  083F               	movf	___flmul@prod+2,w
  4946  03A4  00AB               	movwf	?___flmul+2
  4947  03A5  083E               	movf	___flmul@prod+1,w
  4948  03A6  00AA               	movwf	?___flmul+1
  4949  03A7  083D               	movf	___flmul@prod,w
  4950  03A8  00A9               	movwf	?___flmul
  4951  03A9                     l679:
  4952  03A9  0008               	return
  4953  03AA                     __end_of___flmul:
  4954                           
  4955                           	psect	text17
  4956  0892                     __ptext17:	
  4957 ;; *************** function __Umul8_16 *****************
  4958 ;; Defined at:
  4959 ;;		line 4 in file "C:\Program Files\Microchip\xc8\v2.35\pic\sources\c90\common\Umul8_16.c"
  4960 ;; Parameters:    Size  Location     Type
  4961 ;;  multiplier      1    wreg     unsigned char 
  4962 ;;  multiplicand    1    0[BANK0 ] unsigned char 
  4963 ;; Auto vars:     Size  Location     Type
  4964 ;;  multiplier      1    8[BANK0 ] unsigned char 
  4965 ;;  word_mpld       2    6[BANK0 ] unsigned int 
  4966 ;;  product         2    4[BANK0 ] unsigned int 
  4967 ;; Return value:  Size  Location     Type
  4968 ;;                  2    0[BANK0 ] unsigned int 
  4969 ;; Registers used:
  4970 ;;		wreg, status,2, status,0
  4971 ;; Tracked objects:
  4972 ;;		On entry : 0/0
  4973 ;;		On exit  : 0/0
  4974 ;;		Unchanged: 0/0
  4975 ;; Data sizes:     COMMON   BANK0   BANK1   BANK3   BANK2
  4976 ;;      Params:         0       2       0       0       0
  4977 ;;      Locals:         0       5       0       0       0
  4978 ;;      Temps:          0       2       0       0       0
  4979 ;;      Totals:         0       9       0       0       0
  4980 ;;Total ram usage:        9 bytes
  4981 ;; Hardware stack levels used: 1
  4982 ;; Hardware stack levels required when called: 3
  4983 ;; This function calls:
  4984 ;;		Nothing
  4985 ;; This function is called by:
  4986 ;;		___flmul
  4987 ;; This function uses a non-reentrant model
  4988 ;;
  4989                           
  4990  0892                     __Umul8_16:	
  4991                           ;psect for function __Umul8_16
  4992                           
  4993                           
  4994                           ;incstack = 0
  4995                           ; Regs used in __Umul8_16: [wreg+status,2+status,0]
  4996                           ;__Umul8_16@multiplier stored from wreg
  4997  0892  1283               	bcf	3,5	;RP0=0, select bank0
  4998  0893  1303               	bcf	3,6	;RP1=0, select bank0
  4999  0894  00A8               	movwf	__Umul8_16@multiplier
  5000  0895                     l2946:
  5001  0895  01A4               	clrf	__Umul8_16@product
  5002  0896  01A5               	clrf	__Umul8_16@product+1
  5003  0897                     l2948:
  5004  0897  0820               	movf	__Umul8_16@multiplicand,w
  5005  0898  00A2               	movwf	??__Umul8_16
  5006  0899  01A3               	clrf	??__Umul8_16+1
  5007  089A  0822               	movf	??__Umul8_16,w
  5008  089B  00A6               	movwf	__Umul8_16@word_mpld
  5009  089C  0823               	movf	??__Umul8_16+1,w
  5010  089D  00A7               	movwf	__Umul8_16@word_mpld+1
  5011  089E                     l2950:
  5012  089E  1C28               	btfss	__Umul8_16@multiplier,0
  5013  089F  28A1               	goto	u4181
  5014  08A0  28A2               	goto	u4180
  5015  08A1                     u4181:
  5016  08A1  28A8               	goto	l698
  5017  08A2                     u4180:
  5018  08A2                     l2952:
  5019  08A2  0826               	movf	__Umul8_16@word_mpld,w
  5020  08A3  07A4               	addwf	__Umul8_16@product,f
  5021  08A4  1803               	skipnc
  5022  08A5  0AA5               	incf	__Umul8_16@product+1,f
  5023  08A6  0827               	movf	__Umul8_16@word_mpld+1,w
  5024  08A7  07A5               	addwf	__Umul8_16@product+1,f
  5025  08A8                     l698:
  5026  08A8  3001               	movlw	1
  5027  08A9                     u4195:
  5028  08A9  1003               	clrc
  5029  08AA  0DA6               	rlf	__Umul8_16@word_mpld,f
  5030  08AB  0DA7               	rlf	__Umul8_16@word_mpld+1,f
  5031  08AC  3EFF               	addlw	-1
  5032  08AD  1D03               	skipz
  5033  08AE  28A9               	goto	u4195
  5034  08AF  1003               	clrc
  5035  08B0  0CA8               	rrf	__Umul8_16@multiplier,f
  5036  08B1                     l2954:
  5037  08B1  0828               	movf	__Umul8_16@multiplier,w
  5038  08B2  1D03               	btfss	3,2
  5039  08B3  28B5               	goto	u4201
  5040  08B4  28B6               	goto	u4200
  5041  08B5                     u4201:
  5042  08B5  289E               	goto	l2950
  5043  08B6                     u4200:
  5044  08B6                     l2956:
  5045  08B6  0825               	movf	__Umul8_16@product+1,w
  5046  08B7  00A1               	movwf	?__Umul8_16+1
  5047  08B8  0824               	movf	__Umul8_16@product,w
  5048  08B9  00A0               	movwf	?__Umul8_16
  5049  08BA                     l700:
  5050  08BA  0008               	return
  5051  08BB                     __end_of__Umul8_16:
  5052                           
  5053                           	psect	text18
  5054  0E23                     __ptext18:	
  5055 ;; *************** function ___fldiv *****************
  5056 ;; Defined at:
  5057 ;;		line 8 in file "C:\Program Files\Microchip\xc8\v2.35\pic\sources\c90\common\sprcdiv.c"
  5058 ;; Parameters:    Size  Location     Type
  5059 ;;  a               4   35[BANK0 ] unsigned int 
  5060 ;;  b               4   39[BANK0 ] unsigned int 
  5061 ;; Auto vars:     Size  Location     Type
  5062 ;;  grs             4   55[BANK0 ] unsigned long 
  5063 ;;  rem             4   48[BANK0 ] unsigned long 
  5064 ;;  new_exp         2   53[BANK0 ] int 
  5065 ;;  aexp            1   60[BANK0 ] unsigned char 
  5066 ;;  bexp            1   59[BANK0 ] unsigned char 
  5067 ;;  sign            1   52[BANK0 ] unsigned char 
  5068 ;; Return value:  Size  Location     Type
  5069 ;;                  4   35[BANK0 ] unsigned char 
  5070 ;; Registers used:
  5071 ;;		wreg, status,2, status,0, btemp+1
  5072 ;; Tracked objects:
  5073 ;;		On entry : 0/0
  5074 ;;		On exit  : 0/0
  5075 ;;		Unchanged: 0/0
  5076 ;; Data sizes:     COMMON   BANK0   BANK1   BANK3   BANK2
  5077 ;;      Params:         0       8       0       0       0
  5078 ;;      Locals:         0      13       0       0       0
  5079 ;;      Temps:          0       5       0       0       0
  5080 ;;      Totals:         0      26       0       0       0
  5081 ;;Total ram usage:       26 bytes
  5082 ;; Hardware stack levels used: 1
  5083 ;; Hardware stack levels required when called: 3
  5084 ;; This function calls:
  5085 ;;		Nothing
  5086 ;; This function is called by:
  5087 ;;		_converteLeituraAnParaVolts
  5088 ;; This function uses a non-reentrant model
  5089 ;;
  5090                           
  5091  0E23                     ___fldiv:	
  5092                           ;psect for function ___fldiv
  5093                           
  5094  0E23                     l2290:	
  5095                           ;incstack = 0
  5096                           ; Regs used in ___fldiv: [wreg+status,2+status,0+btemp+1]
  5097                           
  5098  0E23  1283               	bcf	3,5	;RP0=0, select bank0
  5099  0E24  1303               	bcf	3,6	;RP1=0, select bank0
  5100  0E25  084A               	movf	___fldiv@b+3,w
  5101  0E26  3980               	andlw	128
  5102  0E27  00CB               	movwf	??___fldiv
  5103  0E28  084B               	movf	??___fldiv,w
  5104  0E29  00D4               	movwf	___fldiv@sign
  5105  0E2A                     l2292:
  5106  0E2A  084A               	movf	___fldiv@b+3,w
  5107  0E2B  00CB               	movwf	??___fldiv
  5108  0E2C  074B               	addwf	??___fldiv,w
  5109  0E2D  00CC               	movwf	??___fldiv+1
  5110  0E2E  084C               	movf	??___fldiv+1,w
  5111  0E2F  00DB               	movwf	___fldiv@bexp
  5112  0E30                     l2294:
  5113  0E30  1FC9               	btfss	___fldiv@b+2,7
  5114  0E31  2E33               	goto	u2971
  5115  0E32  2E34               	goto	u2970
  5116  0E33                     u2971:
  5117  0E33  2E35               	goto	l2298
  5118  0E34                     u2970:
  5119  0E34                     l2296:
  5120  0E34  145B               	bsf	___fldiv@bexp,0
  5121  0E35                     l2298:
  5122  0E35  085B               	movf	___fldiv@bexp,w
  5123  0E36  1903               	btfsc	3,2
  5124  0E37  2E39               	goto	u2981
  5125  0E38  2E3A               	goto	u2980
  5126  0E39                     u2981:
  5127  0E39  2E4A               	goto	l2308
  5128  0E3A                     u2980:
  5129  0E3A                     l2300:
  5130  0E3A  0A5B               	incf	___fldiv@bexp,w
  5131  0E3B  1D03               	btfss	3,2
  5132  0E3C  2E3E               	goto	u2991
  5133  0E3D  2E3F               	goto	u2990
  5134  0E3E                     u2991:
  5135  0E3E  2E47               	goto	l2304
  5136  0E3F                     u2990:
  5137  0E3F                     l2302:
  5138  0E3F  3000               	movlw	0
  5139  0E40  00CA               	movwf	___fldiv@b+3
  5140  0E41  3000               	movlw	0
  5141  0E42  00C9               	movwf	___fldiv@b+2
  5142  0E43  3000               	movlw	0
  5143  0E44  00C8               	movwf	___fldiv@b+1
  5144  0E45  3000               	movlw	0
  5145  0E46  00C7               	movwf	___fldiv@b
  5146  0E47                     l2304:
  5147  0E47  17C9               	bsf	___fldiv@b+2,7
  5148  0E48                     l2306:
  5149  0E48  01CA               	clrf	___fldiv@b+3
  5150  0E49  2E52               	goto	l2310
  5151  0E4A                     l2308:
  5152  0E4A  3000               	movlw	0
  5153  0E4B  00CA               	movwf	___fldiv@b+3
  5154  0E4C  3000               	movlw	0
  5155  0E4D  00C9               	movwf	___fldiv@b+2
  5156  0E4E  3000               	movlw	0
  5157  0E4F  00C8               	movwf	___fldiv@b+1
  5158  0E50  3000               	movlw	0
  5159  0E51  00C7               	movwf	___fldiv@b
  5160  0E52                     l2310:
  5161  0E52  0846               	movf	___fldiv@a+3,w
  5162  0E53  3980               	andlw	128
  5163  0E54  00CB               	movwf	??___fldiv
  5164  0E55  084B               	movf	??___fldiv,w
  5165  0E56  06D4               	xorwf	___fldiv@sign,f
  5166  0E57                     l2312:
  5167  0E57  0846               	movf	___fldiv@a+3,w
  5168  0E58  00CB               	movwf	??___fldiv
  5169  0E59  074B               	addwf	??___fldiv,w
  5170  0E5A  00CC               	movwf	??___fldiv+1
  5171  0E5B  084C               	movf	??___fldiv+1,w
  5172  0E5C  00DC               	movwf	___fldiv@aexp
  5173  0E5D                     l2314:
  5174  0E5D  1FC5               	btfss	___fldiv@a+2,7
  5175  0E5E  2E60               	goto	u3001
  5176  0E5F  2E61               	goto	u3000
  5177  0E60                     u3001:
  5178  0E60  2E62               	goto	l2318
  5179  0E61                     u3000:
  5180  0E61                     l2316:
  5181  0E61  145C               	bsf	___fldiv@aexp,0
  5182  0E62                     l2318:
  5183  0E62  085C               	movf	___fldiv@aexp,w
  5184  0E63  1903               	btfsc	3,2
  5185  0E64  2E66               	goto	u3011
  5186  0E65  2E67               	goto	u3010
  5187  0E66                     u3011:
  5188  0E66  2E77               	goto	l2328
  5189  0E67                     u3010:
  5190  0E67                     l2320:
  5191  0E67  0A5C               	incf	___fldiv@aexp,w
  5192  0E68  1D03               	btfss	3,2
  5193  0E69  2E6B               	goto	u3021
  5194  0E6A  2E6C               	goto	u3020
  5195  0E6B                     u3021:
  5196  0E6B  2E74               	goto	l2324
  5197  0E6C                     u3020:
  5198  0E6C                     l2322:
  5199  0E6C  3000               	movlw	0
  5200  0E6D  00C6               	movwf	___fldiv@a+3
  5201  0E6E  3000               	movlw	0
  5202  0E6F  00C5               	movwf	___fldiv@a+2
  5203  0E70  3000               	movlw	0
  5204  0E71  00C4               	movwf	___fldiv@a+1
  5205  0E72  3000               	movlw	0
  5206  0E73  00C3               	movwf	___fldiv@a
  5207  0E74                     l2324:
  5208  0E74  17C5               	bsf	___fldiv@a+2,7
  5209  0E75                     l2326:
  5210  0E75  01C6               	clrf	___fldiv@a+3
  5211  0E76  2E7F               	goto	l639
  5212  0E77                     l2328:
  5213  0E77  3000               	movlw	0
  5214  0E78  00C6               	movwf	___fldiv@a+3
  5215  0E79  3000               	movlw	0
  5216  0E7A  00C5               	movwf	___fldiv@a+2
  5217  0E7B  3000               	movlw	0
  5218  0E7C  00C4               	movwf	___fldiv@a+1
  5219  0E7D  3000               	movlw	0
  5220  0E7E  00C3               	movwf	___fldiv@a
  5221  0E7F                     l639:
  5222  0E7F  0846               	movf	___fldiv@a+3,w
  5223  0E80  0445               	iorwf	___fldiv@a+2,w
  5224  0E81  0444               	iorwf	___fldiv@a+1,w
  5225  0E82  0443               	iorwf	___fldiv@a,w
  5226  0E83  1D03               	skipz
  5227  0E84  2E86               	goto	u3031
  5228  0E85  2E87               	goto	u3030
  5229  0E86                     u3031:
  5230  0E86  2EA0               	goto	l2338
  5231  0E87                     u3030:
  5232  0E87                     l2330:
  5233  0E87  3000               	movlw	0
  5234  0E88  00CA               	movwf	___fldiv@b+3
  5235  0E89  3000               	movlw	0
  5236  0E8A  00C9               	movwf	___fldiv@b+2
  5237  0E8B  3000               	movlw	0
  5238  0E8C  00C8               	movwf	___fldiv@b+1
  5239  0E8D  3000               	movlw	0
  5240  0E8E  00C7               	movwf	___fldiv@b
  5241  0E8F  3080               	movlw	128
  5242  0E90  04C9               	iorwf	___fldiv@b+2,f
  5243  0E91  307F               	movlw	127
  5244  0E92  04CA               	iorwf	___fldiv@b+3,f
  5245  0E93                     l2332:
  5246  0E93  0854               	movf	___fldiv@sign,w
  5247  0E94  00CB               	movwf	??___fldiv
  5248  0E95  084B               	movf	??___fldiv,w
  5249  0E96  04CA               	iorwf	___fldiv@b+3,f
  5250  0E97                     l2334:
  5251  0E97  084A               	movf	___fldiv@b+3,w
  5252  0E98  00C6               	movwf	?___fldiv+3
  5253  0E99  0849               	movf	___fldiv@b+2,w
  5254  0E9A  00C5               	movwf	?___fldiv+2
  5255  0E9B  0848               	movf	___fldiv@b+1,w
  5256  0E9C  00C4               	movwf	?___fldiv+1
  5257  0E9D  0847               	movf	___fldiv@b,w
  5258  0E9E  00C3               	movwf	?___fldiv
  5259  0E9F  2FFF               	goto	l641
  5260  0EA0                     l2338:
  5261  0EA0  085B               	movf	___fldiv@bexp,w
  5262  0EA1  1D03               	btfss	3,2
  5263  0EA2  2EA4               	goto	u3041
  5264  0EA3  2EA5               	goto	u3040
  5265  0EA4                     u3041:
  5266  0EA4  2EAE               	goto	l2344
  5267  0EA5                     u3040:
  5268  0EA5                     l2340:
  5269  0EA5  3000               	movlw	0
  5270  0EA6  00C6               	movwf	?___fldiv+3
  5271  0EA7  3000               	movlw	0
  5272  0EA8  00C5               	movwf	?___fldiv+2
  5273  0EA9  3000               	movlw	0
  5274  0EAA  00C4               	movwf	?___fldiv+1
  5275  0EAB  3000               	movlw	0
  5276  0EAC  00C3               	movwf	?___fldiv
  5277  0EAD  2FFF               	goto	l641
  5278  0EAE                     l2344:
  5279  0EAE  085B               	movf	___fldiv@bexp,w
  5280  0EAF  00CB               	movwf	??___fldiv
  5281  0EB0  01CC               	clrf	??___fldiv+1
  5282  0EB1  084C               	movf	??___fldiv+1,w
  5283  0EB2  00CE               	movwf	??___fldiv+3
  5284  0EB3  085C               	movf	___fldiv@aexp,w
  5285  0EB4  024B               	subwf	??___fldiv,w
  5286  0EB5  00CD               	movwf	??___fldiv+2
  5287  0EB6  1C03               	skipc
  5288  0EB7  03CE               	decf	??___fldiv+3,f
  5289  0EB8  084D               	movf	??___fldiv+2,w
  5290  0EB9  3E7F               	addlw	127
  5291  0EBA  00D5               	movwf	___fldiv@new_exp
  5292  0EBB  084E               	movf	??___fldiv+3,w
  5293  0EBC  1803               	skipnc
  5294  0EBD  3E01               	addlw	1
  5295  0EBE  3E00               	addlw	0
  5296  0EBF  00D6               	movwf	___fldiv@new_exp+1
  5297  0EC0                     l2346:
  5298  0EC0  084A               	movf	___fldiv@b+3,w
  5299  0EC1  00D3               	movwf	___fldiv@rem+3
  5300  0EC2  0849               	movf	___fldiv@b+2,w
  5301  0EC3  00D2               	movwf	___fldiv@rem+2
  5302  0EC4  0848               	movf	___fldiv@b+1,w
  5303  0EC5  00D1               	movwf	___fldiv@rem+1
  5304  0EC6  0847               	movf	___fldiv@b,w
  5305  0EC7  00D0               	movwf	___fldiv@rem
  5306  0EC8                     l2348:
  5307  0EC8  3000               	movlw	0
  5308  0EC9  00CA               	movwf	___fldiv@b+3
  5309  0ECA  3000               	movlw	0
  5310  0ECB  00C9               	movwf	___fldiv@b+2
  5311  0ECC  3000               	movlw	0
  5312  0ECD  00C8               	movwf	___fldiv@b+1
  5313  0ECE  3000               	movlw	0
  5314  0ECF  00C7               	movwf	___fldiv@b
  5315  0ED0                     l2350:
  5316  0ED0  3000               	movlw	0
  5317  0ED1  00DA               	movwf	___fldiv@grs+3
  5318  0ED2  3000               	movlw	0
  5319  0ED3  00D9               	movwf	___fldiv@grs+2
  5320  0ED4  3000               	movlw	0
  5321  0ED5  00D8               	movwf	___fldiv@grs+1
  5322  0ED6  3000               	movlw	0
  5323  0ED7  00D7               	movwf	___fldiv@grs
  5324  0ED8                     l2352:
  5325  0ED8  01DC               	clrf	___fldiv@aexp
  5326  0ED9  2F24               	goto	l2372
  5327  0EDA                     l2354:
  5328  0EDA  085C               	movf	___fldiv@aexp,w
  5329  0EDB  1903               	btfsc	3,2
  5330  0EDC  2EDE               	goto	u3051
  5331  0EDD  2EDF               	goto	u3050
  5332  0EDE                     u3051:
  5333  0EDE  2EFF               	goto	l2364
  5334  0EDF                     u3050:
  5335  0EDF                     l2356:
  5336  0EDF  3001               	movlw	1
  5337  0EE0  00CB               	movwf	??___fldiv
  5338  0EE1                     u3065:
  5339  0EE1  1003               	clrc
  5340  0EE2  0DD0               	rlf	___fldiv@rem,f
  5341  0EE3  0DD1               	rlf	___fldiv@rem+1,f
  5342  0EE4  0DD2               	rlf	___fldiv@rem+2,f
  5343  0EE5  0DD3               	rlf	___fldiv@rem+3,f
  5344  0EE6  0BCB               	decfsz	??___fldiv,f
  5345  0EE7  2EE1               	goto	u3065
  5346  0EE8  3001               	movlw	1
  5347  0EE9  00CB               	movwf	??___fldiv
  5348  0EEA                     u3075:
  5349  0EEA  1003               	clrc
  5350  0EEB  0DC7               	rlf	___fldiv@b,f
  5351  0EEC  0DC8               	rlf	___fldiv@b+1,f
  5352  0EED  0DC9               	rlf	___fldiv@b+2,f
  5353  0EEE  0DCA               	rlf	___fldiv@b+3,f
  5354  0EEF  0BCB               	decfsz	??___fldiv,f
  5355  0EF0  2EEA               	goto	u3075
  5356  0EF1                     l2358:
  5357  0EF1  1FDA               	btfss	___fldiv@grs+3,7
  5358  0EF2  2EF4               	goto	u3081
  5359  0EF3  2EF5               	goto	u3080
  5360  0EF4                     u3081:
  5361  0EF4  2EF6               	goto	l2362
  5362  0EF5                     u3080:
  5363  0EF5                     l2360:
  5364  0EF5  1447               	bsf	___fldiv@b,0
  5365  0EF6                     l2362:
  5366  0EF6  3001               	movlw	1
  5367  0EF7  00CB               	movwf	??___fldiv
  5368  0EF8                     u3095:
  5369  0EF8  1003               	clrc
  5370  0EF9  0DD7               	rlf	___fldiv@grs,f
  5371  0EFA  0DD8               	rlf	___fldiv@grs+1,f
  5372  0EFB  0DD9               	rlf	___fldiv@grs+2,f
  5373  0EFC  0DDA               	rlf	___fldiv@grs+3,f
  5374  0EFD  0BCB               	decfsz	??___fldiv,f
  5375  0EFE  2EF8               	goto	u3095
  5376  0EFF                     l2364:
  5377  0EFF  0846               	movf	___fldiv@a+3,w
  5378  0F00  0253               	subwf	___fldiv@rem+3,w
  5379  0F01  1D03               	skipz
  5380  0F02  2F0D               	goto	u3105
  5381  0F03  0845               	movf	___fldiv@a+2,w
  5382  0F04  0252               	subwf	___fldiv@rem+2,w
  5383  0F05  1D03               	skipz
  5384  0F06  2F0D               	goto	u3105
  5385  0F07  0844               	movf	___fldiv@a+1,w
  5386  0F08  0251               	subwf	___fldiv@rem+1,w
  5387  0F09  1D03               	skipz
  5388  0F0A  2F0D               	goto	u3105
  5389  0F0B  0843               	movf	___fldiv@a,w
  5390  0F0C  0250               	subwf	___fldiv@rem,w
  5391  0F0D                     u3105:
  5392  0F0D  1C03               	skipc
  5393  0F0E  2F10               	goto	u3101
  5394  0F0F  2F11               	goto	u3100
  5395  0F10                     u3101:
  5396  0F10  2F20               	goto	l2370
  5397  0F11                     u3100:
  5398  0F11                     l2366:
  5399  0F11  175A               	bsf	___fldiv@grs+3,6
  5400  0F12                     l2368:
  5401  0F12  0843               	movf	___fldiv@a,w
  5402  0F13  02D0               	subwf	___fldiv@rem,f
  5403  0F14  0844               	movf	___fldiv@a+1,w
  5404  0F15  1C03               	skipc
  5405  0F16  0F44               	incfsz	___fldiv@a+1,w
  5406  0F17  02D1               	subwf	___fldiv@rem+1,f
  5407  0F18  0845               	movf	___fldiv@a+2,w
  5408  0F19  1C03               	skipc
  5409  0F1A  0F45               	incfsz	___fldiv@a+2,w
  5410  0F1B  02D2               	subwf	___fldiv@rem+2,f
  5411  0F1C  0846               	movf	___fldiv@a+3,w
  5412  0F1D  1C03               	skipc
  5413  0F1E  0F46               	incfsz	___fldiv@a+3,w
  5414  0F1F  02D3               	subwf	___fldiv@rem+3,f
  5415  0F20                     l2370:
  5416  0F20  3001               	movlw	1
  5417  0F21  00CB               	movwf	??___fldiv
  5418  0F22  084B               	movf	??___fldiv,w
  5419  0F23  07DC               	addwf	___fldiv@aexp,f
  5420  0F24                     l2372:
  5421  0F24  301A               	movlw	26
  5422  0F25  025C               	subwf	___fldiv@aexp,w
  5423  0F26  1C03               	skipc
  5424  0F27  2F29               	goto	u3111
  5425  0F28  2F2A               	goto	u3110
  5426  0F29                     u3111:
  5427  0F29  2EDA               	goto	l2354
  5428  0F2A                     u3110:
  5429  0F2A                     l2374:
  5430  0F2A  0853               	movf	___fldiv@rem+3,w
  5431  0F2B  0452               	iorwf	___fldiv@rem+2,w
  5432  0F2C  0451               	iorwf	___fldiv@rem+1,w
  5433  0F2D  0450               	iorwf	___fldiv@rem,w
  5434  0F2E  1903               	skipnz
  5435  0F2F  2F31               	goto	u3121
  5436  0F30  2F32               	goto	u3120
  5437  0F31                     u3121:
  5438  0F31  2F51               	goto	l2388
  5439  0F32                     u3120:
  5440  0F32                     l2376:
  5441  0F32  1457               	bsf	___fldiv@grs,0
  5442  0F33  2F51               	goto	l2388
  5443  0F34                     l2378:
  5444  0F34  3001               	movlw	1
  5445  0F35  00CB               	movwf	??___fldiv
  5446  0F36                     u3135:
  5447  0F36  1003               	clrc
  5448  0F37  0DC7               	rlf	___fldiv@b,f
  5449  0F38  0DC8               	rlf	___fldiv@b+1,f
  5450  0F39  0DC9               	rlf	___fldiv@b+2,f
  5451  0F3A  0DCA               	rlf	___fldiv@b+3,f
  5452  0F3B  0BCB               	decfsz	??___fldiv,f
  5453  0F3C  2F36               	goto	u3135
  5454  0F3D                     l2380:
  5455  0F3D  1FDA               	btfss	___fldiv@grs+3,7
  5456  0F3E  2F40               	goto	u3141
  5457  0F3F  2F41               	goto	u3140
  5458  0F40                     u3141:
  5459  0F40  2F42               	goto	l2384
  5460  0F41                     u3140:
  5461  0F41                     l2382:
  5462  0F41  1447               	bsf	___fldiv@b,0
  5463  0F42                     l2384:
  5464  0F42  3001               	movlw	1
  5465  0F43  00CB               	movwf	??___fldiv
  5466  0F44                     u3155:
  5467  0F44  1003               	clrc
  5468  0F45  0DD7               	rlf	___fldiv@grs,f
  5469  0F46  0DD8               	rlf	___fldiv@grs+1,f
  5470  0F47  0DD9               	rlf	___fldiv@grs+2,f
  5471  0F48  0DDA               	rlf	___fldiv@grs+3,f
  5472  0F49  0BCB               	decfsz	??___fldiv,f
  5473  0F4A  2F44               	goto	u3155
  5474  0F4B                     l2386:
  5475  0F4B  30FF               	movlw	255
  5476  0F4C  07D5               	addwf	___fldiv@new_exp,f
  5477  0F4D  1803               	skipnc
  5478  0F4E  0AD6               	incf	___fldiv@new_exp+1,f
  5479  0F4F  30FF               	movlw	255
  5480  0F50  07D6               	addwf	___fldiv@new_exp+1,f
  5481  0F51                     l2388:
  5482  0F51  1FC9               	btfss	___fldiv@b+2,7
  5483  0F52  2F54               	goto	u3161
  5484  0F53  2F55               	goto	u3160
  5485  0F54                     u3161:
  5486  0F54  2F34               	goto	l2378
  5487  0F55                     u3160:
  5488  0F55                     l2390:
  5489  0F55  01DC               	clrf	___fldiv@aexp
  5490  0F56                     l2392:
  5491  0F56  1FDA               	btfss	___fldiv@grs+3,7
  5492  0F57  2F59               	goto	u3171
  5493  0F58  2F5A               	goto	u3170
  5494  0F59                     u3171:
  5495  0F59  2F76               	goto	l2400
  5496  0F5A                     u3170:
  5497  0F5A                     l2394:
  5498  0F5A  30FF               	movlw	255
  5499  0F5B  0557               	andwf	___fldiv@grs,w
  5500  0F5C  00CB               	movwf	??___fldiv
  5501  0F5D  30FF               	movlw	255
  5502  0F5E  0558               	andwf	___fldiv@grs+1,w
  5503  0F5F  00CC               	movwf	??___fldiv+1
  5504  0F60  30FF               	movlw	255
  5505  0F61  0559               	andwf	___fldiv@grs+2,w
  5506  0F62  00CD               	movwf	??___fldiv+2
  5507  0F63  307F               	movlw	127
  5508  0F64  055A               	andwf	___fldiv@grs+3,w
  5509  0F65  00CE               	movwf	??___fldiv+3
  5510  0F66  084E               	movf	??___fldiv+3,w
  5511  0F67  044D               	iorwf	??___fldiv+2,w
  5512  0F68  044C               	iorwf	??___fldiv+1,w
  5513  0F69  044B               	iorwf	??___fldiv,w
  5514  0F6A  1903               	skipnz
  5515  0F6B  2F6D               	goto	u3181
  5516  0F6C  2F6E               	goto	u3180
  5517  0F6D                     u3181:
  5518  0F6D  2F71               	goto	l655
  5519  0F6E                     u3180:
  5520  0F6E                     l2396:
  5521  0F6E  01DC               	clrf	___fldiv@aexp
  5522  0F6F  0ADC               	incf	___fldiv@aexp,f
  5523  0F70  2F76               	goto	l2400
  5524  0F71                     l655:
  5525  0F71  1C47               	btfss	___fldiv@b,0
  5526  0F72  2F74               	goto	u3191
  5527  0F73  2F75               	goto	u3190
  5528  0F74                     u3191:
  5529  0F74  2F76               	goto	l2400
  5530  0F75                     u3190:
  5531  0F75  2F6E               	goto	l2396
  5532  0F76                     l2400:
  5533  0F76  085C               	movf	___fldiv@aexp,w
  5534  0F77  1903               	btfsc	3,2
  5535  0F78  2F7A               	goto	u3201
  5536  0F79  2F7B               	goto	u3200
  5537  0F7A                     u3201:
  5538  0F7A  2FAC               	goto	l2410
  5539  0F7B                     u3200:
  5540  0F7B                     l2402:
  5541  0F7B  3001               	movlw	1
  5542  0F7C  07C7               	addwf	___fldiv@b,f
  5543  0F7D  3000               	movlw	0
  5544  0F7E  1803               	skipnc
  5545  0F7F  3001               	movlw	1
  5546  0F80  07C8               	addwf	___fldiv@b+1,f
  5547  0F81  3000               	movlw	0
  5548  0F82  1803               	skipnc
  5549  0F83  3001               	movlw	1
  5550  0F84  07C9               	addwf	___fldiv@b+2,f
  5551  0F85  3000               	movlw	0
  5552  0F86  1803               	skipnc
  5553  0F87  3001               	movlw	1
  5554  0F88  07CA               	addwf	___fldiv@b+3,f
  5555  0F89                     l2404:
  5556  0F89  1C4A               	btfss	___fldiv@b+3,0
  5557  0F8A  2F8C               	goto	u3211
  5558  0F8B  2F8D               	goto	u3210
  5559  0F8C                     u3211:
  5560  0F8C  2FAC               	goto	l2410
  5561  0F8D                     u3210:
  5562  0F8D                     l2406:
  5563  0F8D  0847               	movf	___fldiv@b,w
  5564  0F8E  00CB               	movwf	??___fldiv
  5565  0F8F  0848               	movf	___fldiv@b+1,w
  5566  0F90  00CC               	movwf	??___fldiv+1
  5567  0F91  0849               	movf	___fldiv@b+2,w
  5568  0F92  00CD               	movwf	??___fldiv+2
  5569  0F93  084A               	movf	___fldiv@b+3,w
  5570  0F94  00CE               	movwf	??___fldiv+3
  5571  0F95  3001               	movlw	1
  5572  0F96  00CF               	movwf	??___fldiv+4
  5573  0F97                     u3225:
  5574  0F97  0D4E               	rlf	??___fldiv+3,w
  5575  0F98  0CCE               	rrf	??___fldiv+3,f
  5576  0F99  0CCD               	rrf	??___fldiv+2,f
  5577  0F9A  0CCC               	rrf	??___fldiv+1,f
  5578  0F9B  0CCB               	rrf	??___fldiv,f
  5579  0F9C                     u3220:
  5580  0F9C  0BCF               	decfsz	??___fldiv+4,f
  5581  0F9D  2F97               	goto	u3225
  5582  0F9E  084E               	movf	??___fldiv+3,w
  5583  0F9F  00CA               	movwf	___fldiv@b+3
  5584  0FA0  084D               	movf	??___fldiv+2,w
  5585  0FA1  00C9               	movwf	___fldiv@b+2
  5586  0FA2  084C               	movf	??___fldiv+1,w
  5587  0FA3  00C8               	movwf	___fldiv@b+1
  5588  0FA4  084B               	movf	??___fldiv,w
  5589  0FA5  00C7               	movwf	___fldiv@b
  5590  0FA6                     l2408:
  5591  0FA6  3001               	movlw	1
  5592  0FA7  07D5               	addwf	___fldiv@new_exp,f
  5593  0FA8  1803               	skipnc
  5594  0FA9  0AD6               	incf	___fldiv@new_exp+1,f
  5595  0FAA  3000               	movlw	0
  5596  0FAB  07D6               	addwf	___fldiv@new_exp+1,f
  5597  0FAC                     l2410:
  5598  0FAC  0856               	movf	___fldiv@new_exp+1,w
  5599  0FAD  3A80               	xorlw	128
  5600  0FAE  00FF               	movwf	btemp+1
  5601  0FAF  3080               	movlw	128
  5602  0FB0  027F               	subwf	btemp+1,w
  5603  0FB1  1D03               	skipz
  5604  0FB2  2FB5               	goto	u3235
  5605  0FB3  30FF               	movlw	255
  5606  0FB4  0255               	subwf	___fldiv@new_exp,w
  5607  0FB5                     u3235:
  5608  0FB5  1C03               	skipc
  5609  0FB6  2FB8               	goto	u3231
  5610  0FB7  2FB9               	goto	u3230
  5611  0FB8                     u3231:
  5612  0FB8  2FC7               	goto	l2414
  5613  0FB9                     u3230:
  5614  0FB9                     l2412:
  5615  0FB9  30FF               	movlw	255
  5616  0FBA  1283               	bcf	3,5	;RP0=0, select bank0
  5617  0FBB  1303               	bcf	3,6	;RP1=0, select bank0
  5618  0FBC  00D5               	movwf	___fldiv@new_exp
  5619  0FBD  3000               	movlw	0
  5620  0FBE  00D6               	movwf	___fldiv@new_exp+1
  5621  0FBF  3000               	movlw	0
  5622  0FC0  00CA               	movwf	___fldiv@b+3
  5623  0FC1  3000               	movlw	0
  5624  0FC2  00C9               	movwf	___fldiv@b+2
  5625  0FC3  3000               	movlw	0
  5626  0FC4  00C8               	movwf	___fldiv@b+1
  5627  0FC5  3000               	movlw	0
  5628  0FC6  00C7               	movwf	___fldiv@b
  5629  0FC7                     l2414:
  5630  0FC7  1283               	bcf	3,5	;RP0=0, select bank0
  5631  0FC8  1303               	bcf	3,6	;RP1=0, select bank0
  5632  0FC9  0856               	movf	___fldiv@new_exp+1,w
  5633  0FCA  3A80               	xorlw	128
  5634  0FCB  00FF               	movwf	btemp+1
  5635  0FCC  3080               	movlw	128
  5636  0FCD  027F               	subwf	btemp+1,w
  5637  0FCE  1D03               	skipz
  5638  0FCF  2FD2               	goto	u3245
  5639  0FD0  3001               	movlw	1
  5640  0FD1  0255               	subwf	___fldiv@new_exp,w
  5641  0FD2                     u3245:
  5642  0FD2  1803               	skipnc
  5643  0FD3  2FD5               	goto	u3241
  5644  0FD4  2FD6               	goto	u3240
  5645  0FD5                     u3241:
  5646  0FD5  2FE3               	goto	l661
  5647  0FD6                     u3240:
  5648  0FD6                     l2416:
  5649  0FD6  1283               	bcf	3,5	;RP0=0, select bank0
  5650  0FD7  1303               	bcf	3,6	;RP1=0, select bank0
  5651  0FD8  01D5               	clrf	___fldiv@new_exp
  5652  0FD9  01D6               	clrf	___fldiv@new_exp+1
  5653  0FDA                     l2418:
  5654  0FDA  3000               	movlw	0
  5655  0FDB  00CA               	movwf	___fldiv@b+3
  5656  0FDC  3000               	movlw	0
  5657  0FDD  00C9               	movwf	___fldiv@b+2
  5658  0FDE  3000               	movlw	0
  5659  0FDF  00C8               	movwf	___fldiv@b+1
  5660  0FE0  3000               	movlw	0
  5661  0FE1  00C7               	movwf	___fldiv@b
  5662  0FE2                     l2420:
  5663  0FE2  01D4               	clrf	___fldiv@sign
  5664  0FE3                     l661:
  5665  0FE3  1283               	bcf	3,5	;RP0=0, select bank0
  5666  0FE4  1303               	bcf	3,6	;RP1=0, select bank0
  5667  0FE5  0855               	movf	___fldiv@new_exp,w
  5668  0FE6  00CB               	movwf	??___fldiv
  5669  0FE7  084B               	movf	??___fldiv,w
  5670  0FE8  00DB               	movwf	___fldiv@bexp
  5671  0FE9                     l2422:
  5672  0FE9  1C5B               	btfss	___fldiv@bexp,0
  5673  0FEA  2FEC               	goto	u3251
  5674  0FEB  2FED               	goto	u3250
  5675  0FEC                     u3251:
  5676  0FEC  2FEF               	goto	l2426
  5677  0FED                     u3250:
  5678  0FED                     l2424:
  5679  0FED  17C9               	bsf	___fldiv@b+2,7
  5680  0FEE  2FF3               	goto	l663
  5681  0FEF                     l2426:
  5682  0FEF  307F               	movlw	127
  5683  0FF0  00CB               	movwf	??___fldiv
  5684  0FF1  084B               	movf	??___fldiv,w
  5685  0FF2  05C9               	andwf	___fldiv@b+2,f
  5686  0FF3                     l663:
  5687  0FF3  085B               	movf	___fldiv@bexp,w
  5688  0FF4  00CB               	movwf	??___fldiv
  5689  0FF5  1003               	clrc
  5690  0FF6  0C4B               	rrf	??___fldiv,w
  5691  0FF7  00CC               	movwf	??___fldiv+1
  5692  0FF8  084C               	movf	??___fldiv+1,w
  5693  0FF9  00CA               	movwf	___fldiv@b+3
  5694  0FFA  0854               	movf	___fldiv@sign,w
  5695  0FFB  00CB               	movwf	??___fldiv
  5696  0FFC  084B               	movf	??___fldiv,w
  5697  0FFD  04CA               	iorwf	___fldiv@b+3,f
  5698  0FFE  2E97               	goto	l2334
  5699  0FFF                     l641:
  5700  0FFF  0008               	return
  5701  1000                     __end_of___fldiv:
  5702                           
  5703                           	psect	text19
  5704  174C                     __ptext19:	
  5705 ;; *************** function _configWatchdogTimer *****************
  5706 ;; Defined at:
  5707 ;;		line 348 in file "newmain.c"
  5708 ;; Parameters:    Size  Location     Type
  5709 ;;		None
  5710 ;; Auto vars:     Size  Location     Type
  5711 ;;		None
  5712 ;; Return value:  Size  Location     Type
  5713 ;;                  1    wreg      void 
  5714 ;; Registers used:
  5715 ;;		None
  5716 ;; Tracked objects:
  5717 ;;		On entry : 0/0
  5718 ;;		On exit  : 0/0
  5719 ;;		Unchanged: 0/0
  5720 ;; Data sizes:     COMMON   BANK0   BANK1   BANK3   BANK2
  5721 ;;      Params:         0       0       0       0       0
  5722 ;;      Locals:         0       0       0       0       0
  5723 ;;      Temps:          0       0       0       0       0
  5724 ;;      Totals:         0       0       0       0       0
  5725 ;;Total ram usage:        0 bytes
  5726 ;; Hardware stack levels used: 1
  5727 ;; Hardware stack levels required when called: 3
  5728 ;; This function calls:
  5729 ;;		Nothing
  5730 ;; This function is called by:
  5731 ;;		_main
  5732 ;; This function uses a non-reentrant model
  5733 ;;
  5734                           
  5735  174C                     _configWatchdogTimer:	
  5736                           ;psect for function _configWatchdogTimer
  5737                           
  5738  174C                     l3330:	
  5739                           ;incstack = 0
  5740                           ; Regs used in _configWatchdogTimer: []
  5741                           
  5742                           
  5743                           ;newmain.c: 350:     OPTION_REGbits.PSA = 1;
  5744  174C  1683               	bsf	3,5	;RP0=1, select bank1
  5745  174D  1303               	bcf	3,6	;RP1=0, select bank1
  5746  174E  1581               	bsf	1,3	;volatile
  5747                           
  5748                           ;newmain.c: 351:     OPTION_REGbits.PS0 = 0;
  5749  174F  1001               	bcf	1,0	;volatile
  5750                           
  5751                           ;newmain.c: 352:     OPTION_REGbits.PS1 = 1;
  5752  1750  1481               	bsf	1,1	;volatile
  5753                           
  5754                           ;newmain.c: 353:     OPTION_REGbits.PS2 = 1;
  5755  1751  1501               	bsf	1,2	;volatile
  5756  1752  0064               	clrwdt	;# 
  5757  1753                     l196:	
  5758                           ;newmain.c: 355:     return;
  5759                           
  5760  1753  0008               	return
  5761  1754                     __end_of_configWatchdogTimer:
  5762                           
  5763                           	psect	text20
  5764  176F                     __ptext20:	
  5765 ;; *************** function _configTimer *****************
  5766 ;; Defined at:
  5767 ;;		line 318 in file "newmain.c"
  5768 ;; Parameters:    Size  Location     Type
  5769 ;;		None
  5770 ;; Auto vars:     Size  Location     Type
  5771 ;;		None
  5772 ;; Return value:  Size  Location     Type
  5773 ;;                  1    wreg      void 
  5774 ;; Registers used:
  5775 ;;		wreg
  5776 ;; Tracked objects:
  5777 ;;		On entry : 0/0
  5778 ;;		On exit  : 0/0
  5779 ;;		Unchanged: 0/0
  5780 ;; Data sizes:     COMMON   BANK0   BANK1   BANK3   BANK2
  5781 ;;      Params:         0       0       0       0       0
  5782 ;;      Locals:         0       0       0       0       0
  5783 ;;      Temps:          0       0       0       0       0
  5784 ;;      Totals:         0       0       0       0       0
  5785 ;;Total ram usage:        0 bytes
  5786 ;; Hardware stack levels used: 1
  5787 ;; Hardware stack levels required when called: 3
  5788 ;; This function calls:
  5789 ;;		Nothing
  5790 ;; This function is called by:
  5791 ;;		_main
  5792 ;; This function uses a non-reentrant model
  5793 ;;
  5794                           
  5795  176F                     _configTimer:	
  5796                           ;psect for function _configTimer
  5797                           
  5798  176F                     l3322:	
  5799                           ;incstack = 0
  5800                           ; Regs used in _configTimer: [wreg]
  5801                           
  5802                           
  5803                           ;newmain.c: 321:     INTCONbits.GIE = 1;
  5804  176F  178B               	bsf	11,7	;volatile
  5805                           
  5806                           ;newmain.c: 322:     INTCONbits.PEIE = 1;
  5807  1770  170B               	bsf	11,6	;volatile
  5808                           
  5809                           ;newmain.c: 323:     PIE1bits.TMR1IE = 1;
  5810  1771  1683               	bsf	3,5	;RP0=1, select bank1
  5811  1772  1303               	bcf	3,6	;RP1=0, select bank1
  5812  1773  140C               	bsf	12,0	;volatile
  5813                           
  5814                           ;newmain.c: 326:     T1CONbits.TMR1CS = 0;
  5815  1774  1283               	bcf	3,5	;RP0=0, select bank0
  5816  1775  1303               	bcf	3,6	;RP1=0, select bank0
  5817  1776  1090               	bcf	16,1	;volatile
  5818                           
  5819                           ;newmain.c: 329:     T1CONbits.T1CKPS0 = 1;
  5820  1777  1610               	bsf	16,4	;volatile
  5821                           
  5822                           ;newmain.c: 330:     T1CONbits.T1CKPS1 = 1;
  5823  1778  1690               	bsf	16,5	;volatile
  5824  1779                     l3324:
  5825                           
  5826                           ;newmain.c: 338:     TMR1H = 0xE7;
  5827  1779  30E7               	movlw	231
  5828  177A  008F               	movwf	15	;volatile
  5829                           
  5830                           ;newmain.c: 339:     TMR1L = 0x96;
  5831  177B  3096               	movlw	150
  5832  177C  008E               	movwf	14	;volatile
  5833  177D                     l3326:
  5834                           
  5835                           ;newmain.c: 341:     T1CONbits.TMR1ON = 1;
  5836  177D  1410               	bsf	16,0	;volatile
  5837  177E                     l193:
  5838  177E  0008               	return
  5839  177F                     __end_of_configTimer:
  5840                           
  5841                           	psect	text21
  5842  1761                     __ptext21:	
  5843 ;; *************** function _configPWMRegs *****************
  5844 ;; Defined at:
  5845 ;;		line 173 in file "newmain.c"
  5846 ;; Parameters:    Size  Location     Type
  5847 ;;		None
  5848 ;; Auto vars:     Size  Location     Type
  5849 ;;		None
  5850 ;; Return value:  Size  Location     Type
  5851 ;;                  1    wreg      void 
  5852 ;; Registers used:
  5853 ;;		wreg
  5854 ;; Tracked objects:
  5855 ;;		On entry : 0/0
  5856 ;;		On exit  : 0/0
  5857 ;;		Unchanged: 0/0
  5858 ;; Data sizes:     COMMON   BANK0   BANK1   BANK3   BANK2
  5859 ;;      Params:         0       0       0       0       0
  5860 ;;      Locals:         0       0       0       0       0
  5861 ;;      Temps:          0       0       0       0       0
  5862 ;;      Totals:         0       0       0       0       0
  5863 ;;Total ram usage:        0 bytes
  5864 ;; Hardware stack levels used: 1
  5865 ;; Hardware stack levels required when called: 3
  5866 ;; This function calls:
  5867 ;;		Nothing
  5868 ;; This function is called by:
  5869 ;;		_main
  5870 ;; This function uses a non-reentrant model
  5871 ;;
  5872                           
  5873  1761                     _configPWMRegs:	
  5874                           ;psect for function _configPWMRegs
  5875                           
  5876  1761                     l3292:	
  5877                           ;incstack = 0
  5878                           ; Regs used in _configPWMRegs: [wreg]
  5879                           
  5880                           
  5881                           ;newmain.c: 174:     CCP1CON = 0x0F;
  5882  1761  300F               	movlw	15
  5883  1762  1283               	bcf	3,5	;RP0=0, select bank0
  5884  1763  1303               	bcf	3,6	;RP1=0, select bank0
  5885  1764  0097               	movwf	23	;volatile
  5886                           
  5887                           ;newmain.c: 175:     PR2 = 100;
  5888  1765  3064               	movlw	100
  5889  1766  1683               	bsf	3,5	;RP0=1, select bank1
  5890  1767  1303               	bcf	3,6	;RP1=0, select bank1
  5891  1768  0092               	movwf	18	;volatile
  5892                           
  5893                           ;newmain.c: 176:     CCPR1L = porcentagem_PWM;
  5894  1769  0839               	movf	_porcentagem_PWM^(0+128),w
  5895  176A  1283               	bcf	3,5	;RP0=0, select bank0
  5896  176B  1303               	bcf	3,6	;RP1=0, select bank0
  5897  176C  0095               	movwf	21	;volatile
  5898  176D                     l3294:
  5899                           
  5900                           ;newmain.c: 177:     TMR2ON = 1;
  5901  176D  1512               	bsf	18,2	;volatile
  5902  176E                     l137:
  5903  176E  0008               	return
  5904  176F                     __end_of_configPWMRegs:
  5905                           
  5906                           	psect	text22
  5907  1745                     __ptext22:	
  5908 ;; *************** function _configIntExterns *****************
  5909 ;; Defined at:
  5910 ;;		line 297 in file "newmain.c"
  5911 ;; Parameters:    Size  Location     Type
  5912 ;;		None
  5913 ;; Auto vars:     Size  Location     Type
  5914 ;;		None
  5915 ;; Return value:  Size  Location     Type
  5916 ;;                  1    wreg      void 
  5917 ;; Registers used:
  5918 ;;		None
  5919 ;; Tracked objects:
  5920 ;;		On entry : 0/0
  5921 ;;		On exit  : 0/0
  5922 ;;		Unchanged: 0/0
  5923 ;; Data sizes:     COMMON   BANK0   BANK1   BANK3   BANK2
  5924 ;;      Params:         0       0       0       0       0
  5925 ;;      Locals:         0       0       0       0       0
  5926 ;;      Temps:          0       0       0       0       0
  5927 ;;      Totals:         0       0       0       0       0
  5928 ;;Total ram usage:        0 bytes
  5929 ;; Hardware stack levels used: 1
  5930 ;; Hardware stack levels required when called: 3
  5931 ;; This function calls:
  5932 ;;		Nothing
  5933 ;; This function is called by:
  5934 ;;		_main
  5935 ;; This function uses a non-reentrant model
  5936 ;;
  5937                           
  5938  1745                     _configIntExterns:	
  5939                           ;psect for function _configIntExterns
  5940                           
  5941  1745                     l3308:	
  5942                           ;incstack = 0
  5943                           ; Regs used in _configIntExterns: []
  5944                           
  5945                           
  5946                           ;newmain.c: 299:     OPTION_REGbits.INTEDG = 0;
  5947  1745  1683               	bsf	3,5	;RP0=1, select bank1
  5948  1746  1303               	bcf	3,6	;RP1=0, select bank1
  5949  1747  1301               	bcf	1,6	;volatile
  5950                           
  5951                           ;newmain.c: 300:     INTCONbits.GIE = 1;
  5952  1748  178B               	bsf	11,7	;volatile
  5953                           
  5954                           ;newmain.c: 301:     INTCONbits.INTE = 1;
  5955  1749  160B               	bsf	11,4	;volatile
  5956                           
  5957                           ;newmain.c: 302:     INTCONbits.INTF = 0;
  5958  174A  108B               	bcf	11,1	;volatile
  5959  174B                     l184:	
  5960                           ;newmain.c: 303:     return;
  5961                           
  5962  174B  0008               	return
  5963  174C                     __end_of_configIntExterns:
  5964                           
  5965                           	psect	text23
  5966  082D                     __ptext23:	
  5967 ;; *************** function _configADC *****************
  5968 ;; Defined at:
  5969 ;;		line 59 in file "newmain.c"
  5970 ;; Parameters:    Size  Location     Type
  5971 ;;		None
  5972 ;; Auto vars:     Size  Location     Type
  5973 ;;		None
  5974 ;; Return value:  Size  Location     Type
  5975 ;;                  1    wreg      void 
  5976 ;; Registers used:
  5977 ;;		status,2
  5978 ;; Tracked objects:
  5979 ;;		On entry : 0/0
  5980 ;;		On exit  : 0/0
  5981 ;;		Unchanged: 0/0
  5982 ;; Data sizes:     COMMON   BANK0   BANK1   BANK3   BANK2
  5983 ;;      Params:         0       0       0       0       0
  5984 ;;      Locals:         0       0       0       0       0
  5985 ;;      Temps:          0       0       0       0       0
  5986 ;;      Totals:         0       0       0       0       0
  5987 ;;Total ram usage:        0 bytes
  5988 ;; Hardware stack levels used: 1
  5989 ;; Hardware stack levels required when called: 3
  5990 ;; This function calls:
  5991 ;;		Nothing
  5992 ;; This function is called by:
  5993 ;;		_main
  5994 ;; This function uses a non-reentrant model
  5995 ;;
  5996                           
  5997  082D                     _configADC:	
  5998                           ;psect for function _configADC
  5999                           
  6000  082D                     l3222:	
  6001                           ;incstack = 0
  6002                           ; Regs used in _configADC: [status,2]
  6003                           
  6004                           
  6005                           ;newmain.c: 61:     ADCON1bits.PCFG0 = 0;
  6006  082D  1683               	bsf	3,5	;RP0=1, select bank1
  6007  082E  1303               	bcf	3,6	;RP1=0, select bank1
  6008  082F  101F               	bcf	31,0	;volatile
  6009                           
  6010                           ;newmain.c: 62:     ADCON1bits.PCFG1 = 1;
  6011  0830  149F               	bsf	31,1	;volatile
  6012                           
  6013                           ;newmain.c: 63:     ADCON1bits.PCFG2 = 1;
  6014  0831  151F               	bsf	31,2	;volatile
  6015                           
  6016                           ;newmain.c: 64:     ADCON1bits.PCFG3 = 1;
  6017  0832  159F               	bsf	31,3	;volatile
  6018                           
  6019                           ;newmain.c: 68:     ADCON0bits.ADCS0 = 0;
  6020  0833  1283               	bcf	3,5	;RP0=0, select bank0
  6021  0834  1303               	bcf	3,6	;RP1=0, select bank0
  6022  0835  131F               	bcf	31,6	;volatile
  6023                           
  6024                           ;newmain.c: 69:     ADCON0bits.ADCS1 = 0;
  6025  0836  139F               	bcf	31,7	;volatile
  6026                           
  6027                           ;newmain.c: 70:     ADCON1bits.ADCS2 = 0;
  6028  0837  1683               	bsf	3,5	;RP0=1, select bank1
  6029  0838  1303               	bcf	3,6	;RP1=0, select bank1
  6030  0839  131F               	bcf	31,6	;volatile
  6031                           
  6032                           ;newmain.c: 74:     ADCON1bits.ADFM = 0;
  6033  083A  139F               	bcf	31,7	;volatile
  6034  083B                     l3224:
  6035                           
  6036                           ;newmain.c: 77:     ADRESL = 0x00;
  6037  083B  019E               	clrf	30	;volatile
  6038                           
  6039                           ;newmain.c: 78:     ADRESH = 0X00;
  6040  083C  1283               	bcf	3,5	;RP0=0, select bank0
  6041  083D  1303               	bcf	3,6	;RP1=0, select bank0
  6042  083E  019E               	clrf	30	;volatile
  6043  083F                     l3226:
  6044                           
  6045                           ;newmain.c: 82:     ADCON0bits.ADON = 1;
  6046  083F  141F               	bsf	31,0	;volatile
  6047  0840                     l3228:
  6048                           
  6049                           ;newmain.c: 85:     ADCON0bits.CHS0 = 0;
  6050  0840  119F               	bcf	31,3	;volatile
  6051  0841                     l3230:
  6052                           
  6053                           ;newmain.c: 86:     ADCON0bits.CHS1 = 0;
  6054  0841  121F               	bcf	31,4	;volatile
  6055  0842                     l3232:
  6056                           
  6057                           ;newmain.c: 87:     ADCON0bits.CHS2 = 0;
  6058  0842  129F               	bcf	31,5	;volatile
  6059  0843                     l106:
  6060  0843  0008               	return
  6061  0844                     __end_of_configADC:
  6062                           
  6063                           	psect	text24
  6064  0CAE                     __ptext24:	
  6065 ;; *************** function _atualizarLeds *****************
  6066 ;; Defined at:
  6067 ;;		line 91 in file "newmain.c"
  6068 ;; Parameters:    Size  Location     Type
  6069 ;;  porcentagem     2    9[BANK0 ] int 
  6070 ;; Auto vars:     Size  Location     Type
  6071 ;;  numLEDsAceso    2   13[BANK0 ] int 
  6072 ;; Return value:  Size  Location     Type
  6073 ;;                  1    wreg      void 
  6074 ;; Registers used:
  6075 ;;		wreg, status,2, status,0, btemp+1, pclath, cstack
  6076 ;; Tracked objects:
  6077 ;;		On entry : 0/0
  6078 ;;		On exit  : 0/0
  6079 ;;		Unchanged: 0/0
  6080 ;; Data sizes:     COMMON   BANK0   BANK1   BANK3   BANK2
  6081 ;;      Params:         0       2       0       0       0
  6082 ;;      Locals:         0       2       0       0       0
  6083 ;;      Temps:          0       2       0       0       0
  6084 ;;      Totals:         0       6       0       0       0
  6085 ;;Total ram usage:        6 bytes
  6086 ;; Hardware stack levels used: 1
  6087 ;; Hardware stack levels required when called: 4
  6088 ;; This function calls:
  6089 ;;		___awdiv
  6090 ;; This function is called by:
  6091 ;;		_main
  6092 ;; This function uses a non-reentrant model
  6093 ;;
  6094                           
  6095  0CAE                     _atualizarLeds:	
  6096                           ;psect for function _atualizarLeds
  6097                           
  6098  0CAE                     l3236:	
  6099                           ;incstack = 0
  6100                           ; Regs used in _atualizarLeds: [wreg+status,2+status,0+btemp+1+pclath+cstack]
  6101                           
  6102                           
  6103                           ;newmain.c: 92:     int numLEDsAcesos = (porcentagem * 8)/100;
  6104  0CAE  3064               	movlw	100
  6105  0CAF  1283               	bcf	3,5	;RP0=0, select bank0
  6106  0CB0  1303               	bcf	3,6	;RP1=0, select bank0
  6107  0CB1  00A0               	movwf	___awdiv@divisor
  6108  0CB2  3000               	movlw	0
  6109  0CB3  00A1               	movwf	___awdiv@divisor+1
  6110  0CB4  082A               	movf	atualizarLeds@porcentagem+1,w
  6111  0CB5  00AC               	movwf	??_atualizarLeds+1
  6112  0CB6  0829               	movf	atualizarLeds@porcentagem,w
  6113  0CB7  00AB               	movwf	??_atualizarLeds
  6114  0CB8  1003               	clrc
  6115  0CB9  0DAB               	rlf	??_atualizarLeds,f
  6116  0CBA  0DAC               	rlf	??_atualizarLeds+1,f
  6117  0CBB  1003               	clrc
  6118  0CBC  0DAB               	rlf	??_atualizarLeds,f
  6119  0CBD  0DAC               	rlf	??_atualizarLeds+1,f
  6120  0CBE  1003               	clrc
  6121  0CBF  0DAB               	rlf	??_atualizarLeds,f
  6122  0CC0  0DAC               	rlf	??_atualizarLeds+1,f
  6123  0CC1  082B               	movf	??_atualizarLeds,w
  6124  0CC2  00A2               	movwf	___awdiv@dividend
  6125  0CC3  082C               	movf	??_atualizarLeds+1,w
  6126  0CC4  00A3               	movwf	___awdiv@dividend+1
  6127  0CC5  120A  158A  235B  120A  158A  	fcall	___awdiv
  6128  0CCA  1283               	bcf	3,5	;RP0=0, select bank0
  6129  0CCB  1303               	bcf	3,6	;RP1=0, select bank0
  6130  0CCC  0821               	movf	?___awdiv+1,w
  6131  0CCD  00AE               	movwf	atualizarLeds@numLEDsAcesos+1
  6132  0CCE  0820               	movf	?___awdiv,w
  6133  0CCF  00AD               	movwf	atualizarLeds@numLEDsAcesos
  6134  0CD0                     l3238:
  6135                           
  6136                           ;newmain.c: 93:     PORTDbits.RD1= 0;
  6137  0CD0  1088               	bcf	8,1	;volatile
  6138  0CD1                     l3240:
  6139                           
  6140                           ;newmain.c: 94:     PORTDbits.RD0= 0;
  6141  0CD1  1008               	bcf	8,0	;volatile
  6142  0CD2                     l3242:
  6143                           
  6144                           ;newmain.c: 95:     PORTCbits.RC7= 0;
  6145  0CD2  1387               	bcf	7,7	;volatile
  6146  0CD3                     l3244:
  6147                           
  6148                           ;newmain.c: 96:     PORTCbits.RC6= 0;
  6149  0CD3  1307               	bcf	7,6	;volatile
  6150  0CD4                     l3246:
  6151                           
  6152                           ;newmain.c: 97:     PORTCbits.RC5= 0;
  6153  0CD4  1287               	bcf	7,5	;volatile
  6154  0CD5                     l3248:
  6155                           
  6156                           ;newmain.c: 98:     PORTCbits.RC4= 0;
  6157  0CD5  1207               	bcf	7,4	;volatile
  6158  0CD6                     l3250:
  6159                           
  6160                           ;newmain.c: 99:     PORTCbits.RC3= 0;
  6161  0CD6  1187               	bcf	7,3	;volatile
  6162  0CD7                     l3252:
  6163                           
  6164                           ;newmain.c: 100:     PORTCbits.RC1= 0;
  6165  0CD7  1087               	bcf	7,1	;volatile
  6166  0CD8                     l3254:
  6167                           
  6168                           ;newmain.c: 101:     if(numLEDsAcesos > 0){
  6169  0CD8  082E               	movf	atualizarLeds@numLEDsAcesos+1,w
  6170  0CD9  3A80               	xorlw	128
  6171  0CDA  00FF               	movwf	btemp+1
  6172  0CDB  3080               	movlw	128
  6173  0CDC  027F               	subwf	btemp+1,w
  6174  0CDD  1D03               	skipz
  6175  0CDE  2CE1               	goto	u4765
  6176  0CDF  3001               	movlw	1
  6177  0CE0  022D               	subwf	atualizarLeds@numLEDsAcesos,w
  6178  0CE1                     u4765:
  6179  0CE1  1C03               	skipc
  6180  0CE2  2CE4               	goto	u4761
  6181  0CE3  2CE5               	goto	u4760
  6182  0CE4                     u4761:
  6183  0CE4  2CE8               	goto	l3258
  6184  0CE5                     u4760:
  6185  0CE5                     l3256:
  6186                           
  6187                           ;newmain.c: 102:         PORTDbits.RD1 = 1;
  6188  0CE5  1283               	bcf	3,5	;RP0=0, select bank0
  6189  0CE6  1303               	bcf	3,6	;RP1=0, select bank0
  6190  0CE7  1488               	bsf	8,1	;volatile
  6191  0CE8                     l3258:
  6192                           
  6193                           ;newmain.c: 104:     if(numLEDsAcesos > 1){
  6194  0CE8  1283               	bcf	3,5	;RP0=0, select bank0
  6195  0CE9  1303               	bcf	3,6	;RP1=0, select bank0
  6196  0CEA  082E               	movf	atualizarLeds@numLEDsAcesos+1,w
  6197  0CEB  3A80               	xorlw	128
  6198  0CEC  00FF               	movwf	btemp+1
  6199  0CED  3080               	movlw	128
  6200  0CEE  027F               	subwf	btemp+1,w
  6201  0CEF  1D03               	skipz
  6202  0CF0  2CF3               	goto	u4775
  6203  0CF1  3002               	movlw	2
  6204  0CF2  022D               	subwf	atualizarLeds@numLEDsAcesos,w
  6205  0CF3                     u4775:
  6206  0CF3  1C03               	skipc
  6207  0CF4  2CF6               	goto	u4771
  6208  0CF5  2CF7               	goto	u4770
  6209  0CF6                     u4771:
  6210  0CF6  2CFA               	goto	l3262
  6211  0CF7                     u4770:
  6212  0CF7                     l3260:
  6213                           
  6214                           ;newmain.c: 105:         PORTDbits.RD0 = 1;
  6215  0CF7  1283               	bcf	3,5	;RP0=0, select bank0
  6216  0CF8  1303               	bcf	3,6	;RP1=0, select bank0
  6217  0CF9  1408               	bsf	8,0	;volatile
  6218  0CFA                     l3262:
  6219                           
  6220                           ;newmain.c: 107:     if(numLEDsAcesos > 2){
  6221  0CFA  1283               	bcf	3,5	;RP0=0, select bank0
  6222  0CFB  1303               	bcf	3,6	;RP1=0, select bank0
  6223  0CFC  082E               	movf	atualizarLeds@numLEDsAcesos+1,w
  6224  0CFD  3A80               	xorlw	128
  6225  0CFE  00FF               	movwf	btemp+1
  6226  0CFF  3080               	movlw	128
  6227  0D00  027F               	subwf	btemp+1,w
  6228  0D01  1D03               	skipz
  6229  0D02  2D05               	goto	u4785
  6230  0D03  3003               	movlw	3
  6231  0D04  022D               	subwf	atualizarLeds@numLEDsAcesos,w
  6232  0D05                     u4785:
  6233  0D05  1C03               	skipc
  6234  0D06  2D08               	goto	u4781
  6235  0D07  2D09               	goto	u4780
  6236  0D08                     u4781:
  6237  0D08  2D0C               	goto	l3266
  6238  0D09                     u4780:
  6239  0D09                     l3264:
  6240                           
  6241                           ;newmain.c: 108:         PORTCbits.RC7 = 1;
  6242  0D09  1283               	bcf	3,5	;RP0=0, select bank0
  6243  0D0A  1303               	bcf	3,6	;RP1=0, select bank0
  6244  0D0B  1787               	bsf	7,7	;volatile
  6245  0D0C                     l3266:
  6246                           
  6247                           ;newmain.c: 110:     if(numLEDsAcesos > 3){
  6248  0D0C  1283               	bcf	3,5	;RP0=0, select bank0
  6249  0D0D  1303               	bcf	3,6	;RP1=0, select bank0
  6250  0D0E  082E               	movf	atualizarLeds@numLEDsAcesos+1,w
  6251  0D0F  3A80               	xorlw	128
  6252  0D10  00FF               	movwf	btemp+1
  6253  0D11  3080               	movlw	128
  6254  0D12  027F               	subwf	btemp+1,w
  6255  0D13  1D03               	skipz
  6256  0D14  2D17               	goto	u4795
  6257  0D15  3004               	movlw	4
  6258  0D16  022D               	subwf	atualizarLeds@numLEDsAcesos,w
  6259  0D17                     u4795:
  6260  0D17  1C03               	skipc
  6261  0D18  2D1A               	goto	u4791
  6262  0D19  2D1B               	goto	u4790
  6263  0D1A                     u4791:
  6264  0D1A  2D1E               	goto	l3270
  6265  0D1B                     u4790:
  6266  0D1B                     l3268:
  6267                           
  6268                           ;newmain.c: 111:         PORTCbits.RC6 = 1;
  6269  0D1B  1283               	bcf	3,5	;RP0=0, select bank0
  6270  0D1C  1303               	bcf	3,6	;RP1=0, select bank0
  6271  0D1D  1707               	bsf	7,6	;volatile
  6272  0D1E                     l3270:
  6273                           
  6274                           ;newmain.c: 113:     if(numLEDsAcesos > 4){
  6275  0D1E  1283               	bcf	3,5	;RP0=0, select bank0
  6276  0D1F  1303               	bcf	3,6	;RP1=0, select bank0
  6277  0D20  082E               	movf	atualizarLeds@numLEDsAcesos+1,w
  6278  0D21  3A80               	xorlw	128
  6279  0D22  00FF               	movwf	btemp+1
  6280  0D23  3080               	movlw	128
  6281  0D24  027F               	subwf	btemp+1,w
  6282  0D25  1D03               	skipz
  6283  0D26  2D29               	goto	u4805
  6284  0D27  3005               	movlw	5
  6285  0D28  022D               	subwf	atualizarLeds@numLEDsAcesos,w
  6286  0D29                     u4805:
  6287  0D29  1C03               	skipc
  6288  0D2A  2D2C               	goto	u4801
  6289  0D2B  2D2D               	goto	u4800
  6290  0D2C                     u4801:
  6291  0D2C  2D30               	goto	l3274
  6292  0D2D                     u4800:
  6293  0D2D                     l3272:
  6294                           
  6295                           ;newmain.c: 114:         PORTCbits.RC5 = 1;
  6296  0D2D  1283               	bcf	3,5	;RP0=0, select bank0
  6297  0D2E  1303               	bcf	3,6	;RP1=0, select bank0
  6298  0D2F  1687               	bsf	7,5	;volatile
  6299  0D30                     l3274:
  6300                           
  6301                           ;newmain.c: 116:     if(numLEDsAcesos > 5){
  6302  0D30  1283               	bcf	3,5	;RP0=0, select bank0
  6303  0D31  1303               	bcf	3,6	;RP1=0, select bank0
  6304  0D32  082E               	movf	atualizarLeds@numLEDsAcesos+1,w
  6305  0D33  3A80               	xorlw	128
  6306  0D34  00FF               	movwf	btemp+1
  6307  0D35  3080               	movlw	128
  6308  0D36  027F               	subwf	btemp+1,w
  6309  0D37  1D03               	skipz
  6310  0D38  2D3B               	goto	u4815
  6311  0D39  3006               	movlw	6
  6312  0D3A  022D               	subwf	atualizarLeds@numLEDsAcesos,w
  6313  0D3B                     u4815:
  6314  0D3B  1C03               	skipc
  6315  0D3C  2D3E               	goto	u4811
  6316  0D3D  2D3F               	goto	u4810
  6317  0D3E                     u4811:
  6318  0D3E  2D42               	goto	l3278
  6319  0D3F                     u4810:
  6320  0D3F                     l3276:
  6321                           
  6322                           ;newmain.c: 117:         PORTCbits.RC4 = 1;
  6323  0D3F  1283               	bcf	3,5	;RP0=0, select bank0
  6324  0D40  1303               	bcf	3,6	;RP1=0, select bank0
  6325  0D41  1607               	bsf	7,4	;volatile
  6326  0D42                     l3278:
  6327                           
  6328                           ;newmain.c: 119:     if(numLEDsAcesos > 6){
  6329  0D42  1283               	bcf	3,5	;RP0=0, select bank0
  6330  0D43  1303               	bcf	3,6	;RP1=0, select bank0
  6331  0D44  082E               	movf	atualizarLeds@numLEDsAcesos+1,w
  6332  0D45  3A80               	xorlw	128
  6333  0D46  00FF               	movwf	btemp+1
  6334  0D47  3080               	movlw	128
  6335  0D48  027F               	subwf	btemp+1,w
  6336  0D49  1D03               	skipz
  6337  0D4A  2D4D               	goto	u4825
  6338  0D4B  3007               	movlw	7
  6339  0D4C  022D               	subwf	atualizarLeds@numLEDsAcesos,w
  6340  0D4D                     u4825:
  6341  0D4D  1C03               	skipc
  6342  0D4E  2D50               	goto	u4821
  6343  0D4F  2D51               	goto	u4820
  6344  0D50                     u4821:
  6345  0D50  2D54               	goto	l3282
  6346  0D51                     u4820:
  6347  0D51                     l3280:
  6348                           
  6349                           ;newmain.c: 120:         PORTCbits.RC3 = 1;
  6350  0D51  1283               	bcf	3,5	;RP0=0, select bank0
  6351  0D52  1303               	bcf	3,6	;RP1=0, select bank0
  6352  0D53  1587               	bsf	7,3	;volatile
  6353  0D54                     l3282:
  6354                           
  6355                           ;newmain.c: 122:     if(numLEDsAcesos > 7){
  6356  0D54  1283               	bcf	3,5	;RP0=0, select bank0
  6357  0D55  1303               	bcf	3,6	;RP1=0, select bank0
  6358  0D56  082E               	movf	atualizarLeds@numLEDsAcesos+1,w
  6359  0D57  3A80               	xorlw	128
  6360  0D58  00FF               	movwf	btemp+1
  6361  0D59  3080               	movlw	128
  6362  0D5A  027F               	subwf	btemp+1,w
  6363  0D5B  1D03               	skipz
  6364  0D5C  2D5F               	goto	u4835
  6365  0D5D  3008               	movlw	8
  6366  0D5E  022D               	subwf	atualizarLeds@numLEDsAcesos,w
  6367  0D5F                     u4835:
  6368  0D5F  1C03               	skipc
  6369  0D60  2D62               	goto	u4831
  6370  0D61  2D63               	goto	u4830
  6371  0D62                     u4831:
  6372  0D62  2D66               	goto	l117
  6373  0D63                     u4830:
  6374  0D63                     l3284:
  6375                           
  6376                           ;newmain.c: 123:         PORTCbits.RC1 = 1;
  6377  0D63  1283               	bcf	3,5	;RP0=0, select bank0
  6378  0D64  1303               	bcf	3,6	;RP1=0, select bank0
  6379  0D65  1487               	bsf	7,1	;volatile
  6380  0D66                     l117:
  6381  0D66  0008               	return
  6382  0D67                     __end_of_atualizarLeds:
  6383                           
  6384                           	psect	text25
  6385  0B5B                     __ptext25:	
  6386 ;; *************** function ___awdiv *****************
  6387 ;; Defined at:
  6388 ;;		line 5 in file "C:\Program Files\Microchip\xc8\v2.35\pic\sources\c90\common\awdiv.c"
  6389 ;; Parameters:    Size  Location     Type
  6390 ;;  divisor         2    0[BANK0 ] int 
  6391 ;;  dividend        2    2[BANK0 ] int 
  6392 ;; Auto vars:     Size  Location     Type
  6393 ;;  quotient        2    7[BANK0 ] int 
  6394 ;;  sign            1    6[BANK0 ] unsigned char 
  6395 ;;  counter         1    5[BANK0 ] unsigned char 
  6396 ;; Return value:  Size  Location     Type
  6397 ;;                  2    0[BANK0 ] int 
  6398 ;; Registers used:
  6399 ;;		wreg, status,2, status,0
  6400 ;; Tracked objects:
  6401 ;;		On entry : 0/0
  6402 ;;		On exit  : 0/0
  6403 ;;		Unchanged: 0/0
  6404 ;; Data sizes:     COMMON   BANK0   BANK1   BANK3   BANK2
  6405 ;;      Params:         0       4       0       0       0
  6406 ;;      Locals:         0       4       0       0       0
  6407 ;;      Temps:          0       1       0       0       0
  6408 ;;      Totals:         0       9       0       0       0
  6409 ;;Total ram usage:        9 bytes
  6410 ;; Hardware stack levels used: 1
  6411 ;; Hardware stack levels required when called: 3
  6412 ;; This function calls:
  6413 ;;		Nothing
  6414 ;; This function is called by:
  6415 ;;		_atualizarLeds
  6416 ;;		_intToASCIIinCustomBase
  6417 ;; This function uses a non-reentrant model
  6418 ;;
  6419                           
  6420  0B5B                     ___awdiv:	
  6421                           ;psect for function ___awdiv
  6422                           
  6423  0B5B                     l2864:	
  6424                           ;incstack = 0
  6425                           ; Regs used in ___awdiv: [wreg+status,2+status,0]
  6426                           
  6427  0B5B  1283               	bcf	3,5	;RP0=0, select bank0
  6428  0B5C  1303               	bcf	3,6	;RP1=0, select bank0
  6429  0B5D  01A6               	clrf	___awdiv@sign
  6430  0B5E                     l2866:
  6431  0B5E  1FA1               	btfss	___awdiv@divisor+1,7
  6432  0B5F  2B61               	goto	u3991
  6433  0B60  2B62               	goto	u3990
  6434  0B61                     u3991:
  6435  0B61  2B69               	goto	l2872
  6436  0B62                     u3990:
  6437  0B62                     l2868:
  6438  0B62  09A0               	comf	___awdiv@divisor,f
  6439  0B63  09A1               	comf	___awdiv@divisor+1,f
  6440  0B64  0AA0               	incf	___awdiv@divisor,f
  6441  0B65  1903               	skipnz
  6442  0B66  0AA1               	incf	___awdiv@divisor+1,f
  6443  0B67                     l2870:
  6444  0B67  01A6               	clrf	___awdiv@sign
  6445  0B68  0AA6               	incf	___awdiv@sign,f
  6446  0B69                     l2872:
  6447  0B69  1FA3               	btfss	___awdiv@dividend+1,7
  6448  0B6A  2B6C               	goto	u4001
  6449  0B6B  2B6D               	goto	u4000
  6450  0B6C                     u4001:
  6451  0B6C  2B76               	goto	l2878
  6452  0B6D                     u4000:
  6453  0B6D                     l2874:
  6454  0B6D  09A2               	comf	___awdiv@dividend,f
  6455  0B6E  09A3               	comf	___awdiv@dividend+1,f
  6456  0B6F  0AA2               	incf	___awdiv@dividend,f
  6457  0B70  1903               	skipnz
  6458  0B71  0AA3               	incf	___awdiv@dividend+1,f
  6459  0B72                     l2876:
  6460  0B72  3001               	movlw	1
  6461  0B73  00A4               	movwf	??___awdiv
  6462  0B74  0824               	movf	??___awdiv,w
  6463  0B75  06A6               	xorwf	___awdiv@sign,f
  6464  0B76                     l2878:
  6465  0B76  01A7               	clrf	___awdiv@quotient
  6466  0B77  01A8               	clrf	___awdiv@quotient+1
  6467  0B78                     l2880:
  6468  0B78  0820               	movf	___awdiv@divisor,w
  6469  0B79  0421               	iorwf	___awdiv@divisor+1,w
  6470  0B7A  1903               	btfsc	3,2
  6471  0B7B  2B7D               	goto	u4011
  6472  0B7C  2B7E               	goto	u4010
  6473  0B7D                     u4011:
  6474  0B7D  2BB5               	goto	l2900
  6475  0B7E                     u4010:
  6476  0B7E                     l2882:
  6477  0B7E  01A5               	clrf	___awdiv@counter
  6478  0B7F  0AA5               	incf	___awdiv@counter,f
  6479  0B80  2B8C               	goto	l2888
  6480  0B81                     l2884:
  6481  0B81  3001               	movlw	1
  6482  0B82                     u4025:
  6483  0B82  1003               	clrc
  6484  0B83  0DA0               	rlf	___awdiv@divisor,f
  6485  0B84  0DA1               	rlf	___awdiv@divisor+1,f
  6486  0B85  3EFF               	addlw	-1
  6487  0B86  1D03               	skipz
  6488  0B87  2B82               	goto	u4025
  6489  0B88                     l2886:
  6490  0B88  3001               	movlw	1
  6491  0B89  00A4               	movwf	??___awdiv
  6492  0B8A  0824               	movf	??___awdiv,w
  6493  0B8B  07A5               	addwf	___awdiv@counter,f
  6494  0B8C                     l2888:
  6495  0B8C  1FA1               	btfss	___awdiv@divisor+1,7
  6496  0B8D  2B8F               	goto	u4031
  6497  0B8E  2B90               	goto	u4030
  6498  0B8F                     u4031:
  6499  0B8F  2B81               	goto	l2884
  6500  0B90                     u4030:
  6501  0B90                     l2890:
  6502  0B90  3001               	movlw	1
  6503  0B91                     u4045:
  6504  0B91  1003               	clrc
  6505  0B92  0DA7               	rlf	___awdiv@quotient,f
  6506  0B93  0DA8               	rlf	___awdiv@quotient+1,f
  6507  0B94  3EFF               	addlw	-1
  6508  0B95  1D03               	skipz
  6509  0B96  2B91               	goto	u4045
  6510  0B97  0821               	movf	___awdiv@divisor+1,w
  6511  0B98  0223               	subwf	___awdiv@dividend+1,w
  6512  0B99  1D03               	skipz
  6513  0B9A  2B9D               	goto	u4055
  6514  0B9B  0820               	movf	___awdiv@divisor,w
  6515  0B9C  0222               	subwf	___awdiv@dividend,w
  6516  0B9D                     u4055:
  6517  0B9D  1C03               	skipc
  6518  0B9E  2BA0               	goto	u4051
  6519  0B9F  2BA1               	goto	u4050
  6520  0BA0                     u4051:
  6521  0BA0  2BA8               	goto	l2896
  6522  0BA1                     u4050:
  6523  0BA1                     l2892:
  6524  0BA1  0820               	movf	___awdiv@divisor,w
  6525  0BA2  02A2               	subwf	___awdiv@dividend,f
  6526  0BA3  0821               	movf	___awdiv@divisor+1,w
  6527  0BA4  1C03               	skipc
  6528  0BA5  03A3               	decf	___awdiv@dividend+1,f
  6529  0BA6  02A3               	subwf	___awdiv@dividend+1,f
  6530  0BA7                     l2894:
  6531  0BA7  1427               	bsf	___awdiv@quotient,0
  6532  0BA8                     l2896:
  6533  0BA8  3001               	movlw	1
  6534  0BA9                     u4065:
  6535  0BA9  1003               	clrc
  6536  0BAA  0CA1               	rrf	___awdiv@divisor+1,f
  6537  0BAB  0CA0               	rrf	___awdiv@divisor,f
  6538  0BAC  3EFF               	addlw	-1
  6539  0BAD  1D03               	skipz
  6540  0BAE  2BA9               	goto	u4065
  6541  0BAF                     l2898:
  6542  0BAF  3001               	movlw	1
  6543  0BB0  02A5               	subwf	___awdiv@counter,f
  6544  0BB1  1D03               	btfss	3,2
  6545  0BB2  2BB4               	goto	u4071
  6546  0BB3  2BB5               	goto	u4070
  6547  0BB4                     u4071:
  6548  0BB4  2B90               	goto	l2890
  6549  0BB5                     u4070:
  6550  0BB5                     l2900:
  6551  0BB5  0826               	movf	___awdiv@sign,w
  6552  0BB6  1903               	btfsc	3,2
  6553  0BB7  2BB9               	goto	u4081
  6554  0BB8  2BBA               	goto	u4080
  6555  0BB9                     u4081:
  6556  0BB9  2BBF               	goto	l2904
  6557  0BBA                     u4080:
  6558  0BBA                     l2902:
  6559  0BBA  09A7               	comf	___awdiv@quotient,f
  6560  0BBB  09A8               	comf	___awdiv@quotient+1,f
  6561  0BBC  0AA7               	incf	___awdiv@quotient,f
  6562  0BBD  1903               	skipnz
  6563  0BBE  0AA8               	incf	___awdiv@quotient+1,f
  6564  0BBF                     l2904:
  6565  0BBF  0828               	movf	___awdiv@quotient+1,w
  6566  0BC0  00A1               	movwf	?___awdiv+1
  6567  0BC1  0827               	movf	___awdiv@quotient,w
  6568  0BC2  00A0               	movwf	?___awdiv
  6569  0BC3                     l443:
  6570  0BC3  0008               	return
  6571  0BC4                     __end_of___awdiv:
  6572                           
  6573                           	psect	text26
  6574  0D67                     __ptext26:	
  6575 ;; *************** function ___xxtofl *****************
  6576 ;; Defined at:
  6577 ;;		line 10 in file "C:\Program Files\Microchip\xc8\v2.35\pic\sources\c90\common\xxtofl.c"
  6578 ;; Parameters:    Size  Location     Type
  6579 ;;  sign            1    wreg     unsigned char 
  6580 ;;  val             4    0[BANK0 ] long 
  6581 ;; Auto vars:     Size  Location     Type
  6582 ;;  sign            1    8[BANK0 ] unsigned char 
  6583 ;;  arg             4   10[BANK0 ] unsigned long 
  6584 ;;  exp             1    9[BANK0 ] unsigned char 
  6585 ;; Return value:  Size  Location     Type
  6586 ;;                  4    0[BANK0 ] unsigned char 
  6587 ;; Registers used:
  6588 ;;		wreg, status,2, status,0
  6589 ;; Tracked objects:
  6590 ;;		On entry : 0/0
  6591 ;;		On exit  : 0/0
  6592 ;;		Unchanged: 0/0
  6593 ;; Data sizes:     COMMON   BANK0   BANK1   BANK3   BANK2
  6594 ;;      Params:         0       4       0       0       0
  6595 ;;      Locals:         0       6       0       0       0
  6596 ;;      Temps:          0       4       0       0       0
  6597 ;;      Totals:         0      14       0       0       0
  6598 ;;Total ram usage:       14 bytes
  6599 ;; Hardware stack levels used: 1
  6600 ;; Hardware stack levels required when called: 3
  6601 ;; This function calls:
  6602 ;;		Nothing
  6603 ;; This function is called by:
  6604 ;;		_main
  6605 ;; This function uses a non-reentrant model
  6606 ;;
  6607                           
  6608  0D67                     ___xxtofl:	
  6609                           ;psect for function ___xxtofl
  6610                           
  6611                           
  6612                           ;incstack = 0
  6613                           ; Regs used in ___xxtofl: [wreg+status,2+status,0]
  6614                           ;___xxtofl@sign stored from wreg
  6615  0D67  1283               	bcf	3,5	;RP0=0, select bank0
  6616  0D68  1303               	bcf	3,6	;RP1=0, select bank0
  6617  0D69  00A8               	movwf	___xxtofl@sign
  6618  0D6A                     l2704:
  6619  0D6A  0828               	movf	___xxtofl@sign,w
  6620  0D6B  1903               	btfsc	3,2
  6621  0D6C  2D6E               	goto	u3731
  6622  0D6D  2D6F               	goto	u3730
  6623  0D6E                     u3731:
  6624  0D6E  2D83               	goto	l2710
  6625  0D6F                     u3730:
  6626  0D6F                     l2706:
  6627  0D6F  1FA3               	btfss	___xxtofl@val+3,7
  6628  0D70  2D72               	goto	u3741
  6629  0D71  2D73               	goto	u3740
  6630  0D72                     u3741:
  6631  0D72  2D83               	goto	l2710
  6632  0D73                     u3740:
  6633  0D73                     l2708:
  6634  0D73  0920               	comf	___xxtofl@val,w
  6635  0D74  00AA               	movwf	___xxtofl@arg
  6636  0D75  0921               	comf	___xxtofl@val+1,w
  6637  0D76  00AB               	movwf	___xxtofl@arg+1
  6638  0D77  0922               	comf	___xxtofl@val+2,w
  6639  0D78  00AC               	movwf	___xxtofl@arg+2
  6640  0D79  0923               	comf	___xxtofl@val+3,w
  6641  0D7A  00AD               	movwf	___xxtofl@arg+3
  6642  0D7B  0AAA               	incf	___xxtofl@arg,f
  6643  0D7C  1903               	skipnz
  6644  0D7D  0AAB               	incf	___xxtofl@arg+1,f
  6645  0D7E  1903               	skipnz
  6646  0D7F  0AAC               	incf	___xxtofl@arg+2,f
  6647  0D80  1903               	skipnz
  6648  0D81  0AAD               	incf	___xxtofl@arg+3,f
  6649  0D82  2D8B               	goto	l723
  6650  0D83                     l2710:
  6651  0D83  0823               	movf	___xxtofl@val+3,w
  6652  0D84  00AD               	movwf	___xxtofl@arg+3
  6653  0D85  0822               	movf	___xxtofl@val+2,w
  6654  0D86  00AC               	movwf	___xxtofl@arg+2
  6655  0D87  0821               	movf	___xxtofl@val+1,w
  6656  0D88  00AB               	movwf	___xxtofl@arg+1
  6657  0D89  0820               	movf	___xxtofl@val,w
  6658  0D8A  00AA               	movwf	___xxtofl@arg
  6659  0D8B                     l723:
  6660  0D8B  0823               	movf	___xxtofl@val+3,w
  6661  0D8C  0422               	iorwf	___xxtofl@val+2,w
  6662  0D8D  0421               	iorwf	___xxtofl@val+1,w
  6663  0D8E  0420               	iorwf	___xxtofl@val,w
  6664  0D8F  1D03               	skipz
  6665  0D90  2D92               	goto	u3751
  6666  0D91  2D93               	goto	u3750
  6667  0D92                     u3751:
  6668  0D92  2D9C               	goto	l2716
  6669  0D93                     u3750:
  6670  0D93                     l2712:
  6671  0D93  3000               	movlw	0
  6672  0D94  00A3               	movwf	?___xxtofl+3
  6673  0D95  3000               	movlw	0
  6674  0D96  00A2               	movwf	?___xxtofl+2
  6675  0D97  3000               	movlw	0
  6676  0D98  00A1               	movwf	?___xxtofl+1
  6677  0D99  3000               	movlw	0
  6678  0D9A  00A0               	movwf	?___xxtofl
  6679  0D9B  2E22               	goto	l725
  6680  0D9C                     l2716:
  6681  0D9C  3096               	movlw	150
  6682  0D9D  00A4               	movwf	??___xxtofl
  6683  0D9E  0824               	movf	??___xxtofl,w
  6684  0D9F  00A9               	movwf	___xxtofl@exp
  6685  0DA0  2DAE               	goto	l2720
  6686  0DA1                     l2718:
  6687  0DA1  3001               	movlw	1
  6688  0DA2  00A4               	movwf	??___xxtofl
  6689  0DA3  0824               	movf	??___xxtofl,w
  6690  0DA4  07A9               	addwf	___xxtofl@exp,f
  6691  0DA5  3001               	movlw	1
  6692  0DA6                     u3765:
  6693  0DA6  1003               	clrc
  6694  0DA7  0CAD               	rrf	___xxtofl@arg+3,f
  6695  0DA8  0CAC               	rrf	___xxtofl@arg+2,f
  6696  0DA9  0CAB               	rrf	___xxtofl@arg+1,f
  6697  0DAA  0CAA               	rrf	___xxtofl@arg,f
  6698  0DAB  3EFF               	addlw	-1
  6699  0DAC  1D03               	skipz
  6700  0DAD  2DA6               	goto	u3765
  6701  0DAE                     l2720:
  6702  0DAE  30FE               	movlw	254
  6703  0DAF  052D               	andwf	___xxtofl@arg+3,w
  6704  0DB0  1D03               	btfss	3,2
  6705  0DB1  2DB3               	goto	u3771
  6706  0DB2  2DB4               	goto	u3770
  6707  0DB3                     u3771:
  6708  0DB3  2DA1               	goto	l2718
  6709  0DB4                     u3770:
  6710  0DB4  2DD0               	goto	l729
  6711  0DB5                     l2722:
  6712  0DB5  3001               	movlw	1
  6713  0DB6  00A4               	movwf	??___xxtofl
  6714  0DB7  0824               	movf	??___xxtofl,w
  6715  0DB8  07A9               	addwf	___xxtofl@exp,f
  6716  0DB9                     l2724:
  6717  0DB9  3001               	movlw	1
  6718  0DBA  07AA               	addwf	___xxtofl@arg,f
  6719  0DBB  3000               	movlw	0
  6720  0DBC  1803               	skipnc
  6721  0DBD  3001               	movlw	1
  6722  0DBE  07AB               	addwf	___xxtofl@arg+1,f
  6723  0DBF  3000               	movlw	0
  6724  0DC0  1803               	skipnc
  6725  0DC1  3001               	movlw	1
  6726  0DC2  07AC               	addwf	___xxtofl@arg+2,f
  6727  0DC3  3000               	movlw	0
  6728  0DC4  1803               	skipnc
  6729  0DC5  3001               	movlw	1
  6730  0DC6  07AD               	addwf	___xxtofl@arg+3,f
  6731  0DC7                     l2726:
  6732  0DC7  3001               	movlw	1
  6733  0DC8                     u3785:
  6734  0DC8  1003               	clrc
  6735  0DC9  0CAD               	rrf	___xxtofl@arg+3,f
  6736  0DCA  0CAC               	rrf	___xxtofl@arg+2,f
  6737  0DCB  0CAB               	rrf	___xxtofl@arg+1,f
  6738  0DCC  0CAA               	rrf	___xxtofl@arg,f
  6739  0DCD  3EFF               	addlw	-1
  6740  0DCE  1D03               	skipz
  6741  0DCF  2DC8               	goto	u3785
  6742  0DD0                     l729:
  6743  0DD0  30FF               	movlw	255
  6744  0DD1  052D               	andwf	___xxtofl@arg+3,w
  6745  0DD2  1D03               	btfss	3,2
  6746  0DD3  2DD5               	goto	u3791
  6747  0DD4  2DD6               	goto	u3790
  6748  0DD5                     u3791:
  6749  0DD5  2DB5               	goto	l2722
  6750  0DD6                     u3790:
  6751  0DD6  2DE2               	goto	l2730
  6752  0DD7                     l2728:
  6753  0DD7  3001               	movlw	1
  6754  0DD8  02A9               	subwf	___xxtofl@exp,f
  6755  0DD9  3001               	movlw	1
  6756  0DDA  00A4               	movwf	??___xxtofl
  6757  0DDB                     u3805:
  6758  0DDB  1003               	clrc
  6759  0DDC  0DAA               	rlf	___xxtofl@arg,f
  6760  0DDD  0DAB               	rlf	___xxtofl@arg+1,f
  6761  0DDE  0DAC               	rlf	___xxtofl@arg+2,f
  6762  0DDF  0DAD               	rlf	___xxtofl@arg+3,f
  6763  0DE0  0BA4               	decfsz	??___xxtofl,f
  6764  0DE1  2DDB               	goto	u3805
  6765  0DE2                     l2730:
  6766  0DE2  1BAC               	btfsc	___xxtofl@arg+2,7
  6767  0DE3  2DE5               	goto	u3811
  6768  0DE4  2DE6               	goto	u3810
  6769  0DE5                     u3811:
  6770  0DE5  2DEC               	goto	l736
  6771  0DE6                     u3810:
  6772  0DE6                     l2732:
  6773  0DE6  3002               	movlw	2
  6774  0DE7  0229               	subwf	___xxtofl@exp,w
  6775  0DE8  1803               	skipnc
  6776  0DE9  2DEB               	goto	u3821
  6777  0DEA  2DEC               	goto	u3820
  6778  0DEB                     u3821:
  6779  0DEB  2DD7               	goto	l2728
  6780  0DEC                     u3820:
  6781  0DEC                     l736:
  6782  0DEC  1829               	btfsc	___xxtofl@exp,0
  6783  0DED  2DEF               	goto	u3831
  6784  0DEE  2DF0               	goto	u3830
  6785  0DEF                     u3831:
  6786  0DEF  2DF8               	goto	l737
  6787  0DF0                     u3830:
  6788  0DF0                     l2734:
  6789  0DF0  30FF               	movlw	255
  6790  0DF1  05AA               	andwf	___xxtofl@arg,f
  6791  0DF2  30FF               	movlw	255
  6792  0DF3  05AB               	andwf	___xxtofl@arg+1,f
  6793  0DF4  307F               	movlw	127
  6794  0DF5  05AC               	andwf	___xxtofl@arg+2,f
  6795  0DF6  30FF               	movlw	255
  6796  0DF7  05AD               	andwf	___xxtofl@arg+3,f
  6797  0DF8                     l737:
  6798  0DF8  1003               	clrc
  6799  0DF9  0CA9               	rrf	___xxtofl@exp,f
  6800  0DFA                     l2736:
  6801  0DFA  0829               	movf	___xxtofl@exp,w
  6802  0DFB  00A4               	movwf	??___xxtofl
  6803  0DFC  01A5               	clrf	??___xxtofl+1
  6804  0DFD  01A6               	clrf	??___xxtofl+2
  6805  0DFE  01A7               	clrf	??___xxtofl+3
  6806  0DFF  3018               	movlw	24
  6807  0E00                     u3845:
  6808  0E00  1003               	clrc
  6809  0E01  0DA4               	rlf	??___xxtofl,f
  6810  0E02  0DA5               	rlf	??___xxtofl+1,f
  6811  0E03  0DA6               	rlf	??___xxtofl+2,f
  6812  0E04  0DA7               	rlf	??___xxtofl+3,f
  6813  0E05                     u3840:
  6814  0E05  3EFF               	addlw	-1
  6815  0E06  1D03               	skipz
  6816  0E07  2E00               	goto	u3845
  6817  0E08  0824               	movf	??___xxtofl,w
  6818  0E09  04AA               	iorwf	___xxtofl@arg,f
  6819  0E0A  0825               	movf	??___xxtofl+1,w
  6820  0E0B  04AB               	iorwf	___xxtofl@arg+1,f
  6821  0E0C  0826               	movf	??___xxtofl+2,w
  6822  0E0D  04AC               	iorwf	___xxtofl@arg+2,f
  6823  0E0E  0827               	movf	??___xxtofl+3,w
  6824  0E0F  04AD               	iorwf	___xxtofl@arg+3,f
  6825  0E10                     l2738:
  6826  0E10  0828               	movf	___xxtofl@sign,w
  6827  0E11  1903               	btfsc	3,2
  6828  0E12  2E14               	goto	u3851
  6829  0E13  2E15               	goto	u3850
  6830  0E14                     u3851:
  6831  0E14  2E1A               	goto	l2744
  6832  0E15                     u3850:
  6833  0E15                     l2740:
  6834  0E15  1FA3               	btfss	___xxtofl@val+3,7
  6835  0E16  2E18               	goto	u3861
  6836  0E17  2E19               	goto	u3860
  6837  0E18                     u3861:
  6838  0E18  2E1A               	goto	l2744
  6839  0E19                     u3860:
  6840  0E19                     l2742:
  6841  0E19  17AD               	bsf	___xxtofl@arg+3,7
  6842  0E1A                     l2744:
  6843  0E1A  082D               	movf	___xxtofl@arg+3,w
  6844  0E1B  00A3               	movwf	?___xxtofl+3
  6845  0E1C  082C               	movf	___xxtofl@arg+2,w
  6846  0E1D  00A2               	movwf	?___xxtofl+2
  6847  0E1E  082B               	movf	___xxtofl@arg+1,w
  6848  0E1F  00A1               	movwf	?___xxtofl+1
  6849  0E20  082A               	movf	___xxtofl@arg,w
  6850  0E21  00A0               	movwf	?___xxtofl
  6851  0E22                     l725:
  6852  0E22  0008               	return
  6853  0E23                     __end_of___xxtofl:
  6854                           
  6855                           	psect	text27
  6856  0AF8                     __ptext27:	
  6857 ;; *************** function _Lcd_Init *****************
  6858 ;; Defined at:
  6859 ;;		line 62 in file "./lcd.h"
  6860 ;; Parameters:    Size  Location     Type
  6861 ;;		None
  6862 ;; Auto vars:     Size  Location     Type
  6863 ;;		None
  6864 ;; Return value:  Size  Location     Type
  6865 ;;                  1    wreg      void 
  6866 ;; Registers used:
  6867 ;;		wreg, status,2, status,0, pclath, cstack
  6868 ;; Tracked objects:
  6869 ;;		On entry : 0/0
  6870 ;;		On exit  : 0/0
  6871 ;;		Unchanged: 0/0
  6872 ;; Data sizes:     COMMON   BANK0   BANK1   BANK3   BANK2
  6873 ;;      Params:         0       0       0       0       0
  6874 ;;      Locals:         0       0       0       0       0
  6875 ;;      Temps:          0       2       0       0       0
  6876 ;;      Totals:         0       2       0       0       0
  6877 ;;Total ram usage:        2 bytes
  6878 ;; Hardware stack levels used: 1
  6879 ;; Hardware stack levels required when called: 5
  6880 ;; This function calls:
  6881 ;;		_Lcd_Cmd
  6882 ;;		_Lcd_Port
  6883 ;; This function is called by:
  6884 ;;		_main
  6885 ;; This function uses a non-reentrant model
  6886 ;;
  6887                           
  6888  0AF8                     _Lcd_Init:	
  6889                           ;psect for function _Lcd_Init
  6890                           
  6891  0AF8                     l3212:	
  6892                           ;incstack = 0
  6893                           ; Regs used in _Lcd_Init: [wreg+status,2+status,0+pclath+cstack]
  6894                           
  6895                           
  6896                           ;./lcd.h: 64:   Lcd_Port(0x00);
  6897  0AF8  3000               	movlw	0
  6898  0AF9  160A  118A  27E0  120A  158A  	fcall	_Lcd_Port
  6899  0AFE                     l3214:
  6900                           
  6901                           ;./lcd.h: 65:    _delay((unsigned long)((20)*(4000000/4000.0)));
  6902  0AFE  301A               	movlw	26
  6903  0AFF  1283               	bcf	3,5	;RP0=0, select bank0
  6904  0B00  1303               	bcf	3,6	;RP1=0, select bank0
  6905  0B01  00A5               	movwf	??_Lcd_Init+1
  6906  0B02  30F7               	movlw	247
  6907  0B03  00A4               	movwf	??_Lcd_Init
  6908  0B04                     u4897:
  6909  0B04  0BA4               	decfsz	??_Lcd_Init,f
  6910  0B05  2B04               	goto	u4897
  6911  0B06  0BA5               	decfsz	??_Lcd_Init+1,f
  6912  0B07  2B04               	goto	u4897
  6913  0B08  2B09               	nop2
  6914  0B09                     l3216:
  6915                           
  6916                           ;./lcd.h: 66:   Lcd_Cmd(0x03);
  6917  0B09  3003               	movlw	3
  6918  0B0A  160A  118A  27A5  120A  158A  	fcall	_Lcd_Cmd
  6919                           
  6920                           ;./lcd.h: 67:  _delay((unsigned long)((5)*(4000000/4000.0)));
  6921  0B0F  3007               	movlw	7
  6922  0B10  1283               	bcf	3,5	;RP0=0, select bank0
  6923  0B11  1303               	bcf	3,6	;RP1=0, select bank0
  6924  0B12  00A5               	movwf	??_Lcd_Init+1
  6925  0B13  307C               	movlw	124
  6926  0B14  00A4               	movwf	??_Lcd_Init
  6927  0B15                     u4907:
  6928  0B15  0BA4               	decfsz	??_Lcd_Init,f
  6929  0B16  2B15               	goto	u4907
  6930  0B17  0BA5               	decfsz	??_Lcd_Init+1,f
  6931  0B18  2B15               	goto	u4907
  6932  0B19  0000               	nop
  6933  0B1A                     l3218:
  6934                           
  6935                           ;./lcd.h: 68:   Lcd_Cmd(0x03);
  6936  0B1A  3003               	movlw	3
  6937  0B1B  160A  118A  27A5  120A  158A  	fcall	_Lcd_Cmd
  6938  0B20                     l3220:
  6939                           
  6940                           ;./lcd.h: 69:  _delay((unsigned long)((11)*(4000000/4000.0)));
  6941  0B20  300F               	movlw	15
  6942  0B21  1283               	bcf	3,5	;RP0=0, select bank0
  6943  0B22  1303               	bcf	3,6	;RP1=0, select bank0
  6944  0B23  00A5               	movwf	??_Lcd_Init+1
  6945  0B24  3047               	movlw	71
  6946  0B25  00A4               	movwf	??_Lcd_Init
  6947  0B26                     u4917:
  6948  0B26  0BA4               	decfsz	??_Lcd_Init,f
  6949  0B27  2B26               	goto	u4917
  6950  0B28  0BA5               	decfsz	??_Lcd_Init+1,f
  6951  0B29  2B26               	goto	u4917
  6952                           
  6953                           ;./lcd.h: 70:   Lcd_Cmd(0x03);
  6954  0B2A  3003               	movlw	3
  6955  0B2B  160A  118A  27A5  120A  158A  	fcall	_Lcd_Cmd
  6956                           
  6957                           ;./lcd.h: 72:   Lcd_Cmd(0x02);
  6958  0B30  3002               	movlw	2
  6959  0B31  160A  118A  27A5  120A  158A  	fcall	_Lcd_Cmd
  6960                           
  6961                           ;./lcd.h: 73:   Lcd_Cmd(0x02);
  6962  0B36  3002               	movlw	2
  6963  0B37  160A  118A  27A5  120A  158A  	fcall	_Lcd_Cmd
  6964                           
  6965                           ;./lcd.h: 74:   Lcd_Cmd(0x08);
  6966  0B3C  3008               	movlw	8
  6967  0B3D  160A  118A  27A5  120A  158A  	fcall	_Lcd_Cmd
  6968                           
  6969                           ;./lcd.h: 75:   Lcd_Cmd(0x00);
  6970  0B42  3000               	movlw	0
  6971  0B43  160A  118A  27A5  120A  158A  	fcall	_Lcd_Cmd
  6972                           
  6973                           ;./lcd.h: 76:   Lcd_Cmd(0x0C);
  6974  0B48  300C               	movlw	12
  6975  0B49  160A  118A  27A5  120A  158A  	fcall	_Lcd_Cmd
  6976                           
  6977                           ;./lcd.h: 77:   Lcd_Cmd(0x00);
  6978  0B4E  3000               	movlw	0
  6979  0B4F  160A  118A  27A5  120A  158A  	fcall	_Lcd_Cmd
  6980                           
  6981                           ;./lcd.h: 78:   Lcd_Cmd(0x06);
  6982  0B54  3006               	movlw	6
  6983  0B55  160A  118A  27A5  120A  158A  	fcall	_Lcd_Cmd
  6984  0B5A                     l74:
  6985  0B5A  0008               	return
  6986  0B5B                     __end_of_Lcd_Init:
  6987                           
  6988                           	psect	text28
  6989  17A5                     __ptext28:	
  6990 ;; *************** function _Lcd_Cmd *****************
  6991 ;; Defined at:
  6992 ;;		line 26 in file "./lcd.h"
  6993 ;; Parameters:    Size  Location     Type
  6994 ;;  a               1    wreg     unsigned char 
  6995 ;; Auto vars:     Size  Location     Type
  6996 ;;  a               1    3[BANK0 ] unsigned char 
  6997 ;; Return value:  Size  Location     Type
  6998 ;;                  1    wreg      void 
  6999 ;; Registers used:
  7000 ;;		wreg, status,2, status,0, pclath, cstack
  7001 ;; Tracked objects:
  7002 ;;		On entry : 0/0
  7003 ;;		On exit  : 0/0
  7004 ;;		Unchanged: 0/0
  7005 ;; Data sizes:     COMMON   BANK0   BANK1   BANK3   BANK2
  7006 ;;      Params:         0       0       0       0       0
  7007 ;;      Locals:         0       1       0       0       0
  7008 ;;      Temps:          0       2       0       0       0
  7009 ;;      Totals:         0       3       0       0       0
  7010 ;;Total ram usage:        3 bytes
  7011 ;; Hardware stack levels used: 1
  7012 ;; Hardware stack levels required when called: 4
  7013 ;; This function calls:
  7014 ;;		_Lcd_Port
  7015 ;; This function is called by:
  7016 ;;		_Lcd_Clear
  7017 ;;		_Lcd_Set_Cursor
  7018 ;;		_Lcd_Init
  7019 ;;		_Lcd_Shift_Right
  7020 ;;		_Lcd_Shift_Left
  7021 ;; This function uses a non-reentrant model
  7022 ;;
  7023                           
  7024  17A5                     _Lcd_Cmd:	
  7025                           ;psect for function _Lcd_Cmd
  7026                           
  7027                           
  7028                           ;incstack = 0
  7029                           ; Regs used in _Lcd_Cmd: [wreg+status,2+status,0+pclath+cstack]
  7030                           ;Lcd_Cmd@a stored from wreg
  7031  17A5  1283               	bcf	3,5	;RP0=0, select bank0
  7032  17A6  1303               	bcf	3,6	;RP1=0, select bank0
  7033  17A7  00A3               	movwf	Lcd_Cmd@a
  7034  17A8                     l2804:
  7035                           
  7036                           ;./lcd.h: 26: void Lcd_Cmd(char a);./lcd.h: 27: {;./lcd.h: 28:  PORTDbits.RD2 = 0;
  7037  17A8  1108               	bcf	8,2	;volatile
  7038  17A9                     l2806:
  7039                           
  7040                           ;./lcd.h: 29:  Lcd_Port(a);
  7041  17A9  0823               	movf	Lcd_Cmd@a,w
  7042  17AA  160A  118A  27E0  160A  118A  	fcall	_Lcd_Port
  7043  17AF                     l2808:
  7044                           
  7045                           ;./lcd.h: 30:  PORTDbits.RD3 = 1;
  7046  17AF  1283               	bcf	3,5	;RP0=0, select bank0
  7047  17B0  1303               	bcf	3,6	;RP1=0, select bank0
  7048  17B1  1588               	bsf	8,3	;volatile
  7049  17B2                     l2810:
  7050                           
  7051                           ;./lcd.h: 31:         _delay((unsigned long)((4)*(4000000/4000.0)));
  7052  17B2  3006               	movlw	6
  7053  17B3  1283               	bcf	3,5	;RP0=0, select bank0
  7054  17B4  1303               	bcf	3,6	;RP1=0, select bank0
  7055  17B5  00A2               	movwf	??_Lcd_Cmd+1
  7056  17B6  302F               	movlw	47
  7057  17B7  00A1               	movwf	??_Lcd_Cmd
  7058  17B8                     u4927:
  7059  17B8  0BA1               	decfsz	??_Lcd_Cmd,f
  7060  17B9  2FB8               	goto	u4927
  7061  17BA  0BA2               	decfsz	??_Lcd_Cmd+1,f
  7062  17BB  2FB8               	goto	u4927
  7063  17BC  2FBD               	nop2
  7064  17BD                     l2812:
  7065                           
  7066                           ;./lcd.h: 32:         PORTDbits.RD3 = 0;
  7067  17BD  1283               	bcf	3,5	;RP0=0, select bank0
  7068  17BE  1303               	bcf	3,6	;RP1=0, select bank0
  7069  17BF  1188               	bcf	8,3	;volatile
  7070  17C0                     l62:
  7071  17C0  0008               	return
  7072  17C1                     __end_of_Lcd_Cmd:
  7073                           
  7074                           	psect	text29
  7075  17E0                     __ptext29:	
  7076 ;; *************** function _Lcd_Port *****************
  7077 ;; Defined at:
  7078 ;;		line 4 in file "./lcd.h"
  7079 ;; Parameters:    Size  Location     Type
  7080 ;;  a               1    wreg     unsigned char 
  7081 ;; Auto vars:     Size  Location     Type
  7082 ;;  a               1    0[BANK0 ] unsigned char 
  7083 ;; Return value:  Size  Location     Type
  7084 ;;                  1    wreg      void 
  7085 ;; Registers used:
  7086 ;;		wreg
  7087 ;; Tracked objects:
  7088 ;;		On entry : 0/0
  7089 ;;		On exit  : 0/0
  7090 ;;		Unchanged: 0/0
  7091 ;; Data sizes:     COMMON   BANK0   BANK1   BANK3   BANK2
  7092 ;;      Params:         0       0       0       0       0
  7093 ;;      Locals:         0       1       0       0       0
  7094 ;;      Temps:          0       0       0       0       0
  7095 ;;      Totals:         0       1       0       0       0
  7096 ;;Total ram usage:        1 bytes
  7097 ;; Hardware stack levels used: 1
  7098 ;; Hardware stack levels required when called: 3
  7099 ;; This function calls:
  7100 ;;		Nothing
  7101 ;; This function is called by:
  7102 ;;		_Lcd_Cmd
  7103 ;;		_Lcd_Init
  7104 ;;		_Lcd_Write_Char
  7105 ;; This function uses a non-reentrant model
  7106 ;;
  7107                           
  7108  17E0                     _Lcd_Port:	
  7109                           ;psect for function _Lcd_Port
  7110                           
  7111                           
  7112                           ;incstack = 0
  7113                           ; Regs used in _Lcd_Port: [wreg]
  7114                           ;Lcd_Port@a stored from wreg
  7115  17E0  1283               	bcf	3,5	;RP0=0, select bank0
  7116  17E1  1303               	bcf	3,6	;RP1=0, select bank0
  7117  17E2  00A0               	movwf	Lcd_Port@a
  7118  17E3                     l2794:
  7119                           
  7120                           ;./lcd.h: 4: void Lcd_Port(char a);./lcd.h: 5: {;./lcd.h: 6:  if(a & 1)
  7121  17E3  1C20               	btfss	Lcd_Port@a,0
  7122  17E4  2FE6               	goto	u3871
  7123  17E5  2FE7               	goto	u3870
  7124  17E6                     u3871:
  7125  17E6  2FE9               	goto	l51
  7126  17E7                     u3870:
  7127  17E7                     l2796:
  7128                           
  7129                           ;./lcd.h: 7:   PORTDbits.RD4 = 1;
  7130  17E7  1608               	bsf	8,4	;volatile
  7131  17E8  2FEA               	goto	l52
  7132  17E9                     l51:	
  7133                           ;./lcd.h: 8:  else
  7134                           
  7135                           
  7136                           ;./lcd.h: 9:   PORTDbits.RD4 = 0;
  7137  17E9  1208               	bcf	8,4	;volatile
  7138  17EA                     l52:
  7139                           
  7140                           ;./lcd.h: 11:  if(a & 2)
  7141  17EA  1CA0               	btfss	Lcd_Port@a,1
  7142  17EB  2FED               	goto	u3881
  7143  17EC  2FEE               	goto	u3880
  7144  17ED                     u3881:
  7145  17ED  2FF0               	goto	l53
  7146  17EE                     u3880:
  7147  17EE                     l2798:
  7148                           
  7149                           ;./lcd.h: 12:   PORTDbits.RD5 = 1;
  7150  17EE  1688               	bsf	8,5	;volatile
  7151  17EF  2FF1               	goto	l54
  7152  17F0                     l53:	
  7153                           ;./lcd.h: 13:  else
  7154                           
  7155                           
  7156                           ;./lcd.h: 14:   PORTDbits.RD5 = 0;
  7157  17F0  1288               	bcf	8,5	;volatile
  7158  17F1                     l54:
  7159                           
  7160                           ;./lcd.h: 16:  if(a & 4)
  7161  17F1  1D20               	btfss	Lcd_Port@a,2
  7162  17F2  2FF4               	goto	u3891
  7163  17F3  2FF5               	goto	u3890
  7164  17F4                     u3891:
  7165  17F4  2FF7               	goto	l55
  7166  17F5                     u3890:
  7167  17F5                     l2800:
  7168                           
  7169                           ;./lcd.h: 17:   PORTDbits.RD6 = 1;
  7170  17F5  1708               	bsf	8,6	;volatile
  7171  17F6  2FF8               	goto	l56
  7172  17F7                     l55:	
  7173                           ;./lcd.h: 18:  else
  7174                           
  7175                           
  7176                           ;./lcd.h: 19:   PORTDbits.RD6 = 0;
  7177  17F7  1308               	bcf	8,6	;volatile
  7178  17F8                     l56:
  7179                           
  7180                           ;./lcd.h: 21:  if(a & 8)
  7181  17F8  1DA0               	btfss	Lcd_Port@a,3
  7182  17F9  2FFB               	goto	u3901
  7183  17FA  2FFC               	goto	u3900
  7184  17FB                     u3901:
  7185  17FB  2FFE               	goto	l57
  7186  17FC                     u3900:
  7187  17FC                     l2802:
  7188                           
  7189                           ;./lcd.h: 22:   PORTDbits.RD7 = 1;
  7190  17FC  1788               	bsf	8,7	;volatile
  7191  17FD  2FFF               	goto	l59
  7192  17FE                     l57:	
  7193                           ;./lcd.h: 23:  else
  7194                           
  7195                           
  7196                           ;./lcd.h: 24:   PORTDbits.RD7 = 0;
  7197  17FE  1388               	bcf	8,7	;volatile
  7198  17FF                     l59:
  7199  17FF  0008               	return
  7200  1800                     __end_of_Lcd_Port:
  7201                           
  7202                           	psect	text30
  7203  1792                     __ptext30:	
  7204 ;; *************** function _interrupcao *****************
  7205 ;; Defined at:
  7206 ;;		line 255 in file "newmain.c"
  7207 ;; Parameters:    Size  Location     Type
  7208 ;;		None
  7209 ;; Auto vars:     Size  Location     Type
  7210 ;;		None
  7211 ;; Return value:  Size  Location     Type
  7212 ;;                  1    wreg      void 
  7213 ;; Registers used:
  7214 ;;		wreg, status,2, status,0, btemp+1, pclath, cstack
  7215 ;; Tracked objects:
  7216 ;;		On entry : 0/0
  7217 ;;		On exit  : 0/0
  7218 ;;		Unchanged: 0/0
  7219 ;; Data sizes:     COMMON   BANK0   BANK1   BANK3   BANK2
  7220 ;;      Params:         0       0       0       0       0
  7221 ;;      Locals:         0       0       0       0       0
  7222 ;;      Temps:          3       0       0       0       0
  7223 ;;      Totals:         3       0       0       0       0
  7224 ;;Total ram usage:        3 bytes
  7225 ;; Hardware stack levels used: 1
  7226 ;; Hardware stack levels required when called: 2
  7227 ;; This function calls:
  7228 ;;		_verificaInterrupcaoExterna
  7229 ;;		_verificaInterrupcaoTimer
  7230 ;; This function is called by:
  7231 ;;		Interrupt level 1
  7232 ;; This function uses a non-reentrant model
  7233 ;;
  7234                           
  7235  1792                     _interrupcao:	
  7236                           ;psect for function _interrupcao
  7237                           
  7238  1792                     i1l2752:
  7239                           
  7240                           ;newmain.c: 258:     verificaInterrupcaoExterna();
  7241  1792  160A  118A  27C1  160A  118A  	fcall	_verificaInterrupcaoExterna
  7242  1797                     i1l2754:
  7243                           
  7244                           ;newmain.c: 259:     verificaInterrupcaoTimer();
  7245  1797  160A  118A  277F  160A  118A  	fcall	_verificaInterrupcaoTimer
  7246  179C                     i1l172:
  7247  179C  0875               	movf	??_interrupcao+2,w
  7248  179D  00FF               	movwf	btemp+1
  7249  179E  0874               	movf	??_interrupcao+1,w
  7250  179F  008A               	movwf	10
  7251  17A0  0E73               	swapf	??_interrupcao,w
  7252  17A1  0083               	movwf	3
  7253  17A2  0EFE               	swapf	btemp,f
  7254  17A3  0E7E               	swapf	btemp,w
  7255  17A4  0009               	retfie
  7256  17A5                     __end_of_interrupcao:
  7257                           
  7258                           	psect	intentry
  7259  0004                     __pintentry:	
  7260                           ;incstack = 0
  7261                           ; Regs used in _interrupcao: [wreg+status,2+status,0+btemp+1+pclath+cstack]
  7262                           
  7263  0004                     interrupt_function:
  7264  007E                     saved_w	set	btemp
  7265  0004  00FE               	movwf	btemp
  7266  0005  0E03               	swapf	3,w
  7267  0006  00F3               	movwf	??_interrupcao
  7268  0007  080A               	movf	10,w
  7269  0008  00F4               	movwf	??_interrupcao+1
  7270  0009  087F               	movf	btemp+1,w
  7271  000A  00F5               	movwf	??_interrupcao+2
  7272  000B  160A  118A  2F92   	ljmp	_interrupcao
  7273                           
  7274                           	psect	text31
  7275  177F                     __ptext31:	
  7276 ;; *************** function _verificaInterrupcaoTimer *****************
  7277 ;; Defined at:
  7278 ;;		line 244 in file "newmain.c"
  7279 ;; Parameters:    Size  Location     Type
  7280 ;;		None
  7281 ;; Auto vars:     Size  Location     Type
  7282 ;;		None
  7283 ;; Return value:  Size  Location     Type
  7284 ;;                  1    wreg      void 
  7285 ;; Registers used:
  7286 ;;		wreg, status,2, status,0, btemp+1, pclath, cstack
  7287 ;; Tracked objects:
  7288 ;;		On entry : 0/0
  7289 ;;		On exit  : 0/0
  7290 ;;		Unchanged: 0/0
  7291 ;; Data sizes:     COMMON   BANK0   BANK1   BANK3   BANK2
  7292 ;;      Params:         0       0       0       0       0
  7293 ;;      Locals:         0       0       0       0       0
  7294 ;;      Temps:          0       0       0       0       0
  7295 ;;      Totals:         0       0       0       0       0
  7296 ;;Total ram usage:        0 bytes
  7297 ;; Hardware stack levels used: 1
  7298 ;; Hardware stack levels required when called: 1
  7299 ;; This function calls:
  7300 ;;		_ajustaPWM
  7301 ;; This function is called by:
  7302 ;;		_interrupcao
  7303 ;; This function uses a non-reentrant model
  7304 ;;
  7305                           
  7306  177F                     _verificaInterrupcaoTimer:	
  7307                           ;psect for function _verificaInterrupcaoTimer
  7308                           
  7309  177F                     i1l2658:	
  7310                           ;incstack = 0
  7311                           ; Regs used in _verificaInterrupcaoTimer: [wreg+status,2+status,0+btemp+1+pclath+cstack]
  7312                           
  7313                           
  7314                           ;newmain.c: 245:     if(TMR1IF){
  7315  177F  1283               	bcf	3,5	;RP0=0, select bank0
  7316  1780  1303               	bcf	3,6	;RP1=0, select bank0
  7317  1781  1C0C               	btfss	12,0	;volatile
  7318  1782  2F84               	goto	u371_21
  7319  1783  2F85               	goto	u371_20
  7320  1784                     u371_21:
  7321  1784  2F91               	goto	i1l167
  7322  1785                     u371_20:
  7323  1785                     i1l2660:
  7324                           
  7325                           ;newmain.c: 246:         ajustaPWM();
  7326  1785  120A  158A  23C4  160A  118A  	fcall	_ajustaPWM
  7327  178A                     i1l2662:
  7328                           
  7329                           ;newmain.c: 247:         PIR1bits.TMR1IF = 0;
  7330  178A  1283               	bcf	3,5	;RP0=0, select bank0
  7331  178B  1303               	bcf	3,6	;RP1=0, select bank0
  7332  178C  100C               	bcf	12,0	;volatile
  7333  178D                     i1l2664:
  7334                           
  7335                           ;newmain.c: 248:         TMR1H = 0xE7;
  7336  178D  30E7               	movlw	231
  7337  178E  008F               	movwf	15	;volatile
  7338  178F                     i1l2666:
  7339                           
  7340                           ;newmain.c: 249:         TMR1L = 0x96;
  7341  178F  3096               	movlw	150
  7342  1790  008E               	movwf	14	;volatile
  7343  1791                     i1l167:
  7344  1791  0008               	return
  7345  1792                     __end_of_verificaInterrupcaoTimer:
  7346                           
  7347                           	psect	text32
  7348  0BC4                     __ptext32:	
  7349 ;; *************** function _ajustaPWM *****************
  7350 ;; Defined at:
  7351 ;;		line 228 in file "newmain.c"
  7352 ;; Parameters:    Size  Location     Type
  7353 ;;		None
  7354 ;; Auto vars:     Size  Location     Type
  7355 ;;		None
  7356 ;; Return value:  Size  Location     Type
  7357 ;;                  1    wreg      void 
  7358 ;; Registers used:
  7359 ;;		wreg, status,2, status,0, btemp+1
  7360 ;; Tracked objects:
  7361 ;;		On entry : 0/0
  7362 ;;		On exit  : 0/0
  7363 ;;		Unchanged: 0/0
  7364 ;; Data sizes:     COMMON   BANK0   BANK1   BANK3   BANK2
  7365 ;;      Params:         0       0       0       0       0
  7366 ;;      Locals:         0       0       0       0       0
  7367 ;;      Temps:          3       0       0       0       0
  7368 ;;      Totals:         3       0       0       0       0
  7369 ;;Total ram usage:        3 bytes
  7370 ;; Hardware stack levels used: 1
  7371 ;; This function calls:
  7372 ;;		Nothing
  7373 ;; This function is called by:
  7374 ;;		_verificaInterrupcaoTimer
  7375 ;; This function uses a non-reentrant model
  7376 ;;
  7377                           
  7378  0BC4                     _ajustaPWM:	
  7379                           ;psect for function _ajustaPWM
  7380                           
  7381  0BC4                     i1l2032:	
  7382                           ;incstack = 0
  7383                           ; Regs used in _ajustaPWM: [wreg+status,2+status,0+btemp+1]
  7384                           
  7385                           
  7386                           ;newmain.c: 229:     PORTBbits.RB6 = 0;
  7387  0BC4  1283               	bcf	3,5	;RP0=0, select bank0
  7388  0BC5  1303               	bcf	3,6	;RP1=0, select bank0
  7389  0BC6  1306               	bcf	6,6	;volatile
  7390  0BC7                     i1l2034:
  7391                           
  7392                           ;newmain.c: 230:     if(luminosidade_atual < luminosidade_desejada - margem_erro_lux)
  7393  0BC7  087A               	movf	_margem_erro_lux,w
  7394  0BC8  026A               	subwf	_luminosidade_desejada,w
  7395  0BC9  00F0               	movwf	??_ajustaPWM
  7396  0BCA  087B               	movf	_margem_erro_lux+1,w
  7397  0BCB  1C03               	skipc
  7398  0BCC  0A7B               	incf	_margem_erro_lux+1,w
  7399  0BCD  026B               	subwf	_luminosidade_desejada+1,w
  7400  0BCE  00F1               	movwf	??_ajustaPWM+1
  7401  0BCF  1683               	bsf	3,5	;RP0=1, select bank1
  7402  0BD0  1303               	bcf	3,6	;RP1=0, select bank1
  7403  0BD1  0838               	movf	(_luminosidade_atual+1)^(0+128),w
  7404  0BD2  3A80               	xorlw	128
  7405  0BD3  00F2               	movwf	??_ajustaPWM+2
  7406  0BD4  0871               	movf	??_ajustaPWM+1,w
  7407  0BD5  3A80               	xorlw	128
  7408  0BD6  0272               	subwf	??_ajustaPWM+2,w
  7409  0BD7  1D03               	skipz
  7410  0BD8  2BDB               	goto	u237_25
  7411  0BD9  0870               	movf	??_ajustaPWM,w
  7412  0BDA  0237               	subwf	_luminosidade_atual^(0+128),w
  7413  0BDB                     u237_25:
  7414  0BDB  1803               	skipnc
  7415  0BDC  2BDE               	goto	u237_21
  7416  0BDD  2BDF               	goto	u237_20
  7417  0BDE                     u237_21:
  7418  0BDE  2BFA               	goto	i1l2042
  7419  0BDF                     u237_20:
  7420  0BDF                     i1l2036:
  7421                           
  7422                           ;newmain.c: 231:     {;newmain.c: 232:         PORTBbits.RB6 = 1;
  7423  0BDF  1283               	bcf	3,5	;RP0=0, select bank0
  7424  0BE0  1303               	bcf	3,6	;RP1=0, select bank0
  7425  0BE1  1706               	bsf	6,6	;volatile
  7426  0BE2                     i1l2038:
  7427                           
  7428                           ;newmain.c: 233:         if(porcentagem_PWM < 100)
  7429  0BE2  1683               	bsf	3,5	;RP0=1, select bank1
  7430  0BE3  1303               	bcf	3,6	;RP1=0, select bank1
  7431  0BE4  083A               	movf	(_porcentagem_PWM+1)^(0+128),w
  7432  0BE5  3A80               	xorlw	128
  7433  0BE6  00FF               	movwf	btemp+1
  7434  0BE7  3080               	movlw	128
  7435  0BE8  027F               	subwf	btemp+1,w
  7436  0BE9  1D03               	skipz
  7437  0BEA  2BED               	goto	u238_25
  7438  0BEB  3064               	movlw	100
  7439  0BEC  0239               	subwf	_porcentagem_PWM^(0+128),w
  7440  0BED                     u238_25:
  7441  0BED  1803               	skipnc
  7442  0BEE  2BF0               	goto	u238_21
  7443  0BEF  2BF1               	goto	u238_20
  7444  0BF0                     u238_21:
  7445  0BF0  2C2B               	goto	i1l160
  7446  0BF1                     u238_20:
  7447  0BF1                     i1l2040:
  7448                           
  7449                           ;newmain.c: 234:             porcentagem_PWM+=10;
  7450  0BF1  300A               	movlw	10
  7451  0BF2  1683               	bsf	3,5	;RP0=1, select bank1
  7452  0BF3  1303               	bcf	3,6	;RP1=0, select bank1
  7453  0BF4  07B9               	addwf	_porcentagem_PWM^(0+128),f
  7454  0BF5  1803               	skipnc
  7455  0BF6  0ABA               	incf	(_porcentagem_PWM+1)^(0+128),f
  7456  0BF7  3000               	movlw	0
  7457  0BF8  07BA               	addwf	(_porcentagem_PWM+1)^(0+128),f
  7458  0BF9  2C2B               	goto	i1l160
  7459  0BFA                     i1l2042:
  7460  0BFA  087A               	movf	_margem_erro_lux,w
  7461  0BFB  1283               	bcf	3,5	;RP0=0, select bank0
  7462  0BFC  1303               	bcf	3,6	;RP1=0, select bank0
  7463  0BFD  076A               	addwf	_luminosidade_desejada,w
  7464  0BFE  00F0               	movwf	??_ajustaPWM
  7465  0BFF  087B               	movf	_margem_erro_lux+1,w
  7466  0C00  1803               	skipnc
  7467  0C01  0A7B               	incf	_margem_erro_lux+1,w
  7468  0C02  076B               	addwf	_luminosidade_desejada+1,w
  7469  0C03  00F1               	movwf	??_ajustaPWM+1
  7470  0C04  0871               	movf	??_ajustaPWM+1,w
  7471  0C05  3A80               	xorlw	128
  7472  0C06  00F2               	movwf	??_ajustaPWM+2
  7473  0C07  1683               	bsf	3,5	;RP0=1, select bank1
  7474  0C08  1303               	bcf	3,6	;RP1=0, select bank1
  7475  0C09  0838               	movf	(_luminosidade_atual+1)^(0+128),w
  7476  0C0A  3A80               	xorlw	128
  7477  0C0B  0272               	subwf	??_ajustaPWM+2,w
  7478  0C0C  1D03               	skipz
  7479  0C0D  2C10               	goto	u239_25
  7480  0C0E  0837               	movf	_luminosidade_atual^(0+128),w
  7481  0C0F  0270               	subwf	??_ajustaPWM,w
  7482  0C10                     u239_25:
  7483  0C10  1803               	skipnc
  7484  0C11  2C13               	goto	u239_21
  7485  0C12  2C14               	goto	u239_20
  7486  0C13                     u239_21:
  7487  0C13  2C2B               	goto	i1l160
  7488  0C14                     u239_20:
  7489  0C14                     i1l2044:
  7490                           
  7491                           ;newmain.c: 237:     {;newmain.c: 238:         if(porcentagem_PWM > 0)
  7492  0C14  1683               	bsf	3,5	;RP0=1, select bank1
  7493  0C15  1303               	bcf	3,6	;RP1=0, select bank1
  7494  0C16  083A               	movf	(_porcentagem_PWM+1)^(0+128),w
  7495  0C17  3A80               	xorlw	128
  7496  0C18  00FF               	movwf	btemp+1
  7497  0C19  3080               	movlw	128
  7498  0C1A  027F               	subwf	btemp+1,w
  7499  0C1B  1D03               	skipz
  7500  0C1C  2C1F               	goto	u240_25
  7501  0C1D  3001               	movlw	1
  7502  0C1E  0239               	subwf	_porcentagem_PWM^(0+128),w
  7503  0C1F                     u240_25:
  7504  0C1F  1C03               	skipc
  7505  0C20  2C22               	goto	u240_21
  7506  0C21  2C23               	goto	u240_20
  7507  0C22                     u240_21:
  7508  0C22  2C2B               	goto	i1l160
  7509  0C23                     u240_20:
  7510  0C23                     i1l2046:
  7511                           
  7512                           ;newmain.c: 239:             porcentagem_PWM-=10;
  7513  0C23  30F6               	movlw	246
  7514  0C24  1683               	bsf	3,5	;RP0=1, select bank1
  7515  0C25  1303               	bcf	3,6	;RP1=0, select bank1
  7516  0C26  07B9               	addwf	_porcentagem_PWM^(0+128),f
  7517  0C27  1803               	skipnc
  7518  0C28  0ABA               	incf	(_porcentagem_PWM+1)^(0+128),f
  7519  0C29  30FF               	movlw	255
  7520  0C2A  07BA               	addwf	(_porcentagem_PWM+1)^(0+128),f
  7521  0C2B                     i1l160:
  7522                           
  7523                           ;newmain.c: 241:     CCPR1L = porcentagem_PWM;
  7524  0C2B  1683               	bsf	3,5	;RP0=1, select bank1
  7525  0C2C  1303               	bcf	3,6	;RP1=0, select bank1
  7526  0C2D  0839               	movf	_porcentagem_PWM^(0+128),w
  7527  0C2E  1283               	bcf	3,5	;RP0=0, select bank0
  7528  0C2F  1303               	bcf	3,6	;RP1=0, select bank0
  7529  0C30  0095               	movwf	21	;volatile
  7530  0C31                     i1l163:
  7531  0C31  0008               	return
  7532  0C32                     __end_of_ajustaPWM:
  7533                           
  7534                           	psect	text33
  7535  17C1                     __ptext33:	
  7536 ;; *************** function _verificaInterrupcaoExterna *****************
  7537 ;; Defined at:
  7538 ;;		line 212 in file "newmain.c"
  7539 ;; Parameters:    Size  Location     Type
  7540 ;;		None
  7541 ;; Auto vars:     Size  Location     Type
  7542 ;;		None
  7543 ;; Return value:  Size  Location     Type
  7544 ;;                  1    wreg      void 
  7545 ;; Registers used:
  7546 ;;		wreg
  7547 ;; Tracked objects:
  7548 ;;		On entry : 0/0
  7549 ;;		On exit  : 0/0
  7550 ;;		Unchanged: 0/0
  7551 ;; Data sizes:     COMMON   BANK0   BANK1   BANK3   BANK2
  7552 ;;      Params:         0       0       0       0       0
  7553 ;;      Locals:         0       0       0       0       0
  7554 ;;      Temps:          3       0       0       0       0
  7555 ;;      Totals:         3       0       0       0       0
  7556 ;;Total ram usage:        3 bytes
  7557 ;; Hardware stack levels used: 1
  7558 ;; This function calls:
  7559 ;;		Nothing
  7560 ;; This function is called by:
  7561 ;;		_interrupcao
  7562 ;; This function uses a non-reentrant model
  7563 ;;
  7564                           
  7565  17C1                     _verificaInterrupcaoExterna:	
  7566                           ;psect for function _verificaInterrupcaoExterna
  7567                           
  7568  17C1                     i1l1654:	
  7569                           ;incstack = 0
  7570                           ; Regs used in _verificaInterrupcaoExterna: [wreg]
  7571                           
  7572                           
  7573                           ;newmain.c: 213:     if(INTF){
  7574  17C1  1C8B               	btfss	11,1	;volatile
  7575  17C2  2FC4               	goto	u177_21
  7576  17C3  2FC5               	goto	u177_20
  7577  17C4                     u177_21:
  7578  17C4  2FDF               	goto	i1l155
  7579  17C5                     u177_20:
  7580  17C5                     i1l1656:
  7581                           
  7582                           ;newmain.c: 214:         if( PORTBbits.RB7){
  7583  17C5  1283               	bcf	3,5	;RP0=0, select bank0
  7584  17C6  1303               	bcf	3,6	;RP1=0, select bank0
  7585  17C7  1F86               	btfss	6,7	;volatile
  7586  17C8  2FCA               	goto	u178_21
  7587  17C9  2FCB               	goto	u178_20
  7588  17CA                     u178_21:
  7589  17CA  2FDD               	goto	i1l153
  7590  17CB                     u178_20:
  7591  17CB                     i1l1658:
  7592                           
  7593                           ;newmain.c: 215:             PORTBbits.RB7 = 0;
  7594  17CB  1386               	bcf	6,7	;volatile
  7595                           
  7596                           ;newmain.c: 216:             PORTCbits.RC0 = 1;
  7597  17CC  1407               	bsf	7,0	;volatile
  7598  17CD                     i1l1660:
  7599                           
  7600                           ;newmain.c: 217:             _delay((unsigned long)((300)*(4000000/4000.0)));
  7601  17CD  3002               	movlw	2
  7602  17CE  00F2               	movwf	??_verificaInterrupcaoExterna+2
  7603  17CF  3086               	movlw	134
  7604  17D0  00F1               	movwf	??_verificaInterrupcaoExterna+1
  7605  17D1  3099               	movlw	153
  7606  17D2  00F0               	movwf	??_verificaInterrupcaoExterna
  7607  17D3                     u493_27:
  7608  17D3  0BF0               	decfsz	??_verificaInterrupcaoExterna,f
  7609  17D4  2FD3               	goto	u493_27
  7610  17D5  0BF1               	decfsz	??_verificaInterrupcaoExterna+1,f
  7611  17D6  2FD3               	goto	u493_27
  7612  17D7  0BF2               	decfsz	??_verificaInterrupcaoExterna+2,f
  7613  17D8  2FD3               	goto	u493_27
  7614  17D9                     i1l1662:
  7615                           
  7616                           ;newmain.c: 218:             PORTCbits.RC0 = 0;
  7617  17D9  1283               	bcf	3,5	;RP0=0, select bank0
  7618  17DA  1303               	bcf	3,6	;RP1=0, select bank0
  7619  17DB  1007               	bcf	7,0	;volatile
  7620                           
  7621                           ;newmain.c: 219:         }
  7622  17DC  2FDE               	goto	i1l154
  7623  17DD                     i1l153:	
  7624                           ;newmain.c: 220:         else{
  7625                           
  7626                           
  7627                           ;newmain.c: 221:          PORTBbits.RB7 = 1;
  7628  17DD  1786               	bsf	6,7	;volatile
  7629  17DE                     i1l154:	
  7630                           ;newmain.c: 222:         }
  7631                           
  7632                           
  7633                           ;newmain.c: 224:         INTCONbits.INTF = 0;
  7634  17DE  108B               	bcf	11,1	;volatile
  7635  17DF                     i1l155:
  7636  17DF  0008               	return
  7637  17E0                     __end_of_verificaInterrupcaoExterna:
  7638  007E                     btemp	set	126	;btemp
  7639  007E                     wtemp0	set	126
  7640                           
  7641                           	psect	idloc
  7642                           
  7643                           ;Config register IDLOC0 @ 0x2000
  7644                           ;	unspecified, using default values
  7645  2000                     	org	8192
  7646  2000  3FFF               	dw	16383
  7647                           
  7648                           ;Config register IDLOC1 @ 0x2001
  7649                           ;	unspecified, using default values
  7650  2001                     	org	8193
  7651  2001  3FFF               	dw	16383
  7652                           
  7653                           ;Config register IDLOC2 @ 0x2002
  7654                           ;	unspecified, using default values
  7655  2002                     	org	8194
  7656  2002  3FFF               	dw	16383
  7657                           
  7658                           ;Config register IDLOC3 @ 0x2003
  7659                           ;	unspecified, using default values
  7660  2003                     	org	8195
  7661  2003  3FFF               	dw	16383
  7662                           
  7663                           	psect	config
  7664                           
  7665                           ;Config register CONFIG @ 0x2007
  7666                           ;	Oscillator Selection bits
  7667                           ;	FOSC = HS, HS oscillator
  7668                           ;	Watchdog Timer Enable bit
  7669                           ;	WDTE = OFF, WDT disabled
  7670                           ;	Power-up Timer Enable bit
  7671                           ;	PWRTE = ON, PWRT enabled
  7672                           ;	Brown-out Reset Enable bit
  7673                           ;	BOREN = OFF, BOR disabled
  7674                           ;	Low-Voltage (Single-Supply) In-Circuit Serial Programming Enable bit
  7675                           ;	LVP = 0x1, unprogrammed default
  7676                           ;	Data EEPROM Memory Code Protection bit
  7677                           ;	CPD = 0x1, unprogrammed default
  7678                           ;	Flash Program Memory Write Enable bits
  7679                           ;	WRT = 0x3, unprogrammed default
  7680                           ;	In-Circuit Debugger Mode bit
  7681                           ;	DEBUG = 0x1, unprogrammed default
  7682                           ;	Flash Program Memory Code Protection bit
  7683                           ;	CP = 0x1, unprogrammed default
  7684  2007                     	org	8199
  7685  2007  3FB2               	dw	16306

Data Sizes:
    Strings     27
    Constant    0
    Data        6
    BSS         8
    Persistent  0
    Stack       0

Auto Spaces:
    Space          Size  Autos    Used
    COMMON           14      6      12
    BANK0            80     72      76
    BANK1            80     23      27
    BANK3            96      0       0
    BANK2            96      0       0

Pointer List with Targets:

    main@texto_menu	PTR unsigned char  size(1) Largest target is 11
		 -> STR_2(CODE[11]), 

    escreveLCD@linha2	PTR unsigned char  size(1) Largest target is 16
		 -> main@texto_luminosidade(BANK1[16]), handleSetupMenu@texto_luminosidade_desejada(BANK0[16]), 

    escreveLCD@linha1	PTR unsigned char  size(1) Largest target is 16
		 -> STR_2(CODE[11]), STR_1(CODE[16]), 

    intToASCIIinCustomBase@resultado	PTR unsigned char  size(1) Largest target is 16
		 -> main@texto_luminosidade(BANK1[16]), handleSetupMenu@texto_luminosidade_desejada(BANK0[16]), 

    Lcd_Write_String@a	PTR unsigned char  size(2) Largest target is 16
		 -> main@texto_luminosidade(BANK1[16]), STR_2(CODE[11]), STR_1(CODE[16]), handleSetupMenu@texto_luminosidade_desejada(BANK0[16]), 


Critical Paths under _main in COMMON

    None.

Critical Paths under _interrupcao in COMMON

    _interrupcao->_verificaInterrupcaoExterna
    _verificaInterrupcaoTimer->_ajustaPWM

Critical Paths under _main in BANK0

    _main->_converteVoltsParaLux
    _handleSetupMenu->_intToASCIIinCustomBase
    _intToASCIIinCustomBase->___awdiv
    _escreveLCD->_Lcd_Write_String
    _Lcd_Write_String->_Lcd_Write_Char
    _Lcd_Write_Char->_Lcd_Port
    _Lcd_Set_Cursor->_Lcd_Cmd
    _Lcd_Clear->_Lcd_Cmd
    _converteVoltsParaLux->___fladd
    ___fladd->___flmul
    _converteLeituraAnParaVolts->___fldiv
    ___flmul->__Umul8_16
    ___fldiv->___flmul
    _atualizarLeds->___awdiv
    _Lcd_Init->_Lcd_Cmd
    _Lcd_Cmd->_Lcd_Port

Critical Paths under _interrupcao in BANK0

    None.

Critical Paths under _main in BANK1

    None.

Critical Paths under _interrupcao in BANK1

    None.

Critical Paths under _main in BANK3

    None.

Critical Paths under _interrupcao in BANK3

    None.

Critical Paths under _main in BANK2

    None.

Critical Paths under _interrupcao in BANK2

    None.

Call Graph Tables:

 ---------------------------------------------------------------------------------
 (Depth) Function   	        Calls       Base Space   Used Autos Params    Refs
 ---------------------------------------------------------------------------------
 (0) _main                                                24    24      0   22946
                                             71 BANK0      1     1      0
                                              0 BANK1     23    23      0
                           _Lcd_Init
                           ___xxtofl
                      _atualizarLeds
                          _configADC
                   _configIntExterns
                      _configPWMRegs
                        _configTimer
                _configWatchdogTimer
         _converteLeituraAnParaVolts
               _converteVoltsParaLux
                         _escreveLCD
                        _getValorADC
                    _handleSetupMenu
             _intToASCIIinCustomBase
 ---------------------------------------------------------------------------------
 (1) _handleSetupMenu                                     17    17      0    4792
                                             28 BANK0     17    17      0
                         _escreveLCD
             _intToASCIIinCustomBase
                    _verificaBtnMais
                   _verificaBtnMenos
 ---------------------------------------------------------------------------------
 (2) _verificaBtnMenos                                     0     0      0       0
 ---------------------------------------------------------------------------------
 (2) _verificaBtnMais                                      0     0      0       0
 ---------------------------------------------------------------------------------
 (1) _intToASCIIinCustomBase                              19    14      5    2924
                                              9 BANK0     19    14      5
                            ___awdiv
                            ___awmod
 ---------------------------------------------------------------------------------
 (2) ___awmod                                              7     3      4     613
                                              0 BANK0      7     3      4
 ---------------------------------------------------------------------------------
 (2) _escreveLCD                                           4     3      1    1758
                                             12 BANK0      4     3      1
                          _Lcd_Clear
                     _Lcd_Set_Cursor
                   _Lcd_Write_String
 ---------------------------------------------------------------------------------
 (3) _Lcd_Write_String                                     7     5      2     564
                                              5 BANK0      7     5      2
                     _Lcd_Write_Char
 ---------------------------------------------------------------------------------
 (4) _Lcd_Write_Char                                       4     4      0     254
                                              1 BANK0      4     4      0
                           _Lcd_Port
 ---------------------------------------------------------------------------------
 (3) _Lcd_Set_Cursor                                       7     6      1     725
                                              4 BANK0      7     6      1
                            _Lcd_Cmd
 ---------------------------------------------------------------------------------
 (3) _Lcd_Clear                                            0     0      0     155
                            _Lcd_Cmd
 ---------------------------------------------------------------------------------
 (1) _getValorADC                                          6     4      2      34
                                              0 BANK0      6     4      2
 ---------------------------------------------------------------------------------
 (1) _converteVoltsParaLux                                16    12      4    6445
                                             55 BANK0     16    12      4
                            ___fladd
                            ___flmul
                            ___fltol
 ---------------------------------------------------------------------------------
 (2) ___fltol                                             11     7      4     427
                                              0 BANK0     11     7      4
 ---------------------------------------------------------------------------------
 (2) ___fladd                                             20    12      8    2262
                                             35 BANK0     20    12      8
                            ___flmul (ARG)
 ---------------------------------------------------------------------------------
 (1) _converteLeituraAnParaVolts                           4     0      4    4927
                                             61 BANK0      4     0      4
                            ___fldiv
                            ___flmul
                           ___xxtofl (ARG)
 ---------------------------------------------------------------------------------
 (2) ___flmul                                             26    18      8    3533
                                              9 BANK0     26    18      8
                          __Umul8_16
 ---------------------------------------------------------------------------------
 (3) __Umul8_16                                            9     7      2     980
                                              0 BANK0      9     7      2
 ---------------------------------------------------------------------------------
 (2) ___fldiv                                             26    18      8    1273
                                             35 BANK0     26    18      8
                            ___flmul (ARG)
 ---------------------------------------------------------------------------------
 (1) _configWatchdogTimer                                  0     0      0       0
 ---------------------------------------------------------------------------------
 (1) _configTimer                                          0     0      0       0
 ---------------------------------------------------------------------------------
 (1) _configPWMRegs                                        0     0      0       0
 ---------------------------------------------------------------------------------
 (1) _configIntExterns                                     0     0      0       0
 ---------------------------------------------------------------------------------
 (1) _configADC                                            0     0      0       0
 ---------------------------------------------------------------------------------
 (1) _atualizarLeds                                        6     4      2    1177
                                              9 BANK0      6     4      2
                            ___awdiv
 ---------------------------------------------------------------------------------
 (2) ___awdiv                                              9     5      4     805
                                              0 BANK0      9     5      4
 ---------------------------------------------------------------------------------
 (1) ___xxtofl                                            14    10      4     398
                                              0 BANK0     14    10      4
 ---------------------------------------------------------------------------------
 (1) _Lcd_Init                                             2     2      0     279
                                              4 BANK0      2     2      0
                            _Lcd_Cmd
                           _Lcd_Port
 ---------------------------------------------------------------------------------
 (4) _Lcd_Cmd                                              3     3      0     155
                                              1 BANK0      3     3      0
                           _Lcd_Port
 ---------------------------------------------------------------------------------
 (5) _Lcd_Port                                             1     1      0     124
                                              0 BANK0      1     1      0
 ---------------------------------------------------------------------------------
 Estimated maximum stack depth 5
 ---------------------------------------------------------------------------------
 (Depth) Function   	        Calls       Base Space   Used Autos Params    Refs
 ---------------------------------------------------------------------------------
 (6) _interrupcao                                          3     3      0       0
                                              3 COMMON     3     3      0
         _verificaInterrupcaoExterna
           _verificaInterrupcaoTimer
 ---------------------------------------------------------------------------------
 (7) _verificaInterrupcaoTimer                             0     0      0       0
                          _ajustaPWM
 ---------------------------------------------------------------------------------
 (8) _ajustaPWM                                            3     3      0       0
                                              0 COMMON     3     3      0
 ---------------------------------------------------------------------------------
 (7) _verificaInterrupcaoExterna                           3     3      0       0
                                              0 COMMON     3     3      0
 ---------------------------------------------------------------------------------
 Estimated maximum stack depth 8
 ---------------------------------------------------------------------------------

 Call Graph Graphs:

 _main (ROOT)
   _Lcd_Init
     _Lcd_Cmd
       _Lcd_Port
     _Lcd_Port
   ___xxtofl
   _atualizarLeds
     ___awdiv
   _configADC
   _configIntExterns
   _configPWMRegs
   _configTimer
   _configWatchdogTimer
   _converteLeituraAnParaVolts
     ___fldiv
       ___flmul (ARG)
         __Umul8_16
     ___flmul
     ___xxtofl (ARG)
   _converteVoltsParaLux
     ___fladd
       ___flmul (ARG)
     ___flmul
     ___fltol
   _escreveLCD
     _Lcd_Clear
       _Lcd_Cmd
     _Lcd_Set_Cursor
       _Lcd_Cmd
     _Lcd_Write_String
       _Lcd_Write_Char
         _Lcd_Port
   _getValorADC
   _handleSetupMenu
     _escreveLCD
     _intToASCIIinCustomBase
       ___awdiv
       ___awmod
     _verificaBtnMais
     _verificaBtnMenos
   _intToASCIIinCustomBase

 _interrupcao (ROOT)
   _verificaInterrupcaoExterna
   _verificaInterrupcaoTimer
     _ajustaPWM

 Address spaces:
Name               Size   Autos  Total    Cost      Usage
BANK3               60      0       0       9        0.0%
BITBANK3            60      0       0       8        0.0%
SFR3                 0      0       0       4        0.0%
BITSFR3              0      0       0       4        0.0%
BANK2               60      0       0      11        0.0%
BITBANK2            60      0       0      10        0.0%
SFR2                 0      0       0       5        0.0%
BITSFR2              0      0       0       5        0.0%
BANK1               50     17      1B       7       33.8%
BITBANK1            50      0       0       6        0.0%
SFR1                 0      0       0       2        0.0%
BITSFR1              0      0       0       2        0.0%
BANK0               50     48      4C       5       95.0%
BITBANK0            50      0       0       4        0.0%
SFR0                 0      0       0       1        0.0%
BITSFR0              0      0       0       1        0.0%
COMMON               E      6       C       1       85.7%
BITCOMMON            E      0       0       0        0.0%
CODE                 0      0       0       0        0.0%
DATA                 0      0      73      12        0.0%
ABS                  0      0      73       3        0.0%
NULL                 0      0       0       0        0.0%
STACK                0      0       0       2        0.0%
EEDATA             100      0       0       0        0.0%


Microchip Technology PIC Macro Assembler V2.35 build 20211206165544 
Symbol Table                                                                                   Tue Jun 27 12:31:07 2023

                              ___fldiv@aexp 005C                                ___fldiv@bexp 005B  
                                         pc 0002                                ___fldiv@sign 0054  
                          getValorADC@valor 0024                                          l51 17E9  
                                        l52 17EA                                          l53 17F0  
                                        l54 17F1                                          l62 17C0  
                                        l55 17F7                                          l71 0A40  
                                        l56 17F8                                          l57 17FE  
                                        l65 1760                                          l74 0B5A  
                                        l59 17FF                                          l83 09E8  
                                        l77 0962                                ___awdiv@sign 0026  
        __end_of_verificaInterrupcaoExterna 17E0                  _verificaInterrupcaoExterna 17C1  
                                        fsr 0004                         __Umul8_16@word_mpld 0026  
                                       l120 07FF                                         l106 0843  
                                       l124 07E6                                         l117 0D66  
                                       l143 086A                                         l137 176E  
                                       l180 08EB                                         l149 0891  
                                       l181 08EC                                         l190 0AF7  
                                       l175 09A2                                         l184 174B  
                                       l193 177E                                         l443 0BC3  
                                       l187 0925                                         l196 1753  
                                       l700 08BA                                         l604 057F  
                                       l614 05C5                                         l608 05A3  
                                       l456 0A9B                                         l641 0FFF  
                                       l625 0625                                         l617 0603  
                                       l626 0631                                         l723 0D8B  
                                       l483 0C98                                         l476 0CAD  
                                       l725 0E22                                         l661 0FE3  
                                       l486 0CAD                                         l663 0FF3  
                                       l655 0F71                                         l639 0E7F  
                                       l583 040D                                         l736 0DEC  
                                       l737 0DF8                                         l729 0DD0  
                                       l691 039D                                         l587 04B4  
                                       l596 0631                                         l685 0315  
                                       l589 048B                                         l679 03A9  
                                       l698 08A8                                         _PR2 0092  
                                       fsr0 0004                                         indf 0000  
                              ___awmod@sign 0026                                ___flmul@aexp 0037  
                              ___flmul@bexp 003C                                ___flmul@sign 0036  
                              ___flmul@temp 0041                                ___flmul@prod 003D  
                              ___fltol@exp1 002A                                        l2100 03B7  
                                      l2110 03CE                                        l2102 03BB  
                                      l2200 04C6                                        l2120 03E4  
                                      l2112 03CF                                        l2104 03BC  
                                      l3000 07D8                                        l2210 04F0  
                                      l2202 04DD                                        l2130 03F5  
                                      l2122 03E5                                        l2106 03C1  
                                      l2114 03D1                                        l3010 0864  
                                      l3002 0844                                        l2300 0E3A  
                                      l3100 008C                                        l2220 0519  
                                      l2212 04F4                                        l2204 04E1  
                                      l2140 0413                                        l2132 03FA  
                                      l2124 03EB                                        l2116 03D9  
                                      l2108 03C6                                        l3004 084A  
                                      l3020 0882                                        l2310 0E52  
                                      l2302 0E3F                                        l3110 00A8  
                                      l3102 0091                                        l2230 0587  
                                      l2222 0557                                        l2214 04F5  
                                      l2206 04E5                                        l2150 0427  
                                      l2142 0417                                        l2134 0402  
                                      l2126 03EF                                        l2118 03DE  
                                      l3030 0982                                        l3006 084E  
                                      l3022 088B                                        l3014 086B  
                                      l2400 0F76                                        l2320 0E67  
                                      l2312 0E57                                        l2304 0E47  
                                      l3200 0383                                        l3120 00D3  
                                      l3112 00AD                                        l3104 0099  
                                      l2240 05A2                                        l2232 058C  
                                      l2224 055D                                        l2216 04FE  
                                      l2208 04EE                                        l2160 043B  
                                      l2152 042B                                        l2144 041B  
                                      l2136 0403                                        l2128 03F0  
                                      l3032 0997                                        l3008 085B  
                                      l3016 0871                                        l2402 0F7B  
                                      l2410 0FAC                                        l2330 0E87  
                                      l2322 0E6C                                        l2314 0E5D  
                                      l2306 0E48                                        l3202 0391  
                                      l3130 0170                                        l3122 00F0  
                                      l3106 009B                                        l2242 05A7  
                                      l2250 05B3                                        l2226 0562  
                                      l2218 0503                                        l2170 044F  
                                      l2162 043F                                        l2154 042F  
                                      l2146 041F                                        l2138 0405  
                                      l3050 0C68                                        l3042 0C48  
                                      l3026 0966                                        l3018 0875  
                                      l3220 0B20                                        l3212 0AF8  
                                      l2420 0FE2                                        l2412 0FB9  
                                      l2404 0F89                                        l2340 0EA5  
                                      l2332 0E93                                        l2324 0E74  
                                      l2316 0E61                                        l2308 0E4A  
                                      l3204 0395                                        l3140 01D3  
                                      l3132 0179                                        l3124 010C  
                                      l3116 00B6                                        l3108 00A3  
                                      l2244 05AA                                        l2236 0595  
                                      l2228 0571                                        l2252 05B7  
                                      l2180 048F                                        l2172 0453  
                                      l2164 0443                                        l2156 0433  
                                      l2148 0423                                        l3052 0C6C  
                                      l3060 0C86                                        l3044 0C5D  
                                      l3036 0C32                                        l3028 0975  
                                      l3300 08BC                                        l3214 0AFE  
                                      l3230 0841                                        l3222 082D  
                                      l2422 0FE9                                        l2414 0FC7  
                                      l2406 0F8D                                        l2350 0ED0  
                                      l2334 0E97                                        l2326 0E75  
                                      l2318 0E62                                        l3206 0396  
                                      l3150 0273                                        l3142 01EC  
                                      l3134 0189                                        l3126 0138  
                                      l3118 00C6                                        l3310 08ED  
                                      l2270 05FF                                        l2262 05CA  
                                      l2254 05B8                                        l2246 05AC  
                                      l2238 059E                                        l2190 04A8  
                                      l2182 0498                                        l2166 0447  
                                      l2158 0437                                        l2174 0457  
                                      l3070 0CA2                                        l3046 0C5E  
                                      l3038 0C3F                                        l3302 08C6  
                                      l3216 0B09                                        l3240 0CD1  
                                      l3232 0842                                        l3224 083B  
                                      l2424 0FED                                        l2416 0FD6  
                                      l2408 0FA6                                        l2360 0EF5  
                                      l2352 0ED8                                        l2344 0EAE  
                                      l2328 0E77                                        l3208 03A1  
                                      l3160 02E1                                        l3152 0299  
                                      l3144 0209                                        l3136 01A6  
                                      l3128 0154                                        l3080 005B  
                                      l3072 0049                                        l2280 061B  
                                      l2272 0608                                        l2264 05CF  
                                      l2256 05BC                                        l2248 05B1  
                                      l2184 049A                                        l2192 04AC  
                                      l2176 0458                                        l2168 044B  
                                      l2096 03AA                                        l3048 0C66  
                                      l3304 08D9                                        l3218 0B1A  
                                      l3250 0CD6                                        l3242 0CD2  
                                      l3226 083F                                        l3322 176F  
                                      l3330 174C                                        l2426 0FEF  
                                      l2418 0FDA                                        l2370 0F20  
                                      l2362 0EF6                                        l2354 0EDA  
                                      l2346 0EC0                                        l2338 0EA0  
                                      l2290 0E23                                        l3170 02F9  
                                      l3162 02E5                                        l3154 02C1  
                                      l3146 0236                                        l3138 01B6  
                                      l3090 0077                                        l3082 0060  
                                      l3074 0050                                        l2282 061F  
                                      l2274 060D                                        l2266 05DD  
                                      l2258 05C2                                        l2194 04B8  
                                      l2186 049E                                        l2178 046F  
                                      l2098 03B1                                        l3066 0C8D  
                                      l3058 0C74                                        l3314 0A9C  
                                      l3306 08E5                                        l3260 0CF7  
                                      l3252 0CD7                                        l3244 0CD3  
                                      l3236 0CAE                                        l3228 0840  
                                      l3308 1745                                        l3324 1779  
                                      l2380 0F3D                                        l2356 0EDF  
                                      l2364 0EFF                                        l2372 0F24  
                                      l2348 0EC8                                        l2292 0E2A  
                                      l3180 031A                                        l3172 02FA  
                                      l3164 02E6                                        l3156 02CA  
                                      l3148 0246                                        l3092 007C  
                                      l3084 0065                                        l3076 0056  
                                      l2284 0621                                        l2276 0615  
                                      l2268 05E1                                        l2196 04BD  
                                      l2188 049F                                        l3068 0C9D  
                                      l3316 0AAE                                        l3340 0636  
                                      l2710 0D83                                        l3270 0D1E  
                                      l3262 0CFA                                        l3254 0CD8  
                                      l3246 0CD4                                        l3238 0CD0  
                                      l3326 177D                                        l2390 0F55  
                                      l2382 0F41                                        l2374 0F2A  
                                      l2366 0F11                                        l2358 0EF1  
                                      l2294 0E30                                        l3182 031F  
                                      l3190 0350                                        l3174 02FE  
                                      l3166 02EF                                        l3158 02D8  
                                      l3094 0082                                        l3086 006D  
                                      l3078 005A                                        l2286 062C  
                                      l2278 061A                                        l3318 0AE4  
                                      l3350 0649                                        l3342 0638  
                                      l2800 17F5                                        l2720 0DAE  
                                      l2712 0D93                                        l2704 0D6A  
                                      l3280 0D51                                        l3272 0D2D  
                                      l3264 0D09                                        l3256 0CE5  
                                      l3248 0CD5                                        l2392 0F56  
                                      l2384 0F42                                        l2376 0F32  
                                      l2368 0F12                                        l2296 0E34  
                                      l3192 035D                                        l3184 032D  
                                      l3176 0312                                        l3168 02F5  
                                      l3096 0086                                        l3088 006F  
                                      l2288 0630                                        l3360 0665  
                                      l3352 064E                                        l3344 063D  
                                      l3336 0632                                        l2802 17FC  
                                      l2810 17B2                                        l2730 0DE2  
                                      l2722 0DB5                                        l2706 0D6F  
                                      l3282 0D54                                        l3274 0D30  
                                      l3266 0D0C                                        l3258 0CE8  
                                      l2394 0F5A                                        l2386 0F4B  
                                      l2378 0F34                                        l2298 0E35  
                                      l3194 0368                                        l3186 0331  
                                      l3098 0087                                        l3370 06F7  
                                      l3362 0676                                        l3354 0656  
                                      l3346 0642                                        l3338 0635  
                                      l2812 17BD                                        l2804 17A8  
                                      l2740 0E15                                        l2732 0DE6  
                                      l2724 0DB9                                        l2716 0D9C  
                                      l2708 0D73                                        l2900 0BB5  
                                      l3284 0D63                                        l3276 0D3F  
                                      l3268 0D1B                                        l3292 1761  
                                      l2396 0F6E                                        l2388 0F51  
                                      l3196 0377                                        l3188 034A  
                                      l2820 0942                                        l3372 0705  
                                      l3364 06B2                                        l3356 065B  
                                      l3348 0645                                        l2806 17A9  
                                      l2742 0E19                                        l2734 0DF0  
                                      l2726 0DC7                                        l2718 0DA1  
                                      l2902 0BBA                                        l3278 0D42  
                                      l3294 176D                                        l3198 0381  
                                      l3286 07E7                                        l2830 0958  
                                      l2822 0945                                        l2814 0929  
                                      l2910 0A44                                        l3366 06D9  
                                      l3358 0660                                        l2808 17AF  
                                      l2744 0E1A                                        l2736 0DFA  
                                      l2728 0DD7                                        l2904 0BBF  
                                      l3288 07EB                                        l2840 0A02  
                                      l2832 095F                                        l2824 094C  
                                      l2816 0933                                        l2920 0A58  
                                      l2912 0A48                                        l3368 06DE  
                                      l2738 0E10                                        l2834 1754  
                                      l2850 0A2D                                        l2842 0A07  
                                      l2826 094F                                        l2818 0934  
                                      l2930 0A70                                        l2922 0A5E  
                                      l2914 0A4D                                        l3298 08BB  
                                      l2852 0A32                                        l2844 0A0D  
                                      l2836 09EC                                        l2828 0955  
                                      l2860 09C4                                        l2940 0A92  
                                      l2932 0A7A                                        l2924 0A61  
                                      l2916 0A4F                                        l2908 0A41  
                                      l2870 0B67                                        l2950 089E  
                                      l2854 0A38                                        l2838 09F1  
                                      l2846 0A16                                        l2862 09CC  
                                      l2942 0A97                                        l2934 0A80  
                                      l2926 0A68                                        l2918 0A53  
                                      l2880 0B78                                        l2872 0B69  
                                      l2864 0B5B                                        l2952 08A2  
                                      l2848 0A1C                                        l2856 09A3  
                                      l2936 0A87                                        l2928 0A6C  
                                      l2960 071B                                        l2794 17E3  
                                      l2890 0B90                                        l2882 0B7E  
                                      l2874 0B6D                                        l2866 0B5E  
                                      l2954 08B1                                        l2946 0895  
                                      l2858 09A8                                        l2938 0A8D  
                                      l2962 071F                                        l2796 17E7  
                                      l2892 0BA1                                        l2884 0B81  
                                      l2876 0B72                                        l2868 0B62  
                                      l2956 08B6                                        l2948 0897  
                                      l2980 076E                                        l2972 0739  
                                      l2964 0725                                        l2798 17EE  
                                      l2894 0BA7                                        l2886 0B88  
                                      l2878 0B76                                        l2990 079E  
                                      l2982 0778                                        l2974 074C  
                                      l2966 072C                                        l2896 0BA8  
                                      l2888 0B8C                                        l2992 07A0  
                                      l2984 077E                                        l2976 0759  
                                      l2968 0732                                        l2898 0BAF  
                                      l2994 07A9                                        l2978 0764  
                                      l2986 0791                                        l2996 07CC  
                                      l2988 0797                                        l2998 07D2  
                                      STR_1 0810                                        STR_2 0820  
                                      u3000 0E61                                        u3001 0E60  
                                      u3010 0E67                                        u3011 0E66  
                                      u3100 0F11                                        u3020 0E6C  
                                      u3101 0F10                                        u3021 0E6B  
                                      u3110 0F2A                                        u3030 0E87  
                                      u3111 0F29                                        u3031 0E86  
                                      u4000 0B6D                                        u3200 0F7B  
                                      u3120 0F32                                        u3040 0EA5  
                                      u4001 0B6C                                        u3201 0F7A  
                                      u3121 0F31                                        u3105 0F0D  
                                      u3041 0EA4                                        u4010 0B7E  
                                      u3210 0F8D                                        u3050 0EDF  
                                      u4011 0B7D                                        u3211 0F8C  
                                      u3051 0EDE                                        u3220 0F9C  
                                      u3140 0F41                                        u4100 0A53  
                                      u3141 0F40                                        u4101 0A52  
                                      u4030 0B90                                        u3230 0FB9  
                                      u2510 03BB                                        u4110 0A5E  
                                      u4031 0B8F                                        u3231 0FB8  
                                      u3135 0F36                                        u2511 03BA  
                                      u4111 0A5D                                        u3240 0FD6  
                                      u3160 0F55                                        u3080 0EF5  
                                      u4200 08B6                                        u2600 046F  
                                      u2520 03C1                                        u4025 0B82  
                                      u3241 0FD5                                        u3225 0F97  
                                      u3161 0F54                                        u3081 0EF4  
                                      u3065 0EE1                                        u4201 08B5  
                                      u2601 046E                                        u2521 03C0  
                                      u4050 0BA1                                        u3250 0FED  
                                      u3170 0F5A                                        u2610 047A  
                                      u2530 03C6                                        u4130 0A70  
                                      u4210 0725                                        u4051 0BA0  
                                      u3251 0FEC                                        u3235 0FB5  
                                      u3171 0F59                                        u3155 0F44  
                                      u3075 0EEA                                        u2611 0478  
                                      u2531 03C5                                        u4131 0A6F  
                                      u4211 0724                                        u3180 0F6E  
                                      u2700 04E1                                        u2620 047B  
                                      u2540 03E4                                        u4300 0C56  
                                      u4140 0A7A                                        u4220 0759  
                                      u4045 0B91                                        u3245 0FD2  
                                      u3181 0F6D                                        u2701 04E0  
                                      u2605 046B                                        u2541 03E3  
                                      u4141 0A79                                        u4125 0A62  
                                      u4221 0758                                        u4070 0BB5  
                                      u3190 0F75                                        u2710 04E5  
                                      u2630 048F                                        u2550 03EF  
                                      u4310 0C6C                                        u4230 0797  
                                      u4071 0BB4                                        u4055 0B9D  
                                      u3191 0F74                                        u3095 0EF8  
                                      u2711 04E4                                        u2631 048E  
                                      u2551 03EE                                        u4311 0C6B  
                                      u4231 0796                                        u4080 0BBA  
                                      u4400 0060                                        u2720 04F4  
                                      u2640 049E                                        u2560 03F5  
                                      u4320 0C73                                        u4160 0A8D  
                                      u4240 07E6                                        u4081 0BB9  
                                      u4065 0BA9                                        u4401 005F  
                                      u2721 04F3                                        u2641 049D  
                                      u2561 03F4                                        u4321 0C72  
                                      u4305 0C51                                        u4161 0A8C  
                                      u4145 0A76                                        u4241 07E5  
                                      u4225 0755                                        u4410 0065  
                                      u2810 05A2                                        u2570 03FA  
                                      u4170 0A92                                        u4090 0A48  
                                      u4250 084A                                        u4411 0064  
                                      u2811 05A1                                        u2571 03F9  
                                      u4171 0A91                                        u4155 0A81  
                                      u4091 0A47                                        u4251 0849  
                                      u4180 08A2                                        u4420 0086  
                                      u2900 05F0                                        u2820 05A7  
                                      u2740 0519                                        u2660 04B4  
                                      u2580 0413                                        u4340 0C85  
                                      u4260 085B                                        u4181 08A1  
                                      u4501 0162                                        u4421 0085  
                                      u2821 05A6                                        u2805 0597  
                                      u2741 0518                                        u2661 04B3  
                                      u2581 0412                                        u4341 0C84  
                                      u4245 07E2                                        u4261 085A  
                                      u4502 0169                                        u4430 008C  
                                      u2910 05FF                                        u2830 05B1  
                                      u2670 04B8                                        u2590 0417  
                                      u4350 0C8C                                        u4270 0871  
                                      u4503 0170                                        u4431 008B  
                                      u2911 05FE                                        u2831 05B0  
                                      u2751 0530                                        u2743 0515  
                                      u2735 04F7                                        u2671 04B7  
                                      u2655 04A1                                        u2591 0416  
                                      u4351 0C8B                                        u4335 0C75  
                                      u4271 0870                                        u4600 02A7  
                                      u4440 0091                                        u2920 0608  
                                      u2840 05B7                                        u2760 0544  
                                      u2752 0531                                        u2680 04BD  
                                      u4280 0882                                        u4521 0198  
                                      u4441 0090                                        u2921 0607  
                                      u2905 05EB                                        u2841 05B6  
                                      u2761 0545                                        u2753 0536  
                                      u2681 04BC                                        u4265 0857  
                                      u4281 0881                                        u3810 0DE6  
                                      u3730 0D6F                                        u4522 019F  
                                      u4450 00A8                                        u2930 060D  
                                      u2850 05BC                                        u2770 0562  
                                      u2762 054A                                        u2754 0537  
                                      u4370 0C9D                                        u4290 0C3F  
                                      u3811 0DE5                                        u3731 0D6E  
                                      u4195 08A9                                        u4611 02B3  
                                      u4531 01C5                                        u4523 01A6  
                                      u4515 0172                                        u4451 00A7  
                                      u2931 060C                                        u2851 05BB  
                                      u2771 0561                                        u2763 054B  
                                      u2755 053C                                        u2691 04CF  
                                      u4371 0C9C                                        u4291 0C3E  
                                      u3900 17FC                                        u3820 0DEC  
                                      u3740 0D73                                        u4700 031F  
                                      u4612 02BA                                        u4532 01CC  
                                      u4460 00AD                                        u2940 061A  
                                      u2860 05C2                                        u2780 0587  
                                      u2756 053D                                        u2692 04D6  
                                      u4380 0CA2                                        u3901 17FB  
                                      u3821 0DEB                                        u3805 0DDB  
                                      u3741 0D72                                        u4701 031E  
                                      u4613 02C1                                        u4605 02A2  
                                      u4533 01D3                                        u4461 00AC  
                                      u2941 0619                                        u2861 05C1  
                                      u2781 0586                                        u2693 04DD  
                                      u4381 0CA1                                        u4365 0C8F  
                                      u4285 087E                                        u3830 0DF0  
                                      u3750 0D93                                        u4710 0331  
                                      u4390 005A                                        u2950 061F  
                                      u2870 05C9                                        u2790 058C  
                                      _INTF 0059                                        u3831 0DEF  
                                      u3751 0D92                                        u4711 0330  
                                      u4551 01FB                                        u4471 00FE  
                                      u4391 0059                                        u2951 061E  
                                      u2871 05C8                                        u2791 058B  
                                      u3840 0E05                                        u4800 0D2D  
                                      u4720 0340                                        u4640 02E5  
                                      u4552 0202                                        u4472 0105  
                                      u2960 0630                                        u2880 05CF  
                                      u3920 09F1                                        u4801 0D2C  
                                      u4641 02E4                                        u4625 02C3  
                                      u4561 0228                                        u4553 0209  
                                      u4545 01D5                                        u4481 011A  
                                      u4473 010C                                        u2961 062F  
                                      u2881 05CE                                        u3921 09F0  
                                      u3850 0E15                                        u3770 0DB4  
                                      u4810 0D3F                                        u2970 0E34  
                                      u4730 035D                                        u4562 022F  
                                      u4482 0121                                        u2890 05E1  
                                      u3851 0E14                                        u3771 0DB3  
                                      u4811 0D3E                                        u2971 0E33  
                                      u4731 035C                                        u4635 02DA  
                                      u4571 0255                                        u4563 0236  
                                      u4491 0146                                        u4483 0128  
                                      u2891 05E0                                        u3915 0937  
                                      u3860 0E19                                        u4820 0D51  
                                      u2980 0E3A                                        u4740 0377  
                                      u4660 02F9                                        u4580 027F  
                                      u4572 025C                                        u4492 014D  
                                      u3940 0A1C                                        u3861 0E18  
                                      u3845 0E00                                        u3765 0DA6  
                                      u4821 0D50                                        u4805 0D29  
                                      u2981 0E39                                        u4741 0376  
                                      u4725 033B                                        u4661 02F8  
                                      u4573 0263                                        u4493 0154  
                                      u3941 0A1B                                        u3870 17E7  
                                      u3790 0DD6                                        u4830 0D63  
                                      u2990 0E3F                                        u4750 0395  
                                      u4670 02FE                                        u3871 17E6  
                                      u3791 0DD5                                        u4831 0D62  
                                      u4815 0D3B                                        u2991 0E3E  
                                      u4751 0394                                        u4735 0359  
                                      u4671 02FD                                        u4655 02E8  
                                      u4591 028B                                        u3935 09F9  
                                      u3880 17EE                                        u4760 0CE5  
                                      u4680 0312                                        u4592 0292  
                                      u3960 09B2                                        u4840 08EB  
                                      u3881 17ED                                        u3785 0DC8  
                                      u4825 0D4D                                        u4761 0CE4  
                                      u4745 0373                                        u4681 0311  
                                      u4593 0299                                        u4585 027A  
                                      u4841 08EA                                        u3890 17F5  
                                      u4770 0CF7                                        u4690 0319  
                                      u3970 09D6                                        u3891 17F4  
                                      u4907 0B15                                        u4835 0D5F  
                                      u4771 0CF6                                        u4691 0318  
                                      u3955 0A24                                        u4780 0D09  
                                      u3980 09E8                                        u4917 0B26  
                                      u4781 0D08                                        u4765 0CE1  
                                      u3981 09E7                            ?_verificaBtnMais 0070  
                                      u3990 0B62                                        u4790 0D1B  
                                      u4927 17B8                                        u3991 0B61  
                                      u4791 0D1A                                        u4775 0CF3  
                                      u4785 0D05                                        u4857 099D  
                                      u4795 0D17                                        u4867 0949  
                                      u4877 095C                                        u4887 07EF  
                                      u4897 0B04                                 main@leitura 00B4  
                         ?_Lcd_Write_String 0025                                        _main 0632  
                                      btemp 007E                  ??_verificaInterrupcaoTimer 0073  
                                      start 000E                          ??_Lcd_Write_String 0027  
                           ___fldiv@new_exp 0055                             __end_of_Lcd_Cmd 17C1  
                   intToASCIIinCustomBase@i 0036                     intToASCIIinCustomBase@j 0038  
                             _atualizarLeds 0CAE                             ??_configPWMRegs 0020  
                           _handleSetupMenu 08BB                               ___fltol@sign1 0029  
                           __end_of___fladd 0632                                       ?_main 0070  
                           __end_of___fldiv 1000                             __end_of___awdiv 0BC4  
                           __end_of___awmod 0A9C                             __end_of___flmul 03AA  
                           __end_of___fltol 0CAE                             ___awdiv@divisor 0020  
                                     i1l160 0C2B                                       i1l153 17DD  
                                     i1l154 17DE                                       i1l155 17DF  
                                     i1l163 0C31                                       i1l172 179C  
                                     i1l167 1791                             ___awdiv@counter 0025  
                         ?_verificaBtnMenos 0070                                       _TMR1H 000F  
                                     _TMR1L 000E                                       _TRISB 0086  
                                     _TRISC 0087                                       _TRISD 0088  
                        ??_verificaBtnMenos 0020                                       pclath 000A  
                                     status 0003                                       wtemp0 007E  
                          __end_of_Lcd_Init 0B5B                            __end_of_Lcd_Port 1800  
                   ?_intToASCIIinCustomBase 0029                    atualizarLeds@porcentagem 0029  
                           __initialization 0011                                ?_interrupcao 0070  
                              __end_of_main 071B                              ?_atualizarLeds 0029  
                                    ??_main 0067                                      _ADRESH 001E  
                                    _ADRESL 009E                                      _CCPR1L 0015  
                          ___awdiv@dividend 0022                                      i1l2040 0BF1  
                                    i1l2032 0BC4                                      i1l2042 0BFA  
                                    i1l2034 0BC7                                      i1l2044 0C14  
                                    i1l2036 0BDF                                      i1l2046 0C23  
                                    i1l2038 0BE2                                      i1l1660 17CD  
                                    i1l1662 17D9                                      i1l1654 17C1  
                                    i1l1656 17C5                                      i1l1658 17CB  
                                    i1l2660 1785                                      i1l2662 178A  
                                    i1l2664 178D                                      i1l2752 1792  
                                    i1l2666 178F                                      i1l2658 177F  
                                    i1l2754 1797                                      u240_20 0C23  
                                    u240_21 0C22                                      u240_25 0C1F  
                                    u237_20 0BDF                                      u237_21 0BDE  
                                    u237_25 0BDB                                      u238_20 0BF1  
                                    u238_21 0BF0                                      u238_25 0BED  
                                    u239_20 0C14                                      u239_21 0C13  
                                    u239_25 0C10                                      u177_20 17C5  
                                    u177_21 17C4                                      u178_20 17CB  
                                    u178_21 17CA                                      u371_20 1785  
                                    u371_21 1784                                      u493_27 17D3  
                                 ??_Lcd_Cmd 0021                                      _TMR1IF 0060  
                                    _TMR2ON 0092                      main@texto_luminosidade 00A0  
                          __end_of___xxtofl 0E23              __end_of_intToASCIIinCustomBase 07E7  
                   __end_of_handleSetupMenu 08ED                                   ??___fladd 004B  
                                 ??___fldiv 004B                                   ??___awdiv 0024  
                                 ??___awmod 0024                                   ??___flmul 0031  
                                 ??___fltol 0024                 ?_converteLeituraAnParaVolts 005D  
                          ___awdiv@quotient 0027                             ___awmod@divisor 0020  
                           ___awmod@counter 0025                                __pdataCOMMON 007A  
                                    saved_w 007E                            _configIntExterns 1745  
                           Lcd_Set_Cursor@a 0027                             Lcd_Set_Cursor@b 0024  
                           Lcd_Set_Cursor@y 0029                             Lcd_Set_Cursor@z 0028  
                              ___xxtofl@arg 002A                                ___xxtofl@exp 0029  
                              ___xxtofl@val 0020                     __end_of__initialization 0045  
handleSetupMenu@texto_luminosidade_desejada 003D            __end_of_verificaInterrupcaoTimer 1792  
         converteLeituraAnParaVolts@leitura 005D                           __end_of_Lcd_Clear 1761  
                                ___fltol@f1 0020                             ??_atualizarLeds 002B  
                            __pcstackCOMMON 0070                                __pidataBANK0 1743  
                              __pidataBANK1 1741                 ?_verificaInterrupcaoExterna 0070  
                            _Lcd_Set_Cursor 09E9                              _OPTION_REGbits 0081  
                                 ?_Lcd_Init 0070                                   ?_Lcd_Port 0070  
                 converteVoltsParaLux@v_ldr 0057                                  __pbssBANK0 0068  
                                __pbssBANK1 00B7                  intToASCIIinCustomBase@base 002C  
                intToASCIIinCustomBase@temp 0031                           __end_of__Umul8_16 08BB  
                                __pmaintext 0632                            ?_handleSetupMenu 0070  
                                __pintentry 0004                                     _CCP1CON 0017  
                    __end_of_Lcd_Set_Cursor 0A41                                   ?___xxtofl 0020  
                                ??_Lcd_Init 0024                                  ??_Lcd_Port 0020  
                                __stringtab 0800                              _Lcd_Write_Char 0926  
                                   _Lcd_Cmd 17A5                                  _escreveLCD 0963  
                         __end_of_ajustaPWM 0C32                           __end_of_configADC 0844  
                                   ___fladd 03AA                                     ___fldiv 0E23  
                                   ___awdiv 0B5B                                     ___awmod 0A41  
                                   ___flmul 0049                                     ___fltol 0C32  
                           ?_Lcd_Set_Cursor 0024                       __end_of_configPWMRegs 176F  
                                   __ptext1 08BB                                     __ptext2 086B  
                                   __ptext3 0844                                     __ptext4 071B  
                                   __ptext5 0A41                                     __ptext6 0963  
                                   __ptext7 09A3                                     __ptext8 0926  
                                   __ptext9 09E9                                  _menu_ativo 0068  
                                 _T1CONbits 0010                   ?_verificaInterrupcaoTimer 0070  
                                ??___xxtofl 0024                            ___awmod@dividend 0022  
                    __end_of_Lcd_Write_Char 0963                        end_of_initialization 0045  
                           _porcentagem_PWM 00B9                       _luminosidade_desejada 006A  
                  __end_of_configIntExterns 174C                              main@texto_menu 00B6  
                                 Lcd_Port@a 0020                                   _PORTBbits 0006  
                                 _PORTCbits 0007                                   _PORTDbits 0008  
                              _btn_mais_aux 0078                                 ___fladd@grs 0056  
                             ___xxtofl@sign 0028                               ??_getValorADC 0022  
                               ___fldiv@grs 0057                                 ___fldiv@rem 0050  
                           ?_Lcd_Write_Char 0070                           Lcd_Write_String@a 0025  
                         Lcd_Write_String@i 002A                                 ___flmul@grs 0038  
                               ?_escreveLCD 002C                __end_of_converteVoltsParaLux 0AF8  
                             ??_configTimer 0020                         _configWatchdogTimer 174C  
                                 _Lcd_Clear 1754                            _Lcd_Write_String 09A3  
                             __pidataCOMMON 082B                           ??_verificaBtnMais 0020  
                       start_initialization 0011                        ?_configWatchdogTimer 0070  
                       __end_of_getValorADC 0800                            _verificaBtnMenos 086B  
                                ?_Lcd_Clear 0070                       __end_of_atualizarLeds 0D67  
                                 __Umul8_16 0892                                 __pdataBANK0 006A  
                               __pdataBANK1 00B9                         __end_of_configTimer 177F  
                           Lcd_Write_Char@a 0024                             Lcd_Write_Char@y 0023  
                                 ___fladd@a 0047                                   ___fladd@b 0043  
                                 ___fldiv@a 0043                                   ___fldiv@b 0047  
                                 ___flmul@a 002D                                   ___flmul@b 0029  
                               __pbssCOMMON 0076                                   ___latbits 0002  
                     ??_configWatchdogTimer 0020                               __pcstackBANK0 0020  
                             __pcstackBANK1 00A0                    ??_intToASCIIinCustomBase 002E  
               intToASCIIinCustomBase@resto 0034                                    ?_Lcd_Cmd 0070  
                             ??_interrupcao 0073                            ??_Lcd_Set_Cursor 0025  
                                  ?___fladd 0043                                    ?___fldiv 0043  
                                  ?___awdiv 0020                                    ?___awmod 0020  
                                  ?___flmul 0029                                    ?___fltol 0020  
                                ?__Umul8_16 0020                                   _ajustaPWM 0BC4  
                                 _configADC 082D                     converteVoltsParaLux@lux 0063  
                                 __pstrings 0800                          _luminosidade_atual 00B7  
           intToASCIIinCustomBase@resultado 002B                        _converteVoltsParaLux 0A9C  
                               _getValorADC 07E7                           interrupt_function 0004  
                                  _PIE1bits 008C                                 _configTimer 176F  
                                  Lcd_Cmd@a 0023                                    _PIR1bits 000C  
                               ??_Lcd_Clear 0024                           ?_configIntExterns 0070  
                                ?_ajustaPWM 0070                                  ?_configADC 0070  
                        ??_configIntExterns 0020                ??_converteLeituraAnParaVolts 0061  
                       __end_of_interrupcao 17A5                                  _ADCON0bits 001F  
                               __stringbase 080F                                  _ADCON1bits 009F  
                          escreveLCD@linha1 002F                            escreveLCD@linha2 002C  
                     ?_converteVoltsParaLux 0057                            ??_Lcd_Write_Char 0021  
                                 main@v_ldr 00B0                                    _Lcd_Init 0AF8  
                                  _Lcd_Port 17E0                    __end_of_Lcd_Write_String 09E9  
                _intToASCIIinCustomBase$388 0032                                ??_escreveLCD 002D  
                           _verificaBtnMais 0844                             _margem_erro_lux 007A  
                               ??__Umul8_16 0022                    _verificaInterrupcaoTimer 177F  
              ??_verificaInterrupcaoExterna 0070                          __end_of__stringtab 0810  
                  __end_of_verificaBtnMenos 0892                                    ___xxtofl 0D67  
                        __end_of_escreveLCD 09A3                                    __ptext10 1754  
                                  __ptext11 07E7                                    __ptext20 176F  
                                  __ptext12 0A9C                                    __ptext21 1761  
                                  __ptext13 0C32                                    __ptext30 1792  
                                  __ptext22 1745                                    __ptext14 03AA  
                                  __ptext31 177F                                    __ptext23 082D  
                                  __ptext15 08ED                                    __ptext32 0BC4  
                                  __ptext24 0CAE                                    __ptext16 0049  
                                  __ptext33 17C1                                    __ptext25 0B5B  
                                  __ptext17 0892                                    __ptext26 0D67  
                                  __ptext18 0E23                                    __ptext27 0AF8  
                                  __ptext19 174C                                    __ptext28 17A5  
                                  __ptext29 17E0                           ??_handleSetupMenu 003C  
                atualizarLeds@numLEDsAcesos 002D                                 _interrupcao 1792  
                    _intToASCIIinCustomBase 071B                                 ??_ajustaPWM 0070  
                               ??_configADC 0020                intToASCIIinCustomBase@indice 003A  
                    ??_converteVoltsParaLux 005B                intToASCIIinCustomBase@numero 0029  
                             _configPWMRegs 1761                                  _INTCONbits 000B  
                        Lcd_Write_Char@temp 0022                     __end_of_verificaBtnMais 086B  
                                  intlevel1 0000                       converteVoltsParaLux@a 005B  
                     converteVoltsParaLux@b 005F                                   stringcode 080A  
        __end_of_converteLeituraAnParaVolts 0926                  _converteLeituraAnParaVolts 08ED  
                        Lcd_Set_Cursor@temp 002A                 __end_of_configWatchdogTimer 1754  
                            ?_configPWMRegs 0070                      __Umul8_16@multiplicand 0020  
                                  stringdir 080A                                    stringtab 0800  
                              ?_getValorADC 0020                               ___fladd@signs 0053  
                              ___fladd@aexp 0054                                ___fladd@bexp 0055  
                      __Umul8_16@multiplier 0028                                ?_configTimer 0070  
                         __Umul8_16@product 0024                               _btn_menos_aux 0076  
